EXPORTS 
	?$TSS0@?1??Ref@?$Singleton@V?$DL_Algorithm_ECDSA@VECP@CryptoPP@@@CryptoPP@@U?$NewObject@V?$DL_Algorithm_ECDSA@VECP@CryptoPP@@@CryptoPP@@@2@$0A@@CryptoPP@@QEBAAEBV?$DL_Algorithm_ECDSA@VECP@CryptoPP@@@3@XZ@4HA 	 DATA
	?$TSS0@?1??Ref@?$Singleton@VDL_SignatureMessageEncodingMethod_DSA@CryptoPP@@U?$NewObject@VDL_SignatureMessageEncodingMethod_DSA@CryptoPP@@@2@$0A@@CryptoPP@@QEBAAEBVDL_SignatureMessageEncodingMethod_DSA@3@XZ@4HA 	 DATA
	?$TSS0@?1??_GetStaticAmbientSchedulerStorage@details@Concurrency@@YAPEAV?$shared_ptr@Uscheduler_interface@Concurrency@@@std@@XZ@4HA 	 DATA
	??_R0?AU?$_Task_impl@E@details@Concurrency@@@8 	 DATA
	??_R0?AU?$wrapexcept@Vbad_format_string@io@boost@@@boost@@@8 	 DATA
	??_R0?AU?$wrapexcept@Vbad_get@boost@@@boost@@@8 	 DATA
	??_R0?AU?$wrapexcept@Vbad_optional_access@boost@@@boost@@@8 	 DATA
	??_R0?AU?$wrapexcept@Vfailure@ios_base@std@@@boost@@@8 	 DATA
	??_R0?AU?$wrapexcept@Vtoo_few_args@io@boost@@@boost@@@8 	 DATA
	??_R0?AU?$wrapexcept@Vtoo_many_args@io@boost@@@boost@@@8 	 DATA
	??_R0?AUECPPoint@CryptoPP@@@8 	 DATA
	??_R0?AUFilterPutSpaceHelper@CryptoPP@@@8 	 DATA
	??_R0?AUInputRejected@?$InputRejecting@VBufferedTransformation@CryptoPP@@@CryptoPP@@@8 	 DATA
	??_R0?AUInputRejected@?$InputRejecting@VFilter@CryptoPP@@@CryptoPP@@@8 	 DATA
	??_R0?AU_TaskProcHandle@details@Concurrency@@@8 	 DATA
	??_R0?AU_Task_impl_base@details@Concurrency@@@8 	 DATA
	??_R0?AUscheduler_interface@Concurrency@@@8 	 DATA
	??_R0?AV<lambda_052e919cc0e5399df76dff3972c0cac1>@@@8 	 DATA
	??_R0?AV<lambda_2fa3e3d11fb97352afa77a4a13bfb543>@@@8 	 DATA
	??_R0?AV<lambda_763529b0c7473cbc215a52d189ac9b18>@@@8 	 DATA
	??_R0?AV<lambda_f25c37099038263181b5186a3fa41b37>@@@8 	 DATA
	??_R0?AV?$ASN1CryptoMaterial@VPrivateKey@CryptoPP@@@CryptoPP@@@8 	 DATA
	??_R0?AV?$ASN1CryptoMaterial@VPublicKey@CryptoPP@@@CryptoPP@@@8 	 DATA
	??_R0?AV?$AbstractGroup@UECPPoint@CryptoPP@@@CryptoPP@@@8 	 DATA
	??_R0?AV?$AlgorithmImpl@V?$DL_SignerBase@UECPPoint@CryptoPP@@@CryptoPP@@V?$DL_SS@U?$DL_Keys_ECDSA@VECP@CryptoPP@@@CryptoPP@@V?$DL_Algorithm_ECDSA@VECP@CryptoPP@@@2@VDL_SignatureMessageEncodingMethod_DSA@2@VSHA256@2@H@2@@CryptoPP@@@8 	 DATA
	??_R0?AV?$AlgorithmImpl@V?$DL_VerifierBase@UECPPoint@CryptoPP@@@CryptoPP@@V?$DL_SS@U?$DL_Keys_ECDSA@VECP@CryptoPP@@@CryptoPP@@V?$DL_Algorithm_ECDSA@VECP@CryptoPP@@@2@VDL_SignatureMessageEncodingMethod_DSA@2@VSHA256@2@H@2@@CryptoPP@@@8 	 DATA
	??_R0?AV?$AlgorithmImpl@V?$DL_VerifierBase@UECPPoint@CryptoPP@@@CryptoPP@@V?$DL_SS@U?$DL_Keys_ECDSA@VECP@CryptoPP@@@CryptoPP@@V?$DL_Algorithm_ECDSA@VECP@CryptoPP@@@2@VDL_SignatureMessageEncodingMethod_DSA@2@VSHA384@2@H@2@@CryptoPP@@@8 	 DATA
	??_R0?AV?$AlgorithmImpl@V?$IteratedHash@IU?$EnumToType@W4ByteOrder@CryptoPP@@$00@CryptoPP@@$0EA@VHashTransformation@2@@CryptoPP@@VSHA256@2@@CryptoPP@@@8 	 DATA
	??_R0?AV?$AlgorithmImpl@V?$IteratedHash@_KU?$EnumToType@W4ByteOrder@CryptoPP@@$00@CryptoPP@@$0IA@VHashTransformation@2@@CryptoPP@@VSHA384@2@@CryptoPP@@@8 	 DATA
	??_R0?AV?$AlgorithmParametersTemplate@H@CryptoPP@@@8 	 DATA
	??_R0?AV?$AlgorithmParametersTemplate@PEBD@CryptoPP@@@8 	 DATA
	??_R0?AV?$AlgorithmParametersTemplate@PEBH@CryptoPP@@@8 	 DATA
	??_R0?AV?$AlgorithmParametersTemplate@VConstByteArrayParameter@CryptoPP@@@CryptoPP@@@8 	 DATA
	??_R0?AV?$AlgorithmParametersTemplate@_N@CryptoPP@@@8 	 DATA
	??_R0?AV?$AutoSignaling@V?$InputRejecting@VBufferedTransformation@CryptoPP@@@CryptoPP@@@CryptoPP@@@8 	 DATA
	??_R0?AV?$ClonableImpl@VSHA256@CryptoPP@@V?$AlgorithmImpl@V?$IteratedHash@IU?$EnumToType@W4ByteOrder@CryptoPP@@$00@CryptoPP@@$0EA@VHashTransformation@2@@CryptoPP@@VSHA256@2@@2@@CryptoPP@@@8 	 DATA
	??_R0?AV?$ClonableImpl@VSHA384@CryptoPP@@V?$AlgorithmImpl@V?$IteratedHash@_KU?$EnumToType@W4ByteOrder@CryptoPP@@$00@CryptoPP@@$0IA@VHashTransformation@2@@CryptoPP@@VSHA384@2@@2@@CryptoPP@@@8 	 DATA
	??_R0?AV?$CustomFlushPropagation@VSink@CryptoPP@@@CryptoPP@@@8 	 DATA
	??_R0?AV?$CustomSignalPropagation@VSink@CryptoPP@@@CryptoPP@@@8 	 DATA
	??_R0?AV?$DL_Algorithm_ECDSA@VECP@CryptoPP@@@CryptoPP@@@8 	 DATA
	??_R0?AV?$DL_Algorithm_GDSA@UECPPoint@CryptoPP@@@CryptoPP@@@8 	 DATA
	??_R0?AV?$DL_Base@V?$DL_PrivateKey@UECPPoint@CryptoPP@@@CryptoPP@@@CryptoPP@@@8 	 DATA
	??_R0?AV?$DL_Base@V?$DL_PublicKey@UECPPoint@CryptoPP@@@CryptoPP@@@CryptoPP@@@8 	 DATA
	??_R0?AV?$DL_ElgamalLikeSignatureAlgorithm@UECPPoint@CryptoPP@@@CryptoPP@@@8 	 DATA
	??_R0?AV?$DL_FixedBasePrecomputation@UECPPoint@CryptoPP@@@CryptoPP@@@8 	 DATA
	??_R0?AV?$DL_FixedBasePrecomputationImpl@UECPPoint@CryptoPP@@@CryptoPP@@@8 	 DATA
	??_R0?AV?$DL_GroupParameters@UECPPoint@CryptoPP@@@CryptoPP@@@8 	 DATA
	??_R0?AV?$DL_GroupParametersImpl@V?$EcPrecomputation@VECP@CryptoPP@@@CryptoPP@@V?$DL_FixedBasePrecomputationImpl@UECPPoint@CryptoPP@@@2@V?$DL_GroupParameters@UECPPoint@CryptoPP@@@2@@CryptoPP@@@8 	 DATA
	??_R0?AV?$DL_GroupParameters_EC@VECP@CryptoPP@@@CryptoPP@@@8 	 DATA
	??_R0?AV?$DL_GroupPrecomputation@UECPPoint@CryptoPP@@@CryptoPP@@@8 	 DATA
	??_R0?AV?$DL_Key@UECPPoint@CryptoPP@@@CryptoPP@@@8 	 DATA
	??_R0?AV?$DL_KeyImpl@VPKCS8PrivateKey@CryptoPP@@V?$DL_GroupParameters_EC@VECP@CryptoPP@@@2@VOID@2@@CryptoPP@@@8 	 DATA
	??_R0?AV?$DL_KeyImpl@VX509PublicKey@CryptoPP@@V?$DL_GroupParameters_EC@VECP@CryptoPP@@@2@VOID@2@@CryptoPP@@@8 	 DATA
	??_R0?AV?$DL_ObjectImpl@V?$DL_SignerBase@UECPPoint@CryptoPP@@@CryptoPP@@U?$DL_SignatureSchemeOptions@V?$DL_SS@U?$DL_Keys_ECDSA@VECP@CryptoPP@@@CryptoPP@@V?$DL_Algorithm_ECDSA@VECP@CryptoPP@@@2@VDL_SignatureMessageEncodingMethod_DSA@2@VSHA256@2@H@CryptoPP@@U?$DL_Keys_ECDSA@VECP@CryptoPP@@@2@V?$DL_Algorithm_ECDSA@VECP@CryptoPP@@@2@VDL_SignatureMessageEncodingMethod_DSA@2@VSHA256@2@@2@V?$DL_PrivateKey_WithSignaturePairwiseConsistencyTest@V?$DL_PrivateKey_EC@VECP@CryptoPP@@@CryptoPP@@U?$ECDSA@VECP@CryptoPP@@VSHA256@2@@2@@2@@CryptoPP@@@8 	 DATA
	??_R0?AV?$DL_ObjectImpl@V?$DL_VerifierBase@UECPPoint@CryptoPP@@@CryptoPP@@U?$DL_SignatureSchemeOptions@V?$DL_SS@U?$DL_Keys_ECDSA@VECP@CryptoPP@@@CryptoPP@@V?$DL_Algorithm_ECDSA@VECP@CryptoPP@@@2@VDL_SignatureMessageEncodingMethod_DSA@2@VSHA256@2@H@CryptoPP@@U?$DL_Keys_ECDSA@VECP@CryptoPP@@@2@V?$DL_Algorithm_ECDSA@VECP@CryptoPP@@@2@VDL_SignatureMessageEncodingMethod_DSA@2@VSHA256@2@@2@V?$DL_PublicKey_EC@VECP@CryptoPP@@@2@@CryptoPP@@@8 	 DATA
	??_R0?AV?$DL_ObjectImpl@V?$DL_VerifierBase@UECPPoint@CryptoPP@@@CryptoPP@@U?$DL_SignatureSchemeOptions@V?$DL_SS@U?$DL_Keys_ECDSA@VECP@CryptoPP@@@CryptoPP@@V?$DL_Algorithm_ECDSA@VECP@CryptoPP@@@2@VDL_SignatureMessageEncodingMethod_DSA@2@VSHA384@2@H@CryptoPP@@U?$DL_Keys_ECDSA@VECP@CryptoPP@@@2@V?$DL_Algorithm_ECDSA@VECP@CryptoPP@@@2@VDL_SignatureMessageEncodingMethod_DSA@2@VSHA384@2@@2@V?$DL_PublicKey_EC@VECP@CryptoPP@@@2@@CryptoPP@@@8 	 DATA
	??_R0?AV?$DL_ObjectImplBase@V?$DL_SignerBase@UECPPoint@CryptoPP@@@CryptoPP@@U?$DL_SignatureSchemeOptions@V?$DL_SS@U?$DL_Keys_ECDSA@VECP@CryptoPP@@@CryptoPP@@V?$DL_Algorithm_ECDSA@VECP@CryptoPP@@@2@VDL_SignatureMessageEncodingMethod_DSA@2@VSHA256@2@H@CryptoPP@@U?$DL_Keys_ECDSA@VECP@CryptoPP@@@2@V?$DL_Algorithm_ECDSA@VECP@CryptoPP@@@2@VDL_SignatureMessageEncodingMethod_DSA@2@VSHA256@2@@2@V?$DL_PrivateKey_WithSignaturePairwiseConsistencyTest@V?$DL_PrivateKey_EC@VECP@CryptoPP@@@CryptoPP@@U?$ECDSA@VECP@CryptoPP@@VSHA256@2@@2@@2@@CryptoPP@@@8 	 DATA
	??_R0?AV?$DL_ObjectImplBase@V?$DL_VerifierBase@UECPPoint@CryptoPP@@@CryptoPP@@U?$DL_SignatureSchemeOptions@V?$DL_SS@U?$DL_Keys_ECDSA@VECP@CryptoPP@@@CryptoPP@@V?$DL_Algorithm_ECDSA@VECP@CryptoPP@@@2@VDL_SignatureMessageEncodingMethod_DSA@2@VSHA256@2@H@CryptoPP@@U?$DL_Keys_ECDSA@VECP@CryptoPP@@@2@V?$DL_Algorithm_ECDSA@VECP@CryptoPP@@@2@VDL_SignatureMessageEncodingMethod_DSA@2@VSHA256@2@@2@V?$DL_PublicKey_EC@VECP@CryptoPP@@@2@@CryptoPP@@@8 	 DATA
	??_R0?AV?$DL_ObjectImplBase@V?$DL_VerifierBase@UECPPoint@CryptoPP@@@CryptoPP@@U?$DL_SignatureSchemeOptions@V?$DL_SS@U?$DL_Keys_ECDSA@VECP@CryptoPP@@@CryptoPP@@V?$DL_Algorithm_ECDSA@VECP@CryptoPP@@@2@VDL_SignatureMessageEncodingMethod_DSA@2@VSHA384@2@H@CryptoPP@@U?$DL_Keys_ECDSA@VECP@CryptoPP@@@2@V?$DL_Algorithm_ECDSA@VECP@CryptoPP@@@2@VDL_SignatureMessageEncodingMethod_DSA@2@VSHA384@2@@2@V?$DL_PublicKey_EC@VECP@CryptoPP@@@2@@CryptoPP@@@8 	 DATA
	??_R0?AV?$DL_PrivateKey@UECPPoint@CryptoPP@@@CryptoPP@@@8 	 DATA
	??_R0?AV?$DL_PrivateKeyImpl@V?$DL_GroupParameters_EC@VECP@CryptoPP@@@CryptoPP@@@CryptoPP@@@8 	 DATA
	??_R0?AV?$DL_PrivateKey_EC@VECP@CryptoPP@@@CryptoPP@@@8 	 DATA
	??_R0?AV?$DL_PrivateKey_WithSignaturePairwiseConsistencyTest@V?$DL_PrivateKey_EC@VECP@CryptoPP@@@CryptoPP@@U?$ECDSA@VECP@CryptoPP@@VSHA256@2@@2@@CryptoPP@@@8 	 DATA
	??_R0?AV?$DL_PublicKey@UECPPoint@CryptoPP@@@CryptoPP@@@8 	 DATA
	??_R0?AV?$DL_PublicKeyImpl@V?$DL_GroupParameters_EC@VECP@CryptoPP@@@CryptoPP@@@CryptoPP@@@8 	 DATA
	??_R0?AV?$DL_PublicKey_EC@VECP@CryptoPP@@@CryptoPP@@@8 	 DATA
	??_R0?AV?$DL_SignatureSchemeBase@VPK_Signer@CryptoPP@@V?$DL_PrivateKey@UECPPoint@CryptoPP@@@2@@CryptoPP@@@8 	 DATA
	??_R0?AV?$DL_SignatureSchemeBase@VPK_Verifier@CryptoPP@@V?$DL_PublicKey@UECPPoint@CryptoPP@@@2@@CryptoPP@@@8 	 DATA
	??_R0?AV?$DL_SignerBase@UECPPoint@CryptoPP@@@CryptoPP@@@8 	 DATA
	??_R0?AV?$DL_SignerImpl@U?$DL_SignatureSchemeOptions@V?$DL_SS@U?$DL_Keys_ECDSA@VECP@CryptoPP@@@CryptoPP@@V?$DL_Algorithm_ECDSA@VECP@CryptoPP@@@2@VDL_SignatureMessageEncodingMethod_DSA@2@VSHA256@2@H@CryptoPP@@U?$DL_Keys_ECDSA@VECP@CryptoPP@@@2@V?$DL_Algorithm_ECDSA@VECP@CryptoPP@@@2@VDL_SignatureMessageEncodingMethod_DSA@2@VSHA256@2@@CryptoPP@@@CryptoPP@@@8 	 DATA
	??_R0?AV?$DL_VerifierBase@UECPPoint@CryptoPP@@@CryptoPP@@@8 	 DATA
	??_R0?AV?$DL_VerifierImpl@U?$DL_SignatureSchemeOptions@V?$DL_SS@U?$DL_Keys_ECDSA@VECP@CryptoPP@@@CryptoPP@@V?$DL_Algorithm_ECDSA@VECP@CryptoPP@@@2@VDL_SignatureMessageEncodingMethod_DSA@2@VSHA256@2@H@CryptoPP@@U?$DL_Keys_ECDSA@VECP@CryptoPP@@@2@V?$DL_Algorithm_ECDSA@VECP@CryptoPP@@@2@VDL_SignatureMessageEncodingMethod_DSA@2@VSHA256@2@@CryptoPP@@@CryptoPP@@@8 	 DATA
	??_R0?AV?$DL_VerifierImpl@U?$DL_SignatureSchemeOptions@V?$DL_SS@U?$DL_Keys_ECDSA@VECP@CryptoPP@@@CryptoPP@@V?$DL_Algorithm_ECDSA@VECP@CryptoPP@@@2@VDL_SignatureMessageEncodingMethod_DSA@2@VSHA384@2@H@CryptoPP@@U?$DL_Keys_ECDSA@VECP@CryptoPP@@@2@V?$DL_Algorithm_ECDSA@VECP@CryptoPP@@@2@VDL_SignatureMessageEncodingMethod_DSA@2@VSHA384@2@@CryptoPP@@@CryptoPP@@@8 	 DATA
	??_R0?AV?$EcPrecomputation@VECP@CryptoPP@@@CryptoPP@@@8 	 DATA
	??_R0?AV?$EncodedPoint@UECPPoint@CryptoPP@@@CryptoPP@@@8 	 DATA
	??_R0?AV?$InputRejecting@VBufferedTransformation@CryptoPP@@@CryptoPP@@@8 	 DATA
	??_R0?AV?$InputRejecting@VFilter@CryptoPP@@@CryptoPP@@@8 	 DATA
	??_R0?AV?$IteratedHash@IU?$EnumToType@W4ByteOrder@CryptoPP@@$00@CryptoPP@@$0EA@VHashTransformation@2@@CryptoPP@@@8 	 DATA
	??_R0?AV?$IteratedHash@_KU?$EnumToType@W4ByteOrder@CryptoPP@@$00@CryptoPP@@$0IA@VHashTransformation@2@@CryptoPP@@@8 	 DATA
	??_R0?AV?$IteratedHashBase@IVHashTransformation@CryptoPP@@@CryptoPP@@@8 	 DATA
	??_R0?AV?$IteratedHashBase@_KVHashTransformation@CryptoPP@@@CryptoPP@@@8 	 DATA
	??_R0?AV?$IteratedHashWithStaticTransform@IU?$EnumToType@W4ByteOrder@CryptoPP@@$00@CryptoPP@@$0EA@$0CA@VSHA256@2@$0CA@$00@CryptoPP@@@8 	 DATA
	??_R0?AV?$IteratedHashWithStaticTransform@_KU?$EnumToType@W4ByteOrder@CryptoPP@@$00@CryptoPP@@$0IA@$0EA@VSHA384@2@$0DA@$00@CryptoPP@@@8 	 DATA
	??_R0?AV?$ObjectHolder@VSHA256@CryptoPP@@@CryptoPP@@@8 	 DATA
	??_R0?AV?$ObjectHolder@VSHA384@CryptoPP@@@CryptoPP@@@8 	 DATA
	??_R0?AV?$PK_FinalTemplate@V?$DL_VerifierImpl@U?$DL_SignatureSchemeOptions@V?$DL_SS@U?$DL_Keys_ECDSA@VECP@CryptoPP@@@CryptoPP@@V?$DL_Algorithm_ECDSA@VECP@CryptoPP@@@2@VDL_SignatureMessageEncodingMethod_DSA@2@VSHA256@2@H@CryptoPP@@U?$DL_Keys_ECDSA@VECP@CryptoPP@@@2@V?$DL_Algorithm_ECDSA@VECP@CryptoPP@@@2@VDL_SignatureMessageEncodingMethod_DSA@2@VSHA256@2@@CryptoPP@@@CryptoPP@@@CryptoPP@@@8 	 DATA
	??_R0?AV?$PK_FinalTemplate@V?$DL_VerifierImpl@U?$DL_SignatureSchemeOptions@V?$DL_SS@U?$DL_Keys_ECDSA@VECP@CryptoPP@@@CryptoPP@@V?$DL_Algorithm_ECDSA@VECP@CryptoPP@@@2@VDL_SignatureMessageEncodingMethod_DSA@2@VSHA384@2@H@CryptoPP@@U?$DL_Keys_ECDSA@VECP@CryptoPP@@@2@V?$DL_Algorithm_ECDSA@VECP@CryptoPP@@@2@VDL_SignatureMessageEncodingMethod_DSA@2@VSHA384@2@@CryptoPP@@@CryptoPP@@@CryptoPP@@@8 	 DATA
	??_R0?AV?$PK_MessageAccumulatorImpl@VSHA256@CryptoPP@@@CryptoPP@@@8 	 DATA
	??_R0?AV?$PK_MessageAccumulatorImpl@VSHA384@CryptoPP@@@CryptoPP@@@8 	 DATA
	??_R0?AV?$SourceTemplate@VFileStore@CryptoPP@@@CryptoPP@@@8 	 DATA
	??_R0?AV?$Unflushable@VFilter@CryptoPP@@@CryptoPP@@@8 	 DATA
	??_R0?AV?$_Associated_state@UEcdsaSignature@security@vanetza@@@std@@@8 	 DATA
	??_R0?AV?$_CancellationTokenCallback@V<lambda_be3e5d9dce35d2c8dbfa8485373731d5>@@@details@Concurrency@@@8 	 DATA
	??_R0?AV?$_Deferred_async_state@UEcdsaSignature@security@vanetza@@@std@@@8 	 DATA
	??_R0?AV?$_Func_base@E$$V@std@@@8 	 DATA
	??_R0?AV?$_Func_base@UEcdsaSignature@security@vanetza@@$$V@std@@@8 	 DATA
	??_R0?AV?$_Func_base@V?$unique_ptr@VBackend@security@vanetza@@U?$default_delete@VBackend@security@vanetza@@@std@@@std@@$$V@std@@@8 	 DATA
	??_R0?AV?$_Func_base@X$$V@std@@@8 	 DATA
	??_R0?AV?$_Func_impl_no_alloc@V<lambda_052e919cc0e5399df76dff3972c0cac1>@@E$$V@std@@@8 	 DATA
	??_R0?AV?$_Func_impl_no_alloc@V<lambda_2fa3e3d11fb97352afa77a4a13bfb543>@@X$$V@std@@@8 	 DATA
	??_R0?AV?$_Func_impl_no_alloc@V<lambda_763529b0c7473cbc215a52d189ac9b18>@@X$$V@std@@@8 	 DATA
	??_R0?AV?$_Func_impl_no_alloc@V<lambda_f25c37099038263181b5186a3fa41b37>@@X$$V@std@@@8 	 DATA
	??_R0?AV?$_Iosb@H@std@@@8 	 DATA
	??_R0?AV?$_Packaged_state@$$A6A?AUEcdsaSignature@security@vanetza@@XZ@std@@@8 	 DATA
	??_R0?AV?$_Ref_count_obj2@U?$_Task_impl@E@details@Concurrency@@@std@@@8 	 DATA
	??_R0?AV?$_Ref_count_obj2@U_ExceptionHolder@details@Concurrency@@@std@@@8 	 DATA
	??_R0?AV?$_Task_async_state@UEcdsaSignature@security@vanetza@@@std@@@8 	 DATA
	??_R0?AV?$base_from_member@V?$shared_ptr@V?$basic_altstringbuf@DU?$char_traits@D@std@@V?$allocator@D@2@@io@boost@@@boost@@$0A@@boost@@@8 	 DATA
	??_R0?AV?$basic_altstringbuf@DU?$char_traits@D@std@@V?$allocator@D@2@@io@boost@@@8 	 DATA
	??_R0?AV?$basic_filebuf@DU?$char_traits@D@std@@@std@@@8 	 DATA
	??_R0?AV?$basic_ifstream@DU?$char_traits@D@std@@@std@@@8 	 DATA
	??_R0?AV?$basic_ios@DU?$char_traits@D@std@@@std@@@8 	 DATA
	??_R0?AV?$basic_iostream@DU?$char_traits@D@std@@@std@@@8 	 DATA
	??_R0?AV?$basic_istream@DU?$char_traits@D@std@@@std@@@8 	 DATA
	??_R0?AV?$basic_oaltstringstream@DU?$char_traits@D@std@@V?$allocator@D@2@@io@boost@@@8 	 DATA
	??_R0?AV?$basic_ofstream@DU?$char_traits@D@std@@@std@@@8 	 DATA
	??_R0?AV?$basic_ostream@DU?$char_traits@D@std@@@std@@@8 	 DATA
	??_R0?AV?$basic_ostringstream@DU?$char_traits@D@std@@V?$allocator@D@2@@std@@@8 	 DATA
	??_R0?AV?$basic_streambuf@DU?$char_traits@D@std@@@std@@@8 	 DATA
	??_R0?AV?$basic_string@DU?$char_traits@D@std@@V?$allocator@D@2@@std@@@8 	 DATA
	??_R0?AV?$basic_stringbuf@DU?$char_traits@D@std@@V?$allocator@D@2@@std@@@8 	 DATA
	??_R0?AV?$basic_stringstream@DU?$char_traits@D@std@@V?$allocator@D@2@@std@@@8 	 DATA
	??_R0?AV?$indirect_streambuf@Vbyte_buffer_sink@vanetza@@U?$char_traits@D@std@@V?$allocator@D@4@Uoutput@iostreams@boost@@@detail@iostreams@boost@@@8 	 DATA
	??_R0?AV?$linked_streambuf@DU?$char_traits@D@std@@@detail@iostreams@boost@@@8 	 DATA
	??_R0?AV?$sp_counted_impl_pd@PEAV?$basic_altstringbuf@DU?$char_traits@D@std@@V?$allocator@D@2@@io@boost@@VNo_Op@?$basic_oaltstringstream@DU?$char_traits@D@std@@V?$allocator@D@2@@23@@detail@boost@@@8 	 DATA
	??_R0?AV?$stream_buffer@Vbyte_buffer_sink@vanetza@@U?$char_traits@D@std@@V?$allocator@D@4@Uoutput@iostreams@boost@@@iostreams@boost@@@8 	 DATA
	??_R0?AVASN1Object@CryptoPP@@@8 	 DATA
	??_R0?AVAlgorithm@CryptoPP@@@8 	 DATA
	??_R0?AVAlgorithmParametersBase@CryptoPP@@@8 	 DATA
	??_R0?AVAsymmetricAlgorithm@CryptoPP@@@8 	 DATA
	??_R0?AVAutoSeededRandomPool@CryptoPP@@@8 	 DATA
	??_R0?AVBackend@security@vanetza@@@8 	 DATA
	??_R0?AVBackendCryptoPP@security@vanetza@@@8 	 DATA
	??_R0?AVBackendNull@security@vanetza@@@8 	 DATA
	??_R0?AVBase64Decoder@CryptoPP@@@8 	 DATA
	??_R0?AVBaseCertificateProvider@v3@security@vanetza@@@8 	 DATA
	??_R0?AVBaseN_Decoder@CryptoPP@@@8 	 DATA
	??_R0?AVBufferedTransformation@CryptoPP@@@8 	 DATA
	??_R0?AVCannotFlush@CryptoPP@@@8 	 DATA
	??_R0?AVCertificateProvider@v2@security@vanetza@@@8 	 DATA
	??_R0?AVCertificateProvider@v3@security@vanetza@@@8 	 DATA
	??_R0?AVCertificateValidator@v2@security@vanetza@@@8 	 DATA
	??_R0?AVClonable@CryptoPP@@@8 	 DATA
	??_R0?AVConstByteArrayParameter@CryptoPP@@@8 	 DATA
	??_R0?AVCryptoMaterial@CryptoPP@@@8 	 DATA
	??_R0?AVCryptoParameters@CryptoPP@@@8 	 DATA
	??_R0?AVDL_BadElement@CryptoPP@@@8 	 DATA
	??_R0?AVDL_SignatureMessageEncodingMethod_DSA@CryptoPP@@@8 	 DATA
	??_R0?AVDefaultCertificateValidator@v2@security@vanetza@@@8 	 DATA
	??_R0?AVDefaultSignHeaderPolicy@v2@security@vanetza@@@8 	 DATA
	??_R0?AVDefaultSignHeaderPolicy@v3@security@vanetza@@@8 	 DATA
	??_R0?AVDeferredSignService@v2@security@vanetza@@@8 	 DATA
	??_R0?AVDelegatingSecurityEntity@security@vanetza@@@8 	 DATA
	??_R0?AVDeterministicSignatureAlgorithm@CryptoPP@@@8 	 DATA
	??_R0?AVDummySignService@v2@security@vanetza@@@8 	 DATA
	??_R0?AVDummySignService@v3@security@vanetza@@@8 	 DATA
	??_R0?AVDummyVerifyService@security@vanetza@@@8 	 DATA
	??_R0?AVECP@CryptoPP@@@8 	 DATA
	??_R0?AVException@CryptoPP@@@8 	 DATA
	??_R0?AVFileSource@CryptoPP@@@8 	 DATA
	??_R0?AVFileStore@CryptoPP@@@8 	 DATA
	??_R0?AVFilter@CryptoPP@@@8 	 DATA
	??_R0?AVGeneratableCryptoMaterial@CryptoPP@@@8 	 DATA
	??_R0?AVHashTransformation@CryptoPP@@@8 	 DATA
	??_R0?AVInteger@CryptoPP@@@8 	 DATA
	??_R0?AVInvalidArgument@CryptoPP@@@8 	 DATA
	??_R0?AVInvalidDataFormat@CryptoPP@@@8 	 DATA
	??_R0?AVInvalidMaterial@CryptoMaterial@CryptoPP@@@8 	 DATA
	??_R0?AVNaiveCertificateProvider@v2@security@vanetza@@@8 	 DATA
	??_R0?AVNaiveCertificateProvider@v3@security@vanetza@@@8 	 DATA
	??_R0?AVNameValuePairs@CryptoPP@@@8 	 DATA
	??_R0?AVNo_Op@?$basic_oaltstringstream@DU?$char_traits@D@std@@V?$allocator@D@2@@io@boost@@@8 	 DATA
	??_R0?AVNotCopyable@CryptoPP@@@8 	 DATA
	??_R0?AVNotImplemented@CryptoPP@@@8 	 DATA
	??_R0?AVNullCertificateProvider@v2@security@vanetza@@@8 	 DATA
	??_R0?AVNullCertificateValidator@v2@security@vanetza@@@8 	 DATA
	??_R0?AVOID@CryptoPP@@@8 	 DATA
	??_R0?AVPKCS8PrivateKey@CryptoPP@@@8 	 DATA
	??_R0?AVPK_DeterministicSignatureMessageEncodingMethod@CryptoPP@@@8 	 DATA
	??_R0?AVPK_MessageAccumulator@CryptoPP@@@8 	 DATA
	??_R0?AVPK_MessageAccumulatorBase@CryptoPP@@@8 	 DATA
	??_R0?AVPK_SignatureMessageEncodingMethod@CryptoPP@@@8 	 DATA
	??_R0?AVPK_SignatureScheme@CryptoPP@@@8 	 DATA
	??_R0?AVPK_Signer@CryptoPP@@@8 	 DATA
	??_R0?AVPK_Verifier@CryptoPP@@@8 	 DATA
	??_R0?AVParameterNotUsed@AlgorithmParametersBase@CryptoPP@@@8 	 DATA
	??_R0?AVPrivateKey@CryptoPP@@@8 	 DATA
	??_R0?AVPrivateKeyAlgorithm@CryptoPP@@@8 	 DATA
	??_R0?AVPublicKey@CryptoPP@@@8 	 DATA
	??_R0?AVPublicKeyAlgorithm@CryptoPP@@@8 	 DATA
	??_R0?AVRandomNumberGenerator@CryptoPP@@@8 	 DATA
	??_R0?AVRandomPool@CryptoPP@@@8 	 DATA
	??_R0?AVRedirector@CryptoPP@@@8 	 DATA
	??_R0?AVSHA256@CryptoPP@@@8 	 DATA
	??_R0?AVSHA384@CryptoPP@@@8 	 DATA
	??_R0?AVSecurityEntity@security@vanetza@@@8 	 DATA
	??_R0?AVSignHeaderPolicy@v2@security@vanetza@@@8 	 DATA
	??_R0?AVSignHeaderPolicy@v3@security@vanetza@@@8 	 DATA
	??_R0?AVSignService@security@vanetza@@@8 	 DATA
	??_R0?AVSink@CryptoPP@@@8 	 DATA
	??_R0?AVSource@CryptoPP@@@8 	 DATA
	??_R0?AVStaticCertificateProvider@v2@security@vanetza@@@8 	 DATA
	??_R0?AVStaticCertificateProvider@v3@security@vanetza@@@8 	 DATA
	??_R0?AVStore@CryptoPP@@@8 	 DATA
	??_R0?AVStraightSignService@v2@security@vanetza@@@8 	 DATA
	??_R0?AVStraightSignService@v3@security@vanetza@@@8 	 DATA
	??_R0?AVStraightVerifyService@security@vanetza@@@8 	 DATA
	??_R0?AVStringStore@CryptoPP@@@8 	 DATA
	??_R0?AVValueTypeMismatch@NameValuePairs@CryptoPP@@@8 	 DATA
	??_R0?AVVerifyService@security@vanetza@@@8 	 DATA
	??_R0?AVWaitable@CryptoPP@@@8 	 DATA
	??_R0?AVX509PublicKey@CryptoPP@@@8 	 DATA
	??_R0?AV_CancellationTokenRegistration@details@Concurrency@@@8 	 DATA
	??_R0?AV_DefaultPPLTaskScheduler@details@Concurrency@@@8 	 DATA
	??_R0?AV_Future_error_category2@std@@@8 	 DATA
	??_R0?AV_Generic_error_category@std@@@8 	 DATA
	??_R0?AV_Interruption_exception@details@Concurrency@@@8 	 DATA
	??_R0?AV_Iostream_error_category2@std@@@8 	 DATA
	??_R0?AV_RefCounter@details@Concurrency@@@8 	 DATA
	??_R0?AV_Ref_count_base@std@@@8 	 DATA
	??_R0?AV_System_error@std@@@8 	 DATA
	??_R0?AVbad_alloc@std@@@8 	 DATA
	??_R0?AVbad_array_new_length@std@@@8 	 DATA
	??_R0?AVbad_cast@std@@@8 	 DATA
	??_R0?AVbad_format_string@io@boost@@@8 	 DATA
	??_R0?AVbad_get@boost@@@8 	 DATA
	??_R0?AVbad_optional_access@boost@@@8 	 DATA
	??_R0?AVbyte_buffer_sink@vanetza@@@8 	 DATA
	??_R0?AVclone_base@exception_detail@boost@@@8 	 DATA
	??_R0?AVdeserialization_error@security@vanetza@@@8 	 DATA
	??_R0?AVerror_category@std@@@8 	 DATA
	??_R0?AVexception@boost@@@8 	 DATA
	??_R0?AVexception@std@@@8 	 DATA
	??_R0?AVfailure@ios_base@std@@@8 	 DATA
	??_R0?AVformat_error@io@boost@@@8 	 DATA
	??_R0?AVfuture_error@std@@@8 	 DATA
	??_R0?AVinvalid_argument@std@@@8 	 DATA
	??_R0?AVinvalid_operation@Concurrency@@@8 	 DATA
	??_R0?AVios_base@std@@@8 	 DATA
	??_R0?AVlogic_error@std@@@8 	 DATA
	??_R0?AVruntime_error@std@@@8 	 DATA
	??_R0?AVserialization_error@security@vanetza@@@8 	 DATA
	??_R0?AVsp_counted_base@detail@boost@@@8 	 DATA
	??_R0?AVsystem_error@std@@@8 	 DATA
	??_R0?AVtask_canceled@Concurrency@@@8 	 DATA
	??_R0?AVtoo_few_args@io@boost@@@8 	 DATA
	??_R0?AVtoo_many_args@io@boost@@@8 	 DATA
	??_R0H@8 	 DATA
	??_R0PEAD@8 	 DATA
	??_R0PEAV?$DL_GroupParameters@UECPPoint@CryptoPP@@@CryptoPP@@@8 	 DATA
	??_R0PEAV?$DL_PrivateKey@UECPPoint@CryptoPP@@@CryptoPP@@@8 	 DATA
	??_R0PEAV?$DL_PrivateKeyImpl@V?$DL_GroupParameters_EC@VECP@CryptoPP@@@CryptoPP@@@CryptoPP@@@8 	 DATA
	??_R0PEAV?$DL_PublicKey@UECPPoint@CryptoPP@@@CryptoPP@@@8 	 DATA
	??_R0PEAV?$DL_PublicKeyImpl@V?$DL_GroupParameters_EC@VECP@CryptoPP@@@CryptoPP@@@CryptoPP@@@8 	 DATA
	??_R0PEAX@8 	 DATA
	??_R0PEBD@8 	 DATA
	??_R0PEBH@8 	 DATA
	??_R0_N@8 	 DATA
	?_Flag@?1??_GetStaticAmbientSchedulerRef@details@Concurrency@@YAAEAV?$shared_ptr@Uscheduler_interface@Concurrency@@@std@@XZ@4Uonce_flag@5@A 	 DATA
	?_Psave@?$_Facetptr@V?$codecvt@DDU_Mbstatet@@@std@@@std@@2PEBVfacet@locale@2@EB 	 DATA
	?_Psave@?$_Facetptr@V?$ctype@D@std@@@std@@2PEBVfacet@locale@2@EB 	 DATA
	?_S_scheduler@?1??_GetStaticAmbientSchedulerStorage@details@Concurrency@@YAPEAV?$shared_ptr@Uscheduler_interface@Concurrency@@@std@@XZ@4V45@A 	 DATA
	?_S_scheduler_address@?1??_GetStaticAmbientSchedulerRef@details@Concurrency@@YAAEAV?$shared_ptr@Uscheduler_interface@Concurrency@@@std@@XZ@4PEAV45@EA 	 DATA
	?_Static@?1???$_Immortalize_memcpy_image@V_Future_error_category2@std@@@std@@YAAEBV_Future_error_category2@1@XZ@4U?$_Constexpr_immortalize_impl@V_Future_error_category2@std@@@1@A 	 DATA
	?_Static@?1???$_Immortalize_memcpy_image@V_Generic_error_category@std@@@std@@YAAEBV_Generic_error_category@1@XZ@4U?$_Constexpr_immortalize_impl@V_Generic_error_category@std@@@1@A 	 DATA
	?_Static@?1???$_Immortalize_memcpy_image@V_Iostream_error_category2@std@@@std@@YAAEBV_Iostream_error_category2@1@XZ@4U?$_Constexpr_immortalize_impl@V_Iostream_error_category2@std@@@1@A 	 DATA
	?_Stinit@?1??_Init@?$basic_filebuf@DU?$char_traits@D@std@@@std@@IEAAXPEAU_iobuf@@W4_Initfl@23@@Z@4U_Mbstatet@@A 	 DATA
	?pdata@?1???B?$integral_constant@_N$00@boost@@QEBAAEBU?$bool_@$00@mpl@2@XZ@4PEBXEB 	 DATA
	?pdata@?1???B?$integral_constant@_N$0A@@boost@@QEBAAEBU?$bool_@$0A@@mpl@2@XZ@4PEBXEB 	 DATA
	?s_mutex@?1??Ref@?$Singleton@V?$DL_Algorithm_ECDSA@VECP@CryptoPP@@@CryptoPP@@U?$NewObject@V?$DL_Algorithm_ECDSA@VECP@CryptoPP@@@CryptoPP@@@2@$0A@@CryptoPP@@QEBAAEBV?$DL_Algorithm_ECDSA@VECP@CryptoPP@@@3@XZ@4Vmutex@std@@A 	 DATA
	?s_mutex@?1??Ref@?$Singleton@VDL_SignatureMessageEncodingMethod_DSA@CryptoPP@@U?$NewObject@VDL_SignatureMessageEncodingMethod_DSA@CryptoPP@@@2@$0A@@CryptoPP@@QEBAAEBVDL_SignatureMessageEncodingMethod_DSA@3@XZ@4Vmutex@std@@A 	 DATA
	?s_pObject@?1??Ref@?$Singleton@V?$DL_Algorithm_ECDSA@VECP@CryptoPP@@@CryptoPP@@U?$NewObject@V?$DL_Algorithm_ECDSA@VECP@CryptoPP@@@CryptoPP@@@2@$0A@@CryptoPP@@QEBAAEBV?$DL_Algorithm_ECDSA@VECP@CryptoPP@@@3@XZ@4U?$atomic@PEAV?$DL_Algorithm_ECDSA@VECP@CryptoPP@@@CryptoPP@@@std@@A 	 DATA
	?s_pObject@?1??Ref@?$Singleton@VDL_SignatureMessageEncodingMethod_DSA@CryptoPP@@U?$NewObject@VDL_SignatureMessageEncodingMethod_DSA@CryptoPP@@@2@$0A@@CryptoPP@@QEBAAEBVDL_SignatureMessageEncodingMethod_DSA@3@XZ@4U?$atomic@PEAVDL_SignatureMessageEncodingMethod_DSA@CryptoPP@@@std@@A 	 DATA
	??$?0$$CBG@?$put_holder@DU?$char_traits@D@std@@@detail@io@boost@@QEAA@AEBG@Z
	??$?0$$T@?$variant@$$TV?$array@E$07@std@@V?$recursive_wrapper@UCertificate@v2@security@vanetza@@@boost@@V?$list@UCertificate@v2@security@vanetza@@V?$allocator@UCertificate@v2@security@vanetza@@@std@@@2@UCertificateDigestWithOtherAlgorithm@v2@security@vanetza@@@boost@@QEAA@$$QEA$$T_N@Z
	??$?0$$V@?$_Compressed_pair@U?$default_delete@VBackend@security@vanetza@@@std@@PEAVBackend@security@vanetza@@$00@std@@QEAA@U_Zero_then_variadic_args_t@1@@Z
	??$?0$$V@?$_Compressed_pair@V?$allocator@D@std@@V?$_String_val@U?$_Simple_types@D@std@@@2@$00@std@@QEAA@U_Zero_then_variadic_args_t@1@@Z
	??$?0$$V@?$_Compressed_pair@V?$allocator@E@std@@V?$_Vector_val@U?$_Simple_types@E@std@@@2@$00@std@@QEAA@U_Zero_then_variadic_args_t@1@@Z
	??$?0$$V@?$_Compressed_pair@V?$allocator@I@std@@V?$_Vector_val@U?$_Simple_types@I@std@@@2@$00@std@@QEAA@U_Zero_then_variadic_args_t@1@@Z
	??$?0$$V@?$_Compressed_pair@V?$allocator@PEAX@std@@V?$_Vector_val@U?$_Simple_types@PEAX@std@@@2@$00@std@@QEAA@U_Zero_then_variadic_args_t@1@@Z
	??$?0$$V@?$_Compressed_pair@V?$allocator@U?$_List_node@EPEAX@std@@@std@@V?$_List_val@U?$_List_simple_types@E@std@@@2@$00@std@@QEAA@U_Zero_then_variadic_args_t@1@@Z
	??$?0$$V@?$_Compressed_pair@V?$allocator@U?$_List_node@IPEAX@std@@@std@@V?$_List_val@U?$_List_simple_types@I@std@@@2@$00@std@@QEAA@U_Zero_then_variadic_args_t@1@@Z
	??$?0$$V@?$_Compressed_pair@V?$allocator@U?$_List_node@UCertificate@v2@security@vanetza@@PEAX@std@@@std@@V?$_List_val@U?$_List_simple_types@UCertificate@v2@security@vanetza@@@std@@@2@$00@std@@QEAA@U_Zero_then_variadic_args_t@1@@Z
	??$?0$$V@?$_Compressed_pair@V?$allocator@U?$_List_node@UCertificate@v3@security@vanetza@@PEAX@std@@@std@@V?$_List_val@U?$_List_simple_types@UCertificate@v3@security@vanetza@@@std@@@2@$00@std@@QEAA@U_Zero_then_variadic_args_t@1@@Z
	??$?0$$V@?$_Compressed_pair@V?$allocator@U?$_List_node@UItsAidSsp@v2@security@vanetza@@PEAX@std@@@std@@V?$_List_val@U?$_List_simple_types@UItsAidSsp@v2@security@vanetza@@@std@@@2@$00@std@@QEAA@U_Zero_then_variadic_args_t@1@@Z
	??$?0$$V@?$_Compressed_pair@V?$allocator@U?$_List_node@URecipientInfo@v2@security@vanetza@@PEAX@std@@@std@@V?$_List_val@U?$_List_simple_types@URecipientInfo@v2@security@vanetza@@@std@@@2@$00@std@@QEAA@U_Zero_then_variadic_args_t@1@@Z
	??$?0$$V@?$_Compressed_pair@V?$allocator@U?$_List_node@URectangularRegion@v2@security@vanetza@@PEAX@std@@@std@@V?$_List_val@U?$_List_simple_types@URectangularRegion@v2@security@vanetza@@@std@@@2@$00@std@@QEAA@U_Zero_then_variadic_args_t@1@@Z
	??$?0$$V@?$_Compressed_pair@V?$allocator@U?$_List_node@UTwoDLocation@v2@security@vanetza@@PEAX@std@@@std@@V?$_List_val@U?$_List_simple_types@UTwoDLocation@v2@security@vanetza@@@std@@@2@$00@std@@QEAA@U_Zero_then_variadic_args_t@1@@Z
	??$?0$$V@?$_Compressed_pair@V?$allocator@U?$_List_node@V?$array@E$02@std@@PEAX@std@@@std@@V?$_List_val@U?$_List_simple_types@V?$array@E$02@std@@@std@@@2@$00@std@@QEAA@U_Zero_then_variadic_args_t@1@@Z
	??$?0$$V@?$_Compressed_pair@V?$allocator@U?$_List_node@V?$variant@IUStartAndEndValidity@v2@security@vanetza@@UStartAndDurationValidity@234@V?$variant@UNoneRegion@v2@security@vanetza@@UCircularRegion@234@V?$list@URectangularRegion@v2@security@vanetza@@V?$allocator@URectangularRegion@v2@security@vanetza@@@std@@@std@@V?$list@UTwoDLocation@v2@security@vanetza@@V?$allocator@UTwoDLocation@v2@security@vanetza@@@std@@@7@UIdentifiedRegion@234@@boost@@@boost@@PEAX@std@@@std@@V?$_List_val@U?$_List_simple_types@V?$variant@IUStartAndEndValidity@v2@security@vanetza@@UStartAndDurationValidity@234@V?$variant@UNoneRegion@v2@security@vanetza@@UCircularRegion@234@V?$list@URectangularRegion@v2@security@vanetza@@V?$allocator@URectangularRegion@v2@security@vanetza@@@std@@@std@@V?$list@UTwoDLocation@v2@security@vanetza@@V?$allocator@UTwoDLocation@v2@security@vanetza@@@std@@@7@UIdentifiedRegion@234@@boost@@@boost@@@std@@@2@$00@std@@QEAA@U_Zero_then_variadic_args_t@1@@Z
	??$?0$$V@?$_Compressed_pair@V?$allocator@U?$_List_node@V?$variant@USignature@v2@security@vanetza@@$$V@boost@@PEAX@std@@@std@@V?$_List_val@U?$_List_simple_types@V?$variant@USignature@v2@security@vanetza@@$$V@boost@@@std@@@2@$00@std@@QEAA@U_Zero_then_variadic_args_t@1@@Z
	??$?0$$V@?$_Compressed_pair@V?$allocator@U?$_List_node@V?$variant@UVerificationKey@v2@security@vanetza@@UEncryptionKey@234@USubjectAssurance@234@V?$variant@UX_Coordinate_Only@security@vanetza@@UCompressed_Lsb_Y_0@23@UCompressed_Lsb_Y_1@23@UUncompressed@23@@boost@@V?$list@VIntX@v2@security@vanetza@@V?$allocator@VIntX@v2@security@vanetza@@@std@@@std@@V?$list@UItsAidSsp@v2@security@vanetza@@V?$allocator@UItsAidSsp@v2@security@vanetza@@@std@@@std@@@boost@@PEAX@std@@@std@@V?$_List_val@U?$_List_simple_types@V?$variant@UVerificationKey@v2@security@vanetza@@UEncryptionKey@234@USubjectAssurance@234@V?$variant@UX_Coordinate_Only@security@vanetza@@UCompressed_Lsb_Y_0@23@UCompressed_Lsb_Y_1@23@UUncompressed@23@@boost@@V?$list@VIntX@v2@security@vanetza@@V?$allocator@VIntX@v2@security@vanetza@@@std@@@std@@V?$list@UItsAidSsp@v2@security@vanetza@@V?$allocator@UItsAidSsp@v2@security@vanetza@@@std@@@std@@@boost@@@std@@@2@$00@std@@QEAA@U_Zero_then_variadic_args_t@1@@Z
	??$?0$$V@?$_Compressed_pair@V?$allocator@U?$_List_node@V?$variant@_KUTime64WithStandardDeviation@v2@security@vanetza@@IUThreeDLocation@234@V?$list@V?$array@E$02@std@@V?$allocator@V?$array@E$02@std@@@2@@std@@VIntX@234@V?$variant@$$TV?$array@E$07@std@@V?$recursive_wrapper@UCertificate@v2@security@vanetza@@@boost@@V?$list@UCertificate@v2@security@vanetza@@V?$allocator@UCertificate@v2@security@vanetza@@@std@@@2@UCertificateDigestWithOtherAlgorithm@v2@security@vanetza@@@boost@@V?$variant@V?$array@E$0M@@std@@$$V@boost@@V?$list@URecipientInfo@v2@security@vanetza@@V?$allocator@URecipientInfo@v2@security@vanetza@@@std@@@7@@boost@@PEAX@std@@@std@@V?$_List_val@U?$_List_simple_types@V?$variant@_KUTime64WithStandardDeviation@v2@security@vanetza@@IUThreeDLocation@234@V?$list@V?$array@E$02@std@@V?$allocator@V?$array@E$02@std@@@2@@std@@VIntX@234@V?$variant@$$TV?$array@E$07@std@@V?$recursive_wrapper@UCertificate@v2@security@vanetza@@@boost@@V?$list@UCertificate@v2@security@vanetza@@V?$allocator@UCertificate@v2@security@vanetza@@@std@@@2@UCertificateDigestWithOtherAlgorithm@v2@security@vanetza@@@boost@@V?$variant@V?$array@E$0M@@std@@$$V@boost@@V?$list@URecipientInfo@v2@security@vanetza@@V?$allocator@URecipientInfo@v2@security@vanetza@@@std@@@7@@boost@@@std@@@2@$00@std@@QEAA@U_Zero_then_variadic_args_t@1@@Z
	??$?0$$V@?$_Compressed_pair@V?$allocator@U?$_List_node@VIntX@v2@security@vanetza@@PEAX@std@@@std@@V?$_List_val@U?$_List_simple_types@VIntX@v2@security@vanetza@@@std@@@2@$00@std@@QEAA@U_Zero_then_variadic_args_t@1@@Z
	??$?0$$V@?$_Compressed_pair@V?$allocator@U?$_Tree_node@U?$pair@$$CBV?$array@E$07@std@@UCachedCertificate@CertificateCache@v2@security@vanetza@@@std@@PEAX@std@@@std@@V?$_Tree_val@U?$_Tree_simple_types@U?$pair@$$CBV?$array@E$07@std@@UCachedCertificate@CertificateCache@v2@security@vanetza@@@std@@@std@@@2@$00@std@@QEAA@U_Zero_then_variadic_args_t@1@@Z
	??$?0$$V@?$_Compressed_pair@V?$allocator@U?$_Tree_node@U?$pair@$$CBV?$basic_string@DU?$char_traits@D@std@@V?$allocator@D@2@@std@@V?$function@$$A6A?AV?$unique_ptr@VBackend@security@vanetza@@U?$default_delete@VBackend@security@vanetza@@@std@@@std@@XZ@2@@std@@PEAX@std@@@std@@V?$_Tree_val@U?$_Tree_simple_types@U?$pair@$$CBV?$basic_string@DU?$char_traits@D@std@@V?$allocator@D@2@@std@@V?$function@$$A6A?AV?$unique_ptr@VBackend@security@vanetza@@U?$default_delete@VBackend@security@vanetza@@@std@@@std@@XZ@2@@std@@@std@@@2@$00@std@@QEAA@U_Zero_then_variadic_args_t@1@@Z
	??$?0$$V@?$_Compressed_pair@V?$allocator@U?$_Tree_node@V?$array@E$02@std@@PEAX@std@@@std@@V?$_Tree_val@U?$_Tree_simple_types@V?$array@E$02@std@@@std@@@2@$00@std@@QEAA@U_Zero_then_variadic_args_t@1@@Z
	??$?0$$V@?$_Compressed_pair@V?$allocator@U?$_Tree_node@W4CamPermission@security@vanetza@@PEAX@std@@@std@@V?$_Tree_val@U?$_Tree_simple_types@W4CamPermission@security@vanetza@@@std@@@2@$00@std@@QEAA@U_Zero_then_variadic_args_t@1@@Z
	??$?0$$V@?$_Compressed_pair@V?$allocator@U?$format_item@DU?$char_traits@D@std@@V?$allocator@D@2@@detail@io@boost@@@std@@V?$_Vector_val@U?$_Simple_types@U?$format_item@DU?$char_traits@D@std@@V?$allocator@D@2@@detail@io@boost@@@std@@@2@$00@std@@QEAA@U_Zero_then_variadic_args_t@1@@Z
	??$?0$$V@?$_Compressed_pair@V?$allocator@UECPPoint@CryptoPP@@@std@@V?$_Vector_val@U?$_Simple_types@UECPPoint@CryptoPP@@@std@@@2@$00@std@@QEAA@U_Zero_then_variadic_args_t@1@@Z
	??$?0$00@?$EndianType@E$0A@@vanetza@@QEAA@AEBV?$EndianType@E$00@1@@Z
	??$?0$00@?$EndianType@F$0A@@vanetza@@QEAA@AEBV?$EndianType@F$00@1@@Z
	??$?0$00@?$EndianType@G$0A@@vanetza@@QEAA@AEBV?$EndianType@G$00@1@@Z
	??$?0$00@?$EndianType@I$0A@@vanetza@@QEAA@AEBV?$EndianType@I$00@1@@Z
	??$?0$00@?$EndianType@_K$0A@@vanetza@@QEAA@AEBV?$EndianType@_K$00@1@@Z
	??$?0AEAPEAU?$_Tree_node@U?$pair@$$CBV?$array@E$07@std@@UCachedCertificate@CertificateCache@v2@security@vanetza@@@std@@PEAX@std@@AEAPEAU01@$0A@@?$pair@PEAU?$_Tree_node@U?$pair@$$CBV?$array@E$07@std@@UCachedCertificate@CertificateCache@v2@security@vanetza@@@std@@PEAX@std@@PEAU12@@std@@QEAA@AEAPEAU?$_Tree_node@U?$pair@$$CBV?$array@E$07@std@@UCachedCertificate@CertificateCache@v2@security@vanetza@@@std@@PEAX@1@0@Z
	??$?0AEAPEAU?$_Tree_node@U?$pair@$$CBV?$array@E$07@std@@UCertificate@v2@security@vanetza@@@std@@PEAX@std@@AEAPEAU01@$0A@@?$pair@PEAU?$_Tree_node@U?$pair@$$CBV?$array@E$07@std@@UCertificate@v2@security@vanetza@@@std@@PEAX@std@@PEAU12@@std@@QEAA@AEAPEAU?$_Tree_node@U?$pair@$$CBV?$array@E$07@std@@UCertificate@v2@security@vanetza@@@std@@PEAX@1@0@Z
	??$?0AEAPEAU?$_Tree_node@U?$pair@$$CBV?$basic_string@DU?$char_traits@D@std@@V?$allocator@D@2@@std@@V?$function@$$A6A?AV?$unique_ptr@VBackend@security@vanetza@@U?$default_delete@VBackend@security@vanetza@@@std@@@std@@XZ@2@@std@@PEAX@std@@_N$0A@@?$pair@PEAU?$_Tree_node@U?$pair@$$CBV?$basic_string@DU?$char_traits@D@std@@V?$allocator@D@2@@std@@V?$function@$$A6A?AV?$unique_ptr@VBackend@security@vanetza@@U?$default_delete@VBackend@security@vanetza@@@std@@@std@@XZ@2@@std@@PEAX@std@@_N@std@@QEAA@AEAPEAU?$_Tree_node@U?$pair@$$CBV?$basic_string@DU?$char_traits@D@std@@V?$allocator@D@2@@std@@V?$function@$$A6A?AV?$unique_ptr@VBackend@security@vanetza@@U?$default_delete@VBackend@security@vanetza@@@std@@@std@@XZ@2@@std@@PEAX@1@$$QEA_N@Z
	??$?0AEAPEAU?$_Tree_node@V?$array@E$02@std@@PEAX@std@@_N$0A@@?$pair@PEAU?$_Tree_node@V?$array@E$02@std@@PEAX@std@@_N@std@@QEAA@AEAPEAU?$_Tree_node@V?$array@E$02@std@@PEAX@1@$$QEA_N@Z
	??$?0AEAPEAU?$_Tree_node@W4CamPermission@security@vanetza@@PEAX@std@@_N$0A@@?$pair@PEAU?$_Tree_node@W4CamPermission@security@vanetza@@PEAX@std@@_N@std@@QEAA@AEAPEAU?$_Tree_node@W4CamPermission@security@vanetza@@PEAX@1@$$QEA_N@Z
	??$?0AEAPEAU_TaskProcHandle@details@Concurrency@@@?$_Compressed_pair@U?$default_delete@U_TaskProcHandle@details@Concurrency@@@std@@PEAU_TaskProcHandle@details@Concurrency@@$00@std@@QEAA@U_Zero_then_variadic_args_t@1@AEAPEAU_TaskProcHandle@details@Concurrency@@@Z
	??$?0AEAPEAV?$basic_altstringbuf@DU?$char_traits@D@std@@V?$allocator@D@2@@io@boost@@VNo_Op@?$basic_oaltstringstream@DU?$char_traits@D@std@@V?$allocator@D@2@@12@X@?$base_from_member@V?$shared_ptr@V?$basic_altstringbuf@DU?$char_traits@D@std@@V?$allocator@D@2@@io@boost@@@boost@@$0A@@boost@@IEAA@AEAPEAV?$basic_altstringbuf@DU?$char_traits@D@std@@V?$allocator@D@2@@io@1@$$QEAVNo_Op@?$basic_oaltstringstream@DU?$char_traits@D@std@@V?$allocator@D@2@@31@@Z
	??$?0AEAPEAVBackend@security@vanetza@@@?$_Compressed_pair@U?$default_delete@VBackend@security@vanetza@@@std@@PEAVBackend@security@vanetza@@$00@std@@QEAA@U_Zero_then_variadic_args_t@1@AEAPEAVBackend@security@vanetza@@@Z
	??$?0AEAPEAV_CancellationTokenState@details@Concurrency@@AEAUscheduler_ptr@2@@?$_Ref_count_obj2@U?$_Task_impl@E@details@Concurrency@@@std@@QEAA@AEAPEAV_CancellationTokenState@details@Concurrency@@AEAUscheduler_ptr@4@@Z
	??$?0AEAPEAV_Facet_base@std@@@?$_Compressed_pair@U?$default_delete@V_Facet_base@std@@@std@@PEAV_Facet_base@2@$00@std@@QEAA@U_Zero_then_variadic_args_t@1@AEAPEAV_Facet_base@1@@Z
	??$?0AEAPEAV_PPLTaskChore@_DefaultPPLTaskScheduler@details@Concurrency@@@?$_Compressed_pair@U?$default_delete@V_PPLTaskChore@_DefaultPPLTaskScheduler@details@Concurrency@@@std@@PEAV_PPLTaskChore@_DefaultPPLTaskScheduler@details@Concurrency@@$00@std@@QEAA@U_Zero_then_variadic_args_t@1@AEAPEAV_PPLTaskChore@_DefaultPPLTaskScheduler@details@Concurrency@@@Z
	??$?0AEAV?$_List_iterator@V?$_List_val@U?$_List_simple_types@U?$pair@$$CBV?$array@E$07@std@@UCertificate@v3@security@vanetza@@@std@@@std@@@std@@@std@@$0A@@?$tuple@AEAV?$_List_iterator@V?$_List_val@U?$_List_simple_types@U?$pair@$$CBV?$array@E$07@std@@UCertificate@v3@security@vanetza@@@std@@@std@@@std@@@std@@AEA_N@std@@QEAA@AEAV?$_List_iterator@V?$_List_val@U?$_List_simple_types@U?$pair@$$CBV?$array@E$07@std@@UCertificate@v3@security@vanetza@@@std@@@std@@@std@@@1@AEA_N@Z
	??$?0AEAV?$_List_iterator@V?$_List_val@U?$_List_simple_types@U?$pair@$$CBV?$array@E$07@std@@UCertificate@v3@security@vanetza@@@std@@@std@@@std@@@std@@@?$_Tuple_val@AEAV?$_List_iterator@V?$_List_val@U?$_List_simple_types@U?$pair@$$CBV?$array@E$07@std@@UCertificate@v3@security@vanetza@@@std@@@std@@@std@@@std@@@std@@QEAA@AEAV?$_List_iterator@V?$_List_val@U?$_List_simple_types@U?$pair@$$CBV?$array@E$07@std@@UCertificate@v3@security@vanetza@@@std@@@std@@@std@@@1@@Z
	??$?0AEAV?$_Vector_const_iterator@V?$_Vector_val@U?$_Simple_types@E@std@@@std@@@std@@@?$_Tuple_val@V?$_Vector_const_iterator@V?$_Vector_val@U?$_Simple_types@E@std@@@std@@@std@@@std@@QEAA@AEAV?$_Vector_const_iterator@V?$_Vector_val@U?$_Simple_types@E@std@@@std@@@1@@Z
	??$?0AEAV?$_Vector_const_iterator@V?$_Vector_val@U?$_Simple_types@E@std@@@std@@@std@@AEA_K$0A@@?$tuple@V?$_Vector_const_iterator@V?$_Vector_val@U?$_Simple_types@E@std@@@std@@@std@@_K@std@@QEAA@AEAV?$_Vector_const_iterator@V?$_Vector_val@U?$_Simple_types@E@std@@@std@@@1@AEA_K@Z
	??$?0AEAV?$array@E$07@std@@AEBUCertificate@v2@security@vanetza@@$0A@@?$pair@V?$array@E$07@std@@UCertificate@v2@security@vanetza@@@std@@QEAA@AEAV?$array@E$07@1@AEBUCertificate@v2@security@vanetza@@@Z
	??$?0AEAV?$array@E$07@std@@UCertificate@v3@security@vanetza@@$0A@@?$pair@$$CBV?$array@E$07@std@@UCertificate@v3@security@vanetza@@@std@@QEAA@AEAV?$array@E$07@1@$$QEAUCertificate@v3@security@vanetza@@@Z
	??$?0AEAV?$array@E$07@std@@UCertificate@v3@security@vanetza@@@?$_List_node_emplace_op2@V?$allocator@U?$_List_node@U?$pair@$$CBV?$array@E$07@std@@UCertificate@v3@security@vanetza@@@std@@PEAX@std@@@std@@@std@@QEAA@AEAV?$allocator@U?$_List_node@U?$pair@$$CBV?$array@E$07@std@@UCertificate@v3@security@vanetza@@@std@@PEAX@std@@@1@AEAV?$array@E$07@1@$$QEAUCertificate@v3@security@vanetza@@@Z
	??$?0AEA_K@?$_Tuple_val@_K@std@@QEAA@AEA_K@Z
	??$?0AEA_N@?$_Tuple_val@AEA_N@std@@QEAA@AEA_N@Z
	??$?0AEBE@?$_List_node_emplace_op2@V?$allocator@U?$_List_node@EPEAX@std@@@std@@@std@@QEAA@AEAV?$allocator@U?$_List_node@EPEAX@std@@@1@AEBE@Z
	??$?0AEBU?$less@V?$array@E$02@std@@@std@@U_Zero_then_variadic_args_t@1@@?$_Compressed_pair@U?$less@V?$array@E$02@std@@@std@@V?$_Compressed_pair@V?$allocator@U?$_Tree_node@V?$array@E$02@std@@PEAX@std@@@std@@V?$_Tree_val@U?$_Tree_simple_types@V?$array@E$02@std@@@std@@@2@$00@2@$00@std@@QEAA@U_One_then_variadic_args_t@1@AEBU?$less@V?$array@E$02@std@@@1@$$QEAU_Zero_then_variadic_args_t@1@@Z
	??$?0AEBU?$less@V?$array@E$07@std@@@std@@U_Zero_then_variadic_args_t@1@@?$_Compressed_pair@U?$less@V?$array@E$07@std@@@std@@V?$_Compressed_pair@V?$allocator@U?$_Tree_node@U?$pair@$$CBV?$array@E$07@std@@UCachedCertificate@CertificateCache@v2@security@vanetza@@@std@@PEAX@std@@@std@@V?$_Tree_val@U?$_Tree_simple_types@U?$pair@$$CBV?$array@E$07@std@@UCachedCertificate@CertificateCache@v2@security@vanetza@@@std@@@std@@@2@$00@2@$00@std@@QEAA@U_One_then_variadic_args_t@1@AEBU?$less@V?$array@E$07@std@@@1@$$QEAU_Zero_then_variadic_args_t@1@@Z
	??$?0AEBU?$less@V?$basic_string@DU?$char_traits@D@std@@V?$allocator@D@2@@std@@@std@@U_Zero_then_variadic_args_t@1@@?$_Compressed_pair@U?$less@V?$basic_string@DU?$char_traits@D@std@@V?$allocator@D@2@@std@@@std@@V?$_Compressed_pair@V?$allocator@U?$_Tree_node@U?$pair@$$CBV?$basic_string@DU?$char_traits@D@std@@V?$allocator@D@2@@std@@V?$function@$$A6A?AV?$unique_ptr@VBackend@security@vanetza@@U?$default_delete@VBackend@security@vanetza@@@std@@@std@@XZ@2@@std@@PEAX@std@@@std@@V?$_Tree_val@U?$_Tree_simple_types@U?$pair@$$CBV?$basic_string@DU?$char_traits@D@std@@V?$allocator@D@2@@std@@V?$function@$$A6A?AV?$unique_ptr@VBackend@security@vanetza@@U?$default_delete@VBackend@security@vanetza@@@std@@@std@@XZ@2@@std@@@std@@@2@$00@2@$00@std@@QEAA@U_One_then_variadic_args_t@1@AEBU?$less@V?$basic_string@DU?$char_traits@D@std@@V?$allocator@D@2@@std@@@1@$$QEAU_Zero_then_variadic_args_t@1@@Z
	??$?0AEBU?$less@W4CamPermission@security@vanetza@@@std@@U_Zero_then_variadic_args_t@1@@?$_Compressed_pair@U?$less@W4CamPermission@security@vanetza@@@std@@V?$_Compressed_pair@V?$allocator@U?$_Tree_node@W4CamPermission@security@vanetza@@PEAX@std@@@std@@V?$_Tree_val@U?$_Tree_simple_types@W4CamPermission@security@vanetza@@@std@@@2@$00@2@$00@std@@QEAA@U_One_then_variadic_args_t@1@AEBU?$less@W4CamPermission@security@vanetza@@@1@$$QEAU_Zero_then_variadic_args_t@1@@Z
	??$?0AEBUCertificate@v2@security@vanetza@@@?$_List_node_emplace_op2@V?$allocator@U?$_List_node@UCertificate@v2@security@vanetza@@PEAX@std@@@std@@@std@@QEAA@AEAV?$allocator@U?$_List_node@UCertificate@v2@security@vanetza@@PEAX@std@@@1@AEBUCertificate@v2@security@vanetza@@@Z
	??$?0AEBUItsAidSsp@v2@security@vanetza@@@?$_List_node_emplace_op2@V?$allocator@U?$_List_node@UItsAidSsp@v2@security@vanetza@@PEAX@std@@@std@@@std@@QEAA@AEAV?$allocator@U?$_List_node@UItsAidSsp@v2@security@vanetza@@PEAX@std@@@1@AEBUItsAidSsp@v2@security@vanetza@@@Z
	??$?0AEBURectangularRegion@v2@security@vanetza@@@?$_List_node_emplace_op2@V?$allocator@U?$_List_node@URectangularRegion@v2@security@vanetza@@PEAX@std@@@std@@@std@@QEAA@AEAV?$allocator@U?$_List_node@URectangularRegion@v2@security@vanetza@@PEAX@std@@@1@AEBURectangularRegion@v2@security@vanetza@@@Z
	??$?0AEBUTwoDLocation@v2@security@vanetza@@@?$_List_node_emplace_op2@V?$allocator@U?$_List_node@UTwoDLocation@v2@security@vanetza@@PEAX@std@@@std@@@std@@QEAA@AEAV?$allocator@U?$_List_node@UTwoDLocation@v2@security@vanetza@@PEAX@std@@@1@AEBUTwoDLocation@v2@security@vanetza@@@Z
	??$?0AEBU_Ignore@std@@$0A@@?$tuple@AEBU_Ignore@std@@AEA_N@std@@QEAA@AEBU_Ignore@1@AEA_N@Z
	??$?0AEBU_Ignore@std@@@?$_Tuple_val@AEBU_Ignore@std@@@std@@QEAA@AEBU_Ignore@1@@Z
	??$?0AEBV<lambda_052e919cc0e5399df76dff3972c0cac1>@@$0A@@?$_Func_impl_no_alloc@V<lambda_052e919cc0e5399df76dff3972c0cac1>@@E$$V@std@@QEAA@AEBV<lambda_052e919cc0e5399df76dff3972c0cac1>@@@Z
	??$?0AEBV<lambda_2fa3e3d11fb97352afa77a4a13bfb543>@@$0A@@?$_Func_impl_no_alloc@V<lambda_2fa3e3d11fb97352afa77a4a13bfb543>@@X$$V@std@@QEAA@AEBV<lambda_2fa3e3d11fb97352afa77a4a13bfb543>@@@Z
	??$?0AEBV<lambda_763529b0c7473cbc215a52d189ac9b18>@@$0A@@?$_Func_impl_no_alloc@V<lambda_763529b0c7473cbc215a52d189ac9b18>@@X$$V@std@@QEAA@AEBV<lambda_763529b0c7473cbc215a52d189ac9b18>@@@Z
	??$?0AEBV<lambda_f25c37099038263181b5186a3fa41b37>@@$0A@@?$_Func_impl_no_alloc@V<lambda_f25c37099038263181b5186a3fa41b37>@@X$$V@std@@QEAA@AEBV<lambda_f25c37099038263181b5186a3fa41b37>@@@Z
	??$?0AEBV?$allocator@D@std@@$$V@?$_Compressed_pair@V?$allocator@D@std@@V?$_String_val@U?$_Simple_types@D@std@@@2@$00@std@@QEAA@U_One_then_variadic_args_t@1@AEBV?$allocator@D@1@@Z
	??$?0AEBV?$allocator@E@std@@$$V@?$_Compressed_pair@V?$allocator@E@std@@V?$_Vector_val@U?$_Simple_types@E@std@@@2@$00@std@@QEAA@U_One_then_variadic_args_t@1@AEBV?$allocator@E@1@@Z
	??$?0AEBV?$allocator@I@std@@$$V@?$_Compressed_pair@V?$allocator@I@std@@V?$_Vector_val@U?$_Simple_types@I@std@@@2@$00@std@@QEAA@U_One_then_variadic_args_t@1@AEBV?$allocator@I@1@@Z
	??$?0AEBV?$allocator@U?$pair@$$CBV?$array@E$02@std@@V?$_List_iterator@V?$_List_val@U?$_List_simple_types@U?$pair@$$CBV?$array@E$07@std@@UCertificate@v3@security@vanetza@@@std@@@std@@@std@@@2@@std@@@std@@$$V@?$_Compressed_pair@V?$allocator@U?$_List_node@U?$pair@$$CBV?$array@E$02@std@@V?$_List_iterator@V?$_List_val@U?$_List_simple_types@U?$pair@$$CBV?$array@E$07@std@@UCertificate@v3@security@vanetza@@@std@@@std@@@std@@@2@@std@@PEAX@std@@@std@@V?$_List_val@U?$_List_simple_types@U?$pair@$$CBV?$array@E$02@std@@V?$_List_iterator@V?$_List_val@U?$_List_simple_types@U?$pair@$$CBV?$array@E$07@std@@UCertificate@v3@security@vanetza@@@std@@@std@@@std@@@2@@std@@@std@@@2@$00@std@@QEAA@U_One_then_variadic_args_t@1@AEBV?$allocator@U?$pair@$$CBV?$array@E$02@std@@V?$_List_iterator@V?$_List_val@U?$_List_simple_types@U?$pair@$$CBV?$array@E$07@std@@UCertificate@v3@security@vanetza@@@std@@@std@@@std@@@2@@std@@@1@@Z
	??$?0AEBV?$allocator@U?$pair@$$CBV?$array@E$02@std@@V?$_List_iterator@V?$_List_val@U?$_List_simple_types@U?$pair@$$CBV?$array@E$07@std@@UCertificate@v3@security@vanetza@@@std@@@std@@@std@@@2@@std@@@std@@$$V@?$_Compressed_pair@V?$allocator@V?$_List_unchecked_iterator@V?$_List_val@U?$_List_simple_types@U?$pair@$$CBV?$array@E$02@std@@V?$_List_iterator@V?$_List_val@U?$_List_simple_types@U?$pair@$$CBV?$array@E$07@std@@UCertificate@v3@security@vanetza@@@std@@@std@@@std@@@2@@std@@@std@@@std@@@std@@@std@@V?$_Vector_val@U?$_Simple_types@V?$_List_unchecked_iterator@V?$_List_val@U?$_List_simple_types@U?$pair@$$CBV?$array@E$02@std@@V?$_List_iterator@V?$_List_val@U?$_List_simple_types@U?$pair@$$CBV?$array@E$07@std@@UCertificate@v3@security@vanetza@@@std@@@std@@@std@@@2@@std@@@std@@@std@@@std@@@std@@@2@$00@std@@QEAA@U_One_then_variadic_args_t@1@AEBV?$allocator@U?$pair@$$CBV?$array@E$02@std@@V?$_List_iterator@V?$_List_val@U?$_List_simple_types@U?$pair@$$CBV?$array@E$07@std@@UCertificate@v3@security@vanetza@@@std@@@std@@@std@@@2@@std@@@1@@Z
	??$?0AEBV?$allocator@U?$pair@$$CBV?$array@E$02@std@@V?$_List_iterator@V?$_List_val@U?$_List_simple_types@U?$pair@$$CBV?$array@E$07@std@@UCertificate@v3@security@vanetza@@@std@@@std@@@std@@@2@@std@@@std@@$0A@@?$_Hash_vec@V?$allocator@V?$_List_unchecked_iterator@V?$_List_val@U?$_List_simple_types@U?$pair@$$CBV?$array@E$02@std@@V?$_List_iterator@V?$_List_val@U?$_List_simple_types@U?$pair@$$CBV?$array@E$07@std@@UCertificate@v3@security@vanetza@@@std@@@std@@@std@@@2@@std@@@std@@@std@@@std@@@std@@@std@@QEAA@AEBV?$allocator@U?$pair@$$CBV?$array@E$02@std@@V?$_List_iterator@V?$_List_val@U?$_List_simple_types@U?$pair@$$CBV?$array@E$07@std@@UCertificate@v3@security@vanetza@@@std@@@std@@@std@@@2@@std@@@1@@Z
	??$?0AEBV?$allocator@U?$pair@$$CBV?$array@E$02@std@@V?$_List_iterator@V?$_List_val@U?$_List_simple_types@V?$array@E$02@std@@@std@@@std@@@2@@std@@@std@@$$V@?$_Compressed_pair@V?$allocator@U?$_List_node@U?$pair@$$CBV?$array@E$02@std@@V?$_List_iterator@V?$_List_val@U?$_List_simple_types@V?$array@E$02@std@@@std@@@std@@@2@@std@@PEAX@std@@@std@@V?$_List_val@U?$_List_simple_types@U?$pair@$$CBV?$array@E$02@std@@V?$_List_iterator@V?$_List_val@U?$_List_simple_types@V?$array@E$02@std@@@std@@@std@@@2@@std@@@std@@@2@$00@std@@QEAA@U_One_then_variadic_args_t@1@AEBV?$allocator@U?$pair@$$CBV?$array@E$02@std@@V?$_List_iterator@V?$_List_val@U?$_List_simple_types@V?$array@E$02@std@@@std@@@std@@@2@@std@@@1@@Z
	??$?0AEBV?$allocator@U?$pair@$$CBV?$array@E$02@std@@V?$_List_iterator@V?$_List_val@U?$_List_simple_types@V?$array@E$02@std@@@std@@@std@@@2@@std@@@std@@$$V@?$_Compressed_pair@V?$allocator@V?$_List_unchecked_iterator@V?$_List_val@U?$_List_simple_types@U?$pair@$$CBV?$array@E$02@std@@V?$_List_iterator@V?$_List_val@U?$_List_simple_types@V?$array@E$02@std@@@std@@@std@@@2@@std@@@std@@@std@@@std@@@std@@V?$_Vector_val@U?$_Simple_types@V?$_List_unchecked_iterator@V?$_List_val@U?$_List_simple_types@U?$pair@$$CBV?$array@E$02@std@@V?$_List_iterator@V?$_List_val@U?$_List_simple_types@V?$array@E$02@std@@@std@@@std@@@2@@std@@@std@@@std@@@std@@@std@@@2@$00@std@@QEAA@U_One_then_variadic_args_t@1@AEBV?$allocator@U?$pair@$$CBV?$array@E$02@std@@V?$_List_iterator@V?$_List_val@U?$_List_simple_types@V?$array@E$02@std@@@std@@@std@@@2@@std@@@1@@Z
	??$?0AEBV?$allocator@U?$pair@$$CBV?$array@E$02@std@@V?$_List_iterator@V?$_List_val@U?$_List_simple_types@V?$array@E$02@std@@@std@@@std@@@2@@std@@@std@@$0A@@?$_Hash_vec@V?$allocator@V?$_List_unchecked_iterator@V?$_List_val@U?$_List_simple_types@U?$pair@$$CBV?$array@E$02@std@@V?$_List_iterator@V?$_List_val@U?$_List_simple_types@V?$array@E$02@std@@@std@@@std@@@2@@std@@@std@@@std@@@std@@@std@@@std@@QEAA@AEBV?$allocator@U?$pair@$$CBV?$array@E$02@std@@V?$_List_iterator@V?$_List_val@U?$_List_simple_types@V?$array@E$02@std@@@std@@@std@@@2@@std@@@1@@Z
	??$?0AEBV?$allocator@U?$pair@$$CBV?$array@E$07@std@@UCertificate@v3@security@vanetza@@@std@@@std@@$$V@?$_Compressed_pair@V?$allocator@U?$_List_node@U?$pair@$$CBV?$array@E$07@std@@UCertificate@v3@security@vanetza@@@std@@PEAX@std@@@std@@V?$_List_val@U?$_List_simple_types@U?$pair@$$CBV?$array@E$07@std@@UCertificate@v3@security@vanetza@@@std@@@std@@@2@$00@std@@QEAA@U_One_then_variadic_args_t@1@AEBV?$allocator@U?$pair@$$CBV?$array@E$07@std@@UCertificate@v3@security@vanetza@@@std@@@1@@Z
	??$?0AEBV?$allocator@U?$pair@$$CBV?$array@E$07@std@@UCertificate@v3@security@vanetza@@@std@@@std@@$$V@?$_Compressed_pair@V?$allocator@V?$_List_unchecked_iterator@V?$_List_val@U?$_List_simple_types@U?$pair@$$CBV?$array@E$07@std@@UCertificate@v3@security@vanetza@@@std@@@std@@@std@@@std@@@std@@V?$_Vector_val@U?$_Simple_types@V?$_List_unchecked_iterator@V?$_List_val@U?$_List_simple_types@U?$pair@$$CBV?$array@E$07@std@@UCertificate@v3@security@vanetza@@@std@@@std@@@std@@@std@@@std@@@2@$00@std@@QEAA@U_One_then_variadic_args_t@1@AEBV?$allocator@U?$pair@$$CBV?$array@E$07@std@@UCertificate@v3@security@vanetza@@@std@@@1@@Z
	??$?0AEBV?$allocator@U?$pair@$$CBV?$array@E$07@std@@UCertificate@v3@security@vanetza@@@std@@@std@@$0A@@?$_Hash_vec@V?$allocator@V?$_List_unchecked_iterator@V?$_List_val@U?$_List_simple_types@U?$pair@$$CBV?$array@E$07@std@@UCertificate@v3@security@vanetza@@@std@@@std@@@std@@@std@@@std@@@std@@QEAA@AEBV?$allocator@U?$pair@$$CBV?$array@E$07@std@@UCertificate@v3@security@vanetza@@@std@@@1@@Z
	??$?0AEBV?$allocator@V?$array@E$07@std@@@std@@$$V@?$_Compressed_pair@V?$allocator@U?$_List_node@V?$array@E$07@std@@PEAX@std@@@std@@V?$_List_val@U?$_List_simple_types@V?$array@E$07@std@@@std@@@2@$00@std@@QEAA@U_One_then_variadic_args_t@1@AEBV?$allocator@V?$array@E$07@std@@@1@@Z
	??$?0AEBV?$allocator@V?$array@E$07@std@@@std@@$$V@?$_Compressed_pair@V?$allocator@V?$_List_unchecked_const_iterator@V?$_List_val@U?$_List_simple_types@V?$array@E$07@std@@@std@@@std@@U_Iterator_base0@2@@std@@@std@@V?$_Vector_val@U?$_Simple_types@V?$_List_unchecked_const_iterator@V?$_List_val@U?$_List_simple_types@V?$array@E$07@std@@@std@@@std@@U_Iterator_base0@2@@std@@@std@@@2@$00@std@@QEAA@U_One_then_variadic_args_t@1@AEBV?$allocator@V?$array@E$07@std@@@1@@Z
	??$?0AEBV?$allocator@V?$array@E$07@std@@@std@@$0A@@?$_Hash_vec@V?$allocator@V?$_List_unchecked_const_iterator@V?$_List_val@U?$_List_simple_types@V?$array@E$07@std@@@std@@@std@@U_Iterator_base0@2@@std@@@std@@@std@@QEAA@AEBV?$allocator@V?$array@E$07@std@@@1@@Z
	??$?0AEBV?$array@E$02@std@@@?$_List_node_emplace_op2@V?$allocator@U?$_List_node@V?$array@E$02@std@@PEAX@std@@@std@@@std@@QEAA@AEAV?$allocator@U?$_List_node@V?$array@E$02@std@@PEAX@std@@@1@AEBV?$array@E$02@1@@Z
	??$?0AEBV?$array@E$02@std@@AEAV?$_List_iterator@V?$_List_val@U?$_List_simple_types@V?$array@E$02@std@@@std@@@std@@@1@$0A@@?$pair@$$CBV?$array@E$02@std@@V?$_List_iterator@V?$_List_val@U?$_List_simple_types@V?$array@E$02@std@@@std@@@std@@@2@@std@@QEAA@AEBV?$array@E$02@1@AEAV?$_List_iterator@V?$_List_val@U?$_List_simple_types@V?$array@E$02@std@@@std@@@std@@@1@@Z
	??$?0AEBV?$array@E$02@std@@AEAV?$_List_iterator@V?$_List_val@U?$_List_simple_types@V?$array@E$02@std@@@std@@@std@@@1@@?$_List_node_emplace_op2@V?$allocator@U?$_List_node@U?$pair@$$CBV?$array@E$02@std@@V?$_List_iterator@V?$_List_val@U?$_List_simple_types@V?$array@E$02@std@@@std@@@std@@@2@@std@@PEAX@std@@@std@@@std@@QEAA@AEAV?$allocator@U?$_List_node@U?$pair@$$CBV?$array@E$02@std@@V?$_List_iterator@V?$_List_val@U?$_List_simple_types@V?$array@E$02@std@@@std@@@std@@@2@@std@@PEAX@std@@@1@AEBV?$array@E$02@1@AEAV?$_List_iterator@V?$_List_val@U?$_List_simple_types@V?$array@E$02@std@@@std@@@std@@@1@@Z
	??$?0AEBV?$array@E$07@std@@@?$_List_node_emplace_op2@V?$allocator@U?$_List_node@V?$array@E$07@std@@PEAX@std@@@std@@@std@@QEAA@AEAV?$allocator@U?$_List_node@V?$array@E$07@std@@PEAX@std@@@1@AEBV?$array@E$07@1@@Z
	??$?0AEBV?$array@E$07@std@@AEAUCachedCertificate@CertificateCache@v2@security@vanetza@@$0A@@?$pair@$$CBV?$array@E$07@std@@UCachedCertificate@CertificateCache@v2@security@vanetza@@@std@@QEAA@AEBV?$array@E$07@1@AEAUCachedCertificate@CertificateCache@v2@security@vanetza@@@Z
	??$?0AEBV?$array@E$07@std@@AEAUCachedCertificate@CertificateCache@v2@security@vanetza@@@?$_Tree_temp_node@V?$allocator@U?$_Tree_node@U?$pair@$$CBV?$array@E$07@std@@UCachedCertificate@CertificateCache@v2@security@vanetza@@@std@@PEAX@std@@@std@@@std@@QEAA@AEAV?$allocator@U?$_Tree_node@U?$pair@$$CBV?$array@E$07@std@@UCachedCertificate@CertificateCache@v2@security@vanetza@@@std@@PEAX@std@@@1@PEAU?$_Tree_node@U?$pair@$$CBV?$array@E$07@std@@UCachedCertificate@CertificateCache@v2@security@vanetza@@@std@@PEAX@1@AEBV?$array@E$07@1@AEAUCachedCertificate@CertificateCache@v2@security@vanetza@@@Z
	??$?0AEBV?$basic_string@DU?$char_traits@D@std@@V?$allocator@D@2@@std@@V?$function@$$A6A?AV?$unique_ptr@VBackend@security@vanetza@@U?$default_delete@VBackend@security@vanetza@@@std@@@std@@XZ@1@$0A@@?$pair@$$CBV?$basic_string@DU?$char_traits@D@std@@V?$allocator@D@2@@std@@V?$function@$$A6A?AV?$unique_ptr@VBackend@security@vanetza@@U?$default_delete@VBackend@security@vanetza@@@std@@@std@@XZ@2@@std@@QEAA@AEBV?$basic_string@DU?$char_traits@D@std@@V?$allocator@D@2@@1@$$QEAV?$function@$$A6A?AV?$unique_ptr@VBackend@security@vanetza@@U?$default_delete@VBackend@security@vanetza@@@std@@@std@@XZ@1@@Z
	??$?0AEBV?$basic_string@DU?$char_traits@D@std@@V?$allocator@D@2@@std@@V?$function@$$A6A?AV?$unique_ptr@VBackend@security@vanetza@@U?$default_delete@VBackend@security@vanetza@@@std@@@std@@XZ@1@@?$_Tree_temp_node@V?$allocator@U?$_Tree_node@U?$pair@$$CBV?$basic_string@DU?$char_traits@D@std@@V?$allocator@D@2@@std@@V?$function@$$A6A?AV?$unique_ptr@VBackend@security@vanetza@@U?$default_delete@VBackend@security@vanetza@@@std@@@std@@XZ@2@@std@@PEAX@std@@@std@@@std@@QEAA@AEAV?$allocator@U?$_Tree_node@U?$pair@$$CBV?$basic_string@DU?$char_traits@D@std@@V?$allocator@D@2@@std@@V?$function@$$A6A?AV?$unique_ptr@VBackend@security@vanetza@@U?$default_delete@VBackend@security@vanetza@@@std@@@std@@XZ@2@@std@@PEAX@std@@@1@PEAU?$_Tree_node@U?$pair@$$CBV?$basic_string@DU?$char_traits@D@std@@V?$allocator@D@2@@std@@V?$function@$$A6A?AV?$unique_ptr@VBackend@security@vanetza@@U?$default_delete@VBackend@security@vanetza@@@std@@@std@@XZ@2@@std@@PEAX@1@AEBV?$basic_string@DU?$char_traits@D@std@@V?$allocator@D@2@@1@$$QEAV?$function@$$A6A?AV?$unique_ptr@VBackend@security@vanetza@@U?$default_delete@VBackend@security@vanetza@@@std@@@std@@XZ@1@@Z
	??$?0AEBV?$variant@USignature@v2@security@vanetza@@$$V@boost@@@?$_List_node_emplace_op2@V?$allocator@U?$_List_node@V?$variant@USignature@v2@security@vanetza@@$$V@boost@@PEAX@std@@@std@@@std@@QEAA@AEAV?$allocator@U?$_List_node@V?$variant@USignature@v2@security@vanetza@@$$V@boost@@PEAX@std@@@1@AEBV?$variant@USignature@v2@security@vanetza@@$$V@boost@@@Z
	??$?0AEBV?$variant@_KUTime64WithStandardDeviation@v2@security@vanetza@@IUThreeDLocation@234@V?$list@V?$array@E$02@std@@V?$allocator@V?$array@E$02@std@@@2@@std@@VIntX@234@V?$variant@$$TV?$array@E$07@std@@V?$recursive_wrapper@UCertificate@v2@security@vanetza@@@boost@@V?$list@UCertificate@v2@security@vanetza@@V?$allocator@UCertificate@v2@security@vanetza@@@std@@@2@UCertificateDigestWithOtherAlgorithm@v2@security@vanetza@@@boost@@V?$variant@V?$array@E$0M@@std@@$$V@boost@@V?$list@URecipientInfo@v2@security@vanetza@@V?$allocator@URecipientInfo@v2@security@vanetza@@@std@@@7@@boost@@@?$_List_node_emplace_op2@V?$allocator@U?$_List_node@V?$variant@_KUTime64WithStandardDeviation@v2@security@vanetza@@IUThreeDLocation@234@V?$list@V?$array@E$02@std@@V?$allocator@V?$array@E$02@std@@@2@@std@@VIntX@234@V?$variant@$$TV?$array@E$07@std@@V?$recursive_wrapper@UCertificate@v2@security@vanetza@@@boost@@V?$list@UCertificate@v2@security@vanetza@@V?$allocator@UCertificate@v2@security@vanetza@@@std@@@2@UCertificateDigestWithOtherAlgorithm@v2@security@vanetza@@@boost@@V?$variant@V?$array@E$0M@@std@@$$V@boost@@V?$list@URecipientInfo@v2@security@vanetza@@V?$allocator@URecipientInfo@v2@security@vanetza@@@std@@@7@@boost@@PEAX@std@@@std@@@std@@QEAA@AEAV?$allocator@U?$_List_node@V?$variant@_KUTime64WithStandardDeviation@v2@security@vanetza@@IUThreeDLocation@234@V?$list@V?$array@E$02@std@@V?$allocator@V?$array@E$02@std@@@2@@std@@VIntX@234@V?$variant@$$TV?$array@E$07@std@@V?$recursive_wrapper@UCertificate@v2@security@vanetza@@@boost@@V?$list@UCertificate@v2@security@vanetza@@V?$allocator@UCertificate@v2@security@vanetza@@@std@@@2@UCertificateDigestWithOtherAlgorithm@v2@security@vanetza@@@boost@@V?$variant@V?$array@E$0M@@std@@$$V@boost@@V?$list@URecipientInfo@v2@security@vanetza@@V?$allocator@URecipientInfo@v2@security@vanetza@@@std@@@7@@boost@@PEAX@std@@@1@AEBV?$variant@_KUTime64WithStandardDeviation@v2@security@vanetza@@IUThreeDLocation@234@V?$list@V?$array@E$02@std@@V?$allocator@V?$array@E$02@std@@@2@@std@@VIntX@234@V?$variant@$$TV?$array@E$07@std@@V?$recursive_wrapper@UCertificate@v2@security@vanetza@@@boost@@V?$list@UCertificate@v2@security@vanetza@@V?$allocator@UCertificate@v2@security@vanetza@@@std@@@2@UCertificateDigestWithOtherAlgorithm@v2@security@vanetza@@@boost@@V?$variant@V?$array@E$0M@@std@@$$V@boost@@V?$list@URecipientInfo@v2@security@vanetza@@V?$allocator@URecipientInfo@v2@security@vanetza@@@std@@@7@@boost@@@Z
	??$?0AEBVexception_ptr@std@@V_TaskCreationCallstack@details@Concurrency@@@?$_Ref_count_obj2@U_ExceptionHolder@details@Concurrency@@@std@@QEAA@AEBVexception_ptr@1@$$QEAV_TaskCreationCallstack@details@Concurrency@@@Z
	??$?0AEBW4CamPermission@security@vanetza@@@?$_Tree_temp_node@V?$allocator@U?$_Tree_node@W4CamPermission@security@vanetza@@PEAX@std@@@std@@@std@@QEAA@AEAV?$allocator@U?$_Tree_node@W4CamPermission@security@vanetza@@PEAX@std@@@1@PEAU?$_Tree_node@W4CamPermission@security@vanetza@@PEAX@1@AEBW4CamPermission@security@vanetza@@@Z
	??$?0D@?$allocator@U_Container_proxy@std@@@std@@QEAA@AEBV?$allocator@D@1@@Z
	??$?0E@?$_List_node_emplace_op2@V?$allocator@U?$_List_node@EPEAX@std@@@std@@@std@@QEAA@AEAV?$allocator@U?$_List_node@EPEAX@std@@@1@$$QEAE@Z
	??$?0E@?$allocator@U_Container_proxy@std@@@std@@QEAA@AEBV?$allocator@E@1@@Z
	??$?0G$0A@@?$duration@_JU?$ratio@$00$00@std@@@chrono@std@@QEAA@AEBG@Z
	??$?0H$0A@@?$duration@HU?$ratio@$0OBA@$00@std@@@chrono@std@@QEAA@AEBH@Z
	??$?0H$0A@@?$duration@_JU?$ratio@$00$00@std@@@chrono@std@@QEAA@AEBH@Z
	??$?0H$0A@@?$duration@_JU?$ratio@$00$0DOI@@std@@@chrono@std@@QEAA@AEBH@Z
	??$?0H@?$_Tuple_val@H@std@@QEAA@$$QEAH@Z
	??$?0H@?$_Tuple_val@_K@std@@QEAA@$$QEAH@Z
	??$?0HU?$ratio@$0DM@$00@std@@$0A@@?$duration@_JU?$ratio@$00$0PECEA@@std@@@chrono@std@@QEAA@AEBV?$duration@HU?$ratio@$0DM@$00@std@@@12@@Z
	??$?0HU?$ratio@$0OBA@$00@std@@$0A@@?$duration@JU?$ratio@$0OBA@$00@std@@@chrono@std@@QEAA@AEBV?$duration@HU?$ratio@$0OBA@$00@std@@@12@@Z
	??$?0HU?$ratio@$0OBA@$00@std@@$0A@@?$duration@_JU?$ratio@$00$0PECEA@@std@@@chrono@std@@QEAA@AEBV?$duration@HU?$ratio@$0OBA@$00@std@@@12@@Z
	??$?0I$0A@@?$duration@IU?$ratio@$00$00@std@@@chrono@std@@QEAA@AEBI@Z
	??$?0I$0A@@?$duration@_JU?$ratio@$00$00@std@@@chrono@std@@QEAA@AEBI@Z
	??$?0I@?$_List_node_emplace_op2@V?$allocator@U?$_List_node@IPEAX@std@@@std@@@std@@QEAA@AEAV?$allocator@U?$_List_node@IPEAX@std@@@1@$$QEAI@Z
	??$?0I@?$allocator@U_Container_proxy@std@@@std@@QEAA@AEBV?$allocator@I@1@@Z
	??$?0I@?$variant@IUStartAndEndValidity@v2@security@vanetza@@UStartAndDurationValidity@234@V?$variant@UNoneRegion@v2@security@vanetza@@UCircularRegion@234@V?$list@URectangularRegion@v2@security@vanetza@@V?$allocator@URectangularRegion@v2@security@vanetza@@@std@@@std@@V?$list@UTwoDLocation@v2@security@vanetza@@V?$allocator@UTwoDLocation@v2@security@vanetza@@@std@@@7@UIdentifiedRegion@234@@boost@@@boost@@QEAA@AEBI_N@Z
	??$?0I@?$variant@_KUTime64WithStandardDeviation@v2@security@vanetza@@IUThreeDLocation@234@V?$list@V?$array@E$02@std@@V?$allocator@V?$array@E$02@std@@@2@@std@@VIntX@234@V?$variant@$$TV?$array@E$07@std@@V?$recursive_wrapper@UCertificate@v2@security@vanetza@@@boost@@V?$list@UCertificate@v2@security@vanetza@@V?$allocator@UCertificate@v2@security@vanetza@@@std@@@2@UCertificateDigestWithOtherAlgorithm@v2@security@vanetza@@@boost@@V?$variant@V?$array@E$0M@@std@@$$V@boost@@V?$list@URecipientInfo@v2@security@vanetza@@V?$allocator@URecipientInfo@v2@security@vanetza@@@std@@@7@@boost@@QEAA@AEAI_N@Z
	??$?0I@?$variant@_KUTime64WithStandardDeviation@v2@security@vanetza@@IUThreeDLocation@234@V?$list@V?$array@E$02@std@@V?$allocator@V?$array@E$02@std@@@2@@std@@VIntX@234@V?$variant@$$TV?$array@E$07@std@@V?$recursive_wrapper@UCertificate@v2@security@vanetza@@@boost@@V?$list@UCertificate@v2@security@vanetza@@V?$allocator@UCertificate@v2@security@vanetza@@@std@@@2@UCertificateDigestWithOtherAlgorithm@v2@security@vanetza@@@boost@@V?$variant@V?$array@E$0M@@std@@$$V@boost@@V?$list@URecipientInfo@v2@security@vanetza@@V?$allocator@URecipientInfo@v2@security@vanetza@@@std@@@7@@boost@@QEAA@AEBI_N@Z
	??$?0J$0A@@?$duration@HU?$ratio@$0DM@$00@std@@@chrono@std@@QEAA@AEBJ@Z
	??$?0J$0A@@?$duration@HU?$ratio@$0OBA@$00@std@@@chrono@std@@QEAA@AEBJ@Z
	??$?0J$0A@@?$duration@JU?$ratio@$0OBA@$00@std@@@chrono@std@@QEAA@AEBJ@Z
	??$?0J$0A@@?$duration@_JU?$ratio@$00$00@std@@@chrono@std@@QEAA@AEBJ@Z
	??$?0J$0A@@?$duration@_JU?$ratio@$00$0DOI@@std@@@chrono@std@@QEAA@AEBJ@Z
	??$?0J$0A@@?$duration@_JU?$ratio@$00$0PECEA@@std@@@chrono@std@@QEAA@AEBJ@Z
	??$?0JU?$ratio@$0OBA@$00@std@@$0A@@?$duration@_JU?$ratio@$00$0PECEA@@std@@@chrono@std@@QEAA@AEBV?$duration@JU?$ratio@$0OBA@$00@std@@@12@@Z
	??$?0K$0A@@?$duration@_JU?$ratio@$00$00@std@@@chrono@std@@QEAA@AEBK@Z
	??$?0M@?$_Compressed_pair@U?$equal_to@V?$array@E$02@std@@@std@@M$00@std@@QEAA@U_Zero_then_variadic_args_t@1@$$QEAM@Z
	??$?0M@?$_Compressed_pair@U?$equal_to@V?$array@E$07@std@@@std@@M$00@std@@QEAA@U_Zero_then_variadic_args_t@1@$$QEAM@Z
	??$?0PEAU?$_Tree_node@U?$pair@$$CBV?$array@E$07@std@@UCachedCertificate@CertificateCache@v2@security@vanetza@@@std@@PEAX@std@@_N$0A@@?$pair@PEAU?$_Tree_node@U?$pair@$$CBV?$array@E$07@std@@UCachedCertificate@CertificateCache@v2@security@vanetza@@@std@@PEAX@std@@_N@std@@QEAA@$$QEAPEAU?$_Tree_node@U?$pair@$$CBV?$array@E$07@std@@UCachedCertificate@CertificateCache@v2@security@vanetza@@@std@@PEAX@1@$$QEA_N@Z
	??$?0PEAU?$_Tree_node@U?$pair@$$CBV?$array@E$07@std@@UCertificate@v2@security@vanetza@@@std@@PEAX@std@@_N$0A@@?$pair@PEAU?$_Tree_node@U?$pair@$$CBV?$array@E$07@std@@UCertificate@v2@security@vanetza@@@std@@PEAX@std@@_N@std@@QEAA@$$QEAPEAU?$_Tree_node@U?$pair@$$CBV?$array@E$07@std@@UCertificate@v2@security@vanetza@@@std@@PEAX@1@$$QEA_N@Z
	??$?0PEAU?$_Tree_node@U?$pair@$$CBV?$basic_string@DU?$char_traits@D@std@@V?$allocator@D@2@@std@@V?$function@$$A6A?AV?$unique_ptr@VBackend@security@vanetza@@U?$default_delete@VBackend@security@vanetza@@@std@@@std@@XZ@2@@std@@PEAX@std@@_N$0A@@?$pair@PEAU?$_Tree_node@U?$pair@$$CBV?$basic_string@DU?$char_traits@D@std@@V?$allocator@D@2@@std@@V?$function@$$A6A?AV?$unique_ptr@VBackend@security@vanetza@@U?$default_delete@VBackend@security@vanetza@@@std@@@std@@XZ@2@@std@@PEAX@std@@_N@std@@QEAA@$$QEAPEAU?$_Tree_node@U?$pair@$$CBV?$basic_string@DU?$char_traits@D@std@@V?$allocator@D@2@@std@@V?$function@$$A6A?AV?$unique_ptr@VBackend@security@vanetza@@U?$default_delete@VBackend@security@vanetza@@@std@@@std@@XZ@2@@std@@PEAX@1@$$QEA_N@Z
	??$?0PEAU?$_Tree_node@V?$array@E$02@std@@PEAX@std@@_N$0A@@?$pair@PEAU?$_Tree_node@V?$array@E$02@std@@PEAX@std@@_N@std@@QEAA@$$QEAPEAU?$_Tree_node@V?$array@E$02@std@@PEAX@1@$$QEA_N@Z
	??$?0PEAU?$_Tree_node@W4CamPermission@security@vanetza@@PEAX@std@@_N$0A@@?$pair@PEAU?$_Tree_node@W4CamPermission@security@vanetza@@PEAX@std@@_N@std@@QEAA@$$QEAPEAU?$_Tree_node@W4CamPermission@security@vanetza@@PEAX@1@$$QEA_N@Z
	??$?0PEAUOCTET_STRING@@@?$variant@PEBUOCTET_STRING@@PEBUVanetza_Security_CertificateBase@@@boost@@QEAA@$$QEAPEAUOCTET_STRING@@_N@Z
	??$?0PEAV?$basic_altstringbuf@DU?$char_traits@D@std@@V?$allocator@D@2@@io@boost@@VNo_Op@?$basic_oaltstringstream@DU?$char_traits@D@std@@V?$allocator@D@2@@12@@shared_count@detail@boost@@QEAA@PEAV?$basic_altstringbuf@DU?$char_traits@D@std@@V?$allocator@D@2@@io@2@VNo_Op@?$basic_oaltstringstream@DU?$char_traits@D@std@@V?$allocator@D@2@@42@@Z
	??$?0PEAX@?$allocator@U_Container_proxy@std@@@std@@QEAA@AEBV?$allocator@PEAX@1@@Z
	??$?0PEBEI$0A@@?$pair@PEBEI@std@@QEAA@XZ
	??$?0PEBUOCTET_STRING@@@?$variant@PEBUOCTET_STRING@@PEBUVanetza_Security_CertificateBase@@@boost@@QEAA@$$QEAPEBUOCTET_STRING@@_N@Z
	??$?0PEBUVanetza_Security_CertificateBase@@@?$variant@PEBUOCTET_STRING@@PEBUVanetza_Security_CertificateBase@@@boost@@QEAA@$$QEAPEBUVanetza_Security_CertificateBase@@_N@Z
	??$?0U?$_List_node@EPEAX@std@@@?$allocator@U_Container_proxy@std@@@std@@QEAA@AEBV?$allocator@U?$_List_node@EPEAX@std@@@1@@Z
	??$?0U?$_List_node@IPEAX@std@@@?$allocator@U_Container_proxy@std@@@std@@QEAA@AEBV?$allocator@U?$_List_node@IPEAX@std@@@1@@Z
	??$?0U?$_List_node@U?$pair@$$CBV?$array@E$02@std@@V?$_List_iterator@V?$_List_val@U?$_List_simple_types@U?$pair@$$CBV?$array@E$07@std@@UCertificate@v3@security@vanetza@@@std@@@std@@@std@@@2@@std@@PEAX@std@@@?$allocator@U_Container_proxy@std@@@std@@QEAA@AEBV?$allocator@U?$_List_node@U?$pair@$$CBV?$array@E$02@std@@V?$_List_iterator@V?$_List_val@U?$_List_simple_types@U?$pair@$$CBV?$array@E$07@std@@UCertificate@v3@security@vanetza@@@std@@@std@@@std@@@2@@std@@PEAX@std@@@1@@Z
	??$?0U?$_List_node@U?$pair@$$CBV?$array@E$02@std@@V?$_List_iterator@V?$_List_val@U?$_List_simple_types@V?$array@E$02@std@@@std@@@std@@@2@@std@@PEAX@std@@@?$allocator@U_Container_proxy@std@@@std@@QEAA@AEBV?$allocator@U?$_List_node@U?$pair@$$CBV?$array@E$02@std@@V?$_List_iterator@V?$_List_val@U?$_List_simple_types@V?$array@E$02@std@@@std@@@std@@@2@@std@@PEAX@std@@@1@@Z
	??$?0U?$_List_node@U?$pair@$$CBV?$array@E$07@std@@UCertificate@v3@security@vanetza@@@std@@PEAX@std@@@?$allocator@U_Container_proxy@std@@@std@@QEAA@AEBV?$allocator@U?$_List_node@U?$pair@$$CBV?$array@E$07@std@@UCertificate@v3@security@vanetza@@@std@@PEAX@std@@@1@@Z
	??$?0U?$_List_node@UCertificate@v2@security@vanetza@@PEAX@std@@@?$allocator@U_Container_proxy@std@@@std@@QEAA@AEBV?$allocator@U?$_List_node@UCertificate@v2@security@vanetza@@PEAX@std@@@1@@Z
	??$?0U?$_List_node@UCertificate@v3@security@vanetza@@PEAX@std@@@?$allocator@U_Container_proxy@std@@@std@@QEAA@AEBV?$allocator@U?$_List_node@UCertificate@v3@security@vanetza@@PEAX@std@@@1@@Z
	??$?0U?$_List_node@UItsAidSsp@v2@security@vanetza@@PEAX@std@@@?$allocator@U_Container_proxy@std@@@std@@QEAA@AEBV?$allocator@U?$_List_node@UItsAidSsp@v2@security@vanetza@@PEAX@std@@@1@@Z
	??$?0U?$_List_node@URecipientInfo@v2@security@vanetza@@PEAX@std@@@?$allocator@U_Container_proxy@std@@@std@@QEAA@AEBV?$allocator@U?$_List_node@URecipientInfo@v2@security@vanetza@@PEAX@std@@@1@@Z
	??$?0U?$_List_node@URectangularRegion@v2@security@vanetza@@PEAX@std@@@?$allocator@U_Container_proxy@std@@@std@@QEAA@AEBV?$allocator@U?$_List_node@URectangularRegion@v2@security@vanetza@@PEAX@std@@@1@@Z
	??$?0U?$_List_node@UTwoDLocation@v2@security@vanetza@@PEAX@std@@@?$allocator@U_Container_proxy@std@@@std@@QEAA@AEBV?$allocator@U?$_List_node@UTwoDLocation@v2@security@vanetza@@PEAX@std@@@1@@Z
	??$?0U?$_List_node@V?$array@E$02@std@@PEAX@std@@@?$allocator@U_Container_proxy@std@@@std@@QEAA@AEBV?$allocator@U?$_List_node@V?$array@E$02@std@@PEAX@std@@@1@@Z
	??$?0U?$_List_node@V?$array@E$07@std@@PEAX@std@@@?$allocator@U_Container_proxy@std@@@std@@QEAA@AEBV?$allocator@U?$_List_node@V?$array@E$07@std@@PEAX@std@@@1@@Z
	??$?0U?$_List_node@V?$variant@IUStartAndEndValidity@v2@security@vanetza@@UStartAndDurationValidity@234@V?$variant@UNoneRegion@v2@security@vanetza@@UCircularRegion@234@V?$list@URectangularRegion@v2@security@vanetza@@V?$allocator@URectangularRegion@v2@security@vanetza@@@std@@@std@@V?$list@UTwoDLocation@v2@security@vanetza@@V?$allocator@UTwoDLocation@v2@security@vanetza@@@std@@@7@UIdentifiedRegion@234@@boost@@@boost@@PEAX@std@@@?$allocator@U_Container_proxy@std@@@std@@QEAA@AEBV?$allocator@U?$_List_node@V?$variant@IUStartAndEndValidity@v2@security@vanetza@@UStartAndDurationValidity@234@V?$variant@UNoneRegion@v2@security@vanetza@@UCircularRegion@234@V?$list@URectangularRegion@v2@security@vanetza@@V?$allocator@URectangularRegion@v2@security@vanetza@@@std@@@std@@V?$list@UTwoDLocation@v2@security@vanetza@@V?$allocator@UTwoDLocation@v2@security@vanetza@@@std@@@7@UIdentifiedRegion@234@@boost@@@boost@@PEAX@std@@@1@@Z
	??$?0U?$_List_node@V?$variant@USignature@v2@security@vanetza@@$$V@boost@@PEAX@std@@@?$allocator@U_Container_proxy@std@@@std@@QEAA@AEBV?$allocator@U?$_List_node@V?$variant@USignature@v2@security@vanetza@@$$V@boost@@PEAX@std@@@1@@Z
	??$?0U?$_List_node@V?$variant@UVerificationKey@v2@security@vanetza@@UEncryptionKey@234@USubjectAssurance@234@V?$variant@UX_Coordinate_Only@security@vanetza@@UCompressed_Lsb_Y_0@23@UCompressed_Lsb_Y_1@23@UUncompressed@23@@boost@@V?$list@VIntX@v2@security@vanetza@@V?$allocator@VIntX@v2@security@vanetza@@@std@@@std@@V?$list@UItsAidSsp@v2@security@vanetza@@V?$allocator@UItsAidSsp@v2@security@vanetza@@@std@@@std@@@boost@@PEAX@std@@@?$allocator@U_Container_proxy@std@@@std@@QEAA@AEBV?$allocator@U?$_List_node@V?$variant@UVerificationKey@v2@security@vanetza@@UEncryptionKey@234@USubjectAssurance@234@V?$variant@UX_Coordinate_Only@security@vanetza@@UCompressed_Lsb_Y_0@23@UCompressed_Lsb_Y_1@23@UUncompressed@23@@boost@@V?$list@VIntX@v2@security@vanetza@@V?$allocator@VIntX@v2@security@vanetza@@@std@@@std@@V?$list@UItsAidSsp@v2@security@vanetza@@V?$allocator@UItsAidSsp@v2@security@vanetza@@@std@@@std@@@boost@@PEAX@std@@@1@@Z
	??$?0U?$_List_node@V?$variant@_KUTime64WithStandardDeviation@v2@security@vanetza@@IUThreeDLocation@234@V?$list@V?$array@E$02@std@@V?$allocator@V?$array@E$02@std@@@2@@std@@VIntX@234@V?$variant@$$TV?$array@E$07@std@@V?$recursive_wrapper@UCertificate@v2@security@vanetza@@@boost@@V?$list@UCertificate@v2@security@vanetza@@V?$allocator@UCertificate@v2@security@vanetza@@@std@@@2@UCertificateDigestWithOtherAlgorithm@v2@security@vanetza@@@boost@@V?$variant@V?$array@E$0M@@std@@$$V@boost@@V?$list@URecipientInfo@v2@security@vanetza@@V?$allocator@URecipientInfo@v2@security@vanetza@@@std@@@7@@boost@@PEAX@std@@@?$allocator@U_Container_proxy@std@@@std@@QEAA@AEBV?$allocator@U?$_List_node@V?$variant@_KUTime64WithStandardDeviation@v2@security@vanetza@@IUThreeDLocation@234@V?$list@V?$array@E$02@std@@V?$allocator@V?$array@E$02@std@@@2@@std@@VIntX@234@V?$variant@$$TV?$array@E$07@std@@V?$recursive_wrapper@UCertificate@v2@security@vanetza@@@boost@@V?$list@UCertificate@v2@security@vanetza@@V?$allocator@UCertificate@v2@security@vanetza@@@std@@@2@UCertificateDigestWithOtherAlgorithm@v2@security@vanetza@@@boost@@V?$variant@V?$array@E$0M@@std@@$$V@boost@@V?$list@URecipientInfo@v2@security@vanetza@@V?$allocator@URecipientInfo@v2@security@vanetza@@@std@@@7@@boost@@PEAX@std@@@1@@Z
	??$?0U?$_List_node@VIntX@v2@security@vanetza@@PEAX@std@@@?$allocator@U_Container_proxy@std@@@std@@QEAA@AEBV?$allocator@U?$_List_node@VIntX@v2@security@vanetza@@PEAX@std@@@1@@Z
	??$?0U?$_Task_impl@E@details@Concurrency@@$0A@@?$weak_ptr@U_Task_impl_base@details@Concurrency@@@std@@QEAA@AEBV?$shared_ptr@U?$_Task_impl@E@details@Concurrency@@@1@@Z
	??$?0U?$_Tree_node@U?$pair@$$CBV?$array@E$07@std@@UCachedCertificate@CertificateCache@v2@security@vanetza@@@std@@PEAX@std@@@?$allocator@U_Container_proxy@std@@@std@@QEAA@AEBV?$allocator@U?$_Tree_node@U?$pair@$$CBV?$array@E$07@std@@UCachedCertificate@CertificateCache@v2@security@vanetza@@@std@@PEAX@std@@@1@@Z
	??$?0U?$_Tree_node@U?$pair@$$CBV?$basic_string@DU?$char_traits@D@std@@V?$allocator@D@2@@std@@V?$function@$$A6A?AV?$unique_ptr@VBackend@security@vanetza@@U?$default_delete@VBackend@security@vanetza@@@std@@@std@@XZ@2@@std@@PEAX@std@@@?$allocator@U_Container_proxy@std@@@std@@QEAA@AEBV?$allocator@U?$_Tree_node@U?$pair@$$CBV?$basic_string@DU?$char_traits@D@std@@V?$allocator@D@2@@std@@V?$function@$$A6A?AV?$unique_ptr@VBackend@security@vanetza@@U?$default_delete@VBackend@security@vanetza@@@std@@@std@@XZ@2@@std@@PEAX@std@@@1@@Z
	??$?0U?$_Tree_node@U?$pair@$$CBW4OsiLayer@vanetza@@VByteBufferConvertible@2@@std@@PEAX@std@@@?$allocator@U_Container_proxy@std@@@std@@QEAA@AEBV?$allocator@U?$_Tree_node@U?$pair@$$CBW4OsiLayer@vanetza@@VByteBufferConvertible@2@@std@@PEAX@std@@@1@@Z
	??$?0U?$_Tree_node@V?$array@E$02@std@@PEAX@std@@@?$allocator@U_Container_proxy@std@@@std@@QEAA@AEBV?$allocator@U?$_Tree_node@V?$array@E$02@std@@PEAX@std@@@1@@Z
	??$?0U?$_Tree_node@W4CamPermission@security@vanetza@@PEAX@std@@@?$allocator@U_Container_proxy@std@@@std@@QEAA@AEBV?$allocator@U?$_Tree_node@W4CamPermission@security@vanetza@@PEAX@std@@@1@@Z
	??$?0U?$bhtraits@U?$heap_node_base@$0A@@detail@heap@boost@@U?$list_node_traits@PEAX@intrusive@4@$00Udft_tag@64@$00@intrusive@boost@@@?$array_initializer@V?$list_impl@U?$bhtraits@U?$heap_node_base@$0A@@detail@heap@boost@@U?$list_node_traits@PEAX@intrusive@4@$00Udft_tag@64@$00@intrusive@boost@@_K$00X@intrusive@boost@@$0EA@@detail@intrusive@boost@@QEAA@AEBU?$bhtraits@U?$heap_node_base@$0A@@detail@heap@boost@@U?$list_node_traits@PEAX@intrusive@4@$00Udft_tag@64@$00@23@@Z
	??$?0U?$default_delete@U_TaskProcHandle@details@Concurrency@@@std@@$0A@@?$unique_ptr@U_TaskProcHandle@details@Concurrency@@U?$default_delete@U_TaskProcHandle@details@Concurrency@@@std@@@std@@QEAA@PEAU_TaskProcHandle@details@Concurrency@@@Z
	??$?0U?$default_delete@VBackend@security@vanetza@@@std@@$0A@@?$unique_ptr@VBackend@security@vanetza@@U?$default_delete@VBackend@security@vanetza@@@std@@@std@@QEAA@$$QEAV01@@Z
	??$?0U?$default_delete@VBackend@security@vanetza@@@std@@$0A@@?$unique_ptr@VBackend@security@vanetza@@U?$default_delete@VBackend@security@vanetza@@@std@@@std@@QEAA@PEAVBackend@security@vanetza@@@Z
	??$?0U?$default_delete@VBackend@security@vanetza@@@std@@$0A@@?$unique_ptr@VBackend@security@vanetza@@U?$default_delete@VBackend@security@vanetza@@@std@@@std@@QEAA@XZ
	??$?0U?$default_delete@VBackend@security@vanetza@@@std@@PEAVBackend@security@vanetza@@@?$_Compressed_pair@U?$default_delete@VBackend@security@vanetza@@@std@@PEAVBackend@security@vanetza@@$00@std@@QEAA@U_One_then_variadic_args_t@1@$$QEAU?$default_delete@VBackend@security@vanetza@@@1@$$QEAPEAVBackend@security@vanetza@@@Z
	??$?0U?$default_delete@VSignService@security@vanetza@@@std@@$0A@@?$unique_ptr@VSignService@security@vanetza@@U?$default_delete@VSignService@security@vanetza@@@std@@@std@@QEAA@$$QEAV01@@Z
	??$?0U?$default_delete@VSignService@security@vanetza@@@std@@PEAVSignService@security@vanetza@@@?$_Compressed_pair@U?$default_delete@VSignService@security@vanetza@@@std@@PEAVSignService@security@vanetza@@$00@std@@QEAA@U_One_then_variadic_args_t@1@$$QEAU?$default_delete@VSignService@security@vanetza@@@1@$$QEAPEAVSignService@security@vanetza@@@Z
	??$?0U?$default_delete@VVerifyService@security@vanetza@@@std@@$0A@@?$unique_ptr@VVerifyService@security@vanetza@@U?$default_delete@VVerifyService@security@vanetza@@@std@@@std@@QEAA@$$QEAV01@@Z
	??$?0U?$default_delete@VVerifyService@security@vanetza@@@std@@PEAVVerifyService@security@vanetza@@@?$_Compressed_pair@U?$default_delete@VVerifyService@security@vanetza@@@std@@PEAVVerifyService@security@vanetza@@$00@std@@QEAA@U_One_then_variadic_args_t@1@$$QEAU?$default_delete@VVerifyService@security@vanetza@@@1@$$QEAPEAVVerifyService@security@vanetza@@@Z
	??$?0U?$default_delete@V_Facet_base@std@@@std@@$0A@@?$unique_ptr@V_Facet_base@std@@U?$default_delete@V_Facet_base@std@@@2@@std@@QEAA@PEAV_Facet_base@1@@Z
	??$?0U?$default_delete@V_PPLTaskChore@_DefaultPPLTaskScheduler@details@Concurrency@@@std@@$0A@@?$unique_ptr@V_PPLTaskChore@_DefaultPPLTaskScheduler@details@Concurrency@@U?$default_delete@V_PPLTaskChore@_DefaultPPLTaskScheduler@details@Concurrency@@@std@@@std@@QEAA@PEAV_PPLTaskChore@_DefaultPPLTaskScheduler@details@Concurrency@@@Z
	??$?0U?$format_item@DU?$char_traits@D@std@@V?$allocator@D@2@@detail@io@boost@@@?$allocator@U_Container_proxy@std@@@std@@QEAA@AEBV?$allocator@U?$format_item@DU?$char_traits@D@std@@V?$allocator@D@2@@detail@io@boost@@@1@@Z
	??$?0U?$homogeneous_system@U?$list@Umeter_base_unit@si@units@boost@@U?$list@U?$scaled_base_unit@Ugram_base_unit@cgs@units@boost@@U?$scale@$09V?$static_rational@$02$00@units@boost@@@34@@units@boost@@U?$list@Usecond_base_unit@si@units@boost@@U?$list@Uampere_base_unit@si@units@boost@@U?$list@Ukelvin_base_unit@si@units@boost@@U?$list@Umole_base_unit@si@units@boost@@U?$list@Ucandela_base_unit@si@units@boost@@U?$list@Uradian_base_unit@angle@units@boost@@U?$list@Usteradian_base_unit@angle@units@boost@@Udimensionless_type@34@@34@@34@@34@@34@@34@@34@@23@@34@@units@boost@@@units@boost@@N@?$quantity@V?$unit@Udimensionless_type@units@boost@@U?$homogeneous_system@U?$list@Udegree_base_unit@angle@units@boost@@Udimensionless_type@34@@units@boost@@@23@X@units@boost@@N@units@boost@@QEAA@AEBV?$quantity@V?$unit@Udimensionless_type@units@boost@@U?$homogeneous_system@U?$list@Umeter_base_unit@si@units@boost@@U?$list@U?$scaled_base_unit@Ugram_base_unit@cgs@units@boost@@U?$scale@$09V?$static_rational@$02$00@units@boost@@@34@@units@boost@@U?$list@Usecond_base_unit@si@units@boost@@U?$list@Uampere_base_unit@si@units@boost@@U?$list@Ukelvin_base_unit@si@units@boost@@U?$list@Umole_base_unit@si@units@boost@@U?$list@Ucandela_base_unit@si@units@boost@@U?$list@Uradian_base_unit@angle@units@boost@@U?$list@Usteradian_base_unit@angle@units@boost@@Udimensionless_type@34@@34@@34@@34@@34@@34@@34@@23@@34@@units@boost@@@23@X@units@boost@@N@12@PEAX11@Z
	??$?0U?$less@W4CamPermission@security@vanetza@@@std@@U_One_then_variadic_args_t@1@V?$allocator@U?$_Tree_node@W4CamPermission@security@vanetza@@PEAX@std@@@1@@?$_Compressed_pair@U?$less@W4CamPermission@security@vanetza@@@std@@V?$_Compressed_pair@V?$allocator@U?$_Tree_node@W4CamPermission@security@vanetza@@PEAX@std@@@std@@V?$_Tree_val@U?$_Tree_simple_types@W4CamPermission@security@vanetza@@@std@@@2@$00@2@$00@std@@QEAA@U_One_then_variadic_args_t@1@$$QEAU?$less@W4CamPermission@security@vanetza@@@1@$$QEAU21@$$QEAV?$allocator@U?$_Tree_node@W4CamPermission@security@vanetza@@PEAX@std@@@1@@Z
	??$?0U?$less@W4OsiLayer@vanetza@@@std@@U_One_then_variadic_args_t@1@V?$allocator@U?$_Tree_node@U?$pair@$$CBW4OsiLayer@vanetza@@VByteBufferConvertible@2@@std@@PEAX@std@@@1@@?$_Compressed_pair@U?$less@W4OsiLayer@vanetza@@@std@@V?$_Compressed_pair@V?$allocator@U?$_Tree_node@U?$pair@$$CBW4OsiLayer@vanetza@@VByteBufferConvertible@2@@std@@PEAX@std@@@std@@V?$_Tree_val@U?$_Tree_simple_types@U?$pair@$$CBW4OsiLayer@vanetza@@VByteBufferConvertible@2@@std@@@std@@@2@$00@2@$00@std@@QEAA@U_One_then_variadic_args_t@1@$$QEAU?$less@W4OsiLayer@vanetza@@@1@$$QEAU21@$$QEAV?$allocator@U?$_Tree_node@U?$pair@$$CBW4OsiLayer@vanetza@@VByteBufferConvertible@2@@std@@PEAX@std@@@1@@Z
	??$?0U?$pair@$$CBV?$array@E$02@std@@V?$_List_iterator@V?$_List_val@U?$_List_simple_types@U?$pair@$$CBV?$array@E$07@std@@UCertificate@v3@security@vanetza@@@std@@@std@@@std@@@2@@std@@@?$allocator@U?$_List_node@U?$pair@$$CBV?$array@E$02@std@@V?$_List_iterator@V?$_List_val@U?$_List_simple_types@U?$pair@$$CBV?$array@E$07@std@@UCertificate@v3@security@vanetza@@@std@@@std@@@std@@@2@@std@@PEAX@std@@@std@@QEAA@AEBV?$allocator@U?$pair@$$CBV?$array@E$02@std@@V?$_List_iterator@V?$_List_val@U?$_List_simple_types@U?$pair@$$CBV?$array@E$07@std@@UCertificate@v3@security@vanetza@@@std@@@std@@@std@@@2@@std@@@1@@Z
	??$?0U?$pair@$$CBV?$array@E$02@std@@V?$_List_iterator@V?$_List_val@U?$_List_simple_types@U?$pair@$$CBV?$array@E$07@std@@UCertificate@v3@security@vanetza@@@std@@@std@@@std@@@2@@std@@@?$allocator@V?$_List_unchecked_iterator@V?$_List_val@U?$_List_simple_types@U?$pair@$$CBV?$array@E$02@std@@V?$_List_iterator@V?$_List_val@U?$_List_simple_types@U?$pair@$$CBV?$array@E$07@std@@UCertificate@v3@security@vanetza@@@std@@@std@@@std@@@2@@std@@@std@@@std@@@std@@@std@@QEAA@AEBV?$allocator@U?$pair@$$CBV?$array@E$02@std@@V?$_List_iterator@V?$_List_val@U?$_List_simple_types@U?$pair@$$CBV?$array@E$07@std@@UCertificate@v3@security@vanetza@@@std@@@std@@@std@@@2@@std@@@1@@Z
	??$?0U?$pair@$$CBV?$array@E$02@std@@V?$_List_iterator@V?$_List_val@U?$_List_simple_types@V?$array@E$02@std@@@std@@@std@@@2@@std@@@?$allocator@U?$_List_node@U?$pair@$$CBV?$array@E$02@std@@V?$_List_iterator@V?$_List_val@U?$_List_simple_types@V?$array@E$02@std@@@std@@@std@@@2@@std@@PEAX@std@@@std@@QEAA@AEBV?$allocator@U?$pair@$$CBV?$array@E$02@std@@V?$_List_iterator@V?$_List_val@U?$_List_simple_types@V?$array@E$02@std@@@std@@@std@@@2@@std@@@1@@Z
	??$?0U?$pair@$$CBV?$array@E$02@std@@V?$_List_iterator@V?$_List_val@U?$_List_simple_types@V?$array@E$02@std@@@std@@@std@@@2@@std@@@?$allocator@V?$_List_unchecked_iterator@V?$_List_val@U?$_List_simple_types@U?$pair@$$CBV?$array@E$02@std@@V?$_List_iterator@V?$_List_val@U?$_List_simple_types@V?$array@E$02@std@@@std@@@std@@@2@@std@@@std@@@std@@@std@@@std@@QEAA@AEBV?$allocator@U?$pair@$$CBV?$array@E$02@std@@V?$_List_iterator@V?$_List_val@U?$_List_simple_types@V?$array@E$02@std@@@std@@@std@@@2@@std@@@1@@Z
	??$?0U?$pair@$$CBV?$array@E$07@std@@UCertificate@v3@security@vanetza@@@std@@@?$allocator@U?$_List_node@U?$pair@$$CBV?$array@E$07@std@@UCertificate@v3@security@vanetza@@@std@@PEAX@std@@@std@@QEAA@AEBV?$allocator@U?$pair@$$CBV?$array@E$07@std@@UCertificate@v3@security@vanetza@@@std@@@1@@Z
	??$?0U?$pair@$$CBV?$array@E$07@std@@UCertificate@v3@security@vanetza@@@std@@@?$allocator@V?$_List_unchecked_iterator@V?$_List_val@U?$_List_simple_types@U?$pair@$$CBV?$array@E$07@std@@UCertificate@v3@security@vanetza@@@std@@@std@@@std@@@std@@@std@@QEAA@AEBV?$allocator@U?$pair@$$CBV?$array@E$07@std@@UCertificate@v3@security@vanetza@@@std@@@1@@Z
	??$?0U?$pair@V?$array@E$07@std@@UCertificate@v2@security@vanetza@@@std@@@?$_Tree_temp_node@V?$allocator@U?$_Tree_node@U?$pair@$$CBV?$array@E$07@std@@UCertificate@v2@security@vanetza@@@std@@PEAX@std@@@std@@@std@@QEAA@AEAV?$allocator@U?$_Tree_node@U?$pair@$$CBV?$array@E$07@std@@UCertificate@v2@security@vanetza@@@std@@PEAX@std@@@1@PEAU?$_Tree_node@U?$pair@$$CBV?$array@E$07@std@@UCertificate@v2@security@vanetza@@@std@@PEAX@1@$$QEAU?$pair@V?$array@E$07@std@@UCertificate@v2@security@vanetza@@@1@@Z
	??$?0UCertificate@v2@security@vanetza@@@?$_List_node_emplace_op2@V?$allocator@U?$_List_node@UCertificate@v2@security@vanetza@@PEAX@std@@@std@@@std@@QEAA@AEAV?$allocator@U?$_List_node@UCertificate@v2@security@vanetza@@PEAX@std@@@1@$$QEAUCertificate@v2@security@vanetza@@@Z
	??$?0UCertificate@v2@security@vanetza@@@?$variant@$$TV?$array@E$07@std@@V?$recursive_wrapper@UCertificate@v2@security@vanetza@@@boost@@V?$list@UCertificate@v2@security@vanetza@@V?$allocator@UCertificate@v2@security@vanetza@@@std@@@2@UCertificateDigestWithOtherAlgorithm@v2@security@vanetza@@@boost@@QEAA@AEBUCertificate@v2@security@vanetza@@_N@Z
	??$?0UCertificateDigestWithOtherAlgorithm@v2@security@vanetza@@@?$variant@$$TV?$array@E$07@std@@V?$recursive_wrapper@UCertificate@v2@security@vanetza@@@boost@@V?$list@UCertificate@v2@security@vanetza@@V?$allocator@UCertificate@v2@security@vanetza@@@std@@@2@UCertificateDigestWithOtherAlgorithm@v2@security@vanetza@@@boost@@QEAA@AEBUCertificateDigestWithOtherAlgorithm@v2@security@vanetza@@_N@Z
	??$?0UCircularRegion@v2@security@vanetza@@@?$variant@UNoneRegion@v2@security@vanetza@@UCircularRegion@234@V?$list@URectangularRegion@v2@security@vanetza@@V?$allocator@URectangularRegion@v2@security@vanetza@@@std@@@std@@V?$list@UTwoDLocation@v2@security@vanetza@@V?$allocator@UTwoDLocation@v2@security@vanetza@@@std@@@7@UIdentifiedRegion@234@@boost@@QEAA@AEBUCircularRegion@v2@security@vanetza@@_N@Z
	??$?0UCompressed_Lsb_Y_0@security@vanetza@@@?$variant@UX_Coordinate_Only@security@vanetza@@UCompressed_Lsb_Y_0@23@UCompressed_Lsb_Y_1@23@UUncompressed@23@@boost@@QEAA@$$QEAUCompressed_Lsb_Y_0@security@vanetza@@_N@Z
	??$?0UCompressed_Lsb_Y_0@security@vanetza@@@?$variant@UX_Coordinate_Only@security@vanetza@@UCompressed_Lsb_Y_0@23@UCompressed_Lsb_Y_1@23@UUncompressed@23@@boost@@QEAA@AEBUCompressed_Lsb_Y_0@security@vanetza@@_N@Z
	??$?0UCompressed_Lsb_Y_1@security@vanetza@@@?$variant@UX_Coordinate_Only@security@vanetza@@UCompressed_Lsb_Y_0@23@UCompressed_Lsb_Y_1@23@UUncompressed@23@@boost@@QEAA@$$QEAUCompressed_Lsb_Y_1@security@vanetza@@_N@Z
	??$?0UCompressed_Lsb_Y_1@security@vanetza@@@?$variant@UX_Coordinate_Only@security@vanetza@@UCompressed_Lsb_Y_0@23@UCompressed_Lsb_Y_1@23@UUncompressed@23@@boost@@QEAA@AEBUCompressed_Lsb_Y_1@security@vanetza@@_N@Z
	??$?0UECPPoint@CryptoPP@@@?$allocator@U_Container_proxy@std@@@std@@QEAA@AEBV?$allocator@UECPPoint@CryptoPP@@@1@@Z
	??$?0UEcdsaSignature@security@vanetza@@@?$variant@UEcdsaSignature@security@vanetza@@VEcdsaSignatureFuture@23@@boost@@QEAA@$$QEAUEcdsaSignature@security@vanetza@@_N@Z
	??$?0UEcdsaSignature@security@vanetza@@@?$variant@UEcdsaSignature@security@vanetza@@VEcdsaSignatureFuture@23@@boost@@QEAA@AEBUEcdsaSignature@security@vanetza@@_N@Z
	??$?0UEcdsaSignature@security@vanetza@@@?$variant@USignature@v2@security@vanetza@@$$V@boost@@QEAA@$$QEAUEcdsaSignature@security@vanetza@@_N@Z
	??$?0UEciesEncryptedKey@v2@security@vanetza@@@?$variant@UEciesEncryptedKey@v2@security@vanetza@@UOpaqueKey@234@@boost@@QEAA@$$QEAUEciesEncryptedKey@v2@security@vanetza@@_N@Z
	??$?0UEncryptionKey@v2@security@vanetza@@@?$variant@UVerificationKey@v2@security@vanetza@@UEncryptionKey@234@USubjectAssurance@234@V?$variant@UX_Coordinate_Only@security@vanetza@@UCompressed_Lsb_Y_0@23@UCompressed_Lsb_Y_1@23@UUncompressed@23@@boost@@V?$list@VIntX@v2@security@vanetza@@V?$allocator@VIntX@v2@security@vanetza@@@std@@@std@@V?$list@UItsAidSsp@v2@security@vanetza@@V?$allocator@UItsAidSsp@v2@security@vanetza@@@std@@@std@@@boost@@QEAA@AEBUEncryptionKey@v2@security@vanetza@@_N@Z
	??$?0UExpiry@CertificateCache@v2@security@vanetza@@@?$heap_node@UExpiry@CertificateCache@v2@security@vanetza@@$00@detail@heap@boost@@QEAA@$$QEAUExpiry@CertificateCache@v2@security@vanetza@@@Z
	??$?0UExpiry@CertificateCache@v2@security@vanetza@@@?$parent_pointing_heap_node@UExpiry@CertificateCache@v2@security@vanetza@@@detail@heap@boost@@QEAA@$$QEAUExpiry@CertificateCache@v2@security@vanetza@@@Z
	??$?0UIdentifiedRegion@v2@security@vanetza@@@?$variant@UNoneRegion@v2@security@vanetza@@UCircularRegion@234@V?$list@URectangularRegion@v2@security@vanetza@@V?$allocator@URectangularRegion@v2@security@vanetza@@@std@@@std@@V?$list@UTwoDLocation@v2@security@vanetza@@V?$allocator@UTwoDLocation@v2@security@vanetza@@@std@@@7@UIdentifiedRegion@234@@boost@@QEAA@AEBUIdentifiedRegion@v2@security@vanetza@@_N@Z
	??$?0UItsAidSsp@v2@security@vanetza@@@?$_List_node_emplace_op2@V?$allocator@U?$_List_node@UItsAidSsp@v2@security@vanetza@@PEAX@std@@@std@@@std@@QEAA@AEAV?$allocator@U?$_List_node@UItsAidSsp@v2@security@vanetza@@PEAX@std@@@1@$$QEAUItsAidSsp@v2@security@vanetza@@@Z
	??$?0UNoneRegion@v2@security@vanetza@@@?$variant@UNoneRegion@v2@security@vanetza@@UCircularRegion@234@V?$list@URectangularRegion@v2@security@vanetza@@V?$allocator@URectangularRegion@v2@security@vanetza@@@std@@@std@@V?$list@UTwoDLocation@v2@security@vanetza@@V?$allocator@UTwoDLocation@v2@security@vanetza@@@std@@@7@UIdentifiedRegion@234@@boost@@QEAA@AEBUNoneRegion@v2@security@vanetza@@_N@Z
	??$?0UOpaqueKey@v2@security@vanetza@@@?$variant@UEciesEncryptedKey@v2@security@vanetza@@UOpaqueKey@234@@boost@@QEAA@$$QEAUOpaqueKey@v2@security@vanetza@@_N@Z
	??$?0URecipientInfo@v2@security@vanetza@@@?$_List_node_emplace_op2@V?$allocator@U?$_List_node@URecipientInfo@v2@security@vanetza@@PEAX@std@@@std@@@std@@QEAA@AEAV?$allocator@U?$_List_node@URecipientInfo@v2@security@vanetza@@PEAX@std@@@1@$$QEAURecipientInfo@v2@security@vanetza@@@Z
	??$?0USecuredMessage@v2@security@vanetza@@@?$variant@USecuredMessage@v2@security@vanetza@@U1v3@34@@boost@@QEAA@$$QEAUSecuredMessage@v2@security@vanetza@@_N@Z
	??$?0USecuredMessage@v3@security@vanetza@@@?$variant@USecuredMessage@v2@security@vanetza@@U1v3@34@@boost@@QEAA@$$QEAUSecuredMessage@v3@security@vanetza@@_N@Z
	??$?0USignature@v2@security@vanetza@@@?$variant@USignature@v2@security@vanetza@@$$V@boost@@QEAA@$$QEAUSignature@v2@security@vanetza@@_N@Z
	??$?0USignature@v2@security@vanetza@@@?$variant@USignature@v2@security@vanetza@@$$V@boost@@QEAA@AEBUSignature@v2@security@vanetza@@_N@Z
	??$?0UStartAndDurationValidity@v2@security@vanetza@@@?$variant@IUStartAndEndValidity@v2@security@vanetza@@UStartAndDurationValidity@234@V?$variant@UNoneRegion@v2@security@vanetza@@UCircularRegion@234@V?$list@URectangularRegion@v2@security@vanetza@@V?$allocator@URectangularRegion@v2@security@vanetza@@@std@@@std@@V?$list@UTwoDLocation@v2@security@vanetza@@V?$allocator@UTwoDLocation@v2@security@vanetza@@@std@@@7@UIdentifiedRegion@234@@boost@@@boost@@QEAA@AEBUStartAndDurationValidity@v2@security@vanetza@@_N@Z
	??$?0UStartAndEndValidity@v2@security@vanetza@@@?$variant@IUStartAndEndValidity@v2@security@vanetza@@UStartAndDurationValidity@234@V?$variant@UNoneRegion@v2@security@vanetza@@UCircularRegion@234@V?$list@URectangularRegion@v2@security@vanetza@@V?$allocator@URectangularRegion@v2@security@vanetza@@@std@@@std@@V?$list@UTwoDLocation@v2@security@vanetza@@V?$allocator@UTwoDLocation@v2@security@vanetza@@@std@@@7@UIdentifiedRegion@234@@boost@@@boost@@QEAA@$$QEAUStartAndEndValidity@v2@security@vanetza@@_N@Z
	??$?0UStartAndEndValidity@v2@security@vanetza@@@?$variant@IUStartAndEndValidity@v2@security@vanetza@@UStartAndDurationValidity@234@V?$variant@UNoneRegion@v2@security@vanetza@@UCircularRegion@234@V?$list@URectangularRegion@v2@security@vanetza@@V?$allocator@URectangularRegion@v2@security@vanetza@@@std@@@std@@V?$list@UTwoDLocation@v2@security@vanetza@@V?$allocator@UTwoDLocation@v2@security@vanetza@@@std@@@7@UIdentifiedRegion@234@@boost@@@boost@@QEAA@AEAUStartAndEndValidity@v2@security@vanetza@@_N@Z
	??$?0UStartAndEndValidity@v2@security@vanetza@@@?$variant@IUStartAndEndValidity@v2@security@vanetza@@UStartAndDurationValidity@234@V?$variant@UNoneRegion@v2@security@vanetza@@UCircularRegion@234@V?$list@URectangularRegion@v2@security@vanetza@@V?$allocator@URectangularRegion@v2@security@vanetza@@@std@@@std@@V?$list@UTwoDLocation@v2@security@vanetza@@V?$allocator@UTwoDLocation@v2@security@vanetza@@@std@@@7@UIdentifiedRegion@234@@boost@@@boost@@QEAA@AEBUStartAndEndValidity@v2@security@vanetza@@_N@Z
	??$?0USubjectAssurance@v2@security@vanetza@@@?$variant@UVerificationKey@v2@security@vanetza@@UEncryptionKey@234@USubjectAssurance@234@V?$variant@UX_Coordinate_Only@security@vanetza@@UCompressed_Lsb_Y_0@23@UCompressed_Lsb_Y_1@23@UUncompressed@23@@boost@@V?$list@VIntX@v2@security@vanetza@@V?$allocator@VIntX@v2@security@vanetza@@@std@@@std@@V?$list@UItsAidSsp@v2@security@vanetza@@V?$allocator@UItsAidSsp@v2@security@vanetza@@@std@@@std@@@boost@@QEAA@$$QEAUSubjectAssurance@v2@security@vanetza@@_N@Z
	??$?0USubjectAssurance@v2@security@vanetza@@@?$variant@UVerificationKey@v2@security@vanetza@@UEncryptionKey@234@USubjectAssurance@234@V?$variant@UX_Coordinate_Only@security@vanetza@@UCompressed_Lsb_Y_0@23@UCompressed_Lsb_Y_1@23@UUncompressed@23@@boost@@V?$list@VIntX@v2@security@vanetza@@V?$allocator@VIntX@v2@security@vanetza@@@std@@@std@@V?$list@UItsAidSsp@v2@security@vanetza@@V?$allocator@UItsAidSsp@v2@security@vanetza@@@std@@@std@@@boost@@QEAA@AEBUSubjectAssurance@v2@security@vanetza@@_N@Z
	??$?0UThreeDLocation@v2@security@vanetza@@@?$variant@_KUTime64WithStandardDeviation@v2@security@vanetza@@IUThreeDLocation@234@V?$list@V?$array@E$02@std@@V?$allocator@V?$array@E$02@std@@@2@@std@@VIntX@234@V?$variant@$$TV?$array@E$07@std@@V?$recursive_wrapper@UCertificate@v2@security@vanetza@@@boost@@V?$list@UCertificate@v2@security@vanetza@@V?$allocator@UCertificate@v2@security@vanetza@@@std@@@2@UCertificateDigestWithOtherAlgorithm@v2@security@vanetza@@@boost@@V?$variant@V?$array@E$0M@@std@@$$V@boost@@V?$list@URecipientInfo@v2@security@vanetza@@V?$allocator@URecipientInfo@v2@security@vanetza@@@std@@@7@@boost@@QEAA@$$QEAUThreeDLocation@v2@security@vanetza@@_N@Z
	??$?0UThreeDLocation@v2@security@vanetza@@@?$variant@_KUTime64WithStandardDeviation@v2@security@vanetza@@IUThreeDLocation@234@V?$list@V?$array@E$02@std@@V?$allocator@V?$array@E$02@std@@@2@@std@@VIntX@234@V?$variant@$$TV?$array@E$07@std@@V?$recursive_wrapper@UCertificate@v2@security@vanetza@@@boost@@V?$list@UCertificate@v2@security@vanetza@@V?$allocator@UCertificate@v2@security@vanetza@@@std@@@2@UCertificateDigestWithOtherAlgorithm@v2@security@vanetza@@@boost@@V?$variant@V?$array@E$0M@@std@@$$V@boost@@V?$list@URecipientInfo@v2@security@vanetza@@V?$allocator@URecipientInfo@v2@security@vanetza@@@std@@@7@@boost@@QEAA@AEBUThreeDLocation@v2@security@vanetza@@_N@Z
	??$?0UTime64WithStandardDeviation@v2@security@vanetza@@@?$variant@_KUTime64WithStandardDeviation@v2@security@vanetza@@IUThreeDLocation@234@V?$list@V?$array@E$02@std@@V?$allocator@V?$array@E$02@std@@@2@@std@@VIntX@234@V?$variant@$$TV?$array@E$07@std@@V?$recursive_wrapper@UCertificate@v2@security@vanetza@@@boost@@V?$list@UCertificate@v2@security@vanetza@@V?$allocator@UCertificate@v2@security@vanetza@@@std@@@2@UCertificateDigestWithOtherAlgorithm@v2@security@vanetza@@@boost@@V?$variant@V?$array@E$0M@@std@@$$V@boost@@V?$list@URecipientInfo@v2@security@vanetza@@V?$allocator@URecipientInfo@v2@security@vanetza@@@std@@@7@@boost@@QEAA@AEBUTime64WithStandardDeviation@v2@security@vanetza@@_N@Z
	??$?0UUncompressed@security@vanetza@@@?$variant@UX_Coordinate_Only@security@vanetza@@UCompressed_Lsb_Y_0@23@UCompressed_Lsb_Y_1@23@UUncompressed@23@@boost@@QEAA@AEAUUncompressed@security@vanetza@@_N@Z
	??$?0UUncompressed@security@vanetza@@@?$variant@UX_Coordinate_Only@security@vanetza@@UCompressed_Lsb_Y_0@23@UCompressed_Lsb_Y_1@23@UUncompressed@23@@boost@@QEAA@AEBUUncompressed@security@vanetza@@_N@Z
	??$?0UVerificationKey@v2@security@vanetza@@@?$variant@UVerificationKey@v2@security@vanetza@@UEncryptionKey@234@USubjectAssurance@234@V?$variant@UX_Coordinate_Only@security@vanetza@@UCompressed_Lsb_Y_0@23@UCompressed_Lsb_Y_1@23@UUncompressed@23@@boost@@V?$list@VIntX@v2@security@vanetza@@V?$allocator@VIntX@v2@security@vanetza@@@std@@@std@@V?$list@UItsAidSsp@v2@security@vanetza@@V?$allocator@UItsAidSsp@v2@security@vanetza@@@std@@@std@@@boost@@QEAA@$$QEAUVerificationKey@v2@security@vanetza@@_N@Z
	??$?0UVerificationKey@v2@security@vanetza@@@?$variant@UVerificationKey@v2@security@vanetza@@UEncryptionKey@234@USubjectAssurance@234@V?$variant@UX_Coordinate_Only@security@vanetza@@UCompressed_Lsb_Y_0@23@UCompressed_Lsb_Y_1@23@UUncompressed@23@@boost@@V?$list@VIntX@v2@security@vanetza@@V?$allocator@VIntX@v2@security@vanetza@@@std@@@std@@V?$list@UItsAidSsp@v2@security@vanetza@@V?$allocator@UItsAidSsp@v2@security@vanetza@@@std@@@std@@@boost@@QEAA@AEAUVerificationKey@v2@security@vanetza@@_N@Z
	??$?0UVerificationKey@v2@security@vanetza@@@?$variant@UVerificationKey@v2@security@vanetza@@UEncryptionKey@234@USubjectAssurance@234@V?$variant@UX_Coordinate_Only@security@vanetza@@UCompressed_Lsb_Y_0@23@UCompressed_Lsb_Y_1@23@UUncompressed@23@@boost@@V?$list@VIntX@v2@security@vanetza@@V?$allocator@VIntX@v2@security@vanetza@@@std@@@std@@V?$list@UItsAidSsp@v2@security@vanetza@@V?$allocator@UItsAidSsp@v2@security@vanetza@@@std@@@std@@@boost@@QEAA@AEBUVerificationKey@v2@security@vanetza@@_N@Z
	??$?0UX_Coordinate_Only@security@vanetza@@@?$variant@UX_Coordinate_Only@security@vanetza@@UCompressed_Lsb_Y_0@23@UCompressed_Lsb_Y_1@23@UUncompressed@23@@boost@@QEAA@$$QEAUX_Coordinate_Only@security@vanetza@@_N@Z
	??$?0UX_Coordinate_Only@security@vanetza@@@?$variant@UX_Coordinate_Only@security@vanetza@@UCompressed_Lsb_Y_0@23@UCompressed_Lsb_Y_1@23@UUncompressed@23@@boost@@QEAA@AEBUX_Coordinate_Only@security@vanetza@@_N@Z
	??$?0U_Exact_args_t@std@@$0A@@?$tuple@$$V@std@@QEAA@U_Exact_args_t@1@@Z
	??$?0U_Exact_args_t@std@@AEAV?$_List_iterator@V?$_List_val@U?$_List_simple_types@U?$pair@$$CBV?$array@E$07@std@@UCertificate@v3@security@vanetza@@@std@@@std@@@std@@@1@AEA_N$0A@@?$tuple@AEAV?$_List_iterator@V?$_List_val@U?$_List_simple_types@U?$pair@$$CBV?$array@E$07@std@@UCertificate@v3@security@vanetza@@@std@@@std@@@std@@@std@@AEA_N@std@@QEAA@U_Exact_args_t@1@AEAV?$_List_iterator@V?$_List_val@U?$_List_simple_types@U?$pair@$$CBV?$array@E$07@std@@UCertificate@v3@security@vanetza@@@std@@@std@@@std@@@1@AEA_N@Z
	??$?0U_Exact_args_t@std@@AEAV?$_Vector_const_iterator@V?$_Vector_val@U?$_Simple_types@E@std@@@std@@@1@AEA_K$0A@@?$tuple@V?$_Vector_const_iterator@V?$_Vector_val@U?$_Simple_types@E@std@@@std@@@std@@_K@std@@QEAA@U_Exact_args_t@1@AEAV?$_Vector_const_iterator@V?$_Vector_val@U?$_Simple_types@E@std@@@std@@@1@AEA_K@Z
	??$?0U_Exact_args_t@std@@AEA_K$$V$0A@@?$tuple@_K@std@@QEAA@U_Exact_args_t@1@AEA_K@Z
	??$?0U_Exact_args_t@std@@AEA_N$$V$0A@@?$tuple@AEA_N@std@@QEAA@U_Exact_args_t@1@AEA_N@Z
	??$?0U_Exact_args_t@std@@AEBU_Ignore@1@AEA_N$0A@@?$tuple@AEBU_Ignore@std@@AEA_N@std@@QEAA@U_Exact_args_t@1@AEBU_Ignore@1@AEA_N@Z
	??$?0U_Exact_args_t@std@@H$$V$0A@@?$tuple@H@std@@QEAA@U_Exact_args_t@1@$$QEAH@Z
	??$?0U_Exact_args_t@std@@H$$V$0A@@?$tuple@_K@std@@QEAA@U_Exact_args_t@1@$$QEAH@Z
	??$?0U_Exact_args_t@std@@V?$_Vector_const_iterator@V?$_Vector_val@U?$_Simple_types@E@std@@@std@@@1@H$0A@@?$tuple@V?$_Vector_const_iterator@V?$_Vector_val@U?$_Simple_types@E@std@@@std@@@std@@H@std@@QEAA@U_Exact_args_t@1@$$QEAV?$_Vector_const_iterator@V?$_Vector_val@U?$_Simple_types@E@std@@@std@@@1@$$QEAH@Z
	??$?0U_Exact_args_t@std@@V?$_Vector_const_iterator@V?$_Vector_val@U?$_Simple_types@E@std@@@std@@@1@H$0A@@?$tuple@V?$_Vector_const_iterator@V?$_Vector_val@U?$_Simple_types@E@std@@@std@@@std@@_K@std@@QEAA@U_Exact_args_t@1@$$QEAV?$_Vector_const_iterator@V?$_Vector_val@U?$_Simple_types@E@std@@@std@@@1@$$QEAH@Z
	??$?0U_Unpack_tuple_t@std@@V?$tuple@V?$_Vector_const_iterator@V?$_Vector_val@U?$_Simple_types@E@std@@@std@@@std@@H@1@$0A@$00$0A@@?$tuple@V?$_Vector_const_iterator@V?$_Vector_val@U?$_Simple_types@E@std@@@std@@@std@@_K@std@@QEAA@U_Unpack_tuple_t@1@$$QEAV?$tuple@V?$_Vector_const_iterator@V?$_Vector_val@U?$_Simple_types@E@std@@@std@@@std@@H@1@U?$integer_sequence@_K$0A@$00@1@@Z
	??$?0U_Unpack_tuple_t@std@@V?$tuple@V?$_Vector_const_iterator@V?$_Vector_val@U?$_Simple_types@E@std@@@std@@@std@@H@1@$0A@@?$tuple@V?$_Vector_const_iterator@V?$_Vector_val@U?$_Simple_types@E@std@@@std@@@std@@_K@std@@QEAA@U_Unpack_tuple_t@1@$$QEAV?$tuple@V?$_Vector_const_iterator@V?$_Vector_val@U?$_Simple_types@E@std@@@std@@@std@@H@1@@Z
	??$?0U_Zero_then_variadic_args_t@std@@M@?$_Compressed_pair@U?$hash@V?$array@E$02@std@@@std@@V?$_Compressed_pair@U?$equal_to@V?$array@E$02@std@@@std@@M$00@2@$00@std@@QEAA@U_Zero_then_variadic_args_t@1@$$QEAU21@$$QEAM@Z
	??$?0U_Zero_then_variadic_args_t@std@@M@?$_Compressed_pair@U?$hash@V?$array@E$07@std@@@std@@V?$_Compressed_pair@U?$equal_to@V?$array@E$07@std@@@std@@M$00@2@$00@std@@QEAA@U_Zero_then_variadic_args_t@1@$$QEAU21@$$QEAM@Z
	??$?0Uecdsa_nistp256_with_sha256@v2@security@vanetza@@@?$variant@Uecdsa_nistp256_with_sha256@v2@security@vanetza@@Uecies_nistp256@234@@boost@@QEAA@AEBUecdsa_nistp256_with_sha256@v2@security@vanetza@@_N@Z
	??$?0Uecies_nistp256@v2@security@vanetza@@@?$variant@Uecdsa_nistp256_with_sha256@v2@security@vanetza@@Uecies_nistp256@234@@boost@@QEAA@AEBUecies_nistp256@v2@security@vanetza@@_N@Z
	??$?0V<lambda_052e919cc0e5399df76dff3972c0cac1>@@$0A@@?$_Func_impl_no_alloc@V<lambda_052e919cc0e5399df76dff3972c0cac1>@@E$$V@std@@QEAA@$$QEAV<lambda_052e919cc0e5399df76dff3972c0cac1>@@@Z
	??$?0V<lambda_052e919cc0e5399df76dff3972c0cac1>@@$0A@@?$function@$$A6AEXZ@std@@QEAA@$$QEAV<lambda_052e919cc0e5399df76dff3972c0cac1>@@@Z
	??$?0V<lambda_2fa3e3d11fb97352afa77a4a13bfb543>@@$0A@@?$_Func_impl_no_alloc@V<lambda_2fa3e3d11fb97352afa77a4a13bfb543>@@X$$V@std@@QEAA@$$QEAV<lambda_2fa3e3d11fb97352afa77a4a13bfb543>@@@Z
	??$?0V<lambda_2fa3e3d11fb97352afa77a4a13bfb543>@@$0A@@?$function@$$A6AXXZ@std@@QEAA@$$QEAV<lambda_2fa3e3d11fb97352afa77a4a13bfb543>@@@Z
	??$?0V<lambda_763529b0c7473cbc215a52d189ac9b18>@@$0A@@?$_Func_impl_no_alloc@V<lambda_763529b0c7473cbc215a52d189ac9b18>@@X$$V@std@@QEAA@$$QEAV<lambda_763529b0c7473cbc215a52d189ac9b18>@@@Z
	??$?0V<lambda_763529b0c7473cbc215a52d189ac9b18>@@$0A@@?$function@$$A6AXXZ@std@@QEAA@$$QEAV<lambda_763529b0c7473cbc215a52d189ac9b18>@@@Z
	??$?0V<lambda_f25c37099038263181b5186a3fa41b37>@@$0A@@?$_Func_impl_no_alloc@V<lambda_f25c37099038263181b5186a3fa41b37>@@X$$V@std@@QEAA@$$QEAV<lambda_f25c37099038263181b5186a3fa41b37>@@@Z
	??$?0V<lambda_f25c37099038263181b5186a3fa41b37>@@$0A@@?$function@$$A6AXXZ@std@@QEAA@$$QEAV<lambda_f25c37099038263181b5186a3fa41b37>@@@Z
	??$?0V?$_Array_const_iterator@E$0CA@@std@@$0A@@?$vector@EV?$allocator@E@std@@@std@@QEAA@V?$_Array_const_iterator@E$0CA@@1@0AEBV?$allocator@E@1@@Z
	??$?0V?$_List_iterator@V?$_List_val@U?$_List_simple_types@E@std@@@std@@@std@@$0A@@?$vector@EV?$allocator@E@std@@@std@@QEAA@V?$_List_iterator@V?$_List_val@U?$_List_simple_types@E@std@@@std@@@1@0AEBV?$allocator@E@1@@Z
	??$?0V?$_List_iterator@V?$_List_val@U?$_List_simple_types@U?$pair@$$CBV?$array@E$02@std@@V?$_List_iterator@V?$_List_val@U?$_List_simple_types@U?$pair@$$CBV?$array@E$07@std@@UCertificate@v3@security@vanetza@@@std@@@std@@@std@@@2@@std@@@std@@@std@@@std@@_N$0A@@?$pair@V?$_List_iterator@V?$_List_val@U?$_List_simple_types@U?$pair@$$CBV?$array@E$02@std@@V?$_List_iterator@V?$_List_val@U?$_List_simple_types@U?$pair@$$CBV?$array@E$07@std@@UCertificate@v3@security@vanetza@@@std@@@std@@@std@@@2@@std@@@std@@@std@@@std@@_N@std@@QEAA@$$QEAV?$_List_iterator@V?$_List_val@U?$_List_simple_types@U?$pair@$$CBV?$array@E$02@std@@V?$_List_iterator@V?$_List_val@U?$_List_simple_types@U?$pair@$$CBV?$array@E$07@std@@UCertificate@v3@security@vanetza@@@std@@@std@@@std@@@2@@std@@@std@@@std@@@1@$$QEA_N@Z
	??$?0V?$_List_iterator@V?$_List_val@U?$_List_simple_types@U?$pair@$$CBV?$array@E$02@std@@V?$_List_iterator@V?$_List_val@U?$_List_simple_types@V?$array@E$02@std@@@std@@@std@@@2@@std@@@std@@@std@@@std@@_N$0A@@?$pair@V?$_List_iterator@V?$_List_val@U?$_List_simple_types@U?$pair@$$CBV?$array@E$02@std@@V?$_List_iterator@V?$_List_val@U?$_List_simple_types@V?$array@E$02@std@@@std@@@std@@@2@@std@@@std@@@std@@@std@@_N@std@@QEAA@$$QEAV?$_List_iterator@V?$_List_val@U?$_List_simple_types@U?$pair@$$CBV?$array@E$02@std@@V?$_List_iterator@V?$_List_val@U?$_List_simple_types@V?$array@E$02@std@@@std@@@std@@@2@@std@@@std@@@std@@@1@$$QEA_N@Z
	??$?0V?$_List_iterator@V?$_List_val@U?$_List_simple_types@U?$pair@$$CBV?$array@E$07@std@@UCertificate@v3@security@vanetza@@@std@@@std@@@std@@@std@@_N$0A@@?$pair@V?$_List_iterator@V?$_List_val@U?$_List_simple_types@U?$pair@$$CBV?$array@E$07@std@@UCertificate@v3@security@vanetza@@@std@@@std@@@std@@@std@@_N@std@@QEAA@$$QEAV?$_List_iterator@V?$_List_val@U?$_List_simple_types@U?$pair@$$CBV?$array@E$07@std@@UCertificate@v3@security@vanetza@@@std@@@std@@@std@@@1@$$QEA_N@Z
	??$?0V?$_List_iterator@V?$_List_val@U?$_List_simple_types@V?$array@E$07@std@@@std@@@std@@@std@@_N$0A@@?$pair@V?$_List_const_iterator@V?$_List_val@U?$_List_simple_types@V?$array@E$07@std@@@std@@@std@@@std@@_N@std@@QEAA@$$QEAV?$_List_iterator@V?$_List_val@U?$_List_simple_types@V?$array@E$07@std@@@std@@@std@@@1@$$QEA_N@Z
	??$?0V?$_List_unchecked_const_iterator@V?$_List_val@U?$_List_simple_types@V?$array@E$07@std@@@std@@@std@@U_Iterator_base0@2@@std@@@?$allocator@U_Container_proxy@std@@@std@@QEAA@AEBV?$allocator@V?$_List_unchecked_const_iterator@V?$_List_val@U?$_List_simple_types@V?$array@E$07@std@@@std@@@std@@U_Iterator_base0@2@@std@@@1@@Z
	??$?0V?$_List_unchecked_iterator@V?$_List_val@U?$_List_simple_types@U?$pair@$$CBV?$array@E$02@std@@V?$_List_iterator@V?$_List_val@U?$_List_simple_types@U?$pair@$$CBV?$array@E$07@std@@UCertificate@v3@security@vanetza@@@std@@@std@@@std@@@2@@std@@@std@@@std@@@std@@@?$allocator@U_Container_proxy@std@@@std@@QEAA@AEBV?$allocator@V?$_List_unchecked_iterator@V?$_List_val@U?$_List_simple_types@U?$pair@$$CBV?$array@E$02@std@@V?$_List_iterator@V?$_List_val@U?$_List_simple_types@U?$pair@$$CBV?$array@E$07@std@@UCertificate@v3@security@vanetza@@@std@@@std@@@std@@@2@@std@@@std@@@std@@@std@@@1@@Z
	??$?0V?$_List_unchecked_iterator@V?$_List_val@U?$_List_simple_types@U?$pair@$$CBV?$array@E$02@std@@V?$_List_iterator@V?$_List_val@U?$_List_simple_types@V?$array@E$02@std@@@std@@@std@@@2@@std@@@std@@@std@@@std@@@?$allocator@U_Container_proxy@std@@@std@@QEAA@AEBV?$allocator@V?$_List_unchecked_iterator@V?$_List_val@U?$_List_simple_types@U?$pair@$$CBV?$array@E$02@std@@V?$_List_iterator@V?$_List_val@U?$_List_simple_types@V?$array@E$02@std@@@std@@@std@@@2@@std@@@std@@@std@@@std@@@1@@Z
	??$?0V?$_List_unchecked_iterator@V?$_List_val@U?$_List_simple_types@U?$pair@$$CBV?$array@E$07@std@@UCertificate@v3@security@vanetza@@@std@@@std@@@std@@@std@@@?$allocator@U_Container_proxy@std@@@std@@QEAA@AEBV?$allocator@V?$_List_unchecked_iterator@V?$_List_val@U?$_List_simple_types@U?$pair@$$CBV?$array@E$07@std@@UCertificate@v3@security@vanetza@@@std@@@std@@@std@@@std@@@1@@Z
	??$?0V?$_String_const_iterator@V?$_String_val@U?$_Simple_types@D@std@@@std@@@std@@$0A@@?$vector@EV?$allocator@E@std@@@std@@QEAA@V?$_String_const_iterator@V?$_String_val@U?$_Simple_types@D@std@@@std@@@1@0AEBV?$allocator@E@1@@Z
	??$?0V?$_String_iterator@V?$_String_val@U?$_Simple_types@D@std@@@std@@@std@@$0A@@?$vector@EV?$allocator@E@std@@@std@@QEAA@V?$_String_iterator@V?$_String_val@U?$_Simple_types@D@std@@@std@@@1@0AEBV?$allocator@E@1@@Z
	??$?0V?$_Tree_const_iterator@V?$_Tree_val@U?$_Tree_simple_types@U?$pair@$$CBV?$array@E$07@std@@UCertificate@v2@security@vanetza@@@std@@@std@@@std@@@std@@V01@$0A@@?$pair@V?$_Tree_const_iterator@V?$_Tree_val@U?$_Tree_simple_types@U?$pair@$$CBV?$array@E$07@std@@UCertificate@v2@security@vanetza@@@std@@@std@@@std@@@std@@V12@@std@@QEAA@$$QEAV?$_Tree_const_iterator@V?$_Tree_val@U?$_Tree_simple_types@U?$pair@$$CBV?$array@E$07@std@@UCertificate@v2@security@vanetza@@@std@@@std@@@std@@@1@0@Z
	??$?0V?$_Tree_const_iterator@V?$_Tree_val@U?$_Tree_simple_types@V?$array@E$02@std@@@std@@@std@@@std@@$0A@@?$list@V?$array@E$02@std@@V?$allocator@V?$array@E$02@std@@@2@@std@@QEAA@V?$_Tree_const_iterator@V?$_Tree_val@U?$_Tree_simple_types@V?$array@E$02@std@@@std@@@std@@@1@0@Z
	??$?0V?$_Tree_const_iterator@V?$_Tree_val@U?$_Tree_simple_types@V?$array@E$02@std@@@std@@@std@@@std@@AEB_N$0A@@?$pair@V?$_Tree_const_iterator@V?$_Tree_val@U?$_Tree_simple_types@V?$array@E$02@std@@@std@@@std@@@std@@_N@std@@QEAA@$$QEAV?$_Tree_const_iterator@V?$_Tree_val@U?$_Tree_simple_types@V?$array@E$02@std@@@std@@@std@@@1@AEB_N@Z
	??$?0V?$_Tree_const_iterator@V?$_Tree_val@U?$_Tree_simple_types@W4CamPermission@security@vanetza@@@std@@@std@@@std@@AEB_N$0A@@?$pair@V?$_Tree_const_iterator@V?$_Tree_val@U?$_Tree_simple_types@W4CamPermission@security@vanetza@@@std@@@std@@@std@@_N@std@@QEAA@$$QEAV?$_Tree_const_iterator@V?$_Tree_val@U?$_Tree_simple_types@W4CamPermission@security@vanetza@@@std@@@std@@@1@AEB_N@Z
	??$?0V?$_Tree_iterator@V?$_Tree_val@U?$_Tree_simple_types@U?$pair@$$CBV?$array@E$07@std@@UCachedCertificate@CertificateCache@v2@security@vanetza@@@std@@@std@@@std@@@std@@AEB_N$0A@@?$pair@V?$_Tree_iterator@V?$_Tree_val@U?$_Tree_simple_types@U?$pair@$$CBV?$array@E$07@std@@UCachedCertificate@CertificateCache@v2@security@vanetza@@@std@@@std@@@std@@@std@@_N@std@@QEAA@$$QEAV?$_Tree_iterator@V?$_Tree_val@U?$_Tree_simple_types@U?$pair@$$CBV?$array@E$07@std@@UCachedCertificate@CertificateCache@v2@security@vanetza@@@std@@@std@@@std@@@1@AEB_N@Z
	??$?0V?$_Tree_iterator@V?$_Tree_val@U?$_Tree_simple_types@U?$pair@$$CBV?$array@E$07@std@@UCachedCertificate@CertificateCache@v2@security@vanetza@@@std@@@std@@@std@@@std@@V01@$0A@@?$pair@V?$_Tree_iterator@V?$_Tree_val@U?$_Tree_simple_types@U?$pair@$$CBV?$array@E$07@std@@UCachedCertificate@CertificateCache@v2@security@vanetza@@@std@@@std@@@std@@@std@@V12@@std@@QEAA@$$QEAV?$_Tree_iterator@V?$_Tree_val@U?$_Tree_simple_types@U?$pair@$$CBV?$array@E$07@std@@UCachedCertificate@CertificateCache@v2@security@vanetza@@@std@@@std@@@std@@@1@0@Z
	??$?0V?$_Tree_iterator@V?$_Tree_val@U?$_Tree_simple_types@U?$pair@$$CBV?$array@E$07@std@@UCertificate@v2@security@vanetza@@@std@@@std@@@std@@@std@@AEB_N$0A@@?$pair@V?$_Tree_iterator@V?$_Tree_val@U?$_Tree_simple_types@U?$pair@$$CBV?$array@E$07@std@@UCertificate@v2@security@vanetza@@@std@@@std@@@std@@@std@@_N@std@@QEAA@$$QEAV?$_Tree_iterator@V?$_Tree_val@U?$_Tree_simple_types@U?$pair@$$CBV?$array@E$07@std@@UCertificate@v2@security@vanetza@@@std@@@std@@@std@@@1@AEB_N@Z
	??$?0V?$_Tree_iterator@V?$_Tree_val@U?$_Tree_simple_types@U?$pair@$$CBV?$basic_string@DU?$char_traits@D@std@@V?$allocator@D@2@@std@@V?$function@$$A6A?AV?$unique_ptr@VBackend@security@vanetza@@U?$default_delete@VBackend@security@vanetza@@@std@@@std@@XZ@2@@std@@@std@@@std@@@std@@AEB_N$0A@@?$pair@V?$_Tree_iterator@V?$_Tree_val@U?$_Tree_simple_types@U?$pair@$$CBV?$basic_string@DU?$char_traits@D@std@@V?$allocator@D@2@@std@@V?$function@$$A6A?AV?$unique_ptr@VBackend@security@vanetza@@U?$default_delete@VBackend@security@vanetza@@@std@@@std@@XZ@2@@std@@@std@@@std@@@std@@_N@std@@QEAA@$$QEAV?$_Tree_iterator@V?$_Tree_val@U?$_Tree_simple_types@U?$pair@$$CBV?$basic_string@DU?$char_traits@D@std@@V?$allocator@D@2@@std@@V?$function@$$A6A?AV?$unique_ptr@VBackend@security@vanetza@@U?$default_delete@VBackend@security@vanetza@@@std@@@std@@XZ@2@@std@@@std@@@std@@@1@AEB_N@Z
	??$?0V?$_Vector_const_iterator@V?$_Vector_val@U?$_Simple_types@E@std@@@std@@@std@@@?$_Tuple_val@V?$_Vector_const_iterator@V?$_Vector_val@U?$_Simple_types@E@std@@@std@@@std@@@std@@QEAA@$$QEAV?$_Vector_const_iterator@V?$_Vector_val@U?$_Simple_types@E@std@@@std@@@1@@Z
	??$?0V?$_Vector_const_iterator@V?$_Vector_val@U?$_Simple_types@E@std@@@std@@@std@@H$0A@@?$tuple@V?$_Vector_const_iterator@V?$_Vector_val@U?$_Simple_types@E@std@@@std@@@std@@H@std@@QEAA@$$QEAV?$_Vector_const_iterator@V?$_Vector_val@U?$_Simple_types@E@std@@@std@@@1@$$QEAH@Z
	??$?0V?$_Vector_const_iterator@V?$_Vector_val@U?$_Simple_types@E@std@@@std@@@std@@H$0A@@?$tuple@V?$_Vector_const_iterator@V?$_Vector_val@U?$_Simple_types@E@std@@@std@@@std@@_K@std@@QEAA@$$QEAV?$tuple@V?$_Vector_const_iterator@V?$_Vector_val@U?$_Simple_types@E@std@@@std@@@std@@H@1@@Z
	??$?0V?$_Vector_iterator@V?$_Vector_val@U?$_Simple_types@E@std@@@std@@@std@@$0A@@?$vector@EV?$allocator@E@std@@@std@@QEAA@V?$_Vector_iterator@V?$_Vector_val@U?$_Simple_types@E@std@@@std@@@1@0AEBV?$allocator@E@1@@Z
	??$?0V?$allocator@D@std@@$$V@?$_Compressed_pair@V?$allocator@D@std@@V?$_String_val@U?$_Simple_types@D@std@@@2@$00@std@@QEAA@U_One_then_variadic_args_t@1@$$QEAV?$allocator@D@1@@Z
	??$?0V?$allocator@E@std@@$$V@?$_Compressed_pair@V?$allocator@E@std@@V?$_Vector_val@U?$_Simple_types@E@std@@@2@$00@std@@QEAA@U_One_then_variadic_args_t@1@$$QEAV?$allocator@E@1@@Z
	??$?0V?$allocator@E@std@@PEAEPEAEPEAE@?$_Compressed_pair@V?$allocator@E@std@@V?$_Vector_val@U?$_Simple_types@E@std@@@2@$00@std@@QEAA@U_One_then_variadic_args_t@1@$$QEAV?$allocator@E@1@$$QEAPEAE22@Z
	??$?0V?$allocator@I@std@@$$V@?$_Compressed_pair@V?$allocator@I@std@@V?$_Vector_val@U?$_Simple_types@I@std@@@2@$00@std@@QEAA@U_One_then_variadic_args_t@1@$$QEAV?$allocator@I@1@@Z
	??$?0V?$allocator@PEAX@std@@$$V@?$_Compressed_pair@V?$allocator@PEAX@std@@V?$_Vector_val@U?$_Simple_types@PEAX@std@@@2@$00@std@@QEAA@U_One_then_variadic_args_t@1@$$QEAV?$allocator@PEAX@1@@Z
	??$?0V?$allocator@PEAX@std@@PEAPEAXPEAPEAXPEAPEAX@?$_Compressed_pair@V?$allocator@PEAX@std@@V?$_Vector_val@U?$_Simple_types@PEAX@std@@@2@$00@std@@QEAA@U_One_then_variadic_args_t@1@$$QEAV?$allocator@PEAX@1@$$QEAPEAPEAX22@Z
	??$?0V?$allocator@U?$_List_node@IPEAX@std@@@std@@$$V@?$_Compressed_pair@V?$allocator@U?$_List_node@IPEAX@std@@@std@@V?$_List_val@U?$_List_simple_types@I@std@@@2@$00@std@@QEAA@U_One_then_variadic_args_t@1@$$QEAV?$allocator@U?$_List_node@IPEAX@std@@@1@@Z
	??$?0V?$allocator@U?$_List_node@UCertificate@v2@security@vanetza@@PEAX@std@@@std@@$$V@?$_Compressed_pair@V?$allocator@U?$_List_node@UCertificate@v2@security@vanetza@@PEAX@std@@@std@@V?$_List_val@U?$_List_simple_types@UCertificate@v2@security@vanetza@@@std@@@2@$00@std@@QEAA@U_One_then_variadic_args_t@1@$$QEAV?$allocator@U?$_List_node@UCertificate@v2@security@vanetza@@PEAX@std@@@1@@Z
	??$?0V?$allocator@U?$_List_node@UItsAidSsp@v2@security@vanetza@@PEAX@std@@@std@@$$V@?$_Compressed_pair@V?$allocator@U?$_List_node@UItsAidSsp@v2@security@vanetza@@PEAX@std@@@std@@V?$_List_val@U?$_List_simple_types@UItsAidSsp@v2@security@vanetza@@@std@@@2@$00@std@@QEAA@U_One_then_variadic_args_t@1@$$QEAV?$allocator@U?$_List_node@UItsAidSsp@v2@security@vanetza@@PEAX@std@@@1@@Z
	??$?0V?$allocator@U?$_List_node@URecipientInfo@v2@security@vanetza@@PEAX@std@@@std@@$$V@?$_Compressed_pair@V?$allocator@U?$_List_node@URecipientInfo@v2@security@vanetza@@PEAX@std@@@std@@V?$_List_val@U?$_List_simple_types@URecipientInfo@v2@security@vanetza@@@std@@@2@$00@std@@QEAA@U_One_then_variadic_args_t@1@$$QEAV?$allocator@U?$_List_node@URecipientInfo@v2@security@vanetza@@PEAX@std@@@1@@Z
	??$?0V?$allocator@U?$_List_node@URectangularRegion@v2@security@vanetza@@PEAX@std@@@std@@$$V@?$_Compressed_pair@V?$allocator@U?$_List_node@URectangularRegion@v2@security@vanetza@@PEAX@std@@@std@@V?$_List_val@U?$_List_simple_types@URectangularRegion@v2@security@vanetza@@@std@@@2@$00@std@@QEAA@U_One_then_variadic_args_t@1@$$QEAV?$allocator@U?$_List_node@URectangularRegion@v2@security@vanetza@@PEAX@std@@@1@@Z
	??$?0V?$allocator@U?$_List_node@UTwoDLocation@v2@security@vanetza@@PEAX@std@@@std@@$$V@?$_Compressed_pair@V?$allocator@U?$_List_node@UTwoDLocation@v2@security@vanetza@@PEAX@std@@@std@@V?$_List_val@U?$_List_simple_types@UTwoDLocation@v2@security@vanetza@@@std@@@2@$00@std@@QEAA@U_One_then_variadic_args_t@1@$$QEAV?$allocator@U?$_List_node@UTwoDLocation@v2@security@vanetza@@PEAX@std@@@1@@Z
	??$?0V?$allocator@U?$_List_node@V?$array@E$02@std@@PEAX@std@@@std@@$$V@?$_Compressed_pair@V?$allocator@U?$_List_node@V?$array@E$02@std@@PEAX@std@@@std@@V?$_List_val@U?$_List_simple_types@V?$array@E$02@std@@@std@@@2@$00@std@@QEAA@U_One_then_variadic_args_t@1@$$QEAV?$allocator@U?$_List_node@V?$array@E$02@std@@PEAX@std@@@1@@Z
	??$?0V?$allocator@U?$_List_node@V?$variant@IUStartAndEndValidity@v2@security@vanetza@@UStartAndDurationValidity@234@V?$variant@UNoneRegion@v2@security@vanetza@@UCircularRegion@234@V?$list@URectangularRegion@v2@security@vanetza@@V?$allocator@URectangularRegion@v2@security@vanetza@@@std@@@std@@V?$list@UTwoDLocation@v2@security@vanetza@@V?$allocator@UTwoDLocation@v2@security@vanetza@@@std@@@7@UIdentifiedRegion@234@@boost@@@boost@@PEAX@std@@@std@@$$V@?$_Compressed_pair@V?$allocator@U?$_List_node@V?$variant@IUStartAndEndValidity@v2@security@vanetza@@UStartAndDurationValidity@234@V?$variant@UNoneRegion@v2@security@vanetza@@UCircularRegion@234@V?$list@URectangularRegion@v2@security@vanetza@@V?$allocator@URectangularRegion@v2@security@vanetza@@@std@@@std@@V?$list@UTwoDLocation@v2@security@vanetza@@V?$allocator@UTwoDLocation@v2@security@vanetza@@@std@@@7@UIdentifiedRegion@234@@boost@@@boost@@PEAX@std@@@std@@V?$_List_val@U?$_List_simple_types@V?$variant@IUStartAndEndValidity@v2@security@vanetza@@UStartAndDurationValidity@234@V?$variant@UNoneRegion@v2@security@vanetza@@UCircularRegion@234@V?$list@URectangularRegion@v2@security@vanetza@@V?$allocator@URectangularRegion@v2@security@vanetza@@@std@@@std@@V?$list@UTwoDLocation@v2@security@vanetza@@V?$allocator@UTwoDLocation@v2@security@vanetza@@@std@@@7@UIdentifiedRegion@234@@boost@@@boost@@@std@@@2@$00@std@@QEAA@U_One_then_variadic_args_t@1@$$QEAV?$allocator@U?$_List_node@V?$variant@IUStartAndEndValidity@v2@security@vanetza@@UStartAndDurationValidity@234@V?$variant@UNoneRegion@v2@security@vanetza@@UCircularRegion@234@V?$list@URectangularRegion@v2@security@vanetza@@V?$allocator@URectangularRegion@v2@security@vanetza@@@std@@@std@@V?$list@UTwoDLocation@v2@security@vanetza@@V?$allocator@UTwoDLocation@v2@security@vanetza@@@std@@@7@UIdentifiedRegion@234@@boost@@@boost@@PEAX@std@@@1@@Z
	??$?0V?$allocator@U?$_List_node@V?$variant@USignature@v2@security@vanetza@@$$V@boost@@PEAX@std@@@std@@$$V@?$_Compressed_pair@V?$allocator@U?$_List_node@V?$variant@USignature@v2@security@vanetza@@$$V@boost@@PEAX@std@@@std@@V?$_List_val@U?$_List_simple_types@V?$variant@USignature@v2@security@vanetza@@$$V@boost@@@std@@@2@$00@std@@QEAA@U_One_then_variadic_args_t@1@$$QEAV?$allocator@U?$_List_node@V?$variant@USignature@v2@security@vanetza@@$$V@boost@@PEAX@std@@@1@@Z
	??$?0V?$allocator@U?$_List_node@V?$variant@UVerificationKey@v2@security@vanetza@@UEncryptionKey@234@USubjectAssurance@234@V?$variant@UX_Coordinate_Only@security@vanetza@@UCompressed_Lsb_Y_0@23@UCompressed_Lsb_Y_1@23@UUncompressed@23@@boost@@V?$list@VIntX@v2@security@vanetza@@V?$allocator@VIntX@v2@security@vanetza@@@std@@@std@@V?$list@UItsAidSsp@v2@security@vanetza@@V?$allocator@UItsAidSsp@v2@security@vanetza@@@std@@@std@@@boost@@PEAX@std@@@std@@$$V@?$_Compressed_pair@V?$allocator@U?$_List_node@V?$variant@UVerificationKey@v2@security@vanetza@@UEncryptionKey@234@USubjectAssurance@234@V?$variant@UX_Coordinate_Only@security@vanetza@@UCompressed_Lsb_Y_0@23@UCompressed_Lsb_Y_1@23@UUncompressed@23@@boost@@V?$list@VIntX@v2@security@vanetza@@V?$allocator@VIntX@v2@security@vanetza@@@std@@@std@@V?$list@UItsAidSsp@v2@security@vanetza@@V?$allocator@UItsAidSsp@v2@security@vanetza@@@std@@@std@@@boost@@PEAX@std@@@std@@V?$_List_val@U?$_List_simple_types@V?$variant@UVerificationKey@v2@security@vanetza@@UEncryptionKey@234@USubjectAssurance@234@V?$variant@UX_Coordinate_Only@security@vanetza@@UCompressed_Lsb_Y_0@23@UCompressed_Lsb_Y_1@23@UUncompressed@23@@boost@@V?$list@VIntX@v2@security@vanetza@@V?$allocator@VIntX@v2@security@vanetza@@@std@@@std@@V?$list@UItsAidSsp@v2@security@vanetza@@V?$allocator@UItsAidSsp@v2@security@vanetza@@@std@@@std@@@boost@@@std@@@2@$00@std@@QEAA@U_One_then_variadic_args_t@1@$$QEAV?$allocator@U?$_List_node@V?$variant@UVerificationKey@v2@security@vanetza@@UEncryptionKey@234@USubjectAssurance@234@V?$variant@UX_Coordinate_Only@security@vanetza@@UCompressed_Lsb_Y_0@23@UCompressed_Lsb_Y_1@23@UUncompressed@23@@boost@@V?$list@VIntX@v2@security@vanetza@@V?$allocator@VIntX@v2@security@vanetza@@@std@@@std@@V?$list@UItsAidSsp@v2@security@vanetza@@V?$allocator@UItsAidSsp@v2@security@vanetza@@@std@@@std@@@boost@@PEAX@std@@@1@@Z
	??$?0V?$allocator@U?$_List_node@V?$variant@_KUTime64WithStandardDeviation@v2@security@vanetza@@IUThreeDLocation@234@V?$list@V?$array@E$02@std@@V?$allocator@V?$array@E$02@std@@@2@@std@@VIntX@234@V?$variant@$$TV?$array@E$07@std@@V?$recursive_wrapper@UCertificate@v2@security@vanetza@@@boost@@V?$list@UCertificate@v2@security@vanetza@@V?$allocator@UCertificate@v2@security@vanetza@@@std@@@2@UCertificateDigestWithOtherAlgorithm@v2@security@vanetza@@@boost@@V?$variant@V?$array@E$0M@@std@@$$V@boost@@V?$list@URecipientInfo@v2@security@vanetza@@V?$allocator@URecipientInfo@v2@security@vanetza@@@std@@@7@@boost@@PEAX@std@@@std@@$$V@?$_Compressed_pair@V?$allocator@U?$_List_node@V?$variant@_KUTime64WithStandardDeviation@v2@security@vanetza@@IUThreeDLocation@234@V?$list@V?$array@E$02@std@@V?$allocator@V?$array@E$02@std@@@2@@std@@VIntX@234@V?$variant@$$TV?$array@E$07@std@@V?$recursive_wrapper@UCertificate@v2@security@vanetza@@@boost@@V?$list@UCertificate@v2@security@vanetza@@V?$allocator@UCertificate@v2@security@vanetza@@@std@@@2@UCertificateDigestWithOtherAlgorithm@v2@security@vanetza@@@boost@@V?$variant@V?$array@E$0M@@std@@$$V@boost@@V?$list@URecipientInfo@v2@security@vanetza@@V?$allocator@URecipientInfo@v2@security@vanetza@@@std@@@7@@boost@@PEAX@std@@@std@@V?$_List_val@U?$_List_simple_types@V?$variant@_KUTime64WithStandardDeviation@v2@security@vanetza@@IUThreeDLocation@234@V?$list@V?$array@E$02@std@@V?$allocator@V?$array@E$02@std@@@2@@std@@VIntX@234@V?$variant@$$TV?$array@E$07@std@@V?$recursive_wrapper@UCertificate@v2@security@vanetza@@@boost@@V?$list@UCertificate@v2@security@vanetza@@V?$allocator@UCertificate@v2@security@vanetza@@@std@@@2@UCertificateDigestWithOtherAlgorithm@v2@security@vanetza@@@boost@@V?$variant@V?$array@E$0M@@std@@$$V@boost@@V?$list@URecipientInfo@v2@security@vanetza@@V?$allocator@URecipientInfo@v2@security@vanetza@@@std@@@7@@boost@@@std@@@2@$00@std@@QEAA@U_One_then_variadic_args_t@1@$$QEAV?$allocator@U?$_List_node@V?$variant@_KUTime64WithStandardDeviation@v2@security@vanetza@@IUThreeDLocation@234@V?$list@V?$array@E$02@std@@V?$allocator@V?$array@E$02@std@@@2@@std@@VIntX@234@V?$variant@$$TV?$array@E$07@std@@V?$recursive_wrapper@UCertificate@v2@security@vanetza@@@boost@@V?$list@UCertificate@v2@security@vanetza@@V?$allocator@UCertificate@v2@security@vanetza@@@std@@@2@UCertificateDigestWithOtherAlgorithm@v2@security@vanetza@@@boost@@V?$variant@V?$array@E$0M@@std@@$$V@boost@@V?$list@URecipientInfo@v2@security@vanetza@@V?$allocator@URecipientInfo@v2@security@vanetza@@@std@@@7@@boost@@PEAX@std@@@1@@Z
	??$?0V?$allocator@U?$_List_node@VIntX@v2@security@vanetza@@PEAX@std@@@std@@$$V@?$_Compressed_pair@V?$allocator@U?$_List_node@VIntX@v2@security@vanetza@@PEAX@std@@@std@@V?$_List_val@U?$_List_simple_types@VIntX@v2@security@vanetza@@@std@@@2@$00@std@@QEAA@U_One_then_variadic_args_t@1@$$QEAV?$allocator@U?$_List_node@VIntX@v2@security@vanetza@@PEAX@std@@@1@@Z
	??$?0V?$allocator@U?$_Tree_node@U?$pair@$$CBW4OsiLayer@vanetza@@VByteBufferConvertible@2@@std@@PEAX@std@@@std@@$$V@?$_Compressed_pair@V?$allocator@U?$_Tree_node@U?$pair@$$CBW4OsiLayer@vanetza@@VByteBufferConvertible@2@@std@@PEAX@std@@@std@@V?$_Tree_val@U?$_Tree_simple_types@U?$pair@$$CBW4OsiLayer@vanetza@@VByteBufferConvertible@2@@std@@@std@@@2@$00@std@@QEAA@U_One_then_variadic_args_t@1@$$QEAV?$allocator@U?$_Tree_node@U?$pair@$$CBW4OsiLayer@vanetza@@VByteBufferConvertible@2@@std@@PEAX@std@@@1@@Z
	??$?0V?$allocator@U?$_Tree_node@W4CamPermission@security@vanetza@@PEAX@std@@@std@@$$V@?$_Compressed_pair@V?$allocator@U?$_Tree_node@W4CamPermission@security@vanetza@@PEAX@std@@@std@@V?$_Tree_val@U?$_Tree_simple_types@W4CamPermission@security@vanetza@@@std@@@2@$00@std@@QEAA@U_One_then_variadic_args_t@1@$$QEAV?$allocator@U?$_Tree_node@W4CamPermission@security@vanetza@@PEAX@std@@@1@@Z
	??$?0V?$allocator@UECPPoint@CryptoPP@@@std@@$$V@?$_Compressed_pair@V?$allocator@UECPPoint@CryptoPP@@@std@@V?$_Vector_val@U?$_Simple_types@UECPPoint@CryptoPP@@@std@@@2@$00@std@@QEAA@U_One_then_variadic_args_t@1@$$QEAV?$allocator@UECPPoint@CryptoPP@@@1@@Z
	??$?0V?$array@E$02@std@@@?$_Tree_temp_node@V?$allocator@U?$_Tree_node@V?$array@E$02@std@@PEAX@std@@@std@@@std@@QEAA@AEAV?$allocator@U?$_Tree_node@V?$array@E$02@std@@PEAX@std@@@1@PEAU?$_Tree_node@V?$array@E$02@std@@PEAX@1@$$QEAV?$array@E$02@1@@Z
	??$?0V?$array@E$02@std@@AEAV?$_List_iterator@V?$_List_val@U?$_List_simple_types@U?$pair@$$CBV?$array@E$07@std@@UCertificate@v3@security@vanetza@@@std@@@std@@@std@@@1@$0A@@?$pair@$$CBV?$array@E$02@std@@V?$_List_iterator@V?$_List_val@U?$_List_simple_types@U?$pair@$$CBV?$array@E$07@std@@UCertificate@v3@security@vanetza@@@std@@@std@@@std@@@2@@std@@QEAA@$$QEAV?$array@E$02@1@AEAV?$_List_iterator@V?$_List_val@U?$_List_simple_types@U?$pair@$$CBV?$array@E$07@std@@UCertificate@v3@security@vanetza@@@std@@@std@@@std@@@1@@Z
	??$?0V?$array@E$02@std@@AEAV?$_List_iterator@V?$_List_val@U?$_List_simple_types@U?$pair@$$CBV?$array@E$07@std@@UCertificate@v3@security@vanetza@@@std@@@std@@@std@@@1@@?$_List_node_emplace_op2@V?$allocator@U?$_List_node@U?$pair@$$CBV?$array@E$02@std@@V?$_List_iterator@V?$_List_val@U?$_List_simple_types@U?$pair@$$CBV?$array@E$07@std@@UCertificate@v3@security@vanetza@@@std@@@std@@@std@@@2@@std@@PEAX@std@@@std@@@std@@QEAA@AEAV?$allocator@U?$_List_node@U?$pair@$$CBV?$array@E$02@std@@V?$_List_iterator@V?$_List_val@U?$_List_simple_types@U?$pair@$$CBV?$array@E$07@std@@UCertificate@v3@security@vanetza@@@std@@@std@@@std@@@2@@std@@PEAX@std@@@1@$$QEAV?$array@E$02@1@AEAV?$_List_iterator@V?$_List_val@U?$_List_simple_types@U?$pair@$$CBV?$array@E$07@std@@UCertificate@v3@security@vanetza@@@std@@@std@@@std@@@1@@Z
	??$?0V?$array@E$07@std@@@?$allocator@U?$_List_node@V?$array@E$07@std@@PEAX@std@@@std@@QEAA@AEBV?$allocator@V?$array@E$07@std@@@1@@Z
	??$?0V?$array@E$07@std@@@?$allocator@V?$_List_unchecked_const_iterator@V?$_List_val@U?$_List_simple_types@V?$array@E$07@std@@@std@@@std@@U_Iterator_base0@2@@std@@@std@@QEAA@AEBV?$allocator@V?$array@E$07@std@@@1@@Z
	??$?0V?$array@E$07@std@@@?$variant@$$TV?$array@E$07@std@@V?$recursive_wrapper@UCertificate@v2@security@vanetza@@@boost@@V?$list@UCertificate@v2@security@vanetza@@V?$allocator@UCertificate@v2@security@vanetza@@@std@@@2@UCertificateDigestWithOtherAlgorithm@v2@security@vanetza@@@boost@@QEAA@$$QEAV?$array@E$07@std@@_N@Z
	??$?0V?$array@E$07@std@@@?$variant@$$TV?$array@E$07@std@@V?$recursive_wrapper@UCertificate@v2@security@vanetza@@@boost@@V?$list@UCertificate@v2@security@vanetza@@V?$allocator@UCertificate@v2@security@vanetza@@@std@@@2@UCertificateDigestWithOtherAlgorithm@v2@security@vanetza@@@boost@@QEAA@AEBV?$array@E$07@std@@_N@Z
	??$?0V?$array@E$07@std@@UCertificate@v2@security@vanetza@@$0A@@?$pair@$$CBV?$array@E$07@std@@UCertificate@v2@security@vanetza@@@std@@QEAA@$$QEAU?$pair@V?$array@E$07@std@@UCertificate@v2@security@vanetza@@@1@@Z
	??$?0V?$array@E$0M@@std@@@?$variant@V?$array@E$0M@@std@@$$V@boost@@QEAA@AEBV?$array@E$0M@@std@@_N@Z
	??$?0V?$backup_holder@VChunkPacket@vanetza@@@variant@detail@boost@@@?$backup_assigner@V?$variant@VChunkPacket@vanetza@@VCohesivePacket@2@@boost@@@variant@detail@boost@@QEAA@AEAV?$variant@VChunkPacket@vanetza@@VCohesivePacket@2@@3@HAEBV?$backup_holder@VChunkPacket@vanetza@@@123@@Z
	??$?0V?$basic_altstringbuf@DU?$char_traits@D@std@@V?$allocator@D@2@@io@boost@@VNo_Op@?$basic_oaltstringstream@DU?$char_traits@D@std@@V?$allocator@D@2@@12@@?$shared_ptr@V?$basic_altstringbuf@DU?$char_traits@D@std@@V?$allocator@D@2@@io@boost@@@boost@@QEAA@PEAV?$basic_altstringbuf@DU?$char_traits@D@std@@V?$allocator@D@2@@io@1@VNo_Op@?$basic_oaltstringstream@DU?$char_traits@D@std@@V?$allocator@D@2@@31@@Z
	??$?0V?$istreambuf_iterator@DU?$char_traits@D@std@@@std@@$0A@@?$basic_string@DU?$char_traits@D@std@@V?$allocator@D@2@@std@@QEAA@V?$istreambuf_iterator@DU?$char_traits@D@std@@@1@0AEBV?$allocator@D@1@@Z
	??$?0V?$istreambuf_iterator@DU?$char_traits@D@std@@@std@@$0A@@?$vector@EV?$allocator@E@std@@@std@@QEAA@V?$istreambuf_iterator@DU?$char_traits@D@std@@@1@0AEBV?$allocator@E@1@@Z
	??$?0V?$list@UCertificate@v2@security@vanetza@@V?$allocator@UCertificate@v2@security@vanetza@@@std@@@std@@@?$variant@$$TV?$array@E$07@std@@V?$recursive_wrapper@UCertificate@v2@security@vanetza@@@boost@@V?$list@UCertificate@v2@security@vanetza@@V?$allocator@UCertificate@v2@security@vanetza@@@std@@@2@UCertificateDigestWithOtherAlgorithm@v2@security@vanetza@@@boost@@QEAA@$$QEAV?$list@UCertificate@v2@security@vanetza@@V?$allocator@UCertificate@v2@security@vanetza@@@std@@@std@@_N@Z
	??$?0V?$list@UCertificate@v2@security@vanetza@@V?$allocator@UCertificate@v2@security@vanetza@@@std@@@std@@@?$variant@$$TV?$array@E$07@std@@V?$recursive_wrapper@UCertificate@v2@security@vanetza@@@boost@@V?$list@UCertificate@v2@security@vanetza@@V?$allocator@UCertificate@v2@security@vanetza@@@std@@@2@UCertificateDigestWithOtherAlgorithm@v2@security@vanetza@@@boost@@QEAA@AEBV?$list@UCertificate@v2@security@vanetza@@V?$allocator@UCertificate@v2@security@vanetza@@@std@@@std@@_N@Z
	??$?0V?$list@UItsAidSsp@v2@security@vanetza@@V?$allocator@UItsAidSsp@v2@security@vanetza@@@std@@@std@@@?$variant@UVerificationKey@v2@security@vanetza@@UEncryptionKey@234@USubjectAssurance@234@V?$variant@UX_Coordinate_Only@security@vanetza@@UCompressed_Lsb_Y_0@23@UCompressed_Lsb_Y_1@23@UUncompressed@23@@boost@@V?$list@VIntX@v2@security@vanetza@@V?$allocator@VIntX@v2@security@vanetza@@@std@@@std@@V?$list@UItsAidSsp@v2@security@vanetza@@V?$allocator@UItsAidSsp@v2@security@vanetza@@@std@@@std@@@boost@@QEAA@$$QEAV?$list@UItsAidSsp@v2@security@vanetza@@V?$allocator@UItsAidSsp@v2@security@vanetza@@@std@@@std@@_N@Z
	??$?0V?$list@UItsAidSsp@v2@security@vanetza@@V?$allocator@UItsAidSsp@v2@security@vanetza@@@std@@@std@@@?$variant@UVerificationKey@v2@security@vanetza@@UEncryptionKey@234@USubjectAssurance@234@V?$variant@UX_Coordinate_Only@security@vanetza@@UCompressed_Lsb_Y_0@23@UCompressed_Lsb_Y_1@23@UUncompressed@23@@boost@@V?$list@VIntX@v2@security@vanetza@@V?$allocator@VIntX@v2@security@vanetza@@@std@@@std@@V?$list@UItsAidSsp@v2@security@vanetza@@V?$allocator@UItsAidSsp@v2@security@vanetza@@@std@@@std@@@boost@@QEAA@AEBV?$list@UItsAidSsp@v2@security@vanetza@@V?$allocator@UItsAidSsp@v2@security@vanetza@@@std@@@std@@_N@Z
	??$?0V?$list@URecipientInfo@v2@security@vanetza@@V?$allocator@URecipientInfo@v2@security@vanetza@@@std@@@std@@@?$variant@_KUTime64WithStandardDeviation@v2@security@vanetza@@IUThreeDLocation@234@V?$list@V?$array@E$02@std@@V?$allocator@V?$array@E$02@std@@@2@@std@@VIntX@234@V?$variant@$$TV?$array@E$07@std@@V?$recursive_wrapper@UCertificate@v2@security@vanetza@@@boost@@V?$list@UCertificate@v2@security@vanetza@@V?$allocator@UCertificate@v2@security@vanetza@@@std@@@2@UCertificateDigestWithOtherAlgorithm@v2@security@vanetza@@@boost@@V?$variant@V?$array@E$0M@@std@@$$V@boost@@V?$list@URecipientInfo@v2@security@vanetza@@V?$allocator@URecipientInfo@v2@security@vanetza@@@std@@@7@@boost@@QEAA@AEBV?$list@URecipientInfo@v2@security@vanetza@@V?$allocator@URecipientInfo@v2@security@vanetza@@@std@@@std@@_N@Z
	??$?0V?$list@URectangularRegion@v2@security@vanetza@@V?$allocator@URectangularRegion@v2@security@vanetza@@@std@@@std@@@?$variant@UNoneRegion@v2@security@vanetza@@UCircularRegion@234@V?$list@URectangularRegion@v2@security@vanetza@@V?$allocator@URectangularRegion@v2@security@vanetza@@@std@@@std@@V?$list@UTwoDLocation@v2@security@vanetza@@V?$allocator@UTwoDLocation@v2@security@vanetza@@@std@@@7@UIdentifiedRegion@234@@boost@@QEAA@AEBV?$list@URectangularRegion@v2@security@vanetza@@V?$allocator@URectangularRegion@v2@security@vanetza@@@std@@@std@@_N@Z
	??$?0V?$list@UTwoDLocation@v2@security@vanetza@@V?$allocator@UTwoDLocation@v2@security@vanetza@@@std@@@std@@@?$variant@UNoneRegion@v2@security@vanetza@@UCircularRegion@234@V?$list@URectangularRegion@v2@security@vanetza@@V?$allocator@URectangularRegion@v2@security@vanetza@@@std@@@std@@V?$list@UTwoDLocation@v2@security@vanetza@@V?$allocator@UTwoDLocation@v2@security@vanetza@@@std@@@7@UIdentifiedRegion@234@@boost@@QEAA@AEBV?$list@UTwoDLocation@v2@security@vanetza@@V?$allocator@UTwoDLocation@v2@security@vanetza@@@std@@@std@@_N@Z
	??$?0V?$list@V?$array@E$02@std@@V?$allocator@V?$array@E$02@std@@@2@@std@@@?$variant@_KUTime64WithStandardDeviation@v2@security@vanetza@@IUThreeDLocation@234@V?$list@V?$array@E$02@std@@V?$allocator@V?$array@E$02@std@@@2@@std@@VIntX@234@V?$variant@$$TV?$array@E$07@std@@V?$recursive_wrapper@UCertificate@v2@security@vanetza@@@boost@@V?$list@UCertificate@v2@security@vanetza@@V?$allocator@UCertificate@v2@security@vanetza@@@std@@@2@UCertificateDigestWithOtherAlgorithm@v2@security@vanetza@@@boost@@V?$variant@V?$array@E$0M@@std@@$$V@boost@@V?$list@URecipientInfo@v2@security@vanetza@@V?$allocator@URecipientInfo@v2@security@vanetza@@@std@@@7@@boost@@QEAA@AEAV?$list@V?$array@E$02@std@@V?$allocator@V?$array@E$02@std@@@2@@std@@_N@Z
	??$?0V?$list@V?$array@E$02@std@@V?$allocator@V?$array@E$02@std@@@2@@std@@@?$variant@_KUTime64WithStandardDeviation@v2@security@vanetza@@IUThreeDLocation@234@V?$list@V?$array@E$02@std@@V?$allocator@V?$array@E$02@std@@@2@@std@@VIntX@234@V?$variant@$$TV?$array@E$07@std@@V?$recursive_wrapper@UCertificate@v2@security@vanetza@@@boost@@V?$list@UCertificate@v2@security@vanetza@@V?$allocator@UCertificate@v2@security@vanetza@@@std@@@2@UCertificateDigestWithOtherAlgorithm@v2@security@vanetza@@@boost@@V?$variant@V?$array@E$0M@@std@@$$V@boost@@V?$list@URecipientInfo@v2@security@vanetza@@V?$allocator@URecipientInfo@v2@security@vanetza@@@std@@@7@@boost@@QEAA@AEBV?$list@V?$array@E$02@std@@V?$allocator@V?$array@E$02@std@@@2@@std@@_N@Z
	??$?0V?$list@VIntX@v2@security@vanetza@@V?$allocator@VIntX@v2@security@vanetza@@@std@@@std@@@?$variant@UVerificationKey@v2@security@vanetza@@UEncryptionKey@234@USubjectAssurance@234@V?$variant@UX_Coordinate_Only@security@vanetza@@UCompressed_Lsb_Y_0@23@UCompressed_Lsb_Y_1@23@UUncompressed@23@@boost@@V?$list@VIntX@v2@security@vanetza@@V?$allocator@VIntX@v2@security@vanetza@@@std@@@std@@V?$list@UItsAidSsp@v2@security@vanetza@@V?$allocator@UItsAidSsp@v2@security@vanetza@@@std@@@std@@@boost@@QEAA@$$QEAV?$list@VIntX@v2@security@vanetza@@V?$allocator@VIntX@v2@security@vanetza@@@std@@@std@@_N@Z
	??$?0V?$list@VIntX@v2@security@vanetza@@V?$allocator@VIntX@v2@security@vanetza@@@std@@@std@@@?$variant@UVerificationKey@v2@security@vanetza@@UEncryptionKey@234@USubjectAssurance@234@V?$variant@UX_Coordinate_Only@security@vanetza@@UCompressed_Lsb_Y_0@23@UCompressed_Lsb_Y_1@23@UUncompressed@23@@boost@@V?$list@VIntX@v2@security@vanetza@@V?$allocator@VIntX@v2@security@vanetza@@@std@@@std@@V?$list@UItsAidSsp@v2@security@vanetza@@V?$allocator@UItsAidSsp@v2@security@vanetza@@@std@@@std@@@boost@@QEAA@AEBV?$list@VIntX@v2@security@vanetza@@V?$allocator@VIntX@v2@security@vanetza@@@std@@@std@@_N@Z
	??$?0V?$unit@U?$list@U?$dim@Uplane_angle_base_dimension@units@boost@@V?$static_rational@$00$00@23@@units@boost@@Udimensionless_type@23@@units@boost@@U?$heterogeneous_system@U?$heterogeneous_system_impl@U?$list@U?$heterogeneous_system_dim@Udegree_base_unit@angle@units@boost@@V?$static_rational@$00$00@34@@units@boost@@Udimensionless_type@23@@units@boost@@U?$list@U?$dim@Uplane_angle_base_dimension@units@boost@@V?$static_rational@$00$00@23@@units@boost@@Udimensionless_type@23@@23@U?$list@U?$scale_list_dim@U?$scale@$09V?$static_rational@$0?6$00@units@boost@@@units@boost@@@units@boost@@Udimensionless_type@23@@23@@units@boost@@@23@X@units@boost@@H@?$quantity@V?$unit@U?$list@U?$dim@Uplane_angle_base_dimension@units@boost@@V?$static_rational@$00$00@23@@units@boost@@Udimensionless_type@23@@units@boost@@U?$homogeneous_system@U?$list@Udegree_base_unit@angle@units@boost@@Udimensionless_type@34@@units@boost@@@23@X@units@boost@@N@units@boost@@QEAA@AEBV?$quantity@V?$unit@U?$list@U?$dim@Uplane_angle_base_dimension@units@boost@@V?$static_rational@$00$00@23@@units@boost@@Udimensionless_type@23@@units@boost@@U?$heterogeneous_system@U?$heterogeneous_system_impl@U?$list@U?$heterogeneous_system_dim@Udegree_base_unit@angle@units@boost@@V?$static_rational@$00$00@34@@units@boost@@Udimensionless_type@23@@units@boost@@U?$list@U?$dim@Uplane_angle_base_dimension@units@boost@@V?$static_rational@$00$00@23@@units@boost@@Udimensionless_type@23@@23@U?$list@U?$scale_list_dim@U?$scale@$09V?$static_rational@$0?6$00@units@boost@@@units@boost@@@units@boost@@Udimensionless_type@23@@23@@units@boost@@@23@X@units@boost@@H@12@PEAX@Z
	??$?0V?$unit@U?$list@U?$dim@Uplane_angle_base_dimension@units@boost@@V?$static_rational@$00$00@23@@units@boost@@Udimensionless_type@23@@units@boost@@U?$homogeneous_system@U?$list@Udegree_base_unit@angle@units@boost@@Udimensionless_type@34@@units@boost@@@23@X@units@boost@@N@?$quantity@V?$unit@U?$list@U?$dim@Uplane_angle_base_dimension@units@boost@@V?$static_rational@$00$00@23@@units@boost@@Udimensionless_type@23@@units@boost@@U?$heterogeneous_system@U?$heterogeneous_system_impl@U?$list@U?$heterogeneous_system_dim@Udegree_base_unit@angle@units@boost@@V?$static_rational@$00$00@34@@units@boost@@Udimensionless_type@23@@units@boost@@U?$list@U?$dim@Uplane_angle_base_dimension@units@boost@@V?$static_rational@$00$00@23@@units@boost@@Udimensionless_type@23@@23@U?$list@U?$scale_list_dim@U?$scale@$09V?$static_rational@$0?6$00@units@boost@@@units@boost@@@units@boost@@Udimensionless_type@23@@23@@units@boost@@@23@X@units@boost@@H@units@boost@@QEAA@AEBV?$quantity@V?$unit@U?$list@U?$dim@Uplane_angle_base_dimension@units@boost@@V?$static_rational@$00$00@23@@units@boost@@Udimensionless_type@23@@units@boost@@U?$homogeneous_system@U?$list@Udegree_base_unit@angle@units@boost@@Udimensionless_type@34@@units@boost@@@23@X@units@boost@@N@12@PEAX@Z
	??$?0V?$unit@U?$list@U?$dim@Uplane_angle_base_dimension@units@boost@@V?$static_rational@$00$00@23@@units@boost@@Udimensionless_type@23@@units@boost@@U?$homogeneous_system@U?$list@Udegree_base_unit@angle@units@boost@@Udimensionless_type@34@@units@boost@@@23@X@units@boost@@N@?$quantity@V?$unit@U?$list@U?$dim@Uplane_angle_base_dimension@units@boost@@V?$static_rational@$00$00@23@@units@boost@@Udimensionless_type@23@@units@boost@@U?$homogeneous_system@U?$list@Umeter_base_unit@si@units@boost@@U?$list@U?$scaled_base_unit@Ugram_base_unit@cgs@units@boost@@U?$scale@$09V?$static_rational@$02$00@units@boost@@@34@@units@boost@@U?$list@Usecond_base_unit@si@units@boost@@U?$list@Uampere_base_unit@si@units@boost@@U?$list@Ukelvin_base_unit@si@units@boost@@U?$list@Umole_base_unit@si@units@boost@@U?$list@Ucandela_base_unit@si@units@boost@@U?$list@Uradian_base_unit@angle@units@boost@@U?$list@Usteradian_base_unit@angle@units@boost@@Udimensionless_type@34@@34@@34@@34@@34@@34@@34@@23@@34@@units@boost@@@23@X@units@boost@@N@units@boost@@QEAA@AEBV?$quantity@V?$unit@U?$list@U?$dim@Uplane_angle_base_dimension@units@boost@@V?$static_rational@$00$00@23@@units@boost@@Udimensionless_type@23@@units@boost@@U?$homogeneous_system@U?$list@Udegree_base_unit@angle@units@boost@@Udimensionless_type@34@@units@boost@@@23@X@units@boost@@N@12@PEAX@Z
	??$?0V?$variant@$$TV?$array@E$07@std@@V?$recursive_wrapper@UCertificate@v2@security@vanetza@@@boost@@V?$list@UCertificate@v2@security@vanetza@@V?$allocator@UCertificate@v2@security@vanetza@@@std@@@2@UCertificateDigestWithOtherAlgorithm@v2@security@vanetza@@@boost@@@?$variant@_KUTime64WithStandardDeviation@v2@security@vanetza@@IUThreeDLocation@234@V?$list@V?$array@E$02@std@@V?$allocator@V?$array@E$02@std@@@2@@std@@VIntX@234@V?$variant@$$TV?$array@E$07@std@@V?$recursive_wrapper@UCertificate@v2@security@vanetza@@@boost@@V?$list@UCertificate@v2@security@vanetza@@V?$allocator@UCertificate@v2@security@vanetza@@@std@@@2@UCertificateDigestWithOtherAlgorithm@v2@security@vanetza@@@boost@@V?$variant@V?$array@E$0M@@std@@$$V@boost@@V?$list@URecipientInfo@v2@security@vanetza@@V?$allocator@URecipientInfo@v2@security@vanetza@@@std@@@7@@boost@@QEAA@$$QEAV?$variant@$$TV?$array@E$07@std@@V?$recursive_wrapper@UCertificate@v2@security@vanetza@@@boost@@V?$list@UCertificate@v2@security@vanetza@@V?$allocator@UCertificate@v2@security@vanetza@@@std@@@2@UCertificateDigestWithOtherAlgorithm@v2@security@vanetza@@@1@_N@Z
	??$?0V?$variant@$$TV?$array@E$07@std@@V?$recursive_wrapper@UCertificate@v2@security@vanetza@@@boost@@V?$list@UCertificate@v2@security@vanetza@@V?$allocator@UCertificate@v2@security@vanetza@@@std@@@2@UCertificateDigestWithOtherAlgorithm@v2@security@vanetza@@@boost@@@?$variant@_KUTime64WithStandardDeviation@v2@security@vanetza@@IUThreeDLocation@234@V?$list@V?$array@E$02@std@@V?$allocator@V?$array@E$02@std@@@2@@std@@VIntX@234@V?$variant@$$TV?$array@E$07@std@@V?$recursive_wrapper@UCertificate@v2@security@vanetza@@@boost@@V?$list@UCertificate@v2@security@vanetza@@V?$allocator@UCertificate@v2@security@vanetza@@@std@@@2@UCertificateDigestWithOtherAlgorithm@v2@security@vanetza@@@boost@@V?$variant@V?$array@E$0M@@std@@$$V@boost@@V?$list@URecipientInfo@v2@security@vanetza@@V?$allocator@URecipientInfo@v2@security@vanetza@@@std@@@7@@boost@@QEAA@AEAV?$variant@$$TV?$array@E$07@std@@V?$recursive_wrapper@UCertificate@v2@security@vanetza@@@boost@@V?$list@UCertificate@v2@security@vanetza@@V?$allocator@UCertificate@v2@security@vanetza@@@std@@@2@UCertificateDigestWithOtherAlgorithm@v2@security@vanetza@@@1@_N@Z
	??$?0V?$variant@$$TV?$array@E$07@std@@V?$recursive_wrapper@UCertificate@v2@security@vanetza@@@boost@@V?$list@UCertificate@v2@security@vanetza@@V?$allocator@UCertificate@v2@security@vanetza@@@std@@@2@UCertificateDigestWithOtherAlgorithm@v2@security@vanetza@@@boost@@@?$variant@_KUTime64WithStandardDeviation@v2@security@vanetza@@IUThreeDLocation@234@V?$list@V?$array@E$02@std@@V?$allocator@V?$array@E$02@std@@@2@@std@@VIntX@234@V?$variant@$$TV?$array@E$07@std@@V?$recursive_wrapper@UCertificate@v2@security@vanetza@@@boost@@V?$list@UCertificate@v2@security@vanetza@@V?$allocator@UCertificate@v2@security@vanetza@@@std@@@2@UCertificateDigestWithOtherAlgorithm@v2@security@vanetza@@@boost@@V?$variant@V?$array@E$0M@@std@@$$V@boost@@V?$list@URecipientInfo@v2@security@vanetza@@V?$allocator@URecipientInfo@v2@security@vanetza@@@std@@@7@@boost@@QEAA@AEBV?$variant@$$TV?$array@E$07@std@@V?$recursive_wrapper@UCertificate@v2@security@vanetza@@@boost@@V?$list@UCertificate@v2@security@vanetza@@V?$allocator@UCertificate@v2@security@vanetza@@@std@@@2@UCertificateDigestWithOtherAlgorithm@v2@security@vanetza@@@1@_N@Z
	??$?0V?$variant@IUStartAndEndValidity@v2@security@vanetza@@UStartAndDurationValidity@234@V?$variant@UNoneRegion@v2@security@vanetza@@UCircularRegion@234@V?$list@URectangularRegion@v2@security@vanetza@@V?$allocator@URectangularRegion@v2@security@vanetza@@@std@@@std@@V?$list@UTwoDLocation@v2@security@vanetza@@V?$allocator@UTwoDLocation@v2@security@vanetza@@@std@@@7@UIdentifiedRegion@234@@boost@@@boost@@@?$_List_node_emplace_op2@V?$allocator@U?$_List_node@V?$variant@IUStartAndEndValidity@v2@security@vanetza@@UStartAndDurationValidity@234@V?$variant@UNoneRegion@v2@security@vanetza@@UCircularRegion@234@V?$list@URectangularRegion@v2@security@vanetza@@V?$allocator@URectangularRegion@v2@security@vanetza@@@std@@@std@@V?$list@UTwoDLocation@v2@security@vanetza@@V?$allocator@UTwoDLocation@v2@security@vanetza@@@std@@@7@UIdentifiedRegion@234@@boost@@@boost@@PEAX@std@@@std@@@std@@QEAA@AEAV?$allocator@U?$_List_node@V?$variant@IUStartAndEndValidity@v2@security@vanetza@@UStartAndDurationValidity@234@V?$variant@UNoneRegion@v2@security@vanetza@@UCircularRegion@234@V?$list@URectangularRegion@v2@security@vanetza@@V?$allocator@URectangularRegion@v2@security@vanetza@@@std@@@std@@V?$list@UTwoDLocation@v2@security@vanetza@@V?$allocator@UTwoDLocation@v2@security@vanetza@@@std@@@7@UIdentifiedRegion@234@@boost@@@boost@@PEAX@std@@@1@$$QEAV?$variant@IUStartAndEndValidity@v2@security@vanetza@@UStartAndDurationValidity@234@V?$variant@UNoneRegion@v2@security@vanetza@@UCircularRegion@234@V?$list@URectangularRegion@v2@security@vanetza@@V?$allocator@URectangularRegion@v2@security@vanetza@@@std@@@std@@V?$list@UTwoDLocation@v2@security@vanetza@@V?$allocator@UTwoDLocation@v2@security@vanetza@@@std@@@7@UIdentifiedRegion@234@@boost@@@boost@@@Z
	??$?0V?$variant@UNoneRegion@v2@security@vanetza@@UCircularRegion@234@V?$list@URectangularRegion@v2@security@vanetza@@V?$allocator@URectangularRegion@v2@security@vanetza@@@std@@@std@@V?$list@UTwoDLocation@v2@security@vanetza@@V?$allocator@UTwoDLocation@v2@security@vanetza@@@std@@@7@UIdentifiedRegion@234@@boost@@@?$variant@IUStartAndEndValidity@v2@security@vanetza@@UStartAndDurationValidity@234@V?$variant@UNoneRegion@v2@security@vanetza@@UCircularRegion@234@V?$list@URectangularRegion@v2@security@vanetza@@V?$allocator@URectangularRegion@v2@security@vanetza@@@std@@@std@@V?$list@UTwoDLocation@v2@security@vanetza@@V?$allocator@UTwoDLocation@v2@security@vanetza@@@std@@@7@UIdentifiedRegion@234@@boost@@@boost@@QEAA@AEBV?$variant@UNoneRegion@v2@security@vanetza@@UCircularRegion@234@V?$list@URectangularRegion@v2@security@vanetza@@V?$allocator@URectangularRegion@v2@security@vanetza@@@std@@@std@@V?$list@UTwoDLocation@v2@security@vanetza@@V?$allocator@UTwoDLocation@v2@security@vanetza@@@std@@@7@UIdentifiedRegion@234@@1@_N@Z
	??$?0V?$variant@USecuredMessage@v2@security@vanetza@@U1v3@34@@boost@@@?$variant@AEBUSecuredMessage@v2@security@vanetza@@AEBU1v3@34@@boost@@QEAA@AEBV?$variant@USecuredMessage@v2@security@vanetza@@U1v3@34@@1@_N@Z
	??$?0V?$variant@USecuredMessage@v2@security@vanetza@@U1v3@34@@boost@@@?$variant@V?$variant@USecuredMessage@v2@security@vanetza@@U1v3@34@@boost@@W4SignConfirmError@security@vanetza@@@boost@@QEAA@$$QEAV?$variant@USecuredMessage@v2@security@vanetza@@U1v3@34@@1@_N@Z
	??$?0V?$variant@USecuredMessage@v2@security@vanetza@@U1v3@34@@boost@@@EncapConfirm@security@vanetza@@QEAA@$$QEAV?$variant@USecuredMessage@v2@security@vanetza@@U1v3@34@@boost@@_N@Z
	??$?0V?$variant@USignature@v2@security@vanetza@@$$V@boost@@@?$_List_node_emplace_op2@V?$allocator@U?$_List_node@V?$variant@USignature@v2@security@vanetza@@$$V@boost@@PEAX@std@@@std@@@std@@QEAA@AEAV?$allocator@U?$_List_node@V?$variant@USignature@v2@security@vanetza@@$$V@boost@@PEAX@std@@@1@$$QEAV?$variant@USignature@v2@security@vanetza@@$$V@boost@@@Z
	??$?0V?$variant@UVerificationKey@v2@security@vanetza@@UEncryptionKey@234@USubjectAssurance@234@V?$variant@UX_Coordinate_Only@security@vanetza@@UCompressed_Lsb_Y_0@23@UCompressed_Lsb_Y_1@23@UUncompressed@23@@boost@@V?$list@VIntX@v2@security@vanetza@@V?$allocator@VIntX@v2@security@vanetza@@@std@@@std@@V?$list@UItsAidSsp@v2@security@vanetza@@V?$allocator@UItsAidSsp@v2@security@vanetza@@@std@@@std@@@boost@@@?$_List_node_emplace_op2@V?$allocator@U?$_List_node@V?$variant@UVerificationKey@v2@security@vanetza@@UEncryptionKey@234@USubjectAssurance@234@V?$variant@UX_Coordinate_Only@security@vanetza@@UCompressed_Lsb_Y_0@23@UCompressed_Lsb_Y_1@23@UUncompressed@23@@boost@@V?$list@VIntX@v2@security@vanetza@@V?$allocator@VIntX@v2@security@vanetza@@@std@@@std@@V?$list@UItsAidSsp@v2@security@vanetza@@V?$allocator@UItsAidSsp@v2@security@vanetza@@@std@@@std@@@boost@@PEAX@std@@@std@@@std@@QEAA@AEAV?$allocator@U?$_List_node@V?$variant@UVerificationKey@v2@security@vanetza@@UEncryptionKey@234@USubjectAssurance@234@V?$variant@UX_Coordinate_Only@security@vanetza@@UCompressed_Lsb_Y_0@23@UCompressed_Lsb_Y_1@23@UUncompressed@23@@boost@@V?$list@VIntX@v2@security@vanetza@@V?$allocator@VIntX@v2@security@vanetza@@@std@@@std@@V?$list@UItsAidSsp@v2@security@vanetza@@V?$allocator@UItsAidSsp@v2@security@vanetza@@@std@@@std@@@boost@@PEAX@std@@@1@$$QEAV?$variant@UVerificationKey@v2@security@vanetza@@UEncryptionKey@234@USubjectAssurance@234@V?$variant@UX_Coordinate_Only@security@vanetza@@UCompressed_Lsb_Y_0@23@UCompressed_Lsb_Y_1@23@UUncompressed@23@@boost@@V?$list@VIntX@v2@security@vanetza@@V?$allocator@VIntX@v2@security@vanetza@@@std@@@std@@V?$list@UItsAidSsp@v2@security@vanetza@@V?$allocator@UItsAidSsp@v2@security@vanetza@@@std@@@std@@@boost@@@Z
	??$?0V?$variant@V?$array@E$0M@@std@@$$V@boost@@@?$variant@_KUTime64WithStandardDeviation@v2@security@vanetza@@IUThreeDLocation@234@V?$list@V?$array@E$02@std@@V?$allocator@V?$array@E$02@std@@@2@@std@@VIntX@234@V?$variant@$$TV?$array@E$07@std@@V?$recursive_wrapper@UCertificate@v2@security@vanetza@@@boost@@V?$list@UCertificate@v2@security@vanetza@@V?$allocator@UCertificate@v2@security@vanetza@@@std@@@2@UCertificateDigestWithOtherAlgorithm@v2@security@vanetza@@@boost@@V?$variant@V?$array@E$0M@@std@@$$V@boost@@V?$list@URecipientInfo@v2@security@vanetza@@V?$allocator@URecipientInfo@v2@security@vanetza@@@std@@@7@@boost@@QEAA@AEBV?$variant@V?$array@E$0M@@std@@$$V@1@_N@Z
	??$?0V?$variant@_KUTime64WithStandardDeviation@v2@security@vanetza@@IUThreeDLocation@234@V?$list@V?$array@E$02@std@@V?$allocator@V?$array@E$02@std@@@2@@std@@VIntX@234@V?$variant@$$TV?$array@E$07@std@@V?$recursive_wrapper@UCertificate@v2@security@vanetza@@@boost@@V?$list@UCertificate@v2@security@vanetza@@V?$allocator@UCertificate@v2@security@vanetza@@@std@@@2@UCertificateDigestWithOtherAlgorithm@v2@security@vanetza@@@boost@@V?$variant@V?$array@E$0M@@std@@$$V@boost@@V?$list@URecipientInfo@v2@security@vanetza@@V?$allocator@URecipientInfo@v2@security@vanetza@@@std@@@7@@boost@@@?$_List_node_emplace_op2@V?$allocator@U?$_List_node@V?$variant@_KUTime64WithStandardDeviation@v2@security@vanetza@@IUThreeDLocation@234@V?$list@V?$array@E$02@std@@V?$allocator@V?$array@E$02@std@@@2@@std@@VIntX@234@V?$variant@$$TV?$array@E$07@std@@V?$recursive_wrapper@UCertificate@v2@security@vanetza@@@boost@@V?$list@UCertificate@v2@security@vanetza@@V?$allocator@UCertificate@v2@security@vanetza@@@std@@@2@UCertificateDigestWithOtherAlgorithm@v2@security@vanetza@@@boost@@V?$variant@V?$array@E$0M@@std@@$$V@boost@@V?$list@URecipientInfo@v2@security@vanetza@@V?$allocator@URecipientInfo@v2@security@vanetza@@@std@@@7@@boost@@PEAX@std@@@std@@@std@@QEAA@AEAV?$allocator@U?$_List_node@V?$variant@_KUTime64WithStandardDeviation@v2@security@vanetza@@IUThreeDLocation@234@V?$list@V?$array@E$02@std@@V?$allocator@V?$array@E$02@std@@@2@@std@@VIntX@234@V?$variant@$$TV?$array@E$07@std@@V?$recursive_wrapper@UCertificate@v2@security@vanetza@@@boost@@V?$list@UCertificate@v2@security@vanetza@@V?$allocator@UCertificate@v2@security@vanetza@@@std@@@2@UCertificateDigestWithOtherAlgorithm@v2@security@vanetza@@@boost@@V?$variant@V?$array@E$0M@@std@@$$V@boost@@V?$list@URecipientInfo@v2@security@vanetza@@V?$allocator@URecipientInfo@v2@security@vanetza@@@std@@@7@@boost@@PEAX@std@@@1@$$QEAV?$variant@_KUTime64WithStandardDeviation@v2@security@vanetza@@IUThreeDLocation@234@V?$list@V?$array@E$02@std@@V?$allocator@V?$array@E$02@std@@@2@@std@@VIntX@234@V?$variant@$$TV?$array@E$07@std@@V?$recursive_wrapper@UCertificate@v2@security@vanetza@@@boost@@V?$list@UCertificate@v2@security@vanetza@@V?$allocator@UCertificate@v2@security@vanetza@@@std@@@2@UCertificateDigestWithOtherAlgorithm@v2@security@vanetza@@@boost@@V?$variant@V?$array@E$0M@@std@@$$V@boost@@V?$list@URecipientInfo@v2@security@vanetza@@V?$allocator@URecipientInfo@v2@security@vanetza@@@std@@@7@@boost@@@Z
	??$?0VChunkPacket@vanetza@@@?$backup_assigner@V?$variant@VChunkPacket@vanetza@@VCohesivePacket@2@@boost@@@variant@detail@boost@@QEAA@AEAV?$variant@VChunkPacket@vanetza@@VCohesivePacket@2@@3@HAEBVChunkPacket@vanetza@@@Z
	??$?0VChunkPacket@vanetza@@@?$variant@VChunkPacket@vanetza@@VCohesivePacket@2@@boost@@QEAA@$$QEAVChunkPacket@vanetza@@_N@Z
	??$?0VCohesivePacket@vanetza@@@?$variant@VChunkPacket@vanetza@@VCohesivePacket@2@@boost@@QEAA@$$QEAVCohesivePacket@vanetza@@_N@Z
	??$?0VEcdsaSignatureFuture@security@vanetza@@@?$variant@UEcdsaSignature@security@vanetza@@VEcdsaSignatureFuture@23@@boost@@QEAA@$$QEAVEcdsaSignatureFuture@security@vanetza@@_N@Z
	??$?0VIntX@v2@security@vanetza@@@?$_List_node_emplace_op2@V?$allocator@U?$_List_node@VIntX@v2@security@vanetza@@PEAX@std@@@std@@@std@@QEAA@AEAV?$allocator@U?$_List_node@VIntX@v2@security@vanetza@@PEAX@std@@@1@$$QEAVIntX@v2@security@vanetza@@@Z
	??$?0VIntX@v2@security@vanetza@@@?$variant@_KUTime64WithStandardDeviation@v2@security@vanetza@@IUThreeDLocation@234@V?$list@V?$array@E$02@std@@V?$allocator@V?$array@E$02@std@@@2@@std@@VIntX@234@V?$variant@$$TV?$array@E$07@std@@V?$recursive_wrapper@UCertificate@v2@security@vanetza@@@boost@@V?$list@UCertificate@v2@security@vanetza@@V?$allocator@UCertificate@v2@security@vanetza@@@std@@@2@UCertificateDigestWithOtherAlgorithm@v2@security@vanetza@@@boost@@V?$variant@V?$array@E$0M@@std@@$$V@boost@@V?$list@URecipientInfo@v2@security@vanetza@@V?$allocator@URecipientInfo@v2@security@vanetza@@@std@@@7@@boost@@QEAA@$$QEAVIntX@v2@security@vanetza@@_N@Z
	??$?0VIntX@v2@security@vanetza@@@?$variant@_KUTime64WithStandardDeviation@v2@security@vanetza@@IUThreeDLocation@234@V?$list@V?$array@E$02@std@@V?$allocator@V?$array@E$02@std@@@2@@std@@VIntX@234@V?$variant@$$TV?$array@E$07@std@@V?$recursive_wrapper@UCertificate@v2@security@vanetza@@@boost@@V?$list@UCertificate@v2@security@vanetza@@V?$allocator@UCertificate@v2@security@vanetza@@@std@@@2@UCertificateDigestWithOtherAlgorithm@v2@security@vanetza@@@boost@@V?$variant@V?$array@E$0M@@std@@$$V@boost@@V?$list@URecipientInfo@v2@security@vanetza@@V?$allocator@URecipientInfo@v2@security@vanetza@@@std@@@7@@boost@@QEAA@AEBVIntX@v2@security@vanetza@@_N@Z
	??$?0W4SignConfirmError@security@vanetza@@@?$variant@V?$variant@USecuredMessage@v2@security@vanetza@@U1v3@34@@boost@@W4SignConfirmError@security@vanetza@@@boost@@QEAA@AEAW4SignConfirmError@security@vanetza@@_N@Z
	??$?0W4SignConfirmError@security@vanetza@@@EncapConfirm@security@vanetza@@QEAA@AEAW4SignConfirmError@12@_N@Z
	??$?0W4VerificationReport@security@vanetza@@@?$variant@Ublank@boost@@W4VerificationReport@security@vanetza@@@boost@@QEAA@AEBW4VerificationReport@security@vanetza@@_N@Z
	??$?0_J$0A@@?$duration@_JU?$ratio@$00$00@std@@@chrono@std@@QEAA@AEB_J@Z
	??$?0_J$0A@@?$duration@_JU?$ratio@$00$0PECEA@@std@@@chrono@std@@QEAA@AEB_J@Z
	??$?0_JU?$ratio@$00$00@std@@$0A@@?$duration@_JU?$ratio@$00$0PECEA@@std@@@chrono@std@@QEAA@AEBV?$duration@_JU?$ratio@$00$00@std@@@12@@Z
	??$?0_JU?$ratio@$00$0DOI@@std@@$0A@@?$duration@_JU?$ratio@$00$0PECEA@@std@@@chrono@std@@QEAA@AEBV?$duration@_JU?$ratio@$00$0DOI@@std@@@12@@Z
	??$?0_K$0A@@?$duration@_JU?$ratio@$00$00@std@@@chrono@std@@QEAA@AEB_K@Z
	??$?0_K$0A@@?$duration@_KU?$ratio@$00$0PECEA@@std@@@chrono@std@@QEAA@AEB_K@Z
	??$?0_K@?$variant@_KUTime64WithStandardDeviation@v2@security@vanetza@@IUThreeDLocation@234@V?$list@V?$array@E$02@std@@V?$allocator@V?$array@E$02@std@@@2@@std@@VIntX@234@V?$variant@$$TV?$array@E$07@std@@V?$recursive_wrapper@UCertificate@v2@security@vanetza@@@boost@@V?$list@UCertificate@v2@security@vanetza@@V?$allocator@UCertificate@v2@security@vanetza@@@std@@@2@UCertificateDigestWithOtherAlgorithm@v2@security@vanetza@@@boost@@V?$variant@V?$array@E$0M@@std@@$$V@boost@@V?$list@URecipientInfo@v2@security@vanetza@@V?$allocator@URecipientInfo@v2@security@vanetza@@@std@@@7@@boost@@QEAA@$$QEA_K_N@Z
	??$?0_K@?$variant@_KUTime64WithStandardDeviation@v2@security@vanetza@@IUThreeDLocation@234@V?$list@V?$array@E$02@std@@V?$allocator@V?$array@E$02@std@@@2@@std@@VIntX@234@V?$variant@$$TV?$array@E$07@std@@V?$recursive_wrapper@UCertificate@v2@security@vanetza@@@boost@@V?$list@UCertificate@v2@security@vanetza@@V?$allocator@UCertificate@v2@security@vanetza@@@std@@@2@UCertificateDigestWithOtherAlgorithm@v2@security@vanetza@@@boost@@V?$variant@V?$array@E$0M@@std@@$$V@boost@@V?$list@URecipientInfo@v2@security@vanetza@@V?$allocator@URecipientInfo@v2@security@vanetza@@@std@@@7@@boost@@QEAA@AEB_K_N@Z
	??$?4$$T@?$variant@$$TV?$array@E$07@std@@V?$recursive_wrapper@UCertificate@v2@security@vanetza@@@boost@@V?$list@UCertificate@v2@security@vanetza@@V?$allocator@UCertificate@v2@security@vanetza@@@std@@@2@UCertificateDigestWithOtherAlgorithm@v2@security@vanetza@@@boost@@QEAAAEAV01@$$QEA$$T@Z
	??$?4AEAV?$array@E$02@std@@@?$optional@V?$array@E$02@std@@@boost@@QEAAAEAV01@AEAV?$array@E$02@std@@@Z
	??$?4AEAV?$array@E$07@std@@@?$optional@V?$array@E$07@std@@@boost@@QEAAAEAV01@AEAV?$array@E$07@std@@@Z
	??$?4AEA_K@?$optional@_K@boost@@QEAAAEAV01@AEA_K@Z
	??$?4AEBUCertificate@v2@security@vanetza@@@?$optional@UCertificate@v2@security@vanetza@@@boost@@QEAAAEAV01@AEBUCertificate@v2@security@vanetza@@@Z
	??$?4AEBUStartAndEndValidity@v2@security@vanetza@@@?$optional@UStartAndEndValidity@v2@security@vanetza@@@boost@@QEAAAEAV01@AEBUStartAndEndValidity@v2@security@vanetza@@@Z
	??$?4I@?$variant@IUStartAndEndValidity@v2@security@vanetza@@UStartAndDurationValidity@234@V?$variant@UNoneRegion@v2@security@vanetza@@UCircularRegion@234@V?$list@URectangularRegion@v2@security@vanetza@@V?$allocator@URectangularRegion@v2@security@vanetza@@@std@@@std@@V?$list@UTwoDLocation@v2@security@vanetza@@V?$allocator@UTwoDLocation@v2@security@vanetza@@@std@@@7@UIdentifiedRegion@234@@boost@@@boost@@QEAAAEAV01@AEBI@Z
	??$?4I@?$variant@_KUTime64WithStandardDeviation@v2@security@vanetza@@IUThreeDLocation@234@V?$list@V?$array@E$02@std@@V?$allocator@V?$array@E$02@std@@@2@@std@@VIntX@234@V?$variant@$$TV?$array@E$07@std@@V?$recursive_wrapper@UCertificate@v2@security@vanetza@@@boost@@V?$list@UCertificate@v2@security@vanetza@@V?$allocator@UCertificate@v2@security@vanetza@@@std@@@2@UCertificateDigestWithOtherAlgorithm@v2@security@vanetza@@@boost@@V?$variant@V?$array@E$0M@@std@@$$V@boost@@V?$list@URecipientInfo@v2@security@vanetza@@V?$allocator@URecipientInfo@v2@security@vanetza@@@std@@@7@@boost@@QEAAAEAV01@AEBI@Z
	??$?4U?$default_delete@VBackend@security@vanetza@@@std@@$0A@@?$unique_ptr@VBackend@security@vanetza@@U?$default_delete@VBackend@security@vanetza@@@std@@@std@@QEAAAEAV01@$$QEAV01@@Z
	??$?4UCertificate@v2@security@vanetza@@@?$variant@$$TV?$array@E$07@std@@V?$recursive_wrapper@UCertificate@v2@security@vanetza@@@boost@@V?$list@UCertificate@v2@security@vanetza@@V?$allocator@UCertificate@v2@security@vanetza@@@std@@@2@UCertificateDigestWithOtherAlgorithm@v2@security@vanetza@@@boost@@QEAAAEAV01@AEBUCertificate@v2@security@vanetza@@@Z
	??$?4UCertificateDigestWithOtherAlgorithm@v2@security@vanetza@@@?$variant@$$TV?$array@E$07@std@@V?$recursive_wrapper@UCertificate@v2@security@vanetza@@@boost@@V?$list@UCertificate@v2@security@vanetza@@V?$allocator@UCertificate@v2@security@vanetza@@@std@@@2@UCertificateDigestWithOtherAlgorithm@v2@security@vanetza@@@boost@@QEAAAEAV01@AEBUCertificateDigestWithOtherAlgorithm@v2@security@vanetza@@@Z
	??$?4UCircularRegion@v2@security@vanetza@@@?$variant@UNoneRegion@v2@security@vanetza@@UCircularRegion@234@V?$list@URectangularRegion@v2@security@vanetza@@V?$allocator@URectangularRegion@v2@security@vanetza@@@std@@@std@@V?$list@UTwoDLocation@v2@security@vanetza@@V?$allocator@UTwoDLocation@v2@security@vanetza@@@std@@@7@UIdentifiedRegion@234@@boost@@QEAAAEAV01@AEBUCircularRegion@v2@security@vanetza@@@Z
	??$?4UCompressed_Lsb_Y_0@security@vanetza@@@?$variant@UX_Coordinate_Only@security@vanetza@@UCompressed_Lsb_Y_0@23@UCompressed_Lsb_Y_1@23@UUncompressed@23@@boost@@QEAAAEAV01@AEBUCompressed_Lsb_Y_0@security@vanetza@@@Z
	??$?4UCompressed_Lsb_Y_1@security@vanetza@@@?$variant@UX_Coordinate_Only@security@vanetza@@UCompressed_Lsb_Y_0@23@UCompressed_Lsb_Y_1@23@UUncompressed@23@@boost@@QEAAAEAV01@AEBUCompressed_Lsb_Y_1@security@vanetza@@@Z
	??$?4UEcdsaSignature@security@vanetza@@@?$variant@UEcdsaSignature@security@vanetza@@VEcdsaSignatureFuture@23@@boost@@QEAAAEAV01@$$QEAUEcdsaSignature@security@vanetza@@@Z
	??$?4UEcdsaSignature@security@vanetza@@@?$variant@UEcdsaSignature@security@vanetza@@VEcdsaSignatureFuture@23@@boost@@QEAAAEAV01@AEBUEcdsaSignature@security@vanetza@@@Z
	??$?4UEciesEncryptedKey@v2@security@vanetza@@@?$variant@UEciesEncryptedKey@v2@security@vanetza@@UOpaqueKey@234@@boost@@QEAAAEAV01@$$QEAUEciesEncryptedKey@v2@security@vanetza@@@Z
	??$?4UEncryptionKey@v2@security@vanetza@@@?$variant@UVerificationKey@v2@security@vanetza@@UEncryptionKey@234@USubjectAssurance@234@V?$variant@UX_Coordinate_Only@security@vanetza@@UCompressed_Lsb_Y_0@23@UCompressed_Lsb_Y_1@23@UUncompressed@23@@boost@@V?$list@VIntX@v2@security@vanetza@@V?$allocator@VIntX@v2@security@vanetza@@@std@@@std@@V?$list@UItsAidSsp@v2@security@vanetza@@V?$allocator@UItsAidSsp@v2@security@vanetza@@@std@@@std@@@boost@@QEAAAEAV01@AEBUEncryptionKey@v2@security@vanetza@@@Z
	??$?4UIdentifiedRegion@v2@security@vanetza@@@?$variant@UNoneRegion@v2@security@vanetza@@UCircularRegion@234@V?$list@URectangularRegion@v2@security@vanetza@@V?$allocator@URectangularRegion@v2@security@vanetza@@@std@@@std@@V?$list@UTwoDLocation@v2@security@vanetza@@V?$allocator@UTwoDLocation@v2@security@vanetza@@@std@@@7@UIdentifiedRegion@234@@boost@@QEAAAEAV01@AEBUIdentifiedRegion@v2@security@vanetza@@@Z
	??$?4UNoneRegion@v2@security@vanetza@@@?$variant@UNoneRegion@v2@security@vanetza@@UCircularRegion@234@V?$list@URectangularRegion@v2@security@vanetza@@V?$allocator@URectangularRegion@v2@security@vanetza@@@std@@@std@@V?$list@UTwoDLocation@v2@security@vanetza@@V?$allocator@UTwoDLocation@v2@security@vanetza@@@std@@@7@UIdentifiedRegion@234@@boost@@QEAAAEAV01@AEBUNoneRegion@v2@security@vanetza@@@Z
	??$?4UOpaqueKey@v2@security@vanetza@@@?$variant@UEciesEncryptedKey@v2@security@vanetza@@UOpaqueKey@234@@boost@@QEAAAEAV01@$$QEAUOpaqueKey@v2@security@vanetza@@@Z
	??$?4UPublicKey@ecdsa256@security@vanetza@@@?$optional@UPublicKey@ecdsa256@security@vanetza@@@boost@@QEAAAEAV01@$$QEAUPublicKey@ecdsa256@security@vanetza@@@Z
	??$?4USignature@v2@security@vanetza@@@?$variant@USignature@v2@security@vanetza@@$$V@boost@@QEAAAEAV01@AEBUSignature@v2@security@vanetza@@@Z
	??$?4UStartAndDurationValidity@v2@security@vanetza@@@?$variant@IUStartAndEndValidity@v2@security@vanetza@@UStartAndDurationValidity@234@V?$variant@UNoneRegion@v2@security@vanetza@@UCircularRegion@234@V?$list@URectangularRegion@v2@security@vanetza@@V?$allocator@URectangularRegion@v2@security@vanetza@@@std@@@std@@V?$list@UTwoDLocation@v2@security@vanetza@@V?$allocator@UTwoDLocation@v2@security@vanetza@@@std@@@7@UIdentifiedRegion@234@@boost@@@boost@@QEAAAEAV01@AEBUStartAndDurationValidity@v2@security@vanetza@@@Z
	??$?4UStartAndEndValidity@v2@security@vanetza@@@?$variant@IUStartAndEndValidity@v2@security@vanetza@@UStartAndDurationValidity@234@V?$variant@UNoneRegion@v2@security@vanetza@@UCircularRegion@234@V?$list@URectangularRegion@v2@security@vanetza@@V?$allocator@URectangularRegion@v2@security@vanetza@@@std@@@std@@V?$list@UTwoDLocation@v2@security@vanetza@@V?$allocator@UTwoDLocation@v2@security@vanetza@@@std@@@7@UIdentifiedRegion@234@@boost@@@boost@@QEAAAEAV01@AEBUStartAndEndValidity@v2@security@vanetza@@@Z
	??$?4USubjectAssurance@v2@security@vanetza@@@?$variant@UVerificationKey@v2@security@vanetza@@UEncryptionKey@234@USubjectAssurance@234@V?$variant@UX_Coordinate_Only@security@vanetza@@UCompressed_Lsb_Y_0@23@UCompressed_Lsb_Y_1@23@UUncompressed@23@@boost@@V?$list@VIntX@v2@security@vanetza@@V?$allocator@VIntX@v2@security@vanetza@@@std@@@std@@V?$list@UItsAidSsp@v2@security@vanetza@@V?$allocator@UItsAidSsp@v2@security@vanetza@@@std@@@std@@@boost@@QEAAAEAV01@AEBUSubjectAssurance@v2@security@vanetza@@@Z
	??$?4UThreeDLocation@v2@security@vanetza@@@?$variant@_KUTime64WithStandardDeviation@v2@security@vanetza@@IUThreeDLocation@234@V?$list@V?$array@E$02@std@@V?$allocator@V?$array@E$02@std@@@2@@std@@VIntX@234@V?$variant@$$TV?$array@E$07@std@@V?$recursive_wrapper@UCertificate@v2@security@vanetza@@@boost@@V?$list@UCertificate@v2@security@vanetza@@V?$allocator@UCertificate@v2@security@vanetza@@@std@@@2@UCertificateDigestWithOtherAlgorithm@v2@security@vanetza@@@boost@@V?$variant@V?$array@E$0M@@std@@$$V@boost@@V?$list@URecipientInfo@v2@security@vanetza@@V?$allocator@URecipientInfo@v2@security@vanetza@@@std@@@7@@boost@@QEAAAEAV01@AEBUThreeDLocation@v2@security@vanetza@@@Z
	??$?4UTime64WithStandardDeviation@v2@security@vanetza@@@?$variant@_KUTime64WithStandardDeviation@v2@security@vanetza@@IUThreeDLocation@234@V?$list@V?$array@E$02@std@@V?$allocator@V?$array@E$02@std@@@2@@std@@VIntX@234@V?$variant@$$TV?$array@E$07@std@@V?$recursive_wrapper@UCertificate@v2@security@vanetza@@@boost@@V?$list@UCertificate@v2@security@vanetza@@V?$allocator@UCertificate@v2@security@vanetza@@@std@@@2@UCertificateDigestWithOtherAlgorithm@v2@security@vanetza@@@boost@@V?$variant@V?$array@E$0M@@std@@$$V@boost@@V?$list@URecipientInfo@v2@security@vanetza@@V?$allocator@URecipientInfo@v2@security@vanetza@@@std@@@7@@boost@@QEAAAEAV01@AEBUTime64WithStandardDeviation@v2@security@vanetza@@@Z
	??$?4UUncompressed@security@vanetza@@@?$variant@UX_Coordinate_Only@security@vanetza@@UCompressed_Lsb_Y_0@23@UCompressed_Lsb_Y_1@23@UUncompressed@23@@boost@@QEAAAEAV01@AEBUUncompressed@security@vanetza@@@Z
	??$?4UVerificationKey@v2@security@vanetza@@@?$variant@UVerificationKey@v2@security@vanetza@@UEncryptionKey@234@USubjectAssurance@234@V?$variant@UX_Coordinate_Only@security@vanetza@@UCompressed_Lsb_Y_0@23@UCompressed_Lsb_Y_1@23@UUncompressed@23@@boost@@V?$list@VIntX@v2@security@vanetza@@V?$allocator@VIntX@v2@security@vanetza@@@std@@@std@@V?$list@UItsAidSsp@v2@security@vanetza@@V?$allocator@UItsAidSsp@v2@security@vanetza@@@std@@@std@@@boost@@QEAAAEAV01@AEBUVerificationKey@v2@security@vanetza@@@Z
	??$?4UX_Coordinate_Only@security@vanetza@@@?$variant@UX_Coordinate_Only@security@vanetza@@UCompressed_Lsb_Y_0@23@UCompressed_Lsb_Y_1@23@UUncompressed@23@@boost@@QEAAAEAV01@$$QEAUX_Coordinate_Only@security@vanetza@@@Z
	??$?4UX_Coordinate_Only@security@vanetza@@@?$variant@UX_Coordinate_Only@security@vanetza@@UCompressed_Lsb_Y_0@23@UCompressed_Lsb_Y_1@23@UUncompressed@23@@boost@@QEAAAEAV01@AEBUX_Coordinate_Only@security@vanetza@@@Z
	??$?4Uecdsa_nistp256_with_sha256@v2@security@vanetza@@@?$variant@Uecdsa_nistp256_with_sha256@v2@security@vanetza@@Uecies_nistp256@234@@boost@@QEAAAEAV01@AEBUecdsa_nistp256_with_sha256@v2@security@vanetza@@@Z
	??$?4Uecies_nistp256@v2@security@vanetza@@@?$variant@Uecdsa_nistp256_with_sha256@v2@security@vanetza@@Uecies_nistp256@234@@boost@@QEAAAEAV01@AEBUecies_nistp256@v2@security@vanetza@@@Z
	??$?4V?$_List_const_iterator@V?$_List_val@U?$_List_simple_types@V?$array@E$07@std@@@std@@@std@@@std@@@_Ignore@std@@QEBAAEBU01@AEBV?$_List_const_iterator@V?$_List_val@U?$_List_simple_types@V?$array@E$07@std@@@std@@@std@@@1@@Z
	??$?4V?$_List_const_iterator@V?$_List_val@U?$_List_simple_types@V?$array@E$07@std@@@std@@@std@@@std@@_N$0A@@?$tuple@AEBU_Ignore@std@@AEA_N@std@@QEAAAEAV01@$$QEAU?$pair@V?$_List_const_iterator@V?$_List_val@U?$_List_simple_types@V?$array@E$07@std@@@std@@@std@@@std@@_N@1@@Z
	??$?4V?$_List_iterator@V?$_List_val@U?$_List_simple_types@U?$pair@$$CBV?$array@E$07@std@@UCertificate@v3@security@vanetza@@@std@@@std@@@std@@@std@@_N$0A@@?$tuple@AEAV?$_List_iterator@V?$_List_val@U?$_List_simple_types@U?$pair@$$CBV?$array@E$07@std@@UCertificate@v3@security@vanetza@@@std@@@std@@@std@@@std@@AEA_N@std@@QEAAAEAV01@$$QEAU?$pair@V?$_List_iterator@V?$_List_val@U?$_List_simple_types@U?$pair@$$CBV?$array@E$07@std@@UCertificate@v3@security@vanetza@@@std@@@std@@@std@@@std@@_N@1@@Z
	??$?4V?$array@E$07@std@@@?$optional@V?$array@E$07@std@@@boost@@QEAAAEAV01@$$QEAV?$array@E$07@std@@@Z
	??$?4V?$array@E$07@std@@@?$variant@$$TV?$array@E$07@std@@V?$recursive_wrapper@UCertificate@v2@security@vanetza@@@boost@@V?$list@UCertificate@v2@security@vanetza@@V?$allocator@UCertificate@v2@security@vanetza@@@std@@@2@UCertificateDigestWithOtherAlgorithm@v2@security@vanetza@@@boost@@QEAAAEAV01@$$QEAV?$array@E$07@std@@@Z
	??$?4V?$array@E$07@std@@@?$variant@$$TV?$array@E$07@std@@V?$recursive_wrapper@UCertificate@v2@security@vanetza@@@boost@@V?$list@UCertificate@v2@security@vanetza@@V?$allocator@UCertificate@v2@security@vanetza@@@std@@@2@UCertificateDigestWithOtherAlgorithm@v2@security@vanetza@@@boost@@QEAAAEAV01@AEBV?$array@E$07@std@@@Z
	??$?4V?$array@E$0M@@std@@@?$variant@V?$array@E$0M@@std@@$$V@boost@@QEAAAEAV01@AEBV?$array@E$0M@@std@@@Z
	??$?4V?$list@UCertificate@v2@security@vanetza@@V?$allocator@UCertificate@v2@security@vanetza@@@std@@@std@@@?$variant@$$TV?$array@E$07@std@@V?$recursive_wrapper@UCertificate@v2@security@vanetza@@@boost@@V?$list@UCertificate@v2@security@vanetza@@V?$allocator@UCertificate@v2@security@vanetza@@@std@@@2@UCertificateDigestWithOtherAlgorithm@v2@security@vanetza@@@boost@@QEAAAEAV01@AEBV?$list@UCertificate@v2@security@vanetza@@V?$allocator@UCertificate@v2@security@vanetza@@@std@@@std@@@Z
	??$?4V?$list@UItsAidSsp@v2@security@vanetza@@V?$allocator@UItsAidSsp@v2@security@vanetza@@@std@@@std@@@?$variant@UVerificationKey@v2@security@vanetza@@UEncryptionKey@234@USubjectAssurance@234@V?$variant@UX_Coordinate_Only@security@vanetza@@UCompressed_Lsb_Y_0@23@UCompressed_Lsb_Y_1@23@UUncompressed@23@@boost@@V?$list@VIntX@v2@security@vanetza@@V?$allocator@VIntX@v2@security@vanetza@@@std@@@std@@V?$list@UItsAidSsp@v2@security@vanetza@@V?$allocator@UItsAidSsp@v2@security@vanetza@@@std@@@std@@@boost@@QEAAAEAV01@AEBV?$list@UItsAidSsp@v2@security@vanetza@@V?$allocator@UItsAidSsp@v2@security@vanetza@@@std@@@std@@@Z
	??$?4V?$list@URecipientInfo@v2@security@vanetza@@V?$allocator@URecipientInfo@v2@security@vanetza@@@std@@@std@@@?$variant@_KUTime64WithStandardDeviation@v2@security@vanetza@@IUThreeDLocation@234@V?$list@V?$array@E$02@std@@V?$allocator@V?$array@E$02@std@@@2@@std@@VIntX@234@V?$variant@$$TV?$array@E$07@std@@V?$recursive_wrapper@UCertificate@v2@security@vanetza@@@boost@@V?$list@UCertificate@v2@security@vanetza@@V?$allocator@UCertificate@v2@security@vanetza@@@std@@@2@UCertificateDigestWithOtherAlgorithm@v2@security@vanetza@@@boost@@V?$variant@V?$array@E$0M@@std@@$$V@boost@@V?$list@URecipientInfo@v2@security@vanetza@@V?$allocator@URecipientInfo@v2@security@vanetza@@@std@@@7@@boost@@QEAAAEAV01@AEBV?$list@URecipientInfo@v2@security@vanetza@@V?$allocator@URecipientInfo@v2@security@vanetza@@@std@@@std@@@Z
	??$?4V?$list@URectangularRegion@v2@security@vanetza@@V?$allocator@URectangularRegion@v2@security@vanetza@@@std@@@std@@@?$variant@UNoneRegion@v2@security@vanetza@@UCircularRegion@234@V?$list@URectangularRegion@v2@security@vanetza@@V?$allocator@URectangularRegion@v2@security@vanetza@@@std@@@std@@V?$list@UTwoDLocation@v2@security@vanetza@@V?$allocator@UTwoDLocation@v2@security@vanetza@@@std@@@7@UIdentifiedRegion@234@@boost@@QEAAAEAV01@AEBV?$list@URectangularRegion@v2@security@vanetza@@V?$allocator@URectangularRegion@v2@security@vanetza@@@std@@@std@@@Z
	??$?4V?$list@UTwoDLocation@v2@security@vanetza@@V?$allocator@UTwoDLocation@v2@security@vanetza@@@std@@@std@@@?$variant@UNoneRegion@v2@security@vanetza@@UCircularRegion@234@V?$list@URectangularRegion@v2@security@vanetza@@V?$allocator@URectangularRegion@v2@security@vanetza@@@std@@@std@@V?$list@UTwoDLocation@v2@security@vanetza@@V?$allocator@UTwoDLocation@v2@security@vanetza@@@std@@@7@UIdentifiedRegion@234@@boost@@QEAAAEAV01@AEBV?$list@UTwoDLocation@v2@security@vanetza@@V?$allocator@UTwoDLocation@v2@security@vanetza@@@std@@@std@@@Z
	??$?4V?$list@V?$array@E$02@std@@V?$allocator@V?$array@E$02@std@@@2@@std@@@?$variant@_KUTime64WithStandardDeviation@v2@security@vanetza@@IUThreeDLocation@234@V?$list@V?$array@E$02@std@@V?$allocator@V?$array@E$02@std@@@2@@std@@VIntX@234@V?$variant@$$TV?$array@E$07@std@@V?$recursive_wrapper@UCertificate@v2@security@vanetza@@@boost@@V?$list@UCertificate@v2@security@vanetza@@V?$allocator@UCertificate@v2@security@vanetza@@@std@@@2@UCertificateDigestWithOtherAlgorithm@v2@security@vanetza@@@boost@@V?$variant@V?$array@E$0M@@std@@$$V@boost@@V?$list@URecipientInfo@v2@security@vanetza@@V?$allocator@URecipientInfo@v2@security@vanetza@@@std@@@7@@boost@@QEAAAEAV01@AEBV?$list@V?$array@E$02@std@@V?$allocator@V?$array@E$02@std@@@2@@std@@@Z
	??$?4V?$list@VIntX@v2@security@vanetza@@V?$allocator@VIntX@v2@security@vanetza@@@std@@@std@@@?$variant@UVerificationKey@v2@security@vanetza@@UEncryptionKey@234@USubjectAssurance@234@V?$variant@UX_Coordinate_Only@security@vanetza@@UCompressed_Lsb_Y_0@23@UCompressed_Lsb_Y_1@23@UUncompressed@23@@boost@@V?$list@VIntX@v2@security@vanetza@@V?$allocator@VIntX@v2@security@vanetza@@@std@@@std@@V?$list@UItsAidSsp@v2@security@vanetza@@V?$allocator@UItsAidSsp@v2@security@vanetza@@@std@@@std@@@boost@@QEAAAEAV01@AEBV?$list@VIntX@v2@security@vanetza@@V?$allocator@VIntX@v2@security@vanetza@@@std@@@std@@@Z
	??$?4V?$variant@$$TV?$array@E$07@std@@V?$recursive_wrapper@UCertificate@v2@security@vanetza@@@boost@@V?$list@UCertificate@v2@security@vanetza@@V?$allocator@UCertificate@v2@security@vanetza@@@std@@@2@UCertificateDigestWithOtherAlgorithm@v2@security@vanetza@@@boost@@@?$variant@_KUTime64WithStandardDeviation@v2@security@vanetza@@IUThreeDLocation@234@V?$list@V?$array@E$02@std@@V?$allocator@V?$array@E$02@std@@@2@@std@@VIntX@234@V?$variant@$$TV?$array@E$07@std@@V?$recursive_wrapper@UCertificate@v2@security@vanetza@@@boost@@V?$list@UCertificate@v2@security@vanetza@@V?$allocator@UCertificate@v2@security@vanetza@@@std@@@2@UCertificateDigestWithOtherAlgorithm@v2@security@vanetza@@@boost@@V?$variant@V?$array@E$0M@@std@@$$V@boost@@V?$list@URecipientInfo@v2@security@vanetza@@V?$allocator@URecipientInfo@v2@security@vanetza@@@std@@@7@@boost@@QEAAAEAV01@AEBV?$variant@$$TV?$array@E$07@std@@V?$recursive_wrapper@UCertificate@v2@security@vanetza@@@boost@@V?$list@UCertificate@v2@security@vanetza@@V?$allocator@UCertificate@v2@security@vanetza@@@std@@@2@UCertificateDigestWithOtherAlgorithm@v2@security@vanetza@@@1@@Z
	??$?4V?$variant@UNoneRegion@v2@security@vanetza@@UCircularRegion@234@V?$list@URectangularRegion@v2@security@vanetza@@V?$allocator@URectangularRegion@v2@security@vanetza@@@std@@@std@@V?$list@UTwoDLocation@v2@security@vanetza@@V?$allocator@UTwoDLocation@v2@security@vanetza@@@std@@@7@UIdentifiedRegion@234@@boost@@@?$variant@IUStartAndEndValidity@v2@security@vanetza@@UStartAndDurationValidity@234@V?$variant@UNoneRegion@v2@security@vanetza@@UCircularRegion@234@V?$list@URectangularRegion@v2@security@vanetza@@V?$allocator@URectangularRegion@v2@security@vanetza@@@std@@@std@@V?$list@UTwoDLocation@v2@security@vanetza@@V?$allocator@UTwoDLocation@v2@security@vanetza@@@std@@@7@UIdentifiedRegion@234@@boost@@@boost@@QEAAAEAV01@AEBV?$variant@UNoneRegion@v2@security@vanetza@@UCircularRegion@234@V?$list@URectangularRegion@v2@security@vanetza@@V?$allocator@URectangularRegion@v2@security@vanetza@@@std@@@std@@V?$list@UTwoDLocation@v2@security@vanetza@@V?$allocator@UTwoDLocation@v2@security@vanetza@@@std@@@7@UIdentifiedRegion@234@@1@@Z
	??$?4V?$variant@V?$array@E$0M@@std@@$$V@boost@@@?$variant@_KUTime64WithStandardDeviation@v2@security@vanetza@@IUThreeDLocation@234@V?$list@V?$array@E$02@std@@V?$allocator@V?$array@E$02@std@@@2@@std@@VIntX@234@V?$variant@$$TV?$array@E$07@std@@V?$recursive_wrapper@UCertificate@v2@security@vanetza@@@boost@@V?$list@UCertificate@v2@security@vanetza@@V?$allocator@UCertificate@v2@security@vanetza@@@std@@@2@UCertificateDigestWithOtherAlgorithm@v2@security@vanetza@@@boost@@V?$variant@V?$array@E$0M@@std@@$$V@boost@@V?$list@URecipientInfo@v2@security@vanetza@@V?$allocator@URecipientInfo@v2@security@vanetza@@@std@@@7@@boost@@QEAAAEAV01@AEBV?$variant@V?$array@E$0M@@std@@$$V@1@@Z
	??$?4VChunkPacket@vanetza@@@?$variant@VChunkPacket@vanetza@@VCohesivePacket@2@@boost@@QEAAAEAV01@$$QEAVChunkPacket@vanetza@@@Z
	??$?4VCohesivePacket@vanetza@@@?$variant@VChunkPacket@vanetza@@VCohesivePacket@2@@boost@@QEAAAEAV01@$$QEAVCohesivePacket@vanetza@@@Z
	??$?4VIntX@v2@security@vanetza@@@?$variant@_KUTime64WithStandardDeviation@v2@security@vanetza@@IUThreeDLocation@234@V?$list@V?$array@E$02@std@@V?$allocator@V?$array@E$02@std@@@2@@std@@VIntX@234@V?$variant@$$TV?$array@E$07@std@@V?$recursive_wrapper@UCertificate@v2@security@vanetza@@@boost@@V?$list@UCertificate@v2@security@vanetza@@V?$allocator@UCertificate@v2@security@vanetza@@@std@@@2@UCertificateDigestWithOtherAlgorithm@v2@security@vanetza@@@boost@@V?$variant@V?$array@E$0M@@std@@$$V@boost@@V?$list@URecipientInfo@v2@security@vanetza@@V?$allocator@URecipientInfo@v2@security@vanetza@@@std@@@7@@boost@@QEAAAEAV01@AEBVIntX@v2@security@vanetza@@@Z
	??$?4W4SymmetricAlgorithm@v2@security@vanetza@@@?$optional@W4SymmetricAlgorithm@v2@security@vanetza@@@boost@@QEAAAEAV01@$$QEAW4SymmetricAlgorithm@v2@security@vanetza@@@Z
	??$?4W4VerificationReport@security@vanetza@@@?$variant@Ublank@boost@@W4VerificationReport@security@vanetza@@@boost@@QEAAAEAV01@AEBW4VerificationReport@security@vanetza@@@Z
	??$?4_K@?$variant@_KUTime64WithStandardDeviation@v2@security@vanetza@@IUThreeDLocation@234@V?$list@V?$array@E$02@std@@V?$allocator@V?$array@E$02@std@@@2@@std@@VIntX@234@V?$variant@$$TV?$array@E$07@std@@V?$recursive_wrapper@UCertificate@v2@security@vanetza@@@boost@@V?$list@UCertificate@v2@security@vanetza@@V?$allocator@UCertificate@v2@security@vanetza@@@std@@@2@UCertificateDigestWithOtherAlgorithm@v2@security@vanetza@@@boost@@V?$variant@V?$array@E$0M@@std@@$$V@boost@@V?$list@URecipientInfo@v2@security@vanetza@@V?$allocator@URecipientInfo@v2@security@vanetza@@@std@@@7@@boost@@QEAAAEAV01@AEB_K@Z
	??$?5E@InputArchive@vanetza@@QEAAAEAV01@AEAE@Z
	??$?5F@InputArchive@vanetza@@QEAAAEAV01@AEAF@Z
	??$?5G@InputArchive@vanetza@@QEAAAEAV01@AEAG@Z
	??$?5H@InputArchive@vanetza@@QEAAAEAV01@AEAH@Z
	??$?5I@InputArchive@vanetza@@QEAAAEAV01@AEAI@Z
	??$?5_K@InputArchive@vanetza@@QEAAAEAV01@AEA_K@Z
	??$?6DU?$char_traits@D@std@@D@std@@YAAEAV?$basic_ostream@DU?$char_traits@D@std@@@0@AEAV10@AEBU?$_Fillobj@D@0@@Z
	??$?6DU?$char_traits@D@std@@V?$allocator@D@1@@std@@YAAEAV?$basic_ostream@DU?$char_traits@D@std@@@0@AEAV10@AEBV?$basic_string@DU?$char_traits@D@std@@V?$allocator@D@2@@0@@Z
	??$?6DU?$char_traits@D@std@@_J@std@@YAAEAV?$basic_ostream@DU?$char_traits@D@std@@@0@AEAV10@AEBU?$_Smanip@_J@0@@Z
	??$?6E@OutputArchive@vanetza@@QEAAAEAV01@AEBE@Z
	??$?6F@OutputArchive@vanetza@@QEAAAEAV01@AEBF@Z
	??$?6G@OutputArchive@vanetza@@QEAAAEAV01@AEBG@Z
	??$?6H@OutputArchive@vanetza@@QEAAAEAV01@AEBH@Z
	??$?6I@OutputArchive@vanetza@@QEAAAEAV01@AEBI@Z
	??$?6U?$char_traits@D@std@@@std@@YAAEAV?$basic_ostream@DU?$char_traits@D@std@@@0@AEAV10@D@Z
	??$?6U?$char_traits@D@std@@@std@@YAAEAV?$basic_ostream@DU?$char_traits@D@std@@@0@AEAV10@PEBD@Z
	??$?6_K@OutputArchive@vanetza@@QEAAAEAV01@AEB_K@Z
	??$?8DU?$char_traits@D@std@@@std@@YA_NAEBV?$istreambuf_iterator@DU?$char_traits@D@std@@@0@0@Z
	??$?8DU?$char_traits@D@std@@V?$allocator@D@1@@std@@YA_NAEBV?$basic_string@DU?$char_traits@D@std@@V?$allocator@D@2@@0@QEBD@Z
	??$?8E$01@std@@YA_NAEBV?$array@E$01@0@0@Z
	??$?8E$02@std@@YA_NAEBV?$array@E$02@0@0@Z
	??$?8E$07@std@@YA_NAEBV?$array@E$07@0@0@Z
	??$?8E$0CA@@std@@YA_NAEBV?$array@E$0CA@@0@0@Z
	??$?8EV?$allocator@E@std@@@std@@YA_NAEBV?$vector@EV?$allocator@E@std@@@0@0@Z
	??$?8URectangularRegion@v2@security@vanetza@@V?$allocator@URectangularRegion@v2@security@vanetza@@@std@@@std@@YA_NAEBV?$list@URectangularRegion@v2@security@vanetza@@V?$allocator@URectangularRegion@v2@security@vanetza@@@std@@@0@0@Z
	??$?8V?$unit@U?$list@U?$dim@Ulength_base_dimension@units@boost@@V?$static_rational@$00$00@23@@units@boost@@Udimensionless_type@23@@units@boost@@U?$homogeneous_system@U?$list@Umeter_base_unit@si@units@boost@@U?$list@U?$scaled_base_unit@Ugram_base_unit@cgs@units@boost@@U?$scale@$09V?$static_rational@$02$00@units@boost@@@34@@units@boost@@U?$list@Usecond_base_unit@si@units@boost@@U?$list@Uampere_base_unit@si@units@boost@@U?$list@Ukelvin_base_unit@si@units@boost@@U?$list@Umole_base_unit@si@units@boost@@U?$list@Ucandela_base_unit@si@units@boost@@U?$list@Uradian_base_unit@angle@units@boost@@U?$list@Usteradian_base_unit@angle@units@boost@@Udimensionless_type@34@@34@@34@@34@@34@@34@@34@@23@@34@@units@boost@@@23@X@units@boost@@GG@units@boost@@YA_NAEBV?$quantity@V?$unit@U?$list@U?$dim@Ulength_base_dimension@units@boost@@V?$static_rational@$00$00@23@@units@boost@@Udimensionless_type@23@@units@boost@@U?$homogeneous_system@U?$list@Umeter_base_unit@si@units@boost@@U?$list@U?$scaled_base_unit@Ugram_base_unit@cgs@units@boost@@U?$scale@$09V?$static_rational@$02$00@units@boost@@@34@@units@boost@@U?$list@Usecond_base_unit@si@units@boost@@U?$list@Uampere_base_unit@si@units@boost@@U?$list@Ukelvin_base_unit@si@units@boost@@U?$list@Umole_base_unit@si@units@boost@@U?$list@Ucandela_base_unit@si@units@boost@@U?$list@Uradian_base_unit@angle@units@boost@@U?$list@Usteradian_base_unit@angle@units@boost@@Udimensionless_type@34@@34@@34@@34@@34@@34@@34@@23@@34@@units@boost@@@23@X@units@boost@@G@01@0@Z
	??$?8V?$unit@U?$list@U?$dim@Uplane_angle_base_dimension@units@boost@@V?$static_rational@$00$00@23@@units@boost@@Udimensionless_type@23@@units@boost@@U?$heterogeneous_system@U?$heterogeneous_system_impl@U?$list@U?$heterogeneous_system_dim@Udegree_base_unit@angle@units@boost@@V?$static_rational@$00$00@34@@units@boost@@Udimensionless_type@23@@units@boost@@U?$list@U?$dim@Uplane_angle_base_dimension@units@boost@@V?$static_rational@$00$00@23@@units@boost@@Udimensionless_type@23@@23@U?$list@U?$scale_list_dim@U?$scale@$09V?$static_rational@$0?6$00@units@boost@@@units@boost@@@units@boost@@Udimensionless_type@23@@23@@units@boost@@@23@X@units@boost@@HH@units@boost@@YA_NAEBV?$quantity@V?$unit@U?$list@U?$dim@Uplane_angle_base_dimension@units@boost@@V?$static_rational@$00$00@23@@units@boost@@Udimensionless_type@23@@units@boost@@U?$heterogeneous_system@U?$heterogeneous_system_impl@U?$list@U?$heterogeneous_system_dim@Udegree_base_unit@angle@units@boost@@V?$static_rational@$00$00@34@@units@boost@@Udimensionless_type@23@@units@boost@@U?$list@U?$dim@Uplane_angle_base_dimension@units@boost@@V?$static_rational@$00$00@23@@units@boost@@Udimensionless_type@23@@23@U?$list@U?$scale_list_dim@U?$scale@$09V?$static_rational@$0?6$00@units@boost@@@units@boost@@@units@boost@@Udimensionless_type@23@@23@@units@boost@@@23@X@units@boost@@H@01@0@Z
	??$?9DU?$char_traits@D@std@@@std@@YA_NAEBV?$istreambuf_iterator@DU?$char_traits@D@std@@@0@0@Z
	??$?9U_Task_impl_base@details@Concurrency@@@std@@YA_NAEBV?$shared_ptr@U_Task_impl_base@details@Concurrency@@@0@$$T@Z
	??$?CU?$_Task_impl@E@details@Concurrency@@$0A@@?$shared_ptr@U?$_Task_impl@E@details@Concurrency@@@std@@QEBAPEAU?$_Task_impl@E@details@Concurrency@@XZ
	??$?CU_ExceptionHolder@details@Concurrency@@$0A@@?$shared_ptr@U_ExceptionHolder@details@Concurrency@@@std@@QEBAPEAU_ExceptionHolder@details@Concurrency@@XZ
	??$?CU_Task_impl_base@details@Concurrency@@$0A@@?$shared_ptr@U_Task_impl_base@details@Concurrency@@@std@@QEBAPEAU_Task_impl_base@details@Concurrency@@XZ
	??$?CUscheduler_interface@Concurrency@@$0A@@?$shared_ptr@Uscheduler_interface@Concurrency@@@std@@QEBAPEAUscheduler_interface@Concurrency@@XZ
	??$?DHU?$ratio@$0OBA@$00@std@@J$0A@@chrono@std@@YA?AV?$duration@JU?$ratio@$0OBA@$00@std@@@01@AEBV?$duration@HU?$ratio@$0OBA@$00@std@@@01@AEBJ@Z
	??$?DN@units@boost@@YANAEBNAEBUone@01@@Z
	??$?DN@units@boost@@YANAEBUone@01@AEBN@Z
	??$?DU?$homogeneous_system@U?$list@Udegree_base_unit@angle@units@boost@@Udimensionless_type@34@@units@boost@@@units@boost@@U?$list@U?$dim@Uplane_angle_base_dimension@units@boost@@V?$static_rational@$00$00@23@@units@boost@@Udimensionless_type@23@@12@N@units@boost@@YA?AV?$quantity@V?$unit@U?$list@U?$dim@Uplane_angle_base_dimension@units@boost@@V?$static_rational@$00$00@23@@units@boost@@Udimensionless_type@23@@units@boost@@U?$homogeneous_system@U?$list@Udegree_base_unit@angle@units@boost@@Udimensionless_type@34@@units@boost@@@23@X@units@boost@@N@01@AEBNAEBV?$unit@U?$list@U?$dim@Uplane_angle_base_dimension@units@boost@@V?$static_rational@$00$00@23@@units@boost@@Udimensionless_type@23@@units@boost@@U?$homogeneous_system@U?$list@Udegree_base_unit@angle@units@boost@@Udimensionless_type@34@@units@boost@@@23@X@01@@Z
	??$?DU?$homogeneous_system@U?$list@Umeter_base_unit@si@units@boost@@U?$list@U?$scaled_base_unit@Ugram_base_unit@cgs@units@boost@@U?$scale@$09V?$static_rational@$02$00@units@boost@@@34@@units@boost@@U?$list@Usecond_base_unit@si@units@boost@@U?$list@Uampere_base_unit@si@units@boost@@U?$list@Ukelvin_base_unit@si@units@boost@@U?$list@Umole_base_unit@si@units@boost@@U?$list@Ucandela_base_unit@si@units@boost@@U?$list@Uradian_base_unit@angle@units@boost@@U?$list@Usteradian_base_unit@angle@units@boost@@Udimensionless_type@34@@34@@34@@34@@34@@34@@34@@23@@34@@units@boost@@@units@boost@@U?$list@U?$dim@Ulength_base_dimension@units@boost@@V?$static_rational@$00$00@23@@units@boost@@Udimensionless_type@23@@12@J@units@boost@@YA?AV?$quantity@V?$unit@U?$list@U?$dim@Ulength_base_dimension@units@boost@@V?$static_rational@$00$00@23@@units@boost@@Udimensionless_type@23@@units@boost@@U?$homogeneous_system@U?$list@Umeter_base_unit@si@units@boost@@U?$list@U?$scaled_base_unit@Ugram_base_unit@cgs@units@boost@@U?$scale@$09V?$static_rational@$02$00@units@boost@@@34@@units@boost@@U?$list@Usecond_base_unit@si@units@boost@@U?$list@Uampere_base_unit@si@units@boost@@U?$list@Ukelvin_base_unit@si@units@boost@@U?$list@Umole_base_unit@si@units@boost@@U?$list@Ucandela_base_unit@si@units@boost@@U?$list@Uradian_base_unit@angle@units@boost@@U?$list@Usteradian_base_unit@angle@units@boost@@Udimensionless_type@34@@34@@34@@34@@34@@34@@34@@23@@34@@units@boost@@@23@X@units@boost@@J@01@AEBJAEBV?$unit@U?$list@U?$dim@Ulength_base_dimension@units@boost@@V?$static_rational@$00$00@23@@units@boost@@Udimensionless_type@23@@units@boost@@U?$homogeneous_system@U?$list@Umeter_base_unit@si@units@boost@@U?$list@U?$scaled_base_unit@Ugram_base_unit@cgs@units@boost@@U?$scale@$09V?$static_rational@$02$00@units@boost@@@34@@units@boost@@U?$list@Usecond_base_unit@si@units@boost@@U?$list@Uampere_base_unit@si@units@boost@@U?$list@Ukelvin_base_unit@si@units@boost@@U?$list@Umole_base_unit@si@units@boost@@U?$list@Ucandela_base_unit@si@units@boost@@U?$list@Uradian_base_unit@angle@units@boost@@U?$list@Usteradian_base_unit@angle@units@boost@@Udimensionless_type@34@@34@@34@@34@@34@@34@@34@@23@@34@@units@boost@@@23@X@01@@Z
	??$?DV?$unit@U?$list@U?$dim@Ulength_base_dimension@units@boost@@V?$static_rational@$00$00@23@@units@boost@@Udimensionless_type@23@@units@boost@@U?$homogeneous_system@U?$list@Umeter_base_unit@si@units@boost@@U?$list@U?$scaled_base_unit@Ugram_base_unit@cgs@units@boost@@U?$scale@$09V?$static_rational@$02$00@units@boost@@@34@@units@boost@@U?$list@Usecond_base_unit@si@units@boost@@U?$list@Uampere_base_unit@si@units@boost@@U?$list@Ukelvin_base_unit@si@units@boost@@U?$list@Umole_base_unit@si@units@boost@@U?$list@Ucandela_base_unit@si@units@boost@@U?$list@Uradian_base_unit@angle@units@boost@@U?$list@Usteradian_base_unit@angle@units@boost@@Udimensionless_type@34@@34@@34@@34@@34@@34@@34@@23@@34@@units@boost@@@23@X@units@boost@@N@units@boost@@YA?AV?$quantity@V?$unit@U?$list@U?$dim@Ulength_base_dimension@units@boost@@V?$static_rational@$00$00@23@@units@boost@@Udimensionless_type@23@@units@boost@@U?$homogeneous_system@U?$list@Umeter_base_unit@si@units@boost@@U?$list@U?$scaled_base_unit@Ugram_base_unit@cgs@units@boost@@U?$scale@$09V?$static_rational@$02$00@units@boost@@@34@@units@boost@@U?$list@Usecond_base_unit@si@units@boost@@U?$list@Uampere_base_unit@si@units@boost@@U?$list@Ukelvin_base_unit@si@units@boost@@U?$list@Umole_base_unit@si@units@boost@@U?$list@Ucandela_base_unit@si@units@boost@@U?$list@Uradian_base_unit@angle@units@boost@@U?$list@Usteradian_base_unit@angle@units@boost@@Udimensionless_type@34@@34@@34@@34@@34@@34@@34@@23@@34@@units@boost@@@23@X@units@boost@@N@01@AEBV201@AEBN@Z
	??$?DV?$unit@Udimensionless_type@units@boost@@U?$heterogeneous_system@U?$heterogeneous_system_impl@Udimensionless_type@units@boost@@U123@U123@@units@boost@@@23@X@units@boost@@V?$unit@Udimensionless_type@units@boost@@U?$homogeneous_system@U?$list@Umeter_base_unit@si@units@boost@@U?$list@U?$scaled_base_unit@Ugram_base_unit@cgs@units@boost@@U?$scale@$09V?$static_rational@$02$00@units@boost@@@34@@units@boost@@U?$list@Usecond_base_unit@si@units@boost@@U?$list@Uampere_base_unit@si@units@boost@@U?$list@Ukelvin_base_unit@si@units@boost@@U?$list@Umole_base_unit@si@units@boost@@U?$list@Ucandela_base_unit@si@units@boost@@U?$list@Uradian_base_unit@angle@units@boost@@U?$list@Usteradian_base_unit@angle@units@boost@@Udimensionless_type@34@@34@@34@@34@@34@@34@@34@@23@@34@@units@boost@@@23@X@12@NN@units@boost@@YA?AV?$quantity@V?$unit@Udimensionless_type@units@boost@@U?$heterogeneous_system@U?$heterogeneous_system_impl@Udimensionless_type@units@boost@@U123@U123@@units@boost@@@23@X@units@boost@@N@01@AEBV201@AEBV?$quantity@V?$unit@Udimensionless_type@units@boost@@U?$homogeneous_system@U?$list@Umeter_base_unit@si@units@boost@@U?$list@U?$scaled_base_unit@Ugram_base_unit@cgs@units@boost@@U?$scale@$09V?$static_rational@$02$00@units@boost@@@34@@units@boost@@U?$list@Usecond_base_unit@si@units@boost@@U?$list@Uampere_base_unit@si@units@boost@@U?$list@Ukelvin_base_unit@si@units@boost@@U?$list@Umole_base_unit@si@units@boost@@U?$list@Ucandela_base_unit@si@units@boost@@U?$list@Uradian_base_unit@angle@units@boost@@U?$list@Usteradian_base_unit@angle@units@boost@@Udimensionless_type@34@@34@@34@@34@@34@@34@@34@@23@@34@@units@boost@@@23@X@units@boost@@N@01@@Z
	??$?DV?$unit@Udimensionless_type@units@boost@@U?$homogeneous_system@U?$list@Udegree_base_unit@angle@units@boost@@Udimensionless_type@34@@units@boost@@@23@X@units@boost@@V012@NN@units@boost@@YA?AV?$quantity@V?$unit@Udimensionless_type@units@boost@@U?$homogeneous_system@U?$list@Udegree_base_unit@angle@units@boost@@Udimensionless_type@34@@units@boost@@@23@X@units@boost@@N@01@AEBV201@0@Z
	??$?DV?$unit@Udimensionless_type@units@boost@@U?$homogeneous_system@U?$list@Udegree_base_unit@angle@units@boost@@Udimensionless_type@34@@units@boost@@@23@X@units@boost@@V?$unit@Udimensionless_type@units@boost@@U?$homogeneous_system@U?$list@Umeter_base_unit@si@units@boost@@U?$list@U?$scaled_base_unit@Ugram_base_unit@cgs@units@boost@@U?$scale@$09V?$static_rational@$02$00@units@boost@@@34@@units@boost@@U?$list@Usecond_base_unit@si@units@boost@@U?$list@Uampere_base_unit@si@units@boost@@U?$list@Ukelvin_base_unit@si@units@boost@@U?$list@Umole_base_unit@si@units@boost@@U?$list@Ucandela_base_unit@si@units@boost@@U?$list@Uradian_base_unit@angle@units@boost@@U?$list@Usteradian_base_unit@angle@units@boost@@Udimensionless_type@34@@34@@34@@34@@34@@34@@34@@23@@34@@units@boost@@@23@X@12@NN@units@boost@@YA?AV?$quantity@V?$unit@Udimensionless_type@units@boost@@U?$heterogeneous_system@U?$heterogeneous_system_impl@Udimensionless_type@units@boost@@U123@U123@@units@boost@@@23@X@units@boost@@N@01@AEBV?$quantity@V?$unit@Udimensionless_type@units@boost@@U?$homogeneous_system@U?$list@Udegree_base_unit@angle@units@boost@@Udimensionless_type@34@@units@boost@@@23@X@units@boost@@N@01@AEBV?$quantity@V?$unit@Udimensionless_type@units@boost@@U?$homogeneous_system@U?$list@Umeter_base_unit@si@units@boost@@U?$list@U?$scaled_base_unit@Ugram_base_unit@cgs@units@boost@@U?$scale@$09V?$static_rational@$02$00@units@boost@@@34@@units@boost@@U?$list@Usecond_base_unit@si@units@boost@@U?$list@Uampere_base_unit@si@units@boost@@U?$list@Ukelvin_base_unit@si@units@boost@@U?$list@Umole_base_unit@si@units@boost@@U?$list@Ucandela_base_unit@si@units@boost@@U?$list@Uradian_base_unit@angle@units@boost@@U?$list@Usteradian_base_unit@angle@units@boost@@Udimensionless_type@34@@34@@34@@34@@34@@34@@34@@23@@34@@units@boost@@@23@X@units@boost@@N@01@@Z
	??$?DV?$unit@Udimensionless_type@units@boost@@U?$homogeneous_system@U?$list@Umeter_base_unit@si@units@boost@@U?$list@U?$scaled_base_unit@Ugram_base_unit@cgs@units@boost@@U?$scale@$09V?$static_rational@$02$00@units@boost@@@34@@units@boost@@U?$list@Usecond_base_unit@si@units@boost@@U?$list@Uampere_base_unit@si@units@boost@@U?$list@Ukelvin_base_unit@si@units@boost@@U?$list@Umole_base_unit@si@units@boost@@U?$list@Ucandela_base_unit@si@units@boost@@U?$list@Uradian_base_unit@angle@units@boost@@U?$list@Usteradian_base_unit@angle@units@boost@@Udimensionless_type@34@@34@@34@@34@@34@@34@@34@@23@@34@@units@boost@@@23@X@units@boost@@N@units@boost@@YA?AV?$quantity@V?$unit@Udimensionless_type@units@boost@@U?$homogeneous_system@U?$list@Umeter_base_unit@si@units@boost@@U?$list@U?$scaled_base_unit@Ugram_base_unit@cgs@units@boost@@U?$scale@$09V?$static_rational@$02$00@units@boost@@@34@@units@boost@@U?$list@Usecond_base_unit@si@units@boost@@U?$list@Uampere_base_unit@si@units@boost@@U?$list@Ukelvin_base_unit@si@units@boost@@U?$list@Umole_base_unit@si@units@boost@@U?$list@Ucandela_base_unit@si@units@boost@@U?$list@Uradian_base_unit@angle@units@boost@@U?$list@Usteradian_base_unit@angle@units@boost@@Udimensionless_type@34@@34@@34@@34@@34@@34@@34@@23@@34@@units@boost@@@23@X@units@boost@@N@01@AEBNAEBV201@@Z
	??$?DV?$unit@Udimensionless_type@units@boost@@U?$homogeneous_system@U?$list@Umeter_base_unit@si@units@boost@@U?$list@U?$scaled_base_unit@Ugram_base_unit@cgs@units@boost@@U?$scale@$09V?$static_rational@$02$00@units@boost@@@34@@units@boost@@U?$list@Usecond_base_unit@si@units@boost@@U?$list@Uampere_base_unit@si@units@boost@@U?$list@Ukelvin_base_unit@si@units@boost@@U?$list@Umole_base_unit@si@units@boost@@U?$list@Ucandela_base_unit@si@units@boost@@U?$list@Uradian_base_unit@angle@units@boost@@U?$list@Usteradian_base_unit@angle@units@boost@@Udimensionless_type@34@@34@@34@@34@@34@@34@@34@@23@@34@@units@boost@@@23@X@units@boost@@N@units@boost@@YA?AV?$quantity@V?$unit@Udimensionless_type@units@boost@@U?$homogeneous_system@U?$list@Umeter_base_unit@si@units@boost@@U?$list@U?$scaled_base_unit@Ugram_base_unit@cgs@units@boost@@U?$scale@$09V?$static_rational@$02$00@units@boost@@@34@@units@boost@@U?$list@Usecond_base_unit@si@units@boost@@U?$list@Uampere_base_unit@si@units@boost@@U?$list@Ukelvin_base_unit@si@units@boost@@U?$list@Umole_base_unit@si@units@boost@@U?$list@Ucandela_base_unit@si@units@boost@@U?$list@Uradian_base_unit@angle@units@boost@@U?$list@Usteradian_base_unit@angle@units@boost@@Udimensionless_type@34@@34@@34@@34@@34@@34@@34@@23@@34@@units@boost@@@23@X@units@boost@@N@01@AEBV201@AEBN@Z
	??$?DV?$unit@Udimensionless_type@units@boost@@U?$homogeneous_system@U?$list@Umeter_base_unit@si@units@boost@@U?$list@U?$scaled_base_unit@Ugram_base_unit@cgs@units@boost@@U?$scale@$09V?$static_rational@$02$00@units@boost@@@34@@units@boost@@U?$list@Usecond_base_unit@si@units@boost@@U?$list@Uampere_base_unit@si@units@boost@@U?$list@Ukelvin_base_unit@si@units@boost@@U?$list@Umole_base_unit@si@units@boost@@U?$list@Ucandela_base_unit@si@units@boost@@U?$list@Uradian_base_unit@angle@units@boost@@U?$list@Usteradian_base_unit@angle@units@boost@@Udimensionless_type@34@@34@@34@@34@@34@@34@@34@@23@@34@@units@boost@@@23@X@units@boost@@V012@NN@units@boost@@YA?AV?$quantity@V?$unit@Udimensionless_type@units@boost@@U?$homogeneous_system@U?$list@Umeter_base_unit@si@units@boost@@U?$list@U?$scaled_base_unit@Ugram_base_unit@cgs@units@boost@@U?$scale@$09V?$static_rational@$02$00@units@boost@@@34@@units@boost@@U?$list@Usecond_base_unit@si@units@boost@@U?$list@Uampere_base_unit@si@units@boost@@U?$list@Ukelvin_base_unit@si@units@boost@@U?$list@Umole_base_unit@si@units@boost@@U?$list@Ucandela_base_unit@si@units@boost@@U?$list@Uradian_base_unit@angle@units@boost@@U?$list@Usteradian_base_unit@angle@units@boost@@Udimensionless_type@34@@34@@34@@34@@34@@34@@34@@23@@34@@units@boost@@@23@X@units@boost@@N@01@AEBV201@0@Z
	??$?D_JU?$ratio@$00$00@std@@J$0A@@chrono@std@@YA?AV?$duration@_JU?$ratio@$00$00@std@@@01@AEBV201@AEBJ@Z
	??$?GV?$unit@U?$list@U?$dim@Uplane_angle_base_dimension@units@boost@@V?$static_rational@$00$00@23@@units@boost@@Udimensionless_type@23@@units@boost@@U?$homogeneous_system@U?$list@Udegree_base_unit@angle@units@boost@@Udimensionless_type@34@@units@boost@@@23@X@units@boost@@V012@NN@units@boost@@YA?AV?$quantity@V?$unit@U?$list@U?$dim@Uplane_angle_base_dimension@units@boost@@V?$static_rational@$00$00@23@@units@boost@@Udimensionless_type@23@@units@boost@@U?$homogeneous_system@U?$list@Udegree_base_unit@angle@units@boost@@Udimensionless_type@34@@units@boost@@@23@X@units@boost@@N@01@AEBV201@0@Z
	??$?GVClock@vanetza@@V?$duration@_JU?$ratio@$00$0PECEA@@std@@@chrono@std@@HU?$ratio@$0OBA@$00@4@@chrono@std@@YA?AV?$time_point@VClock@vanetza@@V?$duration@_JU?$ratio@$00$0PECEA@@std@@@chrono@std@@@01@AEBV201@AEBV?$duration@HU?$ratio@$0OBA@$00@std@@@01@@Z
	??$?GVClock@vanetza@@V?$duration@_JU?$ratio@$00$0PECEA@@std@@@chrono@std@@_JU?$ratio@$00$0DOI@@4@@chrono@std@@YA?AV?$time_point@VClock@vanetza@@V?$duration@_JU?$ratio@$00$0PECEA@@std@@@chrono@std@@@01@AEBV201@AEBV?$duration@_JU?$ratio@$00$0DOI@@std@@@01@@Z
	??$?GVClock@vanetza@@V?$duration@_JU?$ratio@$00$0PECEA@@std@@@chrono@std@@_JU?$ratio@$00$0PECEA@@4@@chrono@std@@YA?AV?$time_point@VClock@vanetza@@V?$duration@_JU?$ratio@$00$0PECEA@@std@@@chrono@std@@@01@AEBV201@AEBV?$duration@_JU?$ratio@$00$0PECEA@@std@@@01@@Z
	??$?G_JU?$ratio@$00$0PECEA@@std@@HU?$ratio@$0OBA@$00@1@@chrono@std@@YA?AV?$duration@_JU?$ratio@$00$0PECEA@@std@@@01@AEBV201@AEBV?$duration@HU?$ratio@$0OBA@$00@std@@@01@@Z
	??$?G_JU?$ratio@$00$0PECEA@@std@@_JU01@@chrono@std@@YA?AV?$duration@_JU?$ratio@$00$0PECEA@@std@@@01@AEBV201@0@Z
	??$?G_JU?$ratio@$00$0PECEA@@std@@_JU?$ratio@$00$0DOI@@1@@chrono@std@@YA?AV?$duration@_JU?$ratio@$00$0PECEA@@std@@@01@AEBV201@AEBV?$duration@_JU?$ratio@$00$0DOI@@std@@@01@@Z
	??$?HDU?$char_traits@D@std@@V?$allocator@D@1@@std@@YA?AV?$basic_string@DU?$char_traits@D@std@@V?$allocator@D@2@@0@$$QEAV10@QEBD@Z
	??$?HDU?$char_traits@D@std@@V?$allocator@D@1@@std@@YA?AV?$basic_string@DU?$char_traits@D@std@@V?$allocator@D@2@@0@QEBD$$QEAV10@@Z
	??$?HDU?$char_traits@D@std@@V?$allocator@D@1@@std@@YA?AV?$basic_string@DU?$char_traits@D@std@@V?$allocator@D@2@@0@QEBDAEBV10@@Z
	??$?HVClock@vanetza@@V?$duration@_JU?$ratio@$00$0PECEA@@std@@@chrono@std@@HU?$ratio@$0OBA@$00@4@@chrono@std@@YA?AV?$time_point@VClock@vanetza@@V?$duration@_JU?$ratio@$00$0PECEA@@std@@@chrono@std@@@01@AEBV201@AEBV?$duration@HU?$ratio@$0OBA@$00@std@@@01@@Z
	??$?HVClock@vanetza@@V?$duration@_JU?$ratio@$00$0PECEA@@std@@@chrono@std@@_JU?$ratio@$00$00@4@@chrono@std@@YA?AV?$time_point@VClock@vanetza@@V?$duration@_JU?$ratio@$00$0PECEA@@std@@@chrono@std@@@01@AEBV201@AEBV?$duration@_JU?$ratio@$00$00@std@@@01@@Z
	??$?HVClock@vanetza@@V?$duration@_JU?$ratio@$00$0PECEA@@std@@@chrono@std@@_JU?$ratio@$00$0DOI@@4@@chrono@std@@YA?AV?$time_point@VClock@vanetza@@V?$duration@_JU?$ratio@$00$0PECEA@@std@@@chrono@std@@@01@AEBV201@AEBV?$duration@_JU?$ratio@$00$0DOI@@std@@@01@@Z
	??$?HVClock@vanetza@@V?$duration@_JU?$ratio@$00$0PECEA@@std@@@chrono@std@@_JU?$ratio@$00$0PECEA@@4@@chrono@std@@YA?AV?$time_point@VClock@vanetza@@V?$duration@_JU?$ratio@$00$0PECEA@@std@@@chrono@std@@@01@AEBV201@AEBV?$duration@_JU?$ratio@$00$0PECEA@@std@@@01@@Z
	??$?H_JU?$ratio@$00$0PECEA@@std@@HU?$ratio@$0OBA@$00@1@@chrono@std@@YA?AV?$duration@_JU?$ratio@$00$0PECEA@@std@@@01@AEBV201@AEBV?$duration@HU?$ratio@$0OBA@$00@std@@@01@@Z
	??$?H_JU?$ratio@$00$0PECEA@@std@@_JU01@@chrono@std@@YA?AV?$duration@_JU?$ratio@$00$0PECEA@@std@@@01@AEBV201@0@Z
	??$?H_JU?$ratio@$00$0PECEA@@std@@_JU?$ratio@$00$00@1@@chrono@std@@YA?AV?$duration@_JU?$ratio@$00$0PECEA@@std@@@01@AEBV201@AEBV?$duration@_JU?$ratio@$00$00@std@@@01@@Z
	??$?H_JU?$ratio@$00$0PECEA@@std@@_JU?$ratio@$00$0DOI@@1@@chrono@std@@YA?AV?$duration@_JU?$ratio@$00$0PECEA@@std@@@01@AEBV201@AEBV?$duration@_JU?$ratio@$00$0DOI@@std@@@01@@Z
	??$?KN@units@boost@@YANAEBNAEBUone@01@@Z
	??$?KN@units@boost@@YANAEBUone@01@AEBN@Z
	??$?KV?$unit@U?$list@U?$dim@Ulength_base_dimension@units@boost@@V?$static_rational@$00$00@23@@units@boost@@Udimensionless_type@23@@units@boost@@U?$homogeneous_system@U?$list@Umeter_base_unit@si@units@boost@@U?$list@U?$scaled_base_unit@Ugram_base_unit@cgs@units@boost@@U?$scale@$09V?$static_rational@$02$00@units@boost@@@34@@units@boost@@U?$list@Usecond_base_unit@si@units@boost@@U?$list@Uampere_base_unit@si@units@boost@@U?$list@Ukelvin_base_unit@si@units@boost@@U?$list@Umole_base_unit@si@units@boost@@U?$list@Ucandela_base_unit@si@units@boost@@U?$list@Uradian_base_unit@angle@units@boost@@U?$list@Usteradian_base_unit@angle@units@boost@@Udimensionless_type@34@@34@@34@@34@@34@@34@@34@@23@@34@@units@boost@@@23@X@units@boost@@U?$homogeneous_system@U?$list@Umeter_base_unit@si@units@boost@@U?$list@U?$scaled_base_unit@Ugram_base_unit@cgs@units@boost@@U?$scale@$09V?$static_rational@$02$00@units@boost@@@34@@units@boost@@U?$list@Usecond_base_unit@si@units@boost@@U?$list@Uampere_base_unit@si@units@boost@@U?$list@Ukelvin_base_unit@si@units@boost@@U?$list@Umole_base_unit@si@units@boost@@U?$list@Ucandela_base_unit@si@units@boost@@U?$list@Uradian_base_unit@angle@units@boost@@U?$list@Usteradian_base_unit@angle@units@boost@@Udimensionless_type@34@@34@@34@@34@@34@@34@@34@@23@@34@@units@boost@@@12@U?$list@U?$dim@Ulength_base_dimension@units@boost@@V?$static_rational@$00$00@23@@units@boost@@Udimensionless_type@23@@12@G@units@boost@@YA?AV?$quantity@V?$unit@Udimensionless_type@units@boost@@U?$homogeneous_system@U?$list@Umeter_base_unit@si@units@boost@@U?$list@U?$scaled_base_unit@Ugram_base_unit@cgs@units@boost@@U?$scale@$09V?$static_rational@$02$00@units@boost@@@34@@units@boost@@U?$list@Usecond_base_unit@si@units@boost@@U?$list@Uampere_base_unit@si@units@boost@@U?$list@Ukelvin_base_unit@si@units@boost@@U?$list@Umole_base_unit@si@units@boost@@U?$list@Ucandela_base_unit@si@units@boost@@U?$list@Uradian_base_unit@angle@units@boost@@U?$list@Usteradian_base_unit@angle@units@boost@@Udimensionless_type@34@@34@@34@@34@@34@@34@@34@@23@@34@@units@boost@@@23@X@units@boost@@G@01@AEBV?$quantity@V?$unit@U?$list@U?$dim@Ulength_base_dimension@units@boost@@V?$static_rational@$00$00@23@@units@boost@@Udimensionless_type@23@@units@boost@@U?$homogeneous_system@U?$list@Umeter_base_unit@si@units@boost@@U?$list@U?$scaled_base_unit@Ugram_base_unit@cgs@units@boost@@U?$scale@$09V?$static_rational@$02$00@units@boost@@@34@@units@boost@@U?$list@Usecond_base_unit@si@units@boost@@U?$list@Uampere_base_unit@si@units@boost@@U?$list@Ukelvin_base_unit@si@units@boost@@U?$list@Umole_base_unit@si@units@boost@@U?$list@Ucandela_base_unit@si@units@boost@@U?$list@Uradian_base_unit@angle@units@boost@@U?$list@Usteradian_base_unit@angle@units@boost@@Udimensionless_type@34@@34@@34@@34@@34@@34@@34@@23@@34@@units@boost@@@23@X@units@boost@@G@01@AEBV?$unit@U?$list@U?$dim@Ulength_base_dimension@units@boost@@V?$static_rational@$00$00@23@@units@boost@@Udimensionless_type@23@@units@boost@@U?$homogeneous_system@U?$list@Umeter_base_unit@si@units@boost@@U?$list@U?$scaled_base_unit@Ugram_base_unit@cgs@units@boost@@U?$scale@$09V?$static_rational@$02$00@units@boost@@@34@@units@boost@@U?$list@Usecond_base_unit@si@units@boost@@U?$list@Uampere_base_unit@si@units@boost@@U?$list@Ukelvin_base_unit@si@units@boost@@U?$list@Umole_base_unit@si@units@boost@@U?$list@Ucandela_base_unit@si@units@boost@@U?$list@Uradian_base_unit@angle@units@boost@@U?$list@Usteradian_base_unit@angle@units@boost@@Udimensionless_type@34@@34@@34@@34@@34@@34@@34@@23@@34@@units@boost@@@23@X@01@@Z
	??$?KV?$unit@U?$list@U?$dim@Ulength_base_dimension@units@boost@@V?$static_rational@$00$00@23@@units@boost@@Udimensionless_type@23@@units@boost@@U?$homogeneous_system@U?$list@Umeter_base_unit@si@units@boost@@U?$list@U?$scaled_base_unit@Ugram_base_unit@cgs@units@boost@@U?$scale@$09V?$static_rational@$02$00@units@boost@@@34@@units@boost@@U?$list@Usecond_base_unit@si@units@boost@@U?$list@Uampere_base_unit@si@units@boost@@U?$list@Ukelvin_base_unit@si@units@boost@@U?$list@Umole_base_unit@si@units@boost@@U?$list@Ucandela_base_unit@si@units@boost@@U?$list@Uradian_base_unit@angle@units@boost@@U?$list@Usteradian_base_unit@angle@units@boost@@Udimensionless_type@34@@34@@34@@34@@34@@34@@34@@23@@34@@units@boost@@@23@X@units@boost@@U?$homogeneous_system@U?$list@Umeter_base_unit@si@units@boost@@U?$list@U?$scaled_base_unit@Ugram_base_unit@cgs@units@boost@@U?$scale@$09V?$static_rational@$02$00@units@boost@@@34@@units@boost@@U?$list@Usecond_base_unit@si@units@boost@@U?$list@Uampere_base_unit@si@units@boost@@U?$list@Ukelvin_base_unit@si@units@boost@@U?$list@Umole_base_unit@si@units@boost@@U?$list@Ucandela_base_unit@si@units@boost@@U?$list@Uradian_base_unit@angle@units@boost@@U?$list@Usteradian_base_unit@angle@units@boost@@Udimensionless_type@34@@34@@34@@34@@34@@34@@34@@23@@34@@units@boost@@@12@U?$list@U?$dim@Ulength_base_dimension@units@boost@@V?$static_rational@$00$00@23@@units@boost@@Udimensionless_type@23@@12@N@units@boost@@YA?AV?$quantity@V?$unit@Udimensionless_type@units@boost@@U?$homogeneous_system@U?$list@Umeter_base_unit@si@units@boost@@U?$list@U?$scaled_base_unit@Ugram_base_unit@cgs@units@boost@@U?$scale@$09V?$static_rational@$02$00@units@boost@@@34@@units@boost@@U?$list@Usecond_base_unit@si@units@boost@@U?$list@Uampere_base_unit@si@units@boost@@U?$list@Ukelvin_base_unit@si@units@boost@@U?$list@Umole_base_unit@si@units@boost@@U?$list@Ucandela_base_unit@si@units@boost@@U?$list@Uradian_base_unit@angle@units@boost@@U?$list@Usteradian_base_unit@angle@units@boost@@Udimensionless_type@34@@34@@34@@34@@34@@34@@34@@23@@34@@units@boost@@@23@X@units@boost@@N@01@AEBV?$quantity@V?$unit@U?$list@U?$dim@Ulength_base_dimension@units@boost@@V?$static_rational@$00$00@23@@units@boost@@Udimensionless_type@23@@units@boost@@U?$homogeneous_system@U?$list@Umeter_base_unit@si@units@boost@@U?$list@U?$scaled_base_unit@Ugram_base_unit@cgs@units@boost@@U?$scale@$09V?$static_rational@$02$00@units@boost@@@34@@units@boost@@U?$list@Usecond_base_unit@si@units@boost@@U?$list@Uampere_base_unit@si@units@boost@@U?$list@Ukelvin_base_unit@si@units@boost@@U?$list@Umole_base_unit@si@units@boost@@U?$list@Ucandela_base_unit@si@units@boost@@U?$list@Uradian_base_unit@angle@units@boost@@U?$list@Usteradian_base_unit@angle@units@boost@@Udimensionless_type@34@@34@@34@@34@@34@@34@@34@@23@@34@@units@boost@@@23@X@units@boost@@N@01@AEBV?$unit@U?$list@U?$dim@Ulength_base_dimension@units@boost@@V?$static_rational@$00$00@23@@units@boost@@Udimensionless_type@23@@units@boost@@U?$homogeneous_system@U?$list@Umeter_base_unit@si@units@boost@@U?$list@U?$scaled_base_unit@Ugram_base_unit@cgs@units@boost@@U?$scale@$09V?$static_rational@$02$00@units@boost@@@34@@units@boost@@U?$list@Usecond_base_unit@si@units@boost@@U?$list@Uampere_base_unit@si@units@boost@@U?$list@Ukelvin_base_unit@si@units@boost@@U?$list@Umole_base_unit@si@units@boost@@U?$list@Ucandela_base_unit@si@units@boost@@U?$list@Uradian_base_unit@angle@units@boost@@U?$list@Usteradian_base_unit@angle@units@boost@@Udimensionless_type@34@@34@@34@@34@@34@@34@@34@@23@@34@@units@boost@@@23@X@01@@Z
	??$?KV?$unit@U?$list@U?$dim@Uplane_angle_base_dimension@units@boost@@V?$static_rational@$00$00@23@@units@boost@@Udimensionless_type@23@@units@boost@@U?$homogeneous_system@U?$list@Udegree_base_unit@angle@units@boost@@Udimensionless_type@34@@units@boost@@@23@X@units@boost@@U?$homogeneous_system@U?$list@Udegree_base_unit@angle@units@boost@@Udimensionless_type@34@@units@boost@@@12@U?$list@U?$dim@Uplane_angle_base_dimension@units@boost@@V?$static_rational@$00$00@23@@units@boost@@Udimensionless_type@23@@12@N@units@boost@@YA?AV?$quantity@V?$unit@Udimensionless_type@units@boost@@U?$homogeneous_system@U?$list@Udegree_base_unit@angle@units@boost@@Udimensionless_type@34@@units@boost@@@23@X@units@boost@@N@01@AEBV?$quantity@V?$unit@U?$list@U?$dim@Uplane_angle_base_dimension@units@boost@@V?$static_rational@$00$00@23@@units@boost@@Udimensionless_type@23@@units@boost@@U?$homogeneous_system@U?$list@Udegree_base_unit@angle@units@boost@@Udimensionless_type@34@@units@boost@@@23@X@units@boost@@N@01@AEBV?$unit@U?$list@U?$dim@Uplane_angle_base_dimension@units@boost@@V?$static_rational@$00$00@23@@units@boost@@Udimensionless_type@23@@units@boost@@U?$homogeneous_system@U?$list@Udegree_base_unit@angle@units@boost@@Udimensionless_type@34@@units@boost@@@23@X@01@@Z
	??$?KV?$unit@U?$list@U?$dim@Uplane_angle_base_dimension@units@boost@@V?$static_rational@$00$00@23@@units@boost@@Udimensionless_type@23@@units@boost@@U?$homogeneous_system@U?$list@Udegree_base_unit@angle@units@boost@@Udimensionless_type@34@@units@boost@@@23@X@units@boost@@V012@NN@units@boost@@YA?AV?$quantity@V?$unit@Udimensionless_type@units@boost@@U?$homogeneous_system@U?$list@Udegree_base_unit@angle@units@boost@@Udimensionless_type@34@@units@boost@@@23@X@units@boost@@N@01@AEBV?$quantity@V?$unit@U?$list@U?$dim@Uplane_angle_base_dimension@units@boost@@V?$static_rational@$00$00@23@@units@boost@@Udimensionless_type@23@@units@boost@@U?$homogeneous_system@U?$list@Udegree_base_unit@angle@units@boost@@Udimensionless_type@34@@units@boost@@@23@X@units@boost@@N@01@0@Z
	??$?KV?$unit@U?$list@U?$dim@Uplane_angle_base_dimension@units@boost@@V?$static_rational@$00$00@23@@units@boost@@Udimensionless_type@23@@units@boost@@U?$homogeneous_system@U?$list@Umeter_base_unit@si@units@boost@@U?$list@U?$scaled_base_unit@Ugram_base_unit@cgs@units@boost@@U?$scale@$09V?$static_rational@$02$00@units@boost@@@34@@units@boost@@U?$list@Usecond_base_unit@si@units@boost@@U?$list@Uampere_base_unit@si@units@boost@@U?$list@Ukelvin_base_unit@si@units@boost@@U?$list@Umole_base_unit@si@units@boost@@U?$list@Ucandela_base_unit@si@units@boost@@U?$list@Uradian_base_unit@angle@units@boost@@U?$list@Usteradian_base_unit@angle@units@boost@@Udimensionless_type@34@@34@@34@@34@@34@@34@@34@@23@@34@@units@boost@@@23@X@units@boost@@N@units@boost@@YA?AV?$quantity@V?$unit@U?$list@U?$dim@Uplane_angle_base_dimension@units@boost@@V?$static_rational@$00$00@23@@units@boost@@Udimensionless_type@23@@units@boost@@U?$homogeneous_system@U?$list@Umeter_base_unit@si@units@boost@@U?$list@U?$scaled_base_unit@Ugram_base_unit@cgs@units@boost@@U?$scale@$09V?$static_rational@$02$00@units@boost@@@34@@units@boost@@U?$list@Usecond_base_unit@si@units@boost@@U?$list@Uampere_base_unit@si@units@boost@@U?$list@Ukelvin_base_unit@si@units@boost@@U?$list@Umole_base_unit@si@units@boost@@U?$list@Ucandela_base_unit@si@units@boost@@U?$list@Uradian_base_unit@angle@units@boost@@U?$list@Usteradian_base_unit@angle@units@boost@@Udimensionless_type@34@@34@@34@@34@@34@@34@@34@@23@@34@@units@boost@@@23@X@units@boost@@N@01@AEBV201@AEBN@Z
	??$?KV?$unit@Udimensionless_type@units@boost@@U?$homogeneous_system@U?$list@Udegree_base_unit@angle@units@boost@@Udimensionless_type@34@@units@boost@@@23@X@units@boost@@N@units@boost@@YA?AV?$quantity@V?$unit@Udimensionless_type@units@boost@@U?$homogeneous_system@U?$list@Udegree_base_unit@angle@units@boost@@Udimensionless_type@34@@units@boost@@@23@X@units@boost@@N@01@AEBV201@AEBN@Z
	??$?LG@?$basic_format@DU?$char_traits@D@std@@V?$allocator@D@2@@boost@@QEAAAEAV01@AEBG@Z
	??$?MDU?$char_traits@D@std@@V?$allocator@D@1@@std@@YA_NAEBV?$basic_string@DU?$char_traits@D@std@@V?$allocator@D@2@@0@0@Z
	??$?ME$02@std@@YA_NAEBV?$array@E$02@0@0@Z
	??$?ME$07@std@@YA_NAEBV?$array@E$07@0@0@Z
	??$?MV?$unit@U?$list@U?$dim@Uplane_angle_base_dimension@units@boost@@V?$static_rational@$00$00@23@@units@boost@@Udimensionless_type@23@@units@boost@@U?$heterogeneous_system@U?$heterogeneous_system_impl@U?$list@U?$heterogeneous_system_dim@Udegree_base_unit@angle@units@boost@@V?$static_rational@$00$00@34@@units@boost@@Udimensionless_type@23@@units@boost@@U?$list@U?$dim@Uplane_angle_base_dimension@units@boost@@V?$static_rational@$00$00@23@@units@boost@@Udimensionless_type@23@@23@U?$list@U?$scale_list_dim@U?$scale@$09V?$static_rational@$0?6$00@units@boost@@@units@boost@@@units@boost@@Udimensionless_type@23@@23@@units@boost@@@23@X@units@boost@@HH@units@boost@@YA_NAEBV?$quantity@V?$unit@U?$list@U?$dim@Uplane_angle_base_dimension@units@boost@@V?$static_rational@$00$00@23@@units@boost@@Udimensionless_type@23@@units@boost@@U?$heterogeneous_system@U?$heterogeneous_system_impl@U?$list@U?$heterogeneous_system_dim@Udegree_base_unit@angle@units@boost@@V?$static_rational@$00$00@34@@units@boost@@Udimensionless_type@23@@units@boost@@U?$list@U?$dim@Uplane_angle_base_dimension@units@boost@@V?$static_rational@$00$00@23@@units@boost@@Udimensionless_type@23@@23@U?$list@U?$scale_list_dim@U?$scale@$09V?$static_rational@$0?6$00@units@boost@@@units@boost@@@units@boost@@Udimensionless_type@23@@23@@units@boost@@@23@X@units@boost@@H@01@0@Z
	??$?MVClock@vanetza@@V?$duration@_JU?$ratio@$00$0PECEA@@std@@@chrono@std@@V234@@chrono@std@@YA_NAEBV?$time_point@VClock@vanetza@@V?$duration@_JU?$ratio@$00$0PECEA@@std@@@chrono@std@@@01@0@Z
	??$?M_JU?$ratio@$00$0PECEA@@std@@_JU01@@chrono@std@@YA_NAEBV?$duration@_JU?$ratio@$00$0PECEA@@std@@@01@0@Z
	??$?NV?$unit@U?$list@U?$dim@Ulength_base_dimension@units@boost@@V?$static_rational@$00$00@23@@units@boost@@Udimensionless_type@23@@units@boost@@U?$homogeneous_system@U?$list@Umeter_base_unit@si@units@boost@@U?$list@U?$scaled_base_unit@Ugram_base_unit@cgs@units@boost@@U?$scale@$09V?$static_rational@$02$00@units@boost@@@34@@units@boost@@U?$list@Usecond_base_unit@si@units@boost@@U?$list@Uampere_base_unit@si@units@boost@@U?$list@Ukelvin_base_unit@si@units@boost@@U?$list@Umole_base_unit@si@units@boost@@U?$list@Ucandela_base_unit@si@units@boost@@U?$list@Uradian_base_unit@angle@units@boost@@U?$list@Usteradian_base_unit@angle@units@boost@@Udimensionless_type@34@@34@@34@@34@@34@@34@@34@@23@@34@@units@boost@@@23@X@units@boost@@NJ@units@boost@@YA_NAEBV?$quantity@V?$unit@U?$list@U?$dim@Ulength_base_dimension@units@boost@@V?$static_rational@$00$00@23@@units@boost@@Udimensionless_type@23@@units@boost@@U?$homogeneous_system@U?$list@Umeter_base_unit@si@units@boost@@U?$list@U?$scaled_base_unit@Ugram_base_unit@cgs@units@boost@@U?$scale@$09V?$static_rational@$02$00@units@boost@@@34@@units@boost@@U?$list@Usecond_base_unit@si@units@boost@@U?$list@Uampere_base_unit@si@units@boost@@U?$list@Ukelvin_base_unit@si@units@boost@@U?$list@Umole_base_unit@si@units@boost@@U?$list@Ucandela_base_unit@si@units@boost@@U?$list@Uradian_base_unit@angle@units@boost@@U?$list@Usteradian_base_unit@angle@units@boost@@Udimensionless_type@34@@34@@34@@34@@34@@34@@34@@23@@34@@units@boost@@@23@X@units@boost@@N@01@AEBV?$quantity@V?$unit@U?$list@U?$dim@Ulength_base_dimension@units@boost@@V?$static_rational@$00$00@23@@units@boost@@Udimensionless_type@23@@units@boost@@U?$homogeneous_system@U?$list@Umeter_base_unit@si@units@boost@@U?$list@U?$scaled_base_unit@Ugram_base_unit@cgs@units@boost@@U?$scale@$09V?$static_rational@$02$00@units@boost@@@34@@units@boost@@U?$list@Usecond_base_unit@si@units@boost@@U?$list@Uampere_base_unit@si@units@boost@@U?$list@Ukelvin_base_unit@si@units@boost@@U?$list@Umole_base_unit@si@units@boost@@U?$list@Ucandela_base_unit@si@units@boost@@U?$list@Uradian_base_unit@angle@units@boost@@U?$list@Usteradian_base_unit@angle@units@boost@@Udimensionless_type@34@@34@@34@@34@@34@@34@@34@@23@@34@@units@boost@@@23@X@units@boost@@J@01@@Z
	??$?NV?$unit@U?$list@U?$dim@Uplane_angle_base_dimension@units@boost@@V?$static_rational@$00$00@23@@units@boost@@Udimensionless_type@23@@units@boost@@U?$heterogeneous_system@U?$heterogeneous_system_impl@U?$list@U?$heterogeneous_system_dim@Udegree_base_unit@angle@units@boost@@V?$static_rational@$00$00@34@@units@boost@@Udimensionless_type@23@@units@boost@@U?$list@U?$dim@Uplane_angle_base_dimension@units@boost@@V?$static_rational@$00$00@23@@units@boost@@Udimensionless_type@23@@23@U?$list@U?$scale_list_dim@U?$scale@$09V?$static_rational@$0?6$00@units@boost@@@units@boost@@@units@boost@@Udimensionless_type@23@@23@@units@boost@@@23@X@units@boost@@HH@units@boost@@YA_NAEBV?$quantity@V?$unit@U?$list@U?$dim@Uplane_angle_base_dimension@units@boost@@V?$static_rational@$00$00@23@@units@boost@@Udimensionless_type@23@@units@boost@@U?$heterogeneous_system@U?$heterogeneous_system_impl@U?$list@U?$heterogeneous_system_dim@Udegree_base_unit@angle@units@boost@@V?$static_rational@$00$00@34@@units@boost@@Udimensionless_type@23@@units@boost@@U?$list@U?$dim@Uplane_angle_base_dimension@units@boost@@V?$static_rational@$00$00@23@@units@boost@@Udimensionless_type@23@@23@U?$list@U?$scale_list_dim@U?$scale@$09V?$static_rational@$0?6$00@units@boost@@@units@boost@@@units@boost@@Udimensionless_type@23@@23@@units@boost@@@23@X@units@boost@@H@01@0@Z
	??$?OV?$unit@U?$list@U?$dim@Uplane_angle_base_dimension@units@boost@@V?$static_rational@$00$00@23@@units@boost@@Udimensionless_type@23@@units@boost@@U?$heterogeneous_system@U?$heterogeneous_system_impl@U?$list@U?$heterogeneous_system_dim@Udegree_base_unit@angle@units@boost@@V?$static_rational@$00$00@34@@units@boost@@Udimensionless_type@23@@units@boost@@U?$list@U?$dim@Uplane_angle_base_dimension@units@boost@@V?$static_rational@$00$00@23@@units@boost@@Udimensionless_type@23@@23@U?$list@U?$scale_list_dim@U?$scale@$09V?$static_rational@$0?6$00@units@boost@@@units@boost@@@units@boost@@Udimensionless_type@23@@23@@units@boost@@@23@X@units@boost@@HH@units@boost@@YA_NAEBV?$quantity@V?$unit@U?$list@U?$dim@Uplane_angle_base_dimension@units@boost@@V?$static_rational@$00$00@23@@units@boost@@Udimensionless_type@23@@units@boost@@U?$heterogeneous_system@U?$heterogeneous_system_impl@U?$list@U?$heterogeneous_system_dim@Udegree_base_unit@angle@units@boost@@V?$static_rational@$00$00@34@@units@boost@@Udimensionless_type@23@@units@boost@@U?$list@U?$dim@Uplane_angle_base_dimension@units@boost@@V?$static_rational@$00$00@23@@units@boost@@Udimensionless_type@23@@23@U?$list@U?$scale_list_dim@U?$scale@$09V?$static_rational@$0?6$00@units@boost@@@units@boost@@@units@boost@@Udimensionless_type@23@@23@@units@boost@@@23@X@units@boost@@H@01@0@Z
	??$?OVClock@vanetza@@V?$duration@_JU?$ratio@$00$0PECEA@@std@@@chrono@std@@V234@@chrono@std@@YA_NAEBV?$time_point@VClock@vanetza@@V?$duration@_JU?$ratio@$00$0PECEA@@std@@@chrono@std@@@01@0@Z
	??$?O_JU?$ratio@$00$0PECEA@@std@@_JU01@@chrono@std@@YA_NAEBV?$duration@_JU?$ratio@$00$0PECEA@@std@@@01@0@Z
	??$?PV?$unit@U?$list@U?$dim@Uplane_angle_base_dimension@units@boost@@V?$static_rational@$00$00@23@@units@boost@@Udimensionless_type@23@@units@boost@@U?$heterogeneous_system@U?$heterogeneous_system_impl@U?$list@U?$heterogeneous_system_dim@Udegree_base_unit@angle@units@boost@@V?$static_rational@$00$00@34@@units@boost@@Udimensionless_type@23@@units@boost@@U?$list@U?$dim@Uplane_angle_base_dimension@units@boost@@V?$static_rational@$00$00@23@@units@boost@@Udimensionless_type@23@@23@U?$list@U?$scale_list_dim@U?$scale@$09V?$static_rational@$0?6$00@units@boost@@@units@boost@@@units@boost@@Udimensionless_type@23@@23@@units@boost@@@23@X@units@boost@@HH@units@boost@@YA_NAEBV?$quantity@V?$unit@U?$list@U?$dim@Uplane_angle_base_dimension@units@boost@@V?$static_rational@$00$00@23@@units@boost@@Udimensionless_type@23@@units@boost@@U?$heterogeneous_system@U?$heterogeneous_system_impl@U?$list@U?$heterogeneous_system_dim@Udegree_base_unit@angle@units@boost@@V?$static_rational@$00$00@34@@units@boost@@Udimensionless_type@23@@units@boost@@U?$list@U?$dim@Uplane_angle_base_dimension@units@boost@@V?$static_rational@$00$00@23@@units@boost@@Udimensionless_type@23@@23@U?$list@U?$scale_list_dim@U?$scale@$09V?$static_rational@$0?6$00@units@boost@@@units@boost@@@units@boost@@Udimensionless_type@23@@23@@units@boost@@@23@X@units@boost@@H@01@0@Z
	??$?PVClock@vanetza@@V?$duration@_JU?$ratio@$00$0PECEA@@std@@@chrono@std@@V234@@chrono@std@@YA_NAEBV?$time_point@VClock@vanetza@@V?$duration@_JU?$ratio@$00$0PECEA@@std@@@chrono@std@@@01@0@Z
	??$?R$$T@?$direct_assigner@UCertificate@v2@security@vanetza@@@variant@detail@boost@@QEAA_NAEA$$T@Z
	??$?R$$T@?$direct_assigner@UCertificateDigestWithOtherAlgorithm@v2@security@vanetza@@@variant@detail@boost@@QEAA_NAEA$$T@Z
	??$?R$$T@?$direct_assigner@V?$array@E$07@std@@@variant@detail@boost@@QEAA_NAEA$$T@Z
	??$?R$$T@?$direct_assigner@V?$list@UCertificate@v2@security@vanetza@@V?$allocator@UCertificate@v2@security@vanetza@@@std@@@std@@@variant@detail@boost@@QEAA_NAEA$$T@Z
	??$?R$$T@?$direct_mover@V?$array@E$07@std@@@variant@detail@boost@@QEAA_NAEA$$T@Z
	??$?R$$T@?$get_visitor@$$CBUCertificate@v2@security@vanetza@@@variant@detail@boost@@QEBAPEBUCertificate@v2@security@vanetza@@AEB$$T@Z
	??$?R$$T@?$get_visitor@$$CBV?$array@E$07@std@@@variant@detail@boost@@QEBAPEBV?$array@E$07@std@@AEB$$T@Z
	??$?R$$T@?$get_visitor@$$CBV?$list@UCertificate@v2@security@vanetza@@V?$allocator@UCertificate@v2@security@vanetza@@@std@@@std@@@variant@detail@boost@@QEBAPEBV?$list@UCertificate@v2@security@vanetza@@V?$allocator@UCertificate@v2@security@vanetza@@@std@@@std@@AEB$$T@Z
	??$?R$$T@?$get_visitor@V?$array@E$07@std@@@variant@detail@boost@@QEBAPEAV?$array@E$07@std@@AEB$$T@Z
	??$?RAEAIAEAI@?$less@X@std@@QEBA_NAEAI0@Z
	??$?RAEBEAEBE@?$equal_to@X@std@@QEBA_NAEBE0@Z
	??$?RAEBEAEBE@?$less@X@std@@QEBA_NAEBE0@Z
	??$?RAEBURectangularRegion@v2@security@vanetza@@AEBU0123@@?$equal_to@X@std@@QEBA_NAEBURectangularRegion@v2@security@vanetza@@0@Z
	??$?RH@AlgorithmParameters@CryptoPP@@QEAAAEAV01@PEBDAEBH@Z
	??$?RH@AlgorithmParameters@CryptoPP@@QEAAAEAV01@PEBDAEBH_N@Z
	??$?RI@?$direct_assigner@UStartAndDurationValidity@v2@security@vanetza@@@variant@detail@boost@@QEAA_NAEAI@Z
	??$?RI@?$direct_assigner@UStartAndEndValidity@v2@security@vanetza@@@variant@detail@boost@@QEAA_NAEAI@Z
	??$?RI@?$direct_assigner@UThreeDLocation@v2@security@vanetza@@@variant@detail@boost@@QEAA_NAEAI@Z
	??$?RI@?$direct_assigner@UTime64WithStandardDeviation@v2@security@vanetza@@@variant@detail@boost@@QEAA_NAEAI@Z
	??$?RI@?$direct_assigner@V?$list@URecipientInfo@v2@security@vanetza@@V?$allocator@URecipientInfo@v2@security@vanetza@@@std@@@std@@@variant@detail@boost@@QEAA_NAEAI@Z
	??$?RI@?$direct_assigner@V?$list@V?$array@E$02@std@@V?$allocator@V?$array@E$02@std@@@2@@std@@@variant@detail@boost@@QEAA_NAEAI@Z
	??$?RI@?$direct_assigner@V?$variant@$$TV?$array@E$07@std@@V?$recursive_wrapper@UCertificate@v2@security@vanetza@@@boost@@V?$list@UCertificate@v2@security@vanetza@@V?$allocator@UCertificate@v2@security@vanetza@@@std@@@2@UCertificateDigestWithOtherAlgorithm@v2@security@vanetza@@@boost@@@variant@detail@boost@@QEAA_NAEAI@Z
	??$?RI@?$direct_assigner@V?$variant@UNoneRegion@v2@security@vanetza@@UCircularRegion@234@V?$list@URectangularRegion@v2@security@vanetza@@V?$allocator@URectangularRegion@v2@security@vanetza@@@std@@@std@@V?$list@UTwoDLocation@v2@security@vanetza@@V?$allocator@UTwoDLocation@v2@security@vanetza@@@std@@@7@UIdentifiedRegion@234@@boost@@@variant@detail@boost@@QEAA_NAEAI@Z
	??$?RI@?$direct_assigner@V?$variant@V?$array@E$0M@@std@@$$V@boost@@@variant@detail@boost@@QEAA_NAEAI@Z
	??$?RI@?$direct_assigner@VIntX@v2@security@vanetza@@@variant@detail@boost@@QEAA_NAEAI@Z
	??$?RI@?$direct_assigner@_K@variant@detail@boost@@QEAA_NAEAI@Z
	??$?RI@?$get_visitor@$$CBUStartAndEndValidity@v2@security@vanetza@@@variant@detail@boost@@QEBAPEBUStartAndEndValidity@v2@security@vanetza@@AEBI@Z
	??$?RI@?$get_visitor@$$CBUThreeDLocation@v2@security@vanetza@@@variant@detail@boost@@QEBAPEBUThreeDLocation@v2@security@vanetza@@AEBI@Z
	??$?RI@?$get_visitor@$$CBV?$list@V?$array@E$02@std@@V?$allocator@V?$array@E$02@std@@@2@@std@@@variant@detail@boost@@QEBAPEBV?$list@V?$array@E$02@std@@V?$allocator@V?$array@E$02@std@@@2@@std@@AEBI@Z
	??$?RI@?$get_visitor@$$CBV?$variant@$$TV?$array@E$07@std@@V?$recursive_wrapper@UCertificate@v2@security@vanetza@@@boost@@V?$list@UCertificate@v2@security@vanetza@@V?$allocator@UCertificate@v2@security@vanetza@@@std@@@2@UCertificateDigestWithOtherAlgorithm@v2@security@vanetza@@@boost@@@variant@detail@boost@@QEBAPEBV?$variant@$$TV?$array@E$07@std@@V?$recursive_wrapper@UCertificate@v2@security@vanetza@@@boost@@V?$list@UCertificate@v2@security@vanetza@@V?$allocator@UCertificate@v2@security@vanetza@@@std@@@2@UCertificateDigestWithOtherAlgorithm@v2@security@vanetza@@@3@AEBI@Z
	??$?RI@?$get_visitor@$$CBV?$variant@UNoneRegion@v2@security@vanetza@@UCircularRegion@234@V?$list@URectangularRegion@v2@security@vanetza@@V?$allocator@URectangularRegion@v2@security@vanetza@@@std@@@std@@V?$list@UTwoDLocation@v2@security@vanetza@@V?$allocator@UTwoDLocation@v2@security@vanetza@@@std@@@7@UIdentifiedRegion@234@@boost@@@variant@detail@boost@@QEBAPEBV?$variant@UNoneRegion@v2@security@vanetza@@UCircularRegion@234@V?$list@URectangularRegion@v2@security@vanetza@@V?$allocator@URectangularRegion@v2@security@vanetza@@@std@@@std@@V?$list@UTwoDLocation@v2@security@vanetza@@V?$allocator@UTwoDLocation@v2@security@vanetza@@@std@@@7@UIdentifiedRegion@234@@3@AEBI@Z
	??$?RI@?$get_visitor@$$CBVIntX@v2@security@vanetza@@@variant@detail@boost@@QEBAPEBVIntX@v2@security@vanetza@@AEBI@Z
	??$?RI@?$get_visitor@$$CB_K@variant@detail@boost@@QEBAPEB_KAEBI@Z
	??$?RI@?$get_visitor@UStartAndEndValidity@v2@security@vanetza@@@variant@detail@boost@@QEBAPEAUStartAndEndValidity@v2@security@vanetza@@AEBI@Z
	??$?RPEAU?$heap_node_base@$0A@@detail@heap@boost@@@null_disposer@detail@intrusive@boost@@QEAAXPEAU?$heap_node_base@$0A@@1heap@3@@Z
	??$?RPEAV?$basic_altstringbuf@DU?$char_traits@D@std@@V?$allocator@D@2@@io@boost@@@No_Op@?$basic_oaltstringstream@DU?$char_traits@D@std@@V?$allocator@D@2@@io@boost@@QEAAAEBQEAV?$basic_altstringbuf@DU?$char_traits@D@std@@V?$allocator@D@2@@23@AEBQEAV423@@Z
	??$?RPEBD@AlgorithmParameters@CryptoPP@@QEAAAEAV01@PEBDAEBQEBD_N@Z
	??$?RPEBH@AlgorithmParameters@CryptoPP@@QEAAAEAV01@PEBDAEBQEBH_N@Z
	??$?RU?$heap_node_base@$0A@@detail@heap@boost@@@?$cmp_by_degree@U?$parent_pointing_heap_node@UExpiry@CertificateCache@v2@security@vanetza@@@detail@heap@boost@@@detail@heap@boost@@QEAA_NAEBU?$heap_node_base@$0A@@123@0@Z
	??$?RUCertificate@v2@security@vanetza@@@?$direct_assigner@UCertificateDigestWithOtherAlgorithm@v2@security@vanetza@@@variant@detail@boost@@QEAA_NAEAUCertificate@v2@security@vanetza@@@Z
	??$?RUCertificate@v2@security@vanetza@@@?$direct_assigner@V?$array@E$07@std@@@variant@detail@boost@@QEAA_NAEAUCertificate@v2@security@vanetza@@@Z
	??$?RUCertificate@v2@security@vanetza@@@?$direct_assigner@V?$list@UCertificate@v2@security@vanetza@@V?$allocator@UCertificate@v2@security@vanetza@@@std@@@std@@@variant@detail@boost@@QEAA_NAEAUCertificate@v2@security@vanetza@@@Z
	??$?RUCertificate@v2@security@vanetza@@@?$direct_mover@$$T@variant@detail@boost@@QEAA_NAEAUCertificate@v2@security@vanetza@@@Z
	??$?RUCertificate@v2@security@vanetza@@@?$direct_mover@V?$array@E$07@std@@@variant@detail@boost@@QEAA_NAEAUCertificate@v2@security@vanetza@@@Z
	??$?RUCertificate@v2@security@vanetza@@@?$get_visitor@$$CBV?$array@E$07@std@@@variant@detail@boost@@QEBAPEBV?$array@E$07@std@@AEBUCertificate@v2@security@vanetza@@@Z
	??$?RUCertificate@v2@security@vanetza@@@?$get_visitor@$$CBV?$list@UCertificate@v2@security@vanetza@@V?$allocator@UCertificate@v2@security@vanetza@@@std@@@std@@@variant@detail@boost@@QEBAPEBV?$list@UCertificate@v2@security@vanetza@@V?$allocator@UCertificate@v2@security@vanetza@@@std@@@std@@AEBUCertificate@v2@security@vanetza@@@Z
	??$?RUCertificate@v2@security@vanetza@@@?$get_visitor@V?$array@E$07@std@@@variant@detail@boost@@QEBAPEAV?$array@E$07@std@@AEBUCertificate@v2@security@vanetza@@@Z
	??$?RUCertificateDigestWithOtherAlgorithm@v2@security@vanetza@@@?$direct_assigner@UCertificate@v2@security@vanetza@@@variant@detail@boost@@QEAA_NAEAUCertificateDigestWithOtherAlgorithm@v2@security@vanetza@@@Z
	??$?RUCertificateDigestWithOtherAlgorithm@v2@security@vanetza@@@?$direct_assigner@V?$array@E$07@std@@@variant@detail@boost@@QEAA_NAEAUCertificateDigestWithOtherAlgorithm@v2@security@vanetza@@@Z
	??$?RUCertificateDigestWithOtherAlgorithm@v2@security@vanetza@@@?$direct_assigner@V?$list@UCertificate@v2@security@vanetza@@V?$allocator@UCertificate@v2@security@vanetza@@@std@@@std@@@variant@detail@boost@@QEAA_NAEAUCertificateDigestWithOtherAlgorithm@v2@security@vanetza@@@Z
	??$?RUCertificateDigestWithOtherAlgorithm@v2@security@vanetza@@@?$direct_mover@$$T@variant@detail@boost@@QEAA_NAEAUCertificateDigestWithOtherAlgorithm@v2@security@vanetza@@@Z
	??$?RUCertificateDigestWithOtherAlgorithm@v2@security@vanetza@@@?$direct_mover@V?$array@E$07@std@@@variant@detail@boost@@QEAA_NAEAUCertificateDigestWithOtherAlgorithm@v2@security@vanetza@@@Z
	??$?RUCertificateDigestWithOtherAlgorithm@v2@security@vanetza@@@?$get_visitor@$$CBUCertificate@v2@security@vanetza@@@variant@detail@boost@@QEBAPEBUCertificate@v2@security@vanetza@@AEBUCertificateDigestWithOtherAlgorithm@567@@Z
	??$?RUCertificateDigestWithOtherAlgorithm@v2@security@vanetza@@@?$get_visitor@$$CBV?$array@E$07@std@@@variant@detail@boost@@QEBAPEBV?$array@E$07@std@@AEBUCertificateDigestWithOtherAlgorithm@v2@security@vanetza@@@Z
	??$?RUCertificateDigestWithOtherAlgorithm@v2@security@vanetza@@@?$get_visitor@$$CBV?$list@UCertificate@v2@security@vanetza@@V?$allocator@UCertificate@v2@security@vanetza@@@std@@@std@@@variant@detail@boost@@QEBAPEBV?$list@UCertificate@v2@security@vanetza@@V?$allocator@UCertificate@v2@security@vanetza@@@std@@@std@@AEBUCertificateDigestWithOtherAlgorithm@v2@security@vanetza@@@Z
	??$?RUCertificateDigestWithOtherAlgorithm@v2@security@vanetza@@@?$get_visitor@V?$array@E$07@std@@@variant@detail@boost@@QEBAPEAV?$array@E$07@std@@AEBUCertificateDigestWithOtherAlgorithm@v2@security@vanetza@@@Z
	??$?RUCircularRegion@v2@security@vanetza@@@?$direct_assigner@UIdentifiedRegion@v2@security@vanetza@@@variant@detail@boost@@QEAA_NAEAUCircularRegion@v2@security@vanetza@@@Z
	??$?RUCircularRegion@v2@security@vanetza@@@?$direct_assigner@UNoneRegion@v2@security@vanetza@@@variant@detail@boost@@QEAA_NAEAUCircularRegion@v2@security@vanetza@@@Z
	??$?RUCircularRegion@v2@security@vanetza@@@?$direct_assigner@V?$list@URectangularRegion@v2@security@vanetza@@V?$allocator@URectangularRegion@v2@security@vanetza@@@std@@@std@@@variant@detail@boost@@QEAA_NAEAUCircularRegion@v2@security@vanetza@@@Z
	??$?RUCircularRegion@v2@security@vanetza@@@?$direct_assigner@V?$list@UTwoDLocation@v2@security@vanetza@@V?$allocator@UTwoDLocation@v2@security@vanetza@@@std@@@std@@@variant@detail@boost@@QEAA_NAEAUCircularRegion@v2@security@vanetza@@@Z
	??$?RUCompressed_Lsb_Y_0@security@vanetza@@@?$direct_assigner@UCompressed_Lsb_Y_1@security@vanetza@@@variant@detail@boost@@QEAA_NAEAUCompressed_Lsb_Y_0@security@vanetza@@@Z
	??$?RUCompressed_Lsb_Y_0@security@vanetza@@@?$direct_assigner@UUncompressed@security@vanetza@@@variant@detail@boost@@QEAA_NAEAUCompressed_Lsb_Y_0@security@vanetza@@@Z
	??$?RUCompressed_Lsb_Y_0@security@vanetza@@@?$direct_assigner@UX_Coordinate_Only@security@vanetza@@@variant@detail@boost@@QEAA_NAEAUCompressed_Lsb_Y_0@security@vanetza@@@Z
	??$?RUCompressed_Lsb_Y_0@security@vanetza@@@?$direct_mover@UX_Coordinate_Only@security@vanetza@@@variant@detail@boost@@QEAA_NAEAUCompressed_Lsb_Y_0@security@vanetza@@@Z
	??$?RUCompressed_Lsb_Y_0@security@vanetza@@@EccPointVisitor@security@vanetza@@QEAA?AV?$vector@EV?$allocator@E@std@@@std@@AEBUCompressed_Lsb_Y_0@12@@Z
	??$?RUCompressed_Lsb_Y_1@security@vanetza@@@?$direct_assigner@UCompressed_Lsb_Y_0@security@vanetza@@@variant@detail@boost@@QEAA_NAEAUCompressed_Lsb_Y_1@security@vanetza@@@Z
	??$?RUCompressed_Lsb_Y_1@security@vanetza@@@?$direct_assigner@UUncompressed@security@vanetza@@@variant@detail@boost@@QEAA_NAEAUCompressed_Lsb_Y_1@security@vanetza@@@Z
	??$?RUCompressed_Lsb_Y_1@security@vanetza@@@?$direct_assigner@UX_Coordinate_Only@security@vanetza@@@variant@detail@boost@@QEAA_NAEAUCompressed_Lsb_Y_1@security@vanetza@@@Z
	??$?RUCompressed_Lsb_Y_1@security@vanetza@@@?$direct_mover@UX_Coordinate_Only@security@vanetza@@@variant@detail@boost@@QEAA_NAEAUCompressed_Lsb_Y_1@security@vanetza@@@Z
	??$?RUCompressed_Lsb_Y_1@security@vanetza@@@EccPointVisitor@security@vanetza@@QEAA?AV?$vector@EV?$allocator@E@std@@@std@@AEBUCompressed_Lsb_Y_1@12@@Z
	??$?RUECPPoint@CryptoPP@@@?$AssignFromHelperClass@V?$DL_PublicKey@UECPPoint@CryptoPP@@@CryptoPP@@V12@@CryptoPP@@QEAAAEAV01@PEBDP8?$DL_PublicKey@UECPPoint@CryptoPP@@@1@EAAXAEBUECPPoint@1@@Z@Z
	??$?RUECPPoint@CryptoPP@@@?$GetValueHelperClass@V?$DL_GroupParameters@UECPPoint@CryptoPP@@@CryptoPP@@V12@@CryptoPP@@QEAAAEAV01@PEBDP8?$DL_GroupParameters@UECPPoint@CryptoPP@@@1@EBAAEBUECPPoint@1@XZ@Z
	??$?RUECPPoint@CryptoPP@@@?$GetValueHelperClass@V?$DL_PublicKey@UECPPoint@CryptoPP@@@CryptoPP@@V12@@CryptoPP@@QEAAAEAV01@PEBDP8?$DL_PublicKey@UECPPoint@CryptoPP@@@1@EBAAEBUECPPoint@1@XZ@Z
	??$?RUEciesEncryptedKey@v2@security@vanetza@@@?$direct_mover@UOpaqueKey@v2@security@vanetza@@@variant@detail@boost@@QEAA_NAEAUEciesEncryptedKey@v2@security@vanetza@@@Z
	??$?RUEncryptionKey@v2@security@vanetza@@@?$direct_assigner@USubjectAssurance@v2@security@vanetza@@@variant@detail@boost@@QEAA_NAEAUEncryptionKey@v2@security@vanetza@@@Z
	??$?RUEncryptionKey@v2@security@vanetza@@@?$direct_assigner@UVerificationKey@v2@security@vanetza@@@variant@detail@boost@@QEAA_NAEAUEncryptionKey@v2@security@vanetza@@@Z
	??$?RUEncryptionKey@v2@security@vanetza@@@?$direct_assigner@V?$list@UItsAidSsp@v2@security@vanetza@@V?$allocator@UItsAidSsp@v2@security@vanetza@@@std@@@std@@@variant@detail@boost@@QEAA_NAEAUEncryptionKey@v2@security@vanetza@@@Z
	??$?RUEncryptionKey@v2@security@vanetza@@@?$direct_assigner@V?$list@VIntX@v2@security@vanetza@@V?$allocator@VIntX@v2@security@vanetza@@@std@@@std@@@variant@detail@boost@@QEAA_NAEAUEncryptionKey@v2@security@vanetza@@@Z
	??$?RUEncryptionKey@v2@security@vanetza@@@?$get_visitor@$$CBUSubjectAssurance@v2@security@vanetza@@@variant@detail@boost@@QEBAPEBUSubjectAssurance@v2@security@vanetza@@AEBUEncryptionKey@567@@Z
	??$?RUEncryptionKey@v2@security@vanetza@@@?$get_visitor@$$CBUVerificationKey@v2@security@vanetza@@@variant@detail@boost@@QEBAPEBUVerificationKey@v2@security@vanetza@@AEBUEncryptionKey@567@@Z
	??$?RUEncryptionKey@v2@security@vanetza@@@?$get_visitor@$$CBV?$list@UItsAidSsp@v2@security@vanetza@@V?$allocator@UItsAidSsp@v2@security@vanetza@@@std@@@std@@@variant@detail@boost@@QEBAPEBV?$list@UItsAidSsp@v2@security@vanetza@@V?$allocator@UItsAidSsp@v2@security@vanetza@@@std@@@std@@AEBUEncryptionKey@v2@security@vanetza@@@Z
	??$?RUEncryptionKey@v2@security@vanetza@@@?$get_visitor@$$CBV?$list@VIntX@v2@security@vanetza@@V?$allocator@VIntX@v2@security@vanetza@@@std@@@std@@@variant@detail@boost@@QEBAPEBV?$list@VIntX@v2@security@vanetza@@V?$allocator@VIntX@v2@security@vanetza@@@std@@@std@@AEBUEncryptionKey@v2@security@vanetza@@@Z
	??$?RUEncryptionKey@v2@security@vanetza@@@?$get_visitor@V?$list@UItsAidSsp@v2@security@vanetza@@V?$allocator@UItsAidSsp@v2@security@vanetza@@@std@@@std@@@variant@detail@boost@@QEBAPEAV?$list@UItsAidSsp@v2@security@vanetza@@V?$allocator@UItsAidSsp@v2@security@vanetza@@@std@@@std@@AEBUEncryptionKey@v2@security@vanetza@@@Z
	??$?RUEncryptionKey@v2@security@vanetza@@@?$get_visitor@V?$list@VIntX@v2@security@vanetza@@V?$allocator@VIntX@v2@security@vanetza@@@std@@@std@@@variant@detail@boost@@QEBAPEAV?$list@VIntX@v2@security@vanetza@@V?$allocator@VIntX@v2@security@vanetza@@@std@@@std@@AEBUEncryptionKey@v2@security@vanetza@@@Z
	??$?RUIdentifiedRegion@v2@security@vanetza@@@?$direct_assigner@UCircularRegion@v2@security@vanetza@@@variant@detail@boost@@QEAA_NAEAUIdentifiedRegion@v2@security@vanetza@@@Z
	??$?RUIdentifiedRegion@v2@security@vanetza@@@?$direct_assigner@UNoneRegion@v2@security@vanetza@@@variant@detail@boost@@QEAA_NAEAUIdentifiedRegion@v2@security@vanetza@@@Z
	??$?RUIdentifiedRegion@v2@security@vanetza@@@?$direct_assigner@V?$list@URectangularRegion@v2@security@vanetza@@V?$allocator@URectangularRegion@v2@security@vanetza@@@std@@@std@@@variant@detail@boost@@QEAA_NAEAUIdentifiedRegion@v2@security@vanetza@@@Z
	??$?RUIdentifiedRegion@v2@security@vanetza@@@?$direct_assigner@V?$list@UTwoDLocation@v2@security@vanetza@@V?$allocator@UTwoDLocation@v2@security@vanetza@@@std@@@std@@@variant@detail@boost@@QEAA_NAEAUIdentifiedRegion@v2@security@vanetza@@@Z
	??$?RUNoneRegion@v2@security@vanetza@@@?$direct_assigner@UCircularRegion@v2@security@vanetza@@@variant@detail@boost@@QEAA_NAEAUNoneRegion@v2@security@vanetza@@@Z
	??$?RUNoneRegion@v2@security@vanetza@@@?$direct_assigner@UIdentifiedRegion@v2@security@vanetza@@@variant@detail@boost@@QEAA_NAEAUNoneRegion@v2@security@vanetza@@@Z
	??$?RUNoneRegion@v2@security@vanetza@@@?$direct_assigner@V?$list@URectangularRegion@v2@security@vanetza@@V?$allocator@URectangularRegion@v2@security@vanetza@@@std@@@std@@@variant@detail@boost@@QEAA_NAEAUNoneRegion@v2@security@vanetza@@@Z
	??$?RUNoneRegion@v2@security@vanetza@@@?$direct_assigner@V?$list@UTwoDLocation@v2@security@vanetza@@V?$allocator@UTwoDLocation@v2@security@vanetza@@@std@@@std@@@variant@detail@boost@@QEAA_NAEAUNoneRegion@v2@security@vanetza@@@Z
	??$?RUOpaqueKey@v2@security@vanetza@@@?$direct_mover@UEciesEncryptedKey@v2@security@vanetza@@@variant@detail@boost@@QEAA_NAEAUOpaqueKey@v2@security@vanetza@@@Z
	??$?RUStartAndDurationValidity@v2@security@vanetza@@@?$direct_assigner@I@variant@detail@boost@@QEAA_NAEAUStartAndDurationValidity@v2@security@vanetza@@@Z
	??$?RUStartAndDurationValidity@v2@security@vanetza@@@?$direct_assigner@UStartAndEndValidity@v2@security@vanetza@@@variant@detail@boost@@QEAA_NAEAUStartAndDurationValidity@v2@security@vanetza@@@Z
	??$?RUStartAndDurationValidity@v2@security@vanetza@@@?$direct_assigner@V?$variant@UNoneRegion@v2@security@vanetza@@UCircularRegion@234@V?$list@URectangularRegion@v2@security@vanetza@@V?$allocator@URectangularRegion@v2@security@vanetza@@@std@@@std@@V?$list@UTwoDLocation@v2@security@vanetza@@V?$allocator@UTwoDLocation@v2@security@vanetza@@@std@@@7@UIdentifiedRegion@234@@boost@@@variant@detail@boost@@QEAA_NAEAUStartAndDurationValidity@v2@security@vanetza@@@Z
	??$?RUStartAndDurationValidity@v2@security@vanetza@@@?$get_visitor@$$CBUStartAndEndValidity@v2@security@vanetza@@@variant@detail@boost@@QEBAPEBUStartAndEndValidity@v2@security@vanetza@@AEBUStartAndDurationValidity@567@@Z
	??$?RUStartAndDurationValidity@v2@security@vanetza@@@?$get_visitor@$$CBV?$variant@UNoneRegion@v2@security@vanetza@@UCircularRegion@234@V?$list@URectangularRegion@v2@security@vanetza@@V?$allocator@URectangularRegion@v2@security@vanetza@@@std@@@std@@V?$list@UTwoDLocation@v2@security@vanetza@@V?$allocator@UTwoDLocation@v2@security@vanetza@@@std@@@7@UIdentifiedRegion@234@@boost@@@variant@detail@boost@@QEBAPEBV?$variant@UNoneRegion@v2@security@vanetza@@UCircularRegion@234@V?$list@URectangularRegion@v2@security@vanetza@@V?$allocator@URectangularRegion@v2@security@vanetza@@@std@@@std@@V?$list@UTwoDLocation@v2@security@vanetza@@V?$allocator@UTwoDLocation@v2@security@vanetza@@@std@@@7@UIdentifiedRegion@234@@3@AEBUStartAndDurationValidity@v2@security@vanetza@@@Z
	??$?RUStartAndDurationValidity@v2@security@vanetza@@@?$get_visitor@UStartAndEndValidity@v2@security@vanetza@@@variant@detail@boost@@QEBAPEAUStartAndEndValidity@v2@security@vanetza@@AEBUStartAndDurationValidity@567@@Z
	??$?RUStartAndEndValidity@v2@security@vanetza@@@?$direct_assigner@I@variant@detail@boost@@QEAA_NAEAUStartAndEndValidity@v2@security@vanetza@@@Z
	??$?RUStartAndEndValidity@v2@security@vanetza@@@?$direct_assigner@UStartAndDurationValidity@v2@security@vanetza@@@variant@detail@boost@@QEAA_NAEAUStartAndEndValidity@v2@security@vanetza@@@Z
	??$?RUStartAndEndValidity@v2@security@vanetza@@@?$direct_assigner@V?$variant@UNoneRegion@v2@security@vanetza@@UCircularRegion@234@V?$list@URectangularRegion@v2@security@vanetza@@V?$allocator@URectangularRegion@v2@security@vanetza@@@std@@@std@@V?$list@UTwoDLocation@v2@security@vanetza@@V?$allocator@UTwoDLocation@v2@security@vanetza@@@std@@@7@UIdentifiedRegion@234@@boost@@@variant@detail@boost@@QEAA_NAEAUStartAndEndValidity@v2@security@vanetza@@@Z
	??$?RUStartAndEndValidity@v2@security@vanetza@@@?$get_visitor@$$CBV?$variant@UNoneRegion@v2@security@vanetza@@UCircularRegion@234@V?$list@URectangularRegion@v2@security@vanetza@@V?$allocator@URectangularRegion@v2@security@vanetza@@@std@@@std@@V?$list@UTwoDLocation@v2@security@vanetza@@V?$allocator@UTwoDLocation@v2@security@vanetza@@@std@@@7@UIdentifiedRegion@234@@boost@@@variant@detail@boost@@QEBAPEBV?$variant@UNoneRegion@v2@security@vanetza@@UCircularRegion@234@V?$list@URectangularRegion@v2@security@vanetza@@V?$allocator@URectangularRegion@v2@security@vanetza@@@std@@@std@@V?$list@UTwoDLocation@v2@security@vanetza@@V?$allocator@UTwoDLocation@v2@security@vanetza@@@std@@@7@UIdentifiedRegion@234@@3@AEBUStartAndEndValidity@v2@security@vanetza@@@Z
	??$?RUSubjectAssurance@v2@security@vanetza@@@?$direct_assigner@UEncryptionKey@v2@security@vanetza@@@variant@detail@boost@@QEAA_NAEAUSubjectAssurance@v2@security@vanetza@@@Z
	??$?RUSubjectAssurance@v2@security@vanetza@@@?$direct_assigner@UVerificationKey@v2@security@vanetza@@@variant@detail@boost@@QEAA_NAEAUSubjectAssurance@v2@security@vanetza@@@Z
	??$?RUSubjectAssurance@v2@security@vanetza@@@?$direct_assigner@V?$list@UItsAidSsp@v2@security@vanetza@@V?$allocator@UItsAidSsp@v2@security@vanetza@@@std@@@std@@@variant@detail@boost@@QEAA_NAEAUSubjectAssurance@v2@security@vanetza@@@Z
	??$?RUSubjectAssurance@v2@security@vanetza@@@?$direct_assigner@V?$list@VIntX@v2@security@vanetza@@V?$allocator@VIntX@v2@security@vanetza@@@std@@@std@@@variant@detail@boost@@QEAA_NAEAUSubjectAssurance@v2@security@vanetza@@@Z
	??$?RUSubjectAssurance@v2@security@vanetza@@@?$get_visitor@$$CBUVerificationKey@v2@security@vanetza@@@variant@detail@boost@@QEBAPEBUVerificationKey@v2@security@vanetza@@AEBUSubjectAssurance@567@@Z
	??$?RUSubjectAssurance@v2@security@vanetza@@@?$get_visitor@$$CBV?$list@UItsAidSsp@v2@security@vanetza@@V?$allocator@UItsAidSsp@v2@security@vanetza@@@std@@@std@@@variant@detail@boost@@QEBAPEBV?$list@UItsAidSsp@v2@security@vanetza@@V?$allocator@UItsAidSsp@v2@security@vanetza@@@std@@@std@@AEBUSubjectAssurance@v2@security@vanetza@@@Z
	??$?RUSubjectAssurance@v2@security@vanetza@@@?$get_visitor@$$CBV?$list@VIntX@v2@security@vanetza@@V?$allocator@VIntX@v2@security@vanetza@@@std@@@std@@@variant@detail@boost@@QEBAPEBV?$list@VIntX@v2@security@vanetza@@V?$allocator@VIntX@v2@security@vanetza@@@std@@@std@@AEBUSubjectAssurance@v2@security@vanetza@@@Z
	??$?RUSubjectAssurance@v2@security@vanetza@@@?$get_visitor@V?$list@UItsAidSsp@v2@security@vanetza@@V?$allocator@UItsAidSsp@v2@security@vanetza@@@std@@@std@@@variant@detail@boost@@QEBAPEAV?$list@UItsAidSsp@v2@security@vanetza@@V?$allocator@UItsAidSsp@v2@security@vanetza@@@std@@@std@@AEBUSubjectAssurance@v2@security@vanetza@@@Z
	??$?RUSubjectAssurance@v2@security@vanetza@@@?$get_visitor@V?$list@VIntX@v2@security@vanetza@@V?$allocator@VIntX@v2@security@vanetza@@@std@@@std@@@variant@detail@boost@@QEBAPEAV?$list@VIntX@v2@security@vanetza@@V?$allocator@VIntX@v2@security@vanetza@@@std@@@std@@AEBUSubjectAssurance@v2@security@vanetza@@@Z
	??$?RUThreeDLocation@v2@security@vanetza@@@?$direct_assigner@I@variant@detail@boost@@QEAA_NAEAUThreeDLocation@v2@security@vanetza@@@Z
	??$?RUThreeDLocation@v2@security@vanetza@@@?$direct_assigner@UTime64WithStandardDeviation@v2@security@vanetza@@@variant@detail@boost@@QEAA_NAEAUThreeDLocation@v2@security@vanetza@@@Z
	??$?RUThreeDLocation@v2@security@vanetza@@@?$direct_assigner@V?$list@URecipientInfo@v2@security@vanetza@@V?$allocator@URecipientInfo@v2@security@vanetza@@@std@@@std@@@variant@detail@boost@@QEAA_NAEAUThreeDLocation@v2@security@vanetza@@@Z
	??$?RUThreeDLocation@v2@security@vanetza@@@?$direct_assigner@V?$list@V?$array@E$02@std@@V?$allocator@V?$array@E$02@std@@@2@@std@@@variant@detail@boost@@QEAA_NAEAUThreeDLocation@v2@security@vanetza@@@Z
	??$?RUThreeDLocation@v2@security@vanetza@@@?$direct_assigner@V?$variant@$$TV?$array@E$07@std@@V?$recursive_wrapper@UCertificate@v2@security@vanetza@@@boost@@V?$list@UCertificate@v2@security@vanetza@@V?$allocator@UCertificate@v2@security@vanetza@@@std@@@2@UCertificateDigestWithOtherAlgorithm@v2@security@vanetza@@@boost@@@variant@detail@boost@@QEAA_NAEAUThreeDLocation@v2@security@vanetza@@@Z
	??$?RUThreeDLocation@v2@security@vanetza@@@?$direct_assigner@V?$variant@V?$array@E$0M@@std@@$$V@boost@@@variant@detail@boost@@QEAA_NAEAUThreeDLocation@v2@security@vanetza@@@Z
	??$?RUThreeDLocation@v2@security@vanetza@@@?$direct_assigner@VIntX@v2@security@vanetza@@@variant@detail@boost@@QEAA_NAEAUThreeDLocation@v2@security@vanetza@@@Z
	??$?RUThreeDLocation@v2@security@vanetza@@@?$direct_assigner@_K@variant@detail@boost@@QEAA_NAEAUThreeDLocation@v2@security@vanetza@@@Z
	??$?RUThreeDLocation@v2@security@vanetza@@@?$get_visitor@$$CBV?$list@V?$array@E$02@std@@V?$allocator@V?$array@E$02@std@@@2@@std@@@variant@detail@boost@@QEBAPEBV?$list@V?$array@E$02@std@@V?$allocator@V?$array@E$02@std@@@2@@std@@AEBUThreeDLocation@v2@security@vanetza@@@Z
	??$?RUThreeDLocation@v2@security@vanetza@@@?$get_visitor@$$CBV?$variant@$$TV?$array@E$07@std@@V?$recursive_wrapper@UCertificate@v2@security@vanetza@@@boost@@V?$list@UCertificate@v2@security@vanetza@@V?$allocator@UCertificate@v2@security@vanetza@@@std@@@2@UCertificateDigestWithOtherAlgorithm@v2@security@vanetza@@@boost@@@variant@detail@boost@@QEBAPEBV?$variant@$$TV?$array@E$07@std@@V?$recursive_wrapper@UCertificate@v2@security@vanetza@@@boost@@V?$list@UCertificate@v2@security@vanetza@@V?$allocator@UCertificate@v2@security@vanetza@@@std@@@2@UCertificateDigestWithOtherAlgorithm@v2@security@vanetza@@@3@AEBUThreeDLocation@v2@security@vanetza@@@Z
	??$?RUThreeDLocation@v2@security@vanetza@@@?$get_visitor@$$CBVIntX@v2@security@vanetza@@@variant@detail@boost@@QEBAPEBVIntX@v2@security@vanetza@@AEBUThreeDLocation@567@@Z
	??$?RUThreeDLocation@v2@security@vanetza@@@?$get_visitor@$$CB_K@variant@detail@boost@@QEBAPEB_KAEBUThreeDLocation@v2@security@vanetza@@@Z
	??$?RUTime64WithStandardDeviation@v2@security@vanetza@@@?$direct_assigner@I@variant@detail@boost@@QEAA_NAEAUTime64WithStandardDeviation@v2@security@vanetza@@@Z
	??$?RUTime64WithStandardDeviation@v2@security@vanetza@@@?$direct_assigner@UThreeDLocation@v2@security@vanetza@@@variant@detail@boost@@QEAA_NAEAUTime64WithStandardDeviation@v2@security@vanetza@@@Z
	??$?RUTime64WithStandardDeviation@v2@security@vanetza@@@?$direct_assigner@V?$list@URecipientInfo@v2@security@vanetza@@V?$allocator@URecipientInfo@v2@security@vanetza@@@std@@@std@@@variant@detail@boost@@QEAA_NAEAUTime64WithStandardDeviation@v2@security@vanetza@@@Z
	??$?RUTime64WithStandardDeviation@v2@security@vanetza@@@?$direct_assigner@V?$list@V?$array@E$02@std@@V?$allocator@V?$array@E$02@std@@@2@@std@@@variant@detail@boost@@QEAA_NAEAUTime64WithStandardDeviation@v2@security@vanetza@@@Z
	??$?RUTime64WithStandardDeviation@v2@security@vanetza@@@?$direct_assigner@V?$variant@$$TV?$array@E$07@std@@V?$recursive_wrapper@UCertificate@v2@security@vanetza@@@boost@@V?$list@UCertificate@v2@security@vanetza@@V?$allocator@UCertificate@v2@security@vanetza@@@std@@@2@UCertificateDigestWithOtherAlgorithm@v2@security@vanetza@@@boost@@@variant@detail@boost@@QEAA_NAEAUTime64WithStandardDeviation@v2@security@vanetza@@@Z
	??$?RUTime64WithStandardDeviation@v2@security@vanetza@@@?$direct_assigner@V?$variant@V?$array@E$0M@@std@@$$V@boost@@@variant@detail@boost@@QEAA_NAEAUTime64WithStandardDeviation@v2@security@vanetza@@@Z
	??$?RUTime64WithStandardDeviation@v2@security@vanetza@@@?$direct_assigner@VIntX@v2@security@vanetza@@@variant@detail@boost@@QEAA_NAEAUTime64WithStandardDeviation@v2@security@vanetza@@@Z
	??$?RUTime64WithStandardDeviation@v2@security@vanetza@@@?$direct_assigner@_K@variant@detail@boost@@QEAA_NAEAUTime64WithStandardDeviation@v2@security@vanetza@@@Z
	??$?RUTime64WithStandardDeviation@v2@security@vanetza@@@?$get_visitor@$$CBUThreeDLocation@v2@security@vanetza@@@variant@detail@boost@@QEBAPEBUThreeDLocation@v2@security@vanetza@@AEBUTime64WithStandardDeviation@567@@Z
	??$?RUTime64WithStandardDeviation@v2@security@vanetza@@@?$get_visitor@$$CBV?$list@V?$array@E$02@std@@V?$allocator@V?$array@E$02@std@@@2@@std@@@variant@detail@boost@@QEBAPEBV?$list@V?$array@E$02@std@@V?$allocator@V?$array@E$02@std@@@2@@std@@AEBUTime64WithStandardDeviation@v2@security@vanetza@@@Z
	??$?RUTime64WithStandardDeviation@v2@security@vanetza@@@?$get_visitor@$$CBV?$variant@$$TV?$array@E$07@std@@V?$recursive_wrapper@UCertificate@v2@security@vanetza@@@boost@@V?$list@UCertificate@v2@security@vanetza@@V?$allocator@UCertificate@v2@security@vanetza@@@std@@@2@UCertificateDigestWithOtherAlgorithm@v2@security@vanetza@@@boost@@@variant@detail@boost@@QEBAPEBV?$variant@$$TV?$array@E$07@std@@V?$recursive_wrapper@UCertificate@v2@security@vanetza@@@boost@@V?$list@UCertificate@v2@security@vanetza@@V?$allocator@UCertificate@v2@security@vanetza@@@std@@@2@UCertificateDigestWithOtherAlgorithm@v2@security@vanetza@@@3@AEBUTime64WithStandardDeviation@v2@security@vanetza@@@Z
	??$?RUTime64WithStandardDeviation@v2@security@vanetza@@@?$get_visitor@$$CBVIntX@v2@security@vanetza@@@variant@detail@boost@@QEBAPEBVIntX@v2@security@vanetza@@AEBUTime64WithStandardDeviation@567@@Z
	??$?RUTime64WithStandardDeviation@v2@security@vanetza@@@?$get_visitor@$$CB_K@variant@detail@boost@@QEBAPEB_KAEBUTime64WithStandardDeviation@v2@security@vanetza@@@Z
	??$?RUUncompressed@security@vanetza@@@?$direct_assigner@UCompressed_Lsb_Y_0@security@vanetza@@@variant@detail@boost@@QEAA_NAEAUUncompressed@security@vanetza@@@Z
	??$?RUUncompressed@security@vanetza@@@?$direct_assigner@UCompressed_Lsb_Y_1@security@vanetza@@@variant@detail@boost@@QEAA_NAEAUUncompressed@security@vanetza@@@Z
	??$?RUUncompressed@security@vanetza@@@?$direct_assigner@UX_Coordinate_Only@security@vanetza@@@variant@detail@boost@@QEAA_NAEAUUncompressed@security@vanetza@@@Z
	??$?RUUncompressed@security@vanetza@@@?$direct_mover@UX_Coordinate_Only@security@vanetza@@@variant@detail@boost@@QEAA_NAEAUUncompressed@security@vanetza@@@Z
	??$?RUUncompressed@security@vanetza@@@EccPointVisitor@security@vanetza@@QEAA?AV?$vector@EV?$allocator@E@std@@@std@@AEBUUncompressed@12@@Z
	??$?RUVerificationKey@v2@security@vanetza@@@?$direct_assigner@UEncryptionKey@v2@security@vanetza@@@variant@detail@boost@@QEAA_NAEAUVerificationKey@v2@security@vanetza@@@Z
	??$?RUVerificationKey@v2@security@vanetza@@@?$direct_assigner@USubjectAssurance@v2@security@vanetza@@@variant@detail@boost@@QEAA_NAEAUVerificationKey@v2@security@vanetza@@@Z
	??$?RUVerificationKey@v2@security@vanetza@@@?$direct_assigner@V?$list@UItsAidSsp@v2@security@vanetza@@V?$allocator@UItsAidSsp@v2@security@vanetza@@@std@@@std@@@variant@detail@boost@@QEAA_NAEAUVerificationKey@v2@security@vanetza@@@Z
	??$?RUVerificationKey@v2@security@vanetza@@@?$direct_assigner@V?$list@VIntX@v2@security@vanetza@@V?$allocator@VIntX@v2@security@vanetza@@@std@@@std@@@variant@detail@boost@@QEAA_NAEAUVerificationKey@v2@security@vanetza@@@Z
	??$?RUVerificationKey@v2@security@vanetza@@@?$get_visitor@$$CBUSubjectAssurance@v2@security@vanetza@@@variant@detail@boost@@QEBAPEBUSubjectAssurance@v2@security@vanetza@@AEBUVerificationKey@567@@Z
	??$?RUVerificationKey@v2@security@vanetza@@@?$get_visitor@$$CBV?$list@UItsAidSsp@v2@security@vanetza@@V?$allocator@UItsAidSsp@v2@security@vanetza@@@std@@@std@@@variant@detail@boost@@QEBAPEBV?$list@UItsAidSsp@v2@security@vanetza@@V?$allocator@UItsAidSsp@v2@security@vanetza@@@std@@@std@@AEBUVerificationKey@v2@security@vanetza@@@Z
	??$?RUVerificationKey@v2@security@vanetza@@@?$get_visitor@$$CBV?$list@VIntX@v2@security@vanetza@@V?$allocator@VIntX@v2@security@vanetza@@@std@@@std@@@variant@detail@boost@@QEBAPEBV?$list@VIntX@v2@security@vanetza@@V?$allocator@VIntX@v2@security@vanetza@@@std@@@std@@AEBUVerificationKey@v2@security@vanetza@@@Z
	??$?RUVerificationKey@v2@security@vanetza@@@?$get_visitor@V?$list@UItsAidSsp@v2@security@vanetza@@V?$allocator@UItsAidSsp@v2@security@vanetza@@@std@@@std@@@variant@detail@boost@@QEBAPEAV?$list@UItsAidSsp@v2@security@vanetza@@V?$allocator@UItsAidSsp@v2@security@vanetza@@@std@@@std@@AEBUVerificationKey@v2@security@vanetza@@@Z
	??$?RUVerificationKey@v2@security@vanetza@@@?$get_visitor@V?$list@VIntX@v2@security@vanetza@@V?$allocator@VIntX@v2@security@vanetza@@@std@@@std@@@variant@detail@boost@@QEBAPEAV?$list@VIntX@v2@security@vanetza@@V?$allocator@VIntX@v2@security@vanetza@@@std@@@std@@AEBUVerificationKey@v2@security@vanetza@@@Z
	??$?RUX_Coordinate_Only@security@vanetza@@@?$direct_assigner@UCompressed_Lsb_Y_0@security@vanetza@@@variant@detail@boost@@QEAA_NAEAUX_Coordinate_Only@security@vanetza@@@Z
	??$?RUX_Coordinate_Only@security@vanetza@@@?$direct_assigner@UCompressed_Lsb_Y_1@security@vanetza@@@variant@detail@boost@@QEAA_NAEAUX_Coordinate_Only@security@vanetza@@@Z
	??$?RUX_Coordinate_Only@security@vanetza@@@?$direct_assigner@UUncompressed@security@vanetza@@@variant@detail@boost@@QEAA_NAEAUX_Coordinate_Only@security@vanetza@@@Z
	??$?RUX_Coordinate_Only@security@vanetza@@@EccPointVisitor@security@vanetza@@QEAA?AV?$vector@EV?$allocator@E@std@@@std@@AEBUX_Coordinate_Only@12@@Z
	??$?RUblank@boost@@@?$direct_assigner@W4VerificationReport@security@vanetza@@@variant@detail@boost@@QEAA_NAEAUblank@3@@Z
	??$?RUecdsa_nistp256_with_sha256@v2@security@vanetza@@@?$direct_assigner@Uecies_nistp256@v2@security@vanetza@@@variant@detail@boost@@QEAA_NAEAUecdsa_nistp256_with_sha256@v2@security@vanetza@@@Z
	??$?RUecies_nistp256@v2@security@vanetza@@@?$direct_assigner@Uecdsa_nistp256_with_sha256@v2@security@vanetza@@@variant@detail@boost@@QEAA_NAEAUecies_nistp256@v2@security@vanetza@@@Z
	??$?RUecies_nistp256@v2@security@vanetza@@@?$get_visitor@$$CBUecdsa_nistp256_with_sha256@v2@security@vanetza@@@variant@detail@boost@@QEBAPEBUecdsa_nistp256_with_sha256@v2@security@vanetza@@AEBUecies_nistp256@567@@Z
	??$?RV?$array@E$02@std@@@?$_Uhash_compare@V?$array@E$02@std@@U?$hash@V?$array@E$02@std@@@2@U?$equal_to@V?$array@E$02@std@@@2@@std@@QEBA_KAEBV?$array@E$02@1@@Z
	??$?RV?$array@E$02@std@@V01@@?$_Uhash_compare@V?$array@E$02@std@@U?$hash@V?$array@E$02@std@@@2@U?$equal_to@V?$array@E$02@std@@@2@@std@@QEBA_NAEBV?$array@E$02@1@0@Z
	??$?RV?$array@E$07@std@@@?$_Uhash_compare@V?$array@E$07@std@@U?$hash@V?$array@E$07@std@@@2@U?$equal_to@V?$array@E$07@std@@@2@@std@@QEBA_KAEBV?$array@E$07@1@@Z
	??$?RV?$array@E$07@std@@@?$direct_assigner@UCertificate@v2@security@vanetza@@@variant@detail@boost@@QEAA_NAEAV?$array@E$07@std@@@Z
	??$?RV?$array@E$07@std@@@?$direct_assigner@UCertificateDigestWithOtherAlgorithm@v2@security@vanetza@@@variant@detail@boost@@QEAA_NAEAV?$array@E$07@std@@@Z
	??$?RV?$array@E$07@std@@@?$direct_assigner@V?$list@UCertificate@v2@security@vanetza@@V?$allocator@UCertificate@v2@security@vanetza@@@std@@@std@@@variant@detail@boost@@QEAA_NAEAV?$array@E$07@std@@@Z
	??$?RV?$array@E$07@std@@@?$direct_mover@$$T@variant@detail@boost@@QEAA_NAEAV?$array@E$07@std@@@Z
	??$?RV?$array@E$07@std@@@?$get_visitor@$$CBUCertificate@v2@security@vanetza@@@variant@detail@boost@@QEBAPEBUCertificate@v2@security@vanetza@@AEBV?$array@E$07@std@@@Z
	??$?RV?$array@E$07@std@@@?$get_visitor@$$CBV?$list@UCertificate@v2@security@vanetza@@V?$allocator@UCertificate@v2@security@vanetza@@@std@@@std@@@variant@detail@boost@@QEBAPEBV?$list@UCertificate@v2@security@vanetza@@V?$allocator@UCertificate@v2@security@vanetza@@@std@@@std@@AEBV?$array@E$07@5@@Z
	??$?RV?$array@E$07@std@@V01@@?$_Uhash_compare@V?$array@E$07@std@@U?$hash@V?$array@E$07@std@@@2@U?$equal_to@V?$array@E$07@std@@@2@@std@@QEBA_NAEBV?$array@E$07@1@0@Z
	??$?RV?$list@UCertificate@v2@security@vanetza@@V?$allocator@UCertificate@v2@security@vanetza@@@std@@@std@@@?$direct_assigner@UCertificate@v2@security@vanetza@@@variant@detail@boost@@QEAA_NAEAV?$list@UCertificate@v2@security@vanetza@@V?$allocator@UCertificate@v2@security@vanetza@@@std@@@std@@@Z
	??$?RV?$list@UCertificate@v2@security@vanetza@@V?$allocator@UCertificate@v2@security@vanetza@@@std@@@std@@@?$direct_assigner@UCertificateDigestWithOtherAlgorithm@v2@security@vanetza@@@variant@detail@boost@@QEAA_NAEAV?$list@UCertificate@v2@security@vanetza@@V?$allocator@UCertificate@v2@security@vanetza@@@std@@@std@@@Z
	??$?RV?$list@UCertificate@v2@security@vanetza@@V?$allocator@UCertificate@v2@security@vanetza@@@std@@@std@@@?$direct_assigner@V?$array@E$07@std@@@variant@detail@boost@@QEAA_NAEAV?$list@UCertificate@v2@security@vanetza@@V?$allocator@UCertificate@v2@security@vanetza@@@std@@@std@@@Z
	??$?RV?$list@UCertificate@v2@security@vanetza@@V?$allocator@UCertificate@v2@security@vanetza@@@std@@@std@@@?$direct_mover@$$T@variant@detail@boost@@QEAA_NAEAV?$list@UCertificate@v2@security@vanetza@@V?$allocator@UCertificate@v2@security@vanetza@@@std@@@std@@@Z
	??$?RV?$list@UCertificate@v2@security@vanetza@@V?$allocator@UCertificate@v2@security@vanetza@@@std@@@std@@@?$direct_mover@V?$array@E$07@std@@@variant@detail@boost@@QEAA_NAEAV?$list@UCertificate@v2@security@vanetza@@V?$allocator@UCertificate@v2@security@vanetza@@@std@@@std@@@Z
	??$?RV?$list@UCertificate@v2@security@vanetza@@V?$allocator@UCertificate@v2@security@vanetza@@@std@@@std@@@?$get_visitor@$$CBUCertificate@v2@security@vanetza@@@variant@detail@boost@@QEBAPEBUCertificate@v2@security@vanetza@@AEBV?$list@UCertificate@v2@security@vanetza@@V?$allocator@UCertificate@v2@security@vanetza@@@std@@@std@@@Z
	??$?RV?$list@UCertificate@v2@security@vanetza@@V?$allocator@UCertificate@v2@security@vanetza@@@std@@@std@@@?$get_visitor@$$CBV?$array@E$07@std@@@variant@detail@boost@@QEBAPEBV?$array@E$07@std@@AEBV?$list@UCertificate@v2@security@vanetza@@V?$allocator@UCertificate@v2@security@vanetza@@@std@@@5@@Z
	??$?RV?$list@UCertificate@v2@security@vanetza@@V?$allocator@UCertificate@v2@security@vanetza@@@std@@@std@@@?$get_visitor@V?$array@E$07@std@@@variant@detail@boost@@QEBAPEAV?$array@E$07@std@@AEBV?$list@UCertificate@v2@security@vanetza@@V?$allocator@UCertificate@v2@security@vanetza@@@std@@@5@@Z
	??$?RV?$list@UItsAidSsp@v2@security@vanetza@@V?$allocator@UItsAidSsp@v2@security@vanetza@@@std@@@std@@@?$direct_assigner@UEncryptionKey@v2@security@vanetza@@@variant@detail@boost@@QEAA_NAEAV?$list@UItsAidSsp@v2@security@vanetza@@V?$allocator@UItsAidSsp@v2@security@vanetza@@@std@@@std@@@Z
	??$?RV?$list@UItsAidSsp@v2@security@vanetza@@V?$allocator@UItsAidSsp@v2@security@vanetza@@@std@@@std@@@?$direct_assigner@USubjectAssurance@v2@security@vanetza@@@variant@detail@boost@@QEAA_NAEAV?$list@UItsAidSsp@v2@security@vanetza@@V?$allocator@UItsAidSsp@v2@security@vanetza@@@std@@@std@@@Z
	??$?RV?$list@UItsAidSsp@v2@security@vanetza@@V?$allocator@UItsAidSsp@v2@security@vanetza@@@std@@@std@@@?$direct_assigner@UVerificationKey@v2@security@vanetza@@@variant@detail@boost@@QEAA_NAEAV?$list@UItsAidSsp@v2@security@vanetza@@V?$allocator@UItsAidSsp@v2@security@vanetza@@@std@@@std@@@Z
	??$?RV?$list@UItsAidSsp@v2@security@vanetza@@V?$allocator@UItsAidSsp@v2@security@vanetza@@@std@@@std@@@?$direct_assigner@V?$list@VIntX@v2@security@vanetza@@V?$allocator@VIntX@v2@security@vanetza@@@std@@@std@@@variant@detail@boost@@QEAA_NAEAV?$list@UItsAidSsp@v2@security@vanetza@@V?$allocator@UItsAidSsp@v2@security@vanetza@@@std@@@std@@@Z
	??$?RV?$list@UItsAidSsp@v2@security@vanetza@@V?$allocator@UItsAidSsp@v2@security@vanetza@@@std@@@std@@@?$get_visitor@$$CBUSubjectAssurance@v2@security@vanetza@@@variant@detail@boost@@QEBAPEBUSubjectAssurance@v2@security@vanetza@@AEBV?$list@UItsAidSsp@v2@security@vanetza@@V?$allocator@UItsAidSsp@v2@security@vanetza@@@std@@@std@@@Z
	??$?RV?$list@UItsAidSsp@v2@security@vanetza@@V?$allocator@UItsAidSsp@v2@security@vanetza@@@std@@@std@@@?$get_visitor@$$CBUVerificationKey@v2@security@vanetza@@@variant@detail@boost@@QEBAPEBUVerificationKey@v2@security@vanetza@@AEBV?$list@UItsAidSsp@v2@security@vanetza@@V?$allocator@UItsAidSsp@v2@security@vanetza@@@std@@@std@@@Z
	??$?RV?$list@UItsAidSsp@v2@security@vanetza@@V?$allocator@UItsAidSsp@v2@security@vanetza@@@std@@@std@@@?$get_visitor@$$CBV?$list@VIntX@v2@security@vanetza@@V?$allocator@VIntX@v2@security@vanetza@@@std@@@std@@@variant@detail@boost@@QEBAPEBV?$list@VIntX@v2@security@vanetza@@V?$allocator@VIntX@v2@security@vanetza@@@std@@@std@@AEBV?$list@UItsAidSsp@v2@security@vanetza@@V?$allocator@UItsAidSsp@v2@security@vanetza@@@std@@@5@@Z
	??$?RV?$list@UItsAidSsp@v2@security@vanetza@@V?$allocator@UItsAidSsp@v2@security@vanetza@@@std@@@std@@@?$get_visitor@V?$list@VIntX@v2@security@vanetza@@V?$allocator@VIntX@v2@security@vanetza@@@std@@@std@@@variant@detail@boost@@QEBAPEAV?$list@VIntX@v2@security@vanetza@@V?$allocator@VIntX@v2@security@vanetza@@@std@@@std@@AEBV?$list@UItsAidSsp@v2@security@vanetza@@V?$allocator@UItsAidSsp@v2@security@vanetza@@@std@@@5@@Z
	??$?RV?$list@URecipientInfo@v2@security@vanetza@@V?$allocator@URecipientInfo@v2@security@vanetza@@@std@@@std@@@?$direct_assigner@I@variant@detail@boost@@QEAA_NAEAV?$list@URecipientInfo@v2@security@vanetza@@V?$allocator@URecipientInfo@v2@security@vanetza@@@std@@@std@@@Z
	??$?RV?$list@URecipientInfo@v2@security@vanetza@@V?$allocator@URecipientInfo@v2@security@vanetza@@@std@@@std@@@?$direct_assigner@UThreeDLocation@v2@security@vanetza@@@variant@detail@boost@@QEAA_NAEAV?$list@URecipientInfo@v2@security@vanetza@@V?$allocator@URecipientInfo@v2@security@vanetza@@@std@@@std@@@Z
	??$?RV?$list@URecipientInfo@v2@security@vanetza@@V?$allocator@URecipientInfo@v2@security@vanetza@@@std@@@std@@@?$direct_assigner@UTime64WithStandardDeviation@v2@security@vanetza@@@variant@detail@boost@@QEAA_NAEAV?$list@URecipientInfo@v2@security@vanetza@@V?$allocator@URecipientInfo@v2@security@vanetza@@@std@@@std@@@Z
	??$?RV?$list@URecipientInfo@v2@security@vanetza@@V?$allocator@URecipientInfo@v2@security@vanetza@@@std@@@std@@@?$direct_assigner@V?$list@V?$array@E$02@std@@V?$allocator@V?$array@E$02@std@@@2@@std@@@variant@detail@boost@@QEAA_NAEAV?$list@URecipientInfo@v2@security@vanetza@@V?$allocator@URecipientInfo@v2@security@vanetza@@@std@@@std@@@Z
	??$?RV?$list@URecipientInfo@v2@security@vanetza@@V?$allocator@URecipientInfo@v2@security@vanetza@@@std@@@std@@@?$direct_assigner@V?$variant@$$TV?$array@E$07@std@@V?$recursive_wrapper@UCertificate@v2@security@vanetza@@@boost@@V?$list@UCertificate@v2@security@vanetza@@V?$allocator@UCertificate@v2@security@vanetza@@@std@@@2@UCertificateDigestWithOtherAlgorithm@v2@security@vanetza@@@boost@@@variant@detail@boost@@QEAA_NAEAV?$list@URecipientInfo@v2@security@vanetza@@V?$allocator@URecipientInfo@v2@security@vanetza@@@std@@@std@@@Z
	??$?RV?$list@URecipientInfo@v2@security@vanetza@@V?$allocator@URecipientInfo@v2@security@vanetza@@@std@@@std@@@?$direct_assigner@V?$variant@V?$array@E$0M@@std@@$$V@boost@@@variant@detail@boost@@QEAA_NAEAV?$list@URecipientInfo@v2@security@vanetza@@V?$allocator@URecipientInfo@v2@security@vanetza@@@std@@@std@@@Z
	??$?RV?$list@URecipientInfo@v2@security@vanetza@@V?$allocator@URecipientInfo@v2@security@vanetza@@@std@@@std@@@?$direct_assigner@VIntX@v2@security@vanetza@@@variant@detail@boost@@QEAA_NAEAV?$list@URecipientInfo@v2@security@vanetza@@V?$allocator@URecipientInfo@v2@security@vanetza@@@std@@@std@@@Z
	??$?RV?$list@URecipientInfo@v2@security@vanetza@@V?$allocator@URecipientInfo@v2@security@vanetza@@@std@@@std@@@?$direct_assigner@_K@variant@detail@boost@@QEAA_NAEAV?$list@URecipientInfo@v2@security@vanetza@@V?$allocator@URecipientInfo@v2@security@vanetza@@@std@@@std@@@Z
	??$?RV?$list@URecipientInfo@v2@security@vanetza@@V?$allocator@URecipientInfo@v2@security@vanetza@@@std@@@std@@@?$get_visitor@$$CBUThreeDLocation@v2@security@vanetza@@@variant@detail@boost@@QEBAPEBUThreeDLocation@v2@security@vanetza@@AEBV?$list@URecipientInfo@v2@security@vanetza@@V?$allocator@URecipientInfo@v2@security@vanetza@@@std@@@std@@@Z
	??$?RV?$list@URecipientInfo@v2@security@vanetza@@V?$allocator@URecipientInfo@v2@security@vanetza@@@std@@@std@@@?$get_visitor@$$CBV?$list@V?$array@E$02@std@@V?$allocator@V?$array@E$02@std@@@2@@std@@@variant@detail@boost@@QEBAPEBV?$list@V?$array@E$02@std@@V?$allocator@V?$array@E$02@std@@@2@@std@@AEBV?$list@URecipientInfo@v2@security@vanetza@@V?$allocator@URecipientInfo@v2@security@vanetza@@@std@@@5@@Z
	??$?RV?$list@URecipientInfo@v2@security@vanetza@@V?$allocator@URecipientInfo@v2@security@vanetza@@@std@@@std@@@?$get_visitor@$$CBV?$variant@$$TV?$array@E$07@std@@V?$recursive_wrapper@UCertificate@v2@security@vanetza@@@boost@@V?$list@UCertificate@v2@security@vanetza@@V?$allocator@UCertificate@v2@security@vanetza@@@std@@@2@UCertificateDigestWithOtherAlgorithm@v2@security@vanetza@@@boost@@@variant@detail@boost@@QEBAPEBV?$variant@$$TV?$array@E$07@std@@V?$recursive_wrapper@UCertificate@v2@security@vanetza@@@boost@@V?$list@UCertificate@v2@security@vanetza@@V?$allocator@UCertificate@v2@security@vanetza@@@std@@@2@UCertificateDigestWithOtherAlgorithm@v2@security@vanetza@@@3@AEBV?$list@URecipientInfo@v2@security@vanetza@@V?$allocator@URecipientInfo@v2@security@vanetza@@@std@@@std@@@Z
	??$?RV?$list@URecipientInfo@v2@security@vanetza@@V?$allocator@URecipientInfo@v2@security@vanetza@@@std@@@std@@@?$get_visitor@$$CBVIntX@v2@security@vanetza@@@variant@detail@boost@@QEBAPEBVIntX@v2@security@vanetza@@AEBV?$list@URecipientInfo@v2@security@vanetza@@V?$allocator@URecipientInfo@v2@security@vanetza@@@std@@@std@@@Z
	??$?RV?$list@URecipientInfo@v2@security@vanetza@@V?$allocator@URecipientInfo@v2@security@vanetza@@@std@@@std@@@?$get_visitor@$$CB_K@variant@detail@boost@@QEBAPEB_KAEBV?$list@URecipientInfo@v2@security@vanetza@@V?$allocator@URecipientInfo@v2@security@vanetza@@@std@@@std@@@Z
	??$?RV?$list@URectangularRegion@v2@security@vanetza@@V?$allocator@URectangularRegion@v2@security@vanetza@@@std@@@std@@@?$direct_assigner@UCircularRegion@v2@security@vanetza@@@variant@detail@boost@@QEAA_NAEAV?$list@URectangularRegion@v2@security@vanetza@@V?$allocator@URectangularRegion@v2@security@vanetza@@@std@@@std@@@Z
	??$?RV?$list@URectangularRegion@v2@security@vanetza@@V?$allocator@URectangularRegion@v2@security@vanetza@@@std@@@std@@@?$direct_assigner@UIdentifiedRegion@v2@security@vanetza@@@variant@detail@boost@@QEAA_NAEAV?$list@URectangularRegion@v2@security@vanetza@@V?$allocator@URectangularRegion@v2@security@vanetza@@@std@@@std@@@Z
	??$?RV?$list@URectangularRegion@v2@security@vanetza@@V?$allocator@URectangularRegion@v2@security@vanetza@@@std@@@std@@@?$direct_assigner@UNoneRegion@v2@security@vanetza@@@variant@detail@boost@@QEAA_NAEAV?$list@URectangularRegion@v2@security@vanetza@@V?$allocator@URectangularRegion@v2@security@vanetza@@@std@@@std@@@Z
	??$?RV?$list@URectangularRegion@v2@security@vanetza@@V?$allocator@URectangularRegion@v2@security@vanetza@@@std@@@std@@@?$direct_assigner@V?$list@UTwoDLocation@v2@security@vanetza@@V?$allocator@UTwoDLocation@v2@security@vanetza@@@std@@@std@@@variant@detail@boost@@QEAA_NAEAV?$list@URectangularRegion@v2@security@vanetza@@V?$allocator@URectangularRegion@v2@security@vanetza@@@std@@@std@@@Z
	??$?RV?$list@UTwoDLocation@v2@security@vanetza@@V?$allocator@UTwoDLocation@v2@security@vanetza@@@std@@@std@@@?$direct_assigner@UCircularRegion@v2@security@vanetza@@@variant@detail@boost@@QEAA_NAEAV?$list@UTwoDLocation@v2@security@vanetza@@V?$allocator@UTwoDLocation@v2@security@vanetza@@@std@@@std@@@Z
	??$?RV?$list@UTwoDLocation@v2@security@vanetza@@V?$allocator@UTwoDLocation@v2@security@vanetza@@@std@@@std@@@?$direct_assigner@UIdentifiedRegion@v2@security@vanetza@@@variant@detail@boost@@QEAA_NAEAV?$list@UTwoDLocation@v2@security@vanetza@@V?$allocator@UTwoDLocation@v2@security@vanetza@@@std@@@std@@@Z
	??$?RV?$list@UTwoDLocation@v2@security@vanetza@@V?$allocator@UTwoDLocation@v2@security@vanetza@@@std@@@std@@@?$direct_assigner@UNoneRegion@v2@security@vanetza@@@variant@detail@boost@@QEAA_NAEAV?$list@UTwoDLocation@v2@security@vanetza@@V?$allocator@UTwoDLocation@v2@security@vanetza@@@std@@@std@@@Z
	??$?RV?$list@UTwoDLocation@v2@security@vanetza@@V?$allocator@UTwoDLocation@v2@security@vanetza@@@std@@@std@@@?$direct_assigner@V?$list@URectangularRegion@v2@security@vanetza@@V?$allocator@URectangularRegion@v2@security@vanetza@@@std@@@std@@@variant@detail@boost@@QEAA_NAEAV?$list@UTwoDLocation@v2@security@vanetza@@V?$allocator@UTwoDLocation@v2@security@vanetza@@@std@@@std@@@Z
	??$?RV?$list@V?$array@E$02@std@@V?$allocator@V?$array@E$02@std@@@2@@std@@@?$direct_assigner@I@variant@detail@boost@@QEAA_NAEAV?$list@V?$array@E$02@std@@V?$allocator@V?$array@E$02@std@@@2@@std@@@Z
	??$?RV?$list@V?$array@E$02@std@@V?$allocator@V?$array@E$02@std@@@2@@std@@@?$direct_assigner@UThreeDLocation@v2@security@vanetza@@@variant@detail@boost@@QEAA_NAEAV?$list@V?$array@E$02@std@@V?$allocator@V?$array@E$02@std@@@2@@std@@@Z
	??$?RV?$list@V?$array@E$02@std@@V?$allocator@V?$array@E$02@std@@@2@@std@@@?$direct_assigner@UTime64WithStandardDeviation@v2@security@vanetza@@@variant@detail@boost@@QEAA_NAEAV?$list@V?$array@E$02@std@@V?$allocator@V?$array@E$02@std@@@2@@std@@@Z
	??$?RV?$list@V?$array@E$02@std@@V?$allocator@V?$array@E$02@std@@@2@@std@@@?$direct_assigner@V?$list@URecipientInfo@v2@security@vanetza@@V?$allocator@URecipientInfo@v2@security@vanetza@@@std@@@std@@@variant@detail@boost@@QEAA_NAEAV?$list@V?$array@E$02@std@@V?$allocator@V?$array@E$02@std@@@2@@std@@@Z
	??$?RV?$list@V?$array@E$02@std@@V?$allocator@V?$array@E$02@std@@@2@@std@@@?$direct_assigner@V?$variant@$$TV?$array@E$07@std@@V?$recursive_wrapper@UCertificate@v2@security@vanetza@@@boost@@V?$list@UCertificate@v2@security@vanetza@@V?$allocator@UCertificate@v2@security@vanetza@@@std@@@2@UCertificateDigestWithOtherAlgorithm@v2@security@vanetza@@@boost@@@variant@detail@boost@@QEAA_NAEAV?$list@V?$array@E$02@std@@V?$allocator@V?$array@E$02@std@@@2@@std@@@Z
	??$?RV?$list@V?$array@E$02@std@@V?$allocator@V?$array@E$02@std@@@2@@std@@@?$direct_assigner@V?$variant@V?$array@E$0M@@std@@$$V@boost@@@variant@detail@boost@@QEAA_NAEAV?$list@V?$array@E$02@std@@V?$allocator@V?$array@E$02@std@@@2@@std@@@Z
	??$?RV?$list@V?$array@E$02@std@@V?$allocator@V?$array@E$02@std@@@2@@std@@@?$direct_assigner@VIntX@v2@security@vanetza@@@variant@detail@boost@@QEAA_NAEAV?$list@V?$array@E$02@std@@V?$allocator@V?$array@E$02@std@@@2@@std@@@Z
	??$?RV?$list@V?$array@E$02@std@@V?$allocator@V?$array@E$02@std@@@2@@std@@@?$direct_assigner@_K@variant@detail@boost@@QEAA_NAEAV?$list@V?$array@E$02@std@@V?$allocator@V?$array@E$02@std@@@2@@std@@@Z
	??$?RV?$list@V?$array@E$02@std@@V?$allocator@V?$array@E$02@std@@@2@@std@@@?$get_visitor@$$CBUThreeDLocation@v2@security@vanetza@@@variant@detail@boost@@QEBAPEBUThreeDLocation@v2@security@vanetza@@AEBV?$list@V?$array@E$02@std@@V?$allocator@V?$array@E$02@std@@@2@@std@@@Z
	??$?RV?$list@V?$array@E$02@std@@V?$allocator@V?$array@E$02@std@@@2@@std@@@?$get_visitor@$$CBV?$variant@$$TV?$array@E$07@std@@V?$recursive_wrapper@UCertificate@v2@security@vanetza@@@boost@@V?$list@UCertificate@v2@security@vanetza@@V?$allocator@UCertificate@v2@security@vanetza@@@std@@@2@UCertificateDigestWithOtherAlgorithm@v2@security@vanetza@@@boost@@@variant@detail@boost@@QEBAPEBV?$variant@$$TV?$array@E$07@std@@V?$recursive_wrapper@UCertificate@v2@security@vanetza@@@boost@@V?$list@UCertificate@v2@security@vanetza@@V?$allocator@UCertificate@v2@security@vanetza@@@std@@@2@UCertificateDigestWithOtherAlgorithm@v2@security@vanetza@@@3@AEBV?$list@V?$array@E$02@std@@V?$allocator@V?$array@E$02@std@@@2@@std@@@Z
	??$?RV?$list@V?$array@E$02@std@@V?$allocator@V?$array@E$02@std@@@2@@std@@@?$get_visitor@$$CBVIntX@v2@security@vanetza@@@variant@detail@boost@@QEBAPEBVIntX@v2@security@vanetza@@AEBV?$list@V?$array@E$02@std@@V?$allocator@V?$array@E$02@std@@@2@@std@@@Z
	??$?RV?$list@V?$array@E$02@std@@V?$allocator@V?$array@E$02@std@@@2@@std@@@?$get_visitor@$$CB_K@variant@detail@boost@@QEBAPEB_KAEBV?$list@V?$array@E$02@std@@V?$allocator@V?$array@E$02@std@@@2@@std@@@Z
	??$?RV?$list@VIntX@v2@security@vanetza@@V?$allocator@VIntX@v2@security@vanetza@@@std@@@std@@@?$direct_assigner@UEncryptionKey@v2@security@vanetza@@@variant@detail@boost@@QEAA_NAEAV?$list@VIntX@v2@security@vanetza@@V?$allocator@VIntX@v2@security@vanetza@@@std@@@std@@@Z
	??$?RV?$list@VIntX@v2@security@vanetza@@V?$allocator@VIntX@v2@security@vanetza@@@std@@@std@@@?$direct_assigner@USubjectAssurance@v2@security@vanetza@@@variant@detail@boost@@QEAA_NAEAV?$list@VIntX@v2@security@vanetza@@V?$allocator@VIntX@v2@security@vanetza@@@std@@@std@@@Z
	??$?RV?$list@VIntX@v2@security@vanetza@@V?$allocator@VIntX@v2@security@vanetza@@@std@@@std@@@?$direct_assigner@UVerificationKey@v2@security@vanetza@@@variant@detail@boost@@QEAA_NAEAV?$list@VIntX@v2@security@vanetza@@V?$allocator@VIntX@v2@security@vanetza@@@std@@@std@@@Z
	??$?RV?$list@VIntX@v2@security@vanetza@@V?$allocator@VIntX@v2@security@vanetza@@@std@@@std@@@?$direct_assigner@V?$list@UItsAidSsp@v2@security@vanetza@@V?$allocator@UItsAidSsp@v2@security@vanetza@@@std@@@std@@@variant@detail@boost@@QEAA_NAEAV?$list@VIntX@v2@security@vanetza@@V?$allocator@VIntX@v2@security@vanetza@@@std@@@std@@@Z
	??$?RV?$list@VIntX@v2@security@vanetza@@V?$allocator@VIntX@v2@security@vanetza@@@std@@@std@@@?$get_visitor@$$CBUSubjectAssurance@v2@security@vanetza@@@variant@detail@boost@@QEBAPEBUSubjectAssurance@v2@security@vanetza@@AEBV?$list@VIntX@v2@security@vanetza@@V?$allocator@VIntX@v2@security@vanetza@@@std@@@std@@@Z
	??$?RV?$list@VIntX@v2@security@vanetza@@V?$allocator@VIntX@v2@security@vanetza@@@std@@@std@@@?$get_visitor@$$CBUVerificationKey@v2@security@vanetza@@@variant@detail@boost@@QEBAPEBUVerificationKey@v2@security@vanetza@@AEBV?$list@VIntX@v2@security@vanetza@@V?$allocator@VIntX@v2@security@vanetza@@@std@@@std@@@Z
	??$?RV?$list@VIntX@v2@security@vanetza@@V?$allocator@VIntX@v2@security@vanetza@@@std@@@std@@@?$get_visitor@$$CBV?$list@UItsAidSsp@v2@security@vanetza@@V?$allocator@UItsAidSsp@v2@security@vanetza@@@std@@@std@@@variant@detail@boost@@QEBAPEBV?$list@UItsAidSsp@v2@security@vanetza@@V?$allocator@UItsAidSsp@v2@security@vanetza@@@std@@@std@@AEBV?$list@VIntX@v2@security@vanetza@@V?$allocator@VIntX@v2@security@vanetza@@@std@@@5@@Z
	??$?RV?$list@VIntX@v2@security@vanetza@@V?$allocator@VIntX@v2@security@vanetza@@@std@@@std@@@?$get_visitor@V?$list@UItsAidSsp@v2@security@vanetza@@V?$allocator@UItsAidSsp@v2@security@vanetza@@@std@@@std@@@variant@detail@boost@@QEBAPEAV?$list@UItsAidSsp@v2@security@vanetza@@V?$allocator@UItsAidSsp@v2@security@vanetza@@@std@@@std@@AEBV?$list@VIntX@v2@security@vanetza@@V?$allocator@VIntX@v2@security@vanetza@@@std@@@5@@Z
	??$?RV?$variant@$$TV?$array@E$07@std@@V?$recursive_wrapper@UCertificate@v2@security@vanetza@@@boost@@V?$list@UCertificate@v2@security@vanetza@@V?$allocator@UCertificate@v2@security@vanetza@@@std@@@2@UCertificateDigestWithOtherAlgorithm@v2@security@vanetza@@@boost@@@?$direct_assigner@I@variant@detail@boost@@QEAA_NAEAV?$variant@$$TV?$array@E$07@std@@V?$recursive_wrapper@UCertificate@v2@security@vanetza@@@boost@@V?$list@UCertificate@v2@security@vanetza@@V?$allocator@UCertificate@v2@security@vanetza@@@std@@@2@UCertificateDigestWithOtherAlgorithm@v2@security@vanetza@@@3@@Z
	??$?RV?$variant@$$TV?$array@E$07@std@@V?$recursive_wrapper@UCertificate@v2@security@vanetza@@@boost@@V?$list@UCertificate@v2@security@vanetza@@V?$allocator@UCertificate@v2@security@vanetza@@@std@@@2@UCertificateDigestWithOtherAlgorithm@v2@security@vanetza@@@boost@@@?$direct_assigner@UThreeDLocation@v2@security@vanetza@@@variant@detail@boost@@QEAA_NAEAV?$variant@$$TV?$array@E$07@std@@V?$recursive_wrapper@UCertificate@v2@security@vanetza@@@boost@@V?$list@UCertificate@v2@security@vanetza@@V?$allocator@UCertificate@v2@security@vanetza@@@std@@@2@UCertificateDigestWithOtherAlgorithm@v2@security@vanetza@@@3@@Z
	??$?RV?$variant@$$TV?$array@E$07@std@@V?$recursive_wrapper@UCertificate@v2@security@vanetza@@@boost@@V?$list@UCertificate@v2@security@vanetza@@V?$allocator@UCertificate@v2@security@vanetza@@@std@@@2@UCertificateDigestWithOtherAlgorithm@v2@security@vanetza@@@boost@@@?$direct_assigner@UTime64WithStandardDeviation@v2@security@vanetza@@@variant@detail@boost@@QEAA_NAEAV?$variant@$$TV?$array@E$07@std@@V?$recursive_wrapper@UCertificate@v2@security@vanetza@@@boost@@V?$list@UCertificate@v2@security@vanetza@@V?$allocator@UCertificate@v2@security@vanetza@@@std@@@2@UCertificateDigestWithOtherAlgorithm@v2@security@vanetza@@@3@@Z
	??$?RV?$variant@$$TV?$array@E$07@std@@V?$recursive_wrapper@UCertificate@v2@security@vanetza@@@boost@@V?$list@UCertificate@v2@security@vanetza@@V?$allocator@UCertificate@v2@security@vanetza@@@std@@@2@UCertificateDigestWithOtherAlgorithm@v2@security@vanetza@@@boost@@@?$direct_assigner@V?$list@URecipientInfo@v2@security@vanetza@@V?$allocator@URecipientInfo@v2@security@vanetza@@@std@@@std@@@variant@detail@boost@@QEAA_NAEAV?$variant@$$TV?$array@E$07@std@@V?$recursive_wrapper@UCertificate@v2@security@vanetza@@@boost@@V?$list@UCertificate@v2@security@vanetza@@V?$allocator@UCertificate@v2@security@vanetza@@@std@@@2@UCertificateDigestWithOtherAlgorithm@v2@security@vanetza@@@3@@Z
	??$?RV?$variant@$$TV?$array@E$07@std@@V?$recursive_wrapper@UCertificate@v2@security@vanetza@@@boost@@V?$list@UCertificate@v2@security@vanetza@@V?$allocator@UCertificate@v2@security@vanetza@@@std@@@2@UCertificateDigestWithOtherAlgorithm@v2@security@vanetza@@@boost@@@?$direct_assigner@V?$list@V?$array@E$02@std@@V?$allocator@V?$array@E$02@std@@@2@@std@@@variant@detail@boost@@QEAA_NAEAV?$variant@$$TV?$array@E$07@std@@V?$recursive_wrapper@UCertificate@v2@security@vanetza@@@boost@@V?$list@UCertificate@v2@security@vanetza@@V?$allocator@UCertificate@v2@security@vanetza@@@std@@@2@UCertificateDigestWithOtherAlgorithm@v2@security@vanetza@@@3@@Z
	??$?RV?$variant@$$TV?$array@E$07@std@@V?$recursive_wrapper@UCertificate@v2@security@vanetza@@@boost@@V?$list@UCertificate@v2@security@vanetza@@V?$allocator@UCertificate@v2@security@vanetza@@@std@@@2@UCertificateDigestWithOtherAlgorithm@v2@security@vanetza@@@boost@@@?$direct_assigner@V?$variant@V?$array@E$0M@@std@@$$V@boost@@@variant@detail@boost@@QEAA_NAEAV?$variant@$$TV?$array@E$07@std@@V?$recursive_wrapper@UCertificate@v2@security@vanetza@@@boost@@V?$list@UCertificate@v2@security@vanetza@@V?$allocator@UCertificate@v2@security@vanetza@@@std@@@2@UCertificateDigestWithOtherAlgorithm@v2@security@vanetza@@@3@@Z
	??$?RV?$variant@$$TV?$array@E$07@std@@V?$recursive_wrapper@UCertificate@v2@security@vanetza@@@boost@@V?$list@UCertificate@v2@security@vanetza@@V?$allocator@UCertificate@v2@security@vanetza@@@std@@@2@UCertificateDigestWithOtherAlgorithm@v2@security@vanetza@@@boost@@@?$direct_assigner@VIntX@v2@security@vanetza@@@variant@detail@boost@@QEAA_NAEAV?$variant@$$TV?$array@E$07@std@@V?$recursive_wrapper@UCertificate@v2@security@vanetza@@@boost@@V?$list@UCertificate@v2@security@vanetza@@V?$allocator@UCertificate@v2@security@vanetza@@@std@@@2@UCertificateDigestWithOtherAlgorithm@v2@security@vanetza@@@3@@Z
	??$?RV?$variant@$$TV?$array@E$07@std@@V?$recursive_wrapper@UCertificate@v2@security@vanetza@@@boost@@V?$list@UCertificate@v2@security@vanetza@@V?$allocator@UCertificate@v2@security@vanetza@@@std@@@2@UCertificateDigestWithOtherAlgorithm@v2@security@vanetza@@@boost@@@?$direct_assigner@_K@variant@detail@boost@@QEAA_NAEAV?$variant@$$TV?$array@E$07@std@@V?$recursive_wrapper@UCertificate@v2@security@vanetza@@@boost@@V?$list@UCertificate@v2@security@vanetza@@V?$allocator@UCertificate@v2@security@vanetza@@@std@@@2@UCertificateDigestWithOtherAlgorithm@v2@security@vanetza@@@3@@Z
	??$?RV?$variant@$$TV?$array@E$07@std@@V?$recursive_wrapper@UCertificate@v2@security@vanetza@@@boost@@V?$list@UCertificate@v2@security@vanetza@@V?$allocator@UCertificate@v2@security@vanetza@@@std@@@2@UCertificateDigestWithOtherAlgorithm@v2@security@vanetza@@@boost@@@?$get_visitor@$$CBUThreeDLocation@v2@security@vanetza@@@variant@detail@boost@@QEBAPEBUThreeDLocation@v2@security@vanetza@@AEBV?$variant@$$TV?$array@E$07@std@@V?$recursive_wrapper@UCertificate@v2@security@vanetza@@@boost@@V?$list@UCertificate@v2@security@vanetza@@V?$allocator@UCertificate@v2@security@vanetza@@@std@@@2@UCertificateDigestWithOtherAlgorithm@v2@security@vanetza@@@3@@Z
	??$?RV?$variant@$$TV?$array@E$07@std@@V?$recursive_wrapper@UCertificate@v2@security@vanetza@@@boost@@V?$list@UCertificate@v2@security@vanetza@@V?$allocator@UCertificate@v2@security@vanetza@@@std@@@2@UCertificateDigestWithOtherAlgorithm@v2@security@vanetza@@@boost@@@?$get_visitor@$$CBV?$list@V?$array@E$02@std@@V?$allocator@V?$array@E$02@std@@@2@@std@@@variant@detail@boost@@QEBAPEBV?$list@V?$array@E$02@std@@V?$allocator@V?$array@E$02@std@@@2@@std@@AEBV?$variant@$$TV?$array@E$07@std@@V?$recursive_wrapper@UCertificate@v2@security@vanetza@@@boost@@V?$list@UCertificate@v2@security@vanetza@@V?$allocator@UCertificate@v2@security@vanetza@@@std@@@2@UCertificateDigestWithOtherAlgorithm@v2@security@vanetza@@@3@@Z
	??$?RV?$variant@$$TV?$array@E$07@std@@V?$recursive_wrapper@UCertificate@v2@security@vanetza@@@boost@@V?$list@UCertificate@v2@security@vanetza@@V?$allocator@UCertificate@v2@security@vanetza@@@std@@@2@UCertificateDigestWithOtherAlgorithm@v2@security@vanetza@@@boost@@@?$get_visitor@$$CBVIntX@v2@security@vanetza@@@variant@detail@boost@@QEBAPEBVIntX@v2@security@vanetza@@AEBV?$variant@$$TV?$array@E$07@std@@V?$recursive_wrapper@UCertificate@v2@security@vanetza@@@boost@@V?$list@UCertificate@v2@security@vanetza@@V?$allocator@UCertificate@v2@security@vanetza@@@std@@@2@UCertificateDigestWithOtherAlgorithm@v2@security@vanetza@@@3@@Z
	??$?RV?$variant@$$TV?$array@E$07@std@@V?$recursive_wrapper@UCertificate@v2@security@vanetza@@@boost@@V?$list@UCertificate@v2@security@vanetza@@V?$allocator@UCertificate@v2@security@vanetza@@@std@@@2@UCertificateDigestWithOtherAlgorithm@v2@security@vanetza@@@boost@@@?$get_visitor@$$CB_K@variant@detail@boost@@QEBAPEB_KAEBV?$variant@$$TV?$array@E$07@std@@V?$recursive_wrapper@UCertificate@v2@security@vanetza@@@boost@@V?$list@UCertificate@v2@security@vanetza@@V?$allocator@UCertificate@v2@security@vanetza@@@std@@@2@UCertificateDigestWithOtherAlgorithm@v2@security@vanetza@@@3@@Z
	??$?RV?$variant@UNoneRegion@v2@security@vanetza@@UCircularRegion@234@V?$list@URectangularRegion@v2@security@vanetza@@V?$allocator@URectangularRegion@v2@security@vanetza@@@std@@@std@@V?$list@UTwoDLocation@v2@security@vanetza@@V?$allocator@UTwoDLocation@v2@security@vanetza@@@std@@@7@UIdentifiedRegion@234@@boost@@@?$direct_assigner@I@variant@detail@boost@@QEAA_NAEAV?$variant@UNoneRegion@v2@security@vanetza@@UCircularRegion@234@V?$list@URectangularRegion@v2@security@vanetza@@V?$allocator@URectangularRegion@v2@security@vanetza@@@std@@@std@@V?$list@UTwoDLocation@v2@security@vanetza@@V?$allocator@UTwoDLocation@v2@security@vanetza@@@std@@@7@UIdentifiedRegion@234@@3@@Z
	??$?RV?$variant@UNoneRegion@v2@security@vanetza@@UCircularRegion@234@V?$list@URectangularRegion@v2@security@vanetza@@V?$allocator@URectangularRegion@v2@security@vanetza@@@std@@@std@@V?$list@UTwoDLocation@v2@security@vanetza@@V?$allocator@UTwoDLocation@v2@security@vanetza@@@std@@@7@UIdentifiedRegion@234@@boost@@@?$direct_assigner@UStartAndDurationValidity@v2@security@vanetza@@@variant@detail@boost@@QEAA_NAEAV?$variant@UNoneRegion@v2@security@vanetza@@UCircularRegion@234@V?$list@URectangularRegion@v2@security@vanetza@@V?$allocator@URectangularRegion@v2@security@vanetza@@@std@@@std@@V?$list@UTwoDLocation@v2@security@vanetza@@V?$allocator@UTwoDLocation@v2@security@vanetza@@@std@@@7@UIdentifiedRegion@234@@3@@Z
	??$?RV?$variant@UNoneRegion@v2@security@vanetza@@UCircularRegion@234@V?$list@URectangularRegion@v2@security@vanetza@@V?$allocator@URectangularRegion@v2@security@vanetza@@@std@@@std@@V?$list@UTwoDLocation@v2@security@vanetza@@V?$allocator@UTwoDLocation@v2@security@vanetza@@@std@@@7@UIdentifiedRegion@234@@boost@@@?$direct_assigner@UStartAndEndValidity@v2@security@vanetza@@@variant@detail@boost@@QEAA_NAEAV?$variant@UNoneRegion@v2@security@vanetza@@UCircularRegion@234@V?$list@URectangularRegion@v2@security@vanetza@@V?$allocator@URectangularRegion@v2@security@vanetza@@@std@@@std@@V?$list@UTwoDLocation@v2@security@vanetza@@V?$allocator@UTwoDLocation@v2@security@vanetza@@@std@@@7@UIdentifiedRegion@234@@3@@Z
	??$?RV?$variant@UNoneRegion@v2@security@vanetza@@UCircularRegion@234@V?$list@URectangularRegion@v2@security@vanetza@@V?$allocator@URectangularRegion@v2@security@vanetza@@@std@@@std@@V?$list@UTwoDLocation@v2@security@vanetza@@V?$allocator@UTwoDLocation@v2@security@vanetza@@@std@@@7@UIdentifiedRegion@234@@boost@@@?$get_visitor@$$CBUStartAndEndValidity@v2@security@vanetza@@@variant@detail@boost@@QEBAPEBUStartAndEndValidity@v2@security@vanetza@@AEBV?$variant@UNoneRegion@v2@security@vanetza@@UCircularRegion@234@V?$list@URectangularRegion@v2@security@vanetza@@V?$allocator@URectangularRegion@v2@security@vanetza@@@std@@@std@@V?$list@UTwoDLocation@v2@security@vanetza@@V?$allocator@UTwoDLocation@v2@security@vanetza@@@std@@@7@UIdentifiedRegion@234@@3@@Z
	??$?RV?$variant@UNoneRegion@v2@security@vanetza@@UCircularRegion@234@V?$list@URectangularRegion@v2@security@vanetza@@V?$allocator@URectangularRegion@v2@security@vanetza@@@std@@@std@@V?$list@UTwoDLocation@v2@security@vanetza@@V?$allocator@UTwoDLocation@v2@security@vanetza@@@std@@@7@UIdentifiedRegion@234@@boost@@@?$get_visitor@UStartAndEndValidity@v2@security@vanetza@@@variant@detail@boost@@QEBAPEAUStartAndEndValidity@v2@security@vanetza@@AEBV?$variant@UNoneRegion@v2@security@vanetza@@UCircularRegion@234@V?$list@URectangularRegion@v2@security@vanetza@@V?$allocator@URectangularRegion@v2@security@vanetza@@@std@@@std@@V?$list@UTwoDLocation@v2@security@vanetza@@V?$allocator@UTwoDLocation@v2@security@vanetza@@@std@@@7@UIdentifiedRegion@234@@3@@Z
	??$?RV?$variant@UX_Coordinate_Only@security@vanetza@@UCompressed_Lsb_Y_0@23@UCompressed_Lsb_Y_1@23@UUncompressed@23@@boost@@@?$direct_assigner@UEncryptionKey@v2@security@vanetza@@@variant@detail@boost@@QEAA_NAEAV?$variant@UX_Coordinate_Only@security@vanetza@@UCompressed_Lsb_Y_0@23@UCompressed_Lsb_Y_1@23@UUncompressed@23@@3@@Z
	??$?RV?$variant@UX_Coordinate_Only@security@vanetza@@UCompressed_Lsb_Y_0@23@UCompressed_Lsb_Y_1@23@UUncompressed@23@@boost@@@?$direct_assigner@USubjectAssurance@v2@security@vanetza@@@variant@detail@boost@@QEAA_NAEAV?$variant@UX_Coordinate_Only@security@vanetza@@UCompressed_Lsb_Y_0@23@UCompressed_Lsb_Y_1@23@UUncompressed@23@@3@@Z
	??$?RV?$variant@UX_Coordinate_Only@security@vanetza@@UCompressed_Lsb_Y_0@23@UCompressed_Lsb_Y_1@23@UUncompressed@23@@boost@@@?$direct_assigner@UVerificationKey@v2@security@vanetza@@@variant@detail@boost@@QEAA_NAEAV?$variant@UX_Coordinate_Only@security@vanetza@@UCompressed_Lsb_Y_0@23@UCompressed_Lsb_Y_1@23@UUncompressed@23@@3@@Z
	??$?RV?$variant@UX_Coordinate_Only@security@vanetza@@UCompressed_Lsb_Y_0@23@UCompressed_Lsb_Y_1@23@UUncompressed@23@@boost@@@?$direct_assigner@V?$list@UItsAidSsp@v2@security@vanetza@@V?$allocator@UItsAidSsp@v2@security@vanetza@@@std@@@std@@@variant@detail@boost@@QEAA_NAEAV?$variant@UX_Coordinate_Only@security@vanetza@@UCompressed_Lsb_Y_0@23@UCompressed_Lsb_Y_1@23@UUncompressed@23@@3@@Z
	??$?RV?$variant@UX_Coordinate_Only@security@vanetza@@UCompressed_Lsb_Y_0@23@UCompressed_Lsb_Y_1@23@UUncompressed@23@@boost@@@?$direct_assigner@V?$list@VIntX@v2@security@vanetza@@V?$allocator@VIntX@v2@security@vanetza@@@std@@@std@@@variant@detail@boost@@QEAA_NAEAV?$variant@UX_Coordinate_Only@security@vanetza@@UCompressed_Lsb_Y_0@23@UCompressed_Lsb_Y_1@23@UUncompressed@23@@3@@Z
	??$?RV?$variant@UX_Coordinate_Only@security@vanetza@@UCompressed_Lsb_Y_0@23@UCompressed_Lsb_Y_1@23@UUncompressed@23@@boost@@@?$get_visitor@$$CBUSubjectAssurance@v2@security@vanetza@@@variant@detail@boost@@QEBAPEBUSubjectAssurance@v2@security@vanetza@@AEBV?$variant@UX_Coordinate_Only@security@vanetza@@UCompressed_Lsb_Y_0@23@UCompressed_Lsb_Y_1@23@UUncompressed@23@@3@@Z
	??$?RV?$variant@UX_Coordinate_Only@security@vanetza@@UCompressed_Lsb_Y_0@23@UCompressed_Lsb_Y_1@23@UUncompressed@23@@boost@@@?$get_visitor@$$CBUVerificationKey@v2@security@vanetza@@@variant@detail@boost@@QEBAPEBUVerificationKey@v2@security@vanetza@@AEBV?$variant@UX_Coordinate_Only@security@vanetza@@UCompressed_Lsb_Y_0@23@UCompressed_Lsb_Y_1@23@UUncompressed@23@@3@@Z
	??$?RV?$variant@UX_Coordinate_Only@security@vanetza@@UCompressed_Lsb_Y_0@23@UCompressed_Lsb_Y_1@23@UUncompressed@23@@boost@@@?$get_visitor@$$CBV?$list@UItsAidSsp@v2@security@vanetza@@V?$allocator@UItsAidSsp@v2@security@vanetza@@@std@@@std@@@variant@detail@boost@@QEBAPEBV?$list@UItsAidSsp@v2@security@vanetza@@V?$allocator@UItsAidSsp@v2@security@vanetza@@@std@@@std@@AEBV?$variant@UX_Coordinate_Only@security@vanetza@@UCompressed_Lsb_Y_0@23@UCompressed_Lsb_Y_1@23@UUncompressed@23@@3@@Z
	??$?RV?$variant@UX_Coordinate_Only@security@vanetza@@UCompressed_Lsb_Y_0@23@UCompressed_Lsb_Y_1@23@UUncompressed@23@@boost@@@?$get_visitor@$$CBV?$list@VIntX@v2@security@vanetza@@V?$allocator@VIntX@v2@security@vanetza@@@std@@@std@@@variant@detail@boost@@QEBAPEBV?$list@VIntX@v2@security@vanetza@@V?$allocator@VIntX@v2@security@vanetza@@@std@@@std@@AEBV?$variant@UX_Coordinate_Only@security@vanetza@@UCompressed_Lsb_Y_0@23@UCompressed_Lsb_Y_1@23@UUncompressed@23@@3@@Z
	??$?RV?$variant@UX_Coordinate_Only@security@vanetza@@UCompressed_Lsb_Y_0@23@UCompressed_Lsb_Y_1@23@UUncompressed@23@@boost@@@?$get_visitor@V?$list@UItsAidSsp@v2@security@vanetza@@V?$allocator@UItsAidSsp@v2@security@vanetza@@@std@@@std@@@variant@detail@boost@@QEBAPEAV?$list@UItsAidSsp@v2@security@vanetza@@V?$allocator@UItsAidSsp@v2@security@vanetza@@@std@@@std@@AEBV?$variant@UX_Coordinate_Only@security@vanetza@@UCompressed_Lsb_Y_0@23@UCompressed_Lsb_Y_1@23@UUncompressed@23@@3@@Z
	??$?RV?$variant@UX_Coordinate_Only@security@vanetza@@UCompressed_Lsb_Y_0@23@UCompressed_Lsb_Y_1@23@UUncompressed@23@@boost@@@?$get_visitor@V?$list@VIntX@v2@security@vanetza@@V?$allocator@VIntX@v2@security@vanetza@@@std@@@std@@@variant@detail@boost@@QEBAPEAV?$list@VIntX@v2@security@vanetza@@V?$allocator@VIntX@v2@security@vanetza@@@std@@@std@@AEBV?$variant@UX_Coordinate_Only@security@vanetza@@UCompressed_Lsb_Y_0@23@UCompressed_Lsb_Y_1@23@UUncompressed@23@@3@@Z
	??$?RV?$variant@V?$array@E$0M@@std@@$$V@boost@@@?$direct_assigner@I@variant@detail@boost@@QEAA_NAEAV?$variant@V?$array@E$0M@@std@@$$V@3@@Z
	??$?RV?$variant@V?$array@E$0M@@std@@$$V@boost@@@?$direct_assigner@UThreeDLocation@v2@security@vanetza@@@variant@detail@boost@@QEAA_NAEAV?$variant@V?$array@E$0M@@std@@$$V@3@@Z
	??$?RV?$variant@V?$array@E$0M@@std@@$$V@boost@@@?$direct_assigner@UTime64WithStandardDeviation@v2@security@vanetza@@@variant@detail@boost@@QEAA_NAEAV?$variant@V?$array@E$0M@@std@@$$V@3@@Z
	??$?RV?$variant@V?$array@E$0M@@std@@$$V@boost@@@?$direct_assigner@V?$list@URecipientInfo@v2@security@vanetza@@V?$allocator@URecipientInfo@v2@security@vanetza@@@std@@@std@@@variant@detail@boost@@QEAA_NAEAV?$variant@V?$array@E$0M@@std@@$$V@3@@Z
	??$?RV?$variant@V?$array@E$0M@@std@@$$V@boost@@@?$direct_assigner@V?$list@V?$array@E$02@std@@V?$allocator@V?$array@E$02@std@@@2@@std@@@variant@detail@boost@@QEAA_NAEAV?$variant@V?$array@E$0M@@std@@$$V@3@@Z
	??$?RV?$variant@V?$array@E$0M@@std@@$$V@boost@@@?$direct_assigner@V?$variant@$$TV?$array@E$07@std@@V?$recursive_wrapper@UCertificate@v2@security@vanetza@@@boost@@V?$list@UCertificate@v2@security@vanetza@@V?$allocator@UCertificate@v2@security@vanetza@@@std@@@2@UCertificateDigestWithOtherAlgorithm@v2@security@vanetza@@@boost@@@variant@detail@boost@@QEAA_NAEAV?$variant@V?$array@E$0M@@std@@$$V@3@@Z
	??$?RV?$variant@V?$array@E$0M@@std@@$$V@boost@@@?$direct_assigner@VIntX@v2@security@vanetza@@@variant@detail@boost@@QEAA_NAEAV?$variant@V?$array@E$0M@@std@@$$V@3@@Z
	??$?RV?$variant@V?$array@E$0M@@std@@$$V@boost@@@?$direct_assigner@_K@variant@detail@boost@@QEAA_NAEAV?$variant@V?$array@E$0M@@std@@$$V@3@@Z
	??$?RV?$variant@V?$array@E$0M@@std@@$$V@boost@@@?$get_visitor@$$CBUThreeDLocation@v2@security@vanetza@@@variant@detail@boost@@QEBAPEBUThreeDLocation@v2@security@vanetza@@AEBV?$variant@V?$array@E$0M@@std@@$$V@3@@Z
	??$?RV?$variant@V?$array@E$0M@@std@@$$V@boost@@@?$get_visitor@$$CBV?$list@V?$array@E$02@std@@V?$allocator@V?$array@E$02@std@@@2@@std@@@variant@detail@boost@@QEBAPEBV?$list@V?$array@E$02@std@@V?$allocator@V?$array@E$02@std@@@2@@std@@AEBV?$variant@V?$array@E$0M@@std@@$$V@3@@Z
	??$?RV?$variant@V?$array@E$0M@@std@@$$V@boost@@@?$get_visitor@$$CBV?$variant@$$TV?$array@E$07@std@@V?$recursive_wrapper@UCertificate@v2@security@vanetza@@@boost@@V?$list@UCertificate@v2@security@vanetza@@V?$allocator@UCertificate@v2@security@vanetza@@@std@@@2@UCertificateDigestWithOtherAlgorithm@v2@security@vanetza@@@boost@@@variant@detail@boost@@QEBAPEBV?$variant@$$TV?$array@E$07@std@@V?$recursive_wrapper@UCertificate@v2@security@vanetza@@@boost@@V?$list@UCertificate@v2@security@vanetza@@V?$allocator@UCertificate@v2@security@vanetza@@@std@@@2@UCertificateDigestWithOtherAlgorithm@v2@security@vanetza@@@3@AEBV?$variant@V?$array@E$0M@@std@@$$V@3@@Z
	??$?RV?$variant@V?$array@E$0M@@std@@$$V@boost@@@?$get_visitor@$$CBVIntX@v2@security@vanetza@@@variant@detail@boost@@QEBAPEBVIntX@v2@security@vanetza@@AEBV?$variant@V?$array@E$0M@@std@@$$V@3@@Z
	??$?RV?$variant@V?$array@E$0M@@std@@$$V@boost@@@?$get_visitor@$$CB_K@variant@detail@boost@@QEBAPEB_KAEBV?$variant@V?$array@E$0M@@std@@$$V@3@@Z
	??$?RVChunkPacket@vanetza@@@?$direct_mover@VCohesivePacket@vanetza@@@variant@detail@boost@@QEAA_NAEAVChunkPacket@vanetza@@@Z
	??$?RVCohesivePacket@vanetza@@@?$direct_mover@VChunkPacket@vanetza@@@variant@detail@boost@@QEAA_NAEAVCohesivePacket@vanetza@@@Z
	??$?RVConstByteArrayParameter@CryptoPP@@@AlgorithmParameters@CryptoPP@@QEAAAEAV01@PEBDAEBVConstByteArrayParameter@1@_N@Z
	??$?RVEcdsaSignatureFuture@security@vanetza@@@?$direct_assigner@UEcdsaSignature@security@vanetza@@@variant@detail@boost@@QEAA_NAEAVEcdsaSignatureFuture@security@vanetza@@@Z
	??$?RVEcdsaSignatureFuture@security@vanetza@@@?$direct_mover@UEcdsaSignature@security@vanetza@@@variant@detail@boost@@QEAA_NAEAVEcdsaSignatureFuture@security@vanetza@@@Z
	??$?RVIntX@v2@security@vanetza@@@?$direct_assigner@I@variant@detail@boost@@QEAA_NAEAVIntX@v2@security@vanetza@@@Z
	??$?RVIntX@v2@security@vanetza@@@?$direct_assigner@UThreeDLocation@v2@security@vanetza@@@variant@detail@boost@@QEAA_NAEAVIntX@v2@security@vanetza@@@Z
	??$?RVIntX@v2@security@vanetza@@@?$direct_assigner@UTime64WithStandardDeviation@v2@security@vanetza@@@variant@detail@boost@@QEAA_NAEAVIntX@v2@security@vanetza@@@Z
	??$?RVIntX@v2@security@vanetza@@@?$direct_assigner@V?$list@URecipientInfo@v2@security@vanetza@@V?$allocator@URecipientInfo@v2@security@vanetza@@@std@@@std@@@variant@detail@boost@@QEAA_NAEAVIntX@v2@security@vanetza@@@Z
	??$?RVIntX@v2@security@vanetza@@@?$direct_assigner@V?$list@V?$array@E$02@std@@V?$allocator@V?$array@E$02@std@@@2@@std@@@variant@detail@boost@@QEAA_NAEAVIntX@v2@security@vanetza@@@Z
	??$?RVIntX@v2@security@vanetza@@@?$direct_assigner@V?$variant@$$TV?$array@E$07@std@@V?$recursive_wrapper@UCertificate@v2@security@vanetza@@@boost@@V?$list@UCertificate@v2@security@vanetza@@V?$allocator@UCertificate@v2@security@vanetza@@@std@@@2@UCertificateDigestWithOtherAlgorithm@v2@security@vanetza@@@boost@@@variant@detail@boost@@QEAA_NAEAVIntX@v2@security@vanetza@@@Z
	??$?RVIntX@v2@security@vanetza@@@?$direct_assigner@V?$variant@V?$array@E$0M@@std@@$$V@boost@@@variant@detail@boost@@QEAA_NAEAVIntX@v2@security@vanetza@@@Z
	??$?RVIntX@v2@security@vanetza@@@?$direct_assigner@_K@variant@detail@boost@@QEAA_NAEAVIntX@v2@security@vanetza@@@Z
	??$?RVIntX@v2@security@vanetza@@@?$get_visitor@$$CBUThreeDLocation@v2@security@vanetza@@@variant@detail@boost@@QEBAPEBUThreeDLocation@v2@security@vanetza@@AEBVIntX@567@@Z
	??$?RVIntX@v2@security@vanetza@@@?$get_visitor@$$CBV?$list@V?$array@E$02@std@@V?$allocator@V?$array@E$02@std@@@2@@std@@@variant@detail@boost@@QEBAPEBV?$list@V?$array@E$02@std@@V?$allocator@V?$array@E$02@std@@@2@@std@@AEBVIntX@v2@security@vanetza@@@Z
	??$?RVIntX@v2@security@vanetza@@@?$get_visitor@$$CBV?$variant@$$TV?$array@E$07@std@@V?$recursive_wrapper@UCertificate@v2@security@vanetza@@@boost@@V?$list@UCertificate@v2@security@vanetza@@V?$allocator@UCertificate@v2@security@vanetza@@@std@@@2@UCertificateDigestWithOtherAlgorithm@v2@security@vanetza@@@boost@@@variant@detail@boost@@QEBAPEBV?$variant@$$TV?$array@E$07@std@@V?$recursive_wrapper@UCertificate@v2@security@vanetza@@@boost@@V?$list@UCertificate@v2@security@vanetza@@V?$allocator@UCertificate@v2@security@vanetza@@@std@@@2@UCertificateDigestWithOtherAlgorithm@v2@security@vanetza@@@3@AEBVIntX@v2@security@vanetza@@@Z
	??$?RVIntX@v2@security@vanetza@@@?$get_visitor@$$CB_K@variant@detail@boost@@QEBAPEB_KAEBVIntX@v2@security@vanetza@@@Z
	??$?RVInteger@CryptoPP@@@?$AssignFromHelperClass@V?$DL_PrivateKey@UECPPoint@CryptoPP@@@CryptoPP@@V12@@CryptoPP@@QEAAAEAV01@PEBDP8?$DL_PrivateKey@UECPPoint@CryptoPP@@@1@EAAXAEBVInteger@1@@Z@Z
	??$?RVInteger@CryptoPP@@@?$GetValueHelperClass@V?$DL_GroupParameters@UECPPoint@CryptoPP@@@CryptoPP@@V12@@CryptoPP@@QEAAAEAV01@PEBDP8?$DL_GroupParameters@UECPPoint@CryptoPP@@@1@EBAAEBVInteger@1@XZ@Z
	??$?RVInteger@CryptoPP@@@?$GetValueHelperClass@V?$DL_PrivateKey@UECPPoint@CryptoPP@@@CryptoPP@@V12@@CryptoPP@@QEAAAEAV01@PEBDP8?$DL_PrivateKey@UECPPoint@CryptoPP@@@1@EBAAEBVInteger@1@XZ@Z
	??$?RW4SignConfirmError@security@vanetza@@@?$get_visitor@$$CBV?$variant@USecuredMessage@v2@security@vanetza@@U1v3@34@@boost@@@variant@detail@boost@@QEBAPEBV?$variant@USecuredMessage@v2@security@vanetza@@U1v3@34@@3@AEBW4SignConfirmError@security@vanetza@@@Z
	??$?RW4SignConfirmError@security@vanetza@@@?$get_visitor@V?$variant@USecuredMessage@v2@security@vanetza@@U1v3@34@@boost@@@variant@detail@boost@@QEBAPEAV?$variant@USecuredMessage@v2@security@vanetza@@U1v3@34@@3@AEBW4SignConfirmError@security@vanetza@@@Z
	??$?R_K@?$direct_assigner@I@variant@detail@boost@@QEAA_NAEA_K@Z
	??$?R_K@?$direct_assigner@UThreeDLocation@v2@security@vanetza@@@variant@detail@boost@@QEAA_NAEA_K@Z
	??$?R_K@?$direct_assigner@UTime64WithStandardDeviation@v2@security@vanetza@@@variant@detail@boost@@QEAA_NAEA_K@Z
	??$?R_K@?$direct_assigner@V?$list@URecipientInfo@v2@security@vanetza@@V?$allocator@URecipientInfo@v2@security@vanetza@@@std@@@std@@@variant@detail@boost@@QEAA_NAEA_K@Z
	??$?R_K@?$direct_assigner@V?$list@V?$array@E$02@std@@V?$allocator@V?$array@E$02@std@@@2@@std@@@variant@detail@boost@@QEAA_NAEA_K@Z
	??$?R_K@?$direct_assigner@V?$variant@$$TV?$array@E$07@std@@V?$recursive_wrapper@UCertificate@v2@security@vanetza@@@boost@@V?$list@UCertificate@v2@security@vanetza@@V?$allocator@UCertificate@v2@security@vanetza@@@std@@@2@UCertificateDigestWithOtherAlgorithm@v2@security@vanetza@@@boost@@@variant@detail@boost@@QEAA_NAEA_K@Z
	??$?R_K@?$direct_assigner@V?$variant@V?$array@E$0M@@std@@$$V@boost@@@variant@detail@boost@@QEAA_NAEA_K@Z
	??$?R_K@?$direct_assigner@VIntX@v2@security@vanetza@@@variant@detail@boost@@QEAA_NAEA_K@Z
	??$?R_K@?$get_visitor@$$CBUThreeDLocation@v2@security@vanetza@@@variant@detail@boost@@QEBAPEBUThreeDLocation@v2@security@vanetza@@AEB_K@Z
	??$?R_K@?$get_visitor@$$CBV?$list@V?$array@E$02@std@@V?$allocator@V?$array@E$02@std@@@2@@std@@@variant@detail@boost@@QEBAPEBV?$list@V?$array@E$02@std@@V?$allocator@V?$array@E$02@std@@@2@@std@@AEB_K@Z
	??$?R_K@?$get_visitor@$$CBV?$variant@$$TV?$array@E$07@std@@V?$recursive_wrapper@UCertificate@v2@security@vanetza@@@boost@@V?$list@UCertificate@v2@security@vanetza@@V?$allocator@UCertificate@v2@security@vanetza@@@std@@@2@UCertificateDigestWithOtherAlgorithm@v2@security@vanetza@@@boost@@@variant@detail@boost@@QEBAPEBV?$variant@$$TV?$array@E$07@std@@V?$recursive_wrapper@UCertificate@v2@security@vanetza@@@boost@@V?$list@UCertificate@v2@security@vanetza@@V?$allocator@UCertificate@v2@security@vanetza@@@std@@@2@UCertificateDigestWithOtherAlgorithm@v2@security@vanetza@@@3@AEB_K@Z
	??$?R_K@?$get_visitor@$$CBVIntX@v2@security@vanetza@@@variant@detail@boost@@QEBAPEBVIntX@v2@security@vanetza@@AEB_K@Z
	??$?R_N@AlgorithmParameters@CryptoPP@@QEAAAEAV01@PEBDAEB_N@Z
	??$?R_N@AlgorithmParameters@CryptoPP@@QEAAAEAV01@PEBDAEB_N_N@Z
	??$AssignFromHelper@V?$DL_PrivateKey@UECPPoint@CryptoPP@@@CryptoPP@@@CryptoPP@@YA?AV?$AssignFromHelperClass@V?$DL_PrivateKey@UECPPoint@CryptoPP@@@CryptoPP@@V12@@0@PEAV?$DL_PrivateKey@UECPPoint@CryptoPP@@@0@AEBVNameValuePairs@0@@Z
	??$AssignFromHelper@V?$DL_PrivateKey@UECPPoint@CryptoPP@@@CryptoPP@@V?$DL_PrivateKeyImpl@V?$DL_GroupParameters_EC@VECP@CryptoPP@@@CryptoPP@@@2@@CryptoPP@@YA?AV?$AssignFromHelperClass@V?$DL_PrivateKeyImpl@V?$DL_GroupParameters_EC@VECP@CryptoPP@@@CryptoPP@@@CryptoPP@@V?$DL_PrivateKey@UECPPoint@CryptoPP@@@2@@0@PEAV?$DL_PrivateKeyImpl@V?$DL_GroupParameters_EC@VECP@CryptoPP@@@CryptoPP@@@0@AEBVNameValuePairs@0@@Z
	??$AssignFromHelper@V?$DL_PublicKey@UECPPoint@CryptoPP@@@CryptoPP@@@CryptoPP@@YA?AV?$AssignFromHelperClass@V?$DL_PublicKey@UECPPoint@CryptoPP@@@CryptoPP@@V12@@0@PEAV?$DL_PublicKey@UECPPoint@CryptoPP@@@0@AEBVNameValuePairs@0@@Z
	??$AssignFromHelper@V?$DL_PublicKey@UECPPoint@CryptoPP@@@CryptoPP@@V?$DL_PublicKeyImpl@V?$DL_GroupParameters_EC@VECP@CryptoPP@@@CryptoPP@@@2@@CryptoPP@@YA?AV?$AssignFromHelperClass@V?$DL_PublicKeyImpl@V?$DL_GroupParameters_EC@VECP@CryptoPP@@@CryptoPP@@@CryptoPP@@V?$DL_PublicKey@UECPPoint@CryptoPP@@@2@@0@PEAV?$DL_PublicKeyImpl@V?$DL_GroupParameters_EC@VECP@CryptoPP@@@CryptoPP@@@0@AEBVNameValuePairs@0@@Z
	??$GetAlignmentOf@G@CryptoPP@@YAIXZ
	??$GetAlignmentOf@I@CryptoPP@@YAIXZ
	??$GetAlignmentOf@_K@CryptoPP@@YAIXZ
	??$GetThisObject@V?$DL_GroupParameters_EC@VECP@CryptoPP@@@CryptoPP@@@NameValuePairs@CryptoPP@@QEBA_NAEAV?$DL_GroupParameters_EC@VECP@CryptoPP@@@1@@Z
	??$GetThisObject@V?$DL_PrivateKey@UECPPoint@CryptoPP@@@CryptoPP@@@NameValuePairs@CryptoPP@@QEBA_NAEAV?$DL_PrivateKey@UECPPoint@CryptoPP@@@1@@Z
	??$GetThisObject@V?$DL_PrivateKeyImpl@V?$DL_GroupParameters_EC@VECP@CryptoPP@@@CryptoPP@@@CryptoPP@@@NameValuePairs@CryptoPP@@QEBA_NAEAV?$DL_PrivateKeyImpl@V?$DL_GroupParameters_EC@VECP@CryptoPP@@@CryptoPP@@@1@@Z
	??$GetThisObject@V?$DL_PublicKey@UECPPoint@CryptoPP@@@CryptoPP@@@NameValuePairs@CryptoPP@@QEBA_NAEAV?$DL_PublicKey@UECPPoint@CryptoPP@@@1@@Z
	??$GetThisObject@V?$DL_PublicKeyImpl@V?$DL_GroupParameters_EC@VECP@CryptoPP@@@CryptoPP@@@CryptoPP@@@NameValuePairs@CryptoPP@@QEBA_NAEAV?$DL_PublicKeyImpl@V?$DL_GroupParameters_EC@VECP@CryptoPP@@@CryptoPP@@@1@@Z
	??$GetThisPointer@V?$DL_PrivateKey@UECPPoint@CryptoPP@@@CryptoPP@@@NameValuePairs@CryptoPP@@QEBA_NAEAPEAV?$DL_PrivateKey@UECPPoint@CryptoPP@@@1@@Z
	??$GetValue@PEAV?$DL_PrivateKey@UECPPoint@CryptoPP@@@CryptoPP@@@NameValuePairs@CryptoPP@@QEBA_NPEBDAEAPEAV?$DL_PrivateKey@UECPPoint@CryptoPP@@@1@@Z
	??$GetValue@UECPPoint@CryptoPP@@@NameValuePairs@CryptoPP@@QEBA_NPEBDAEAUECPPoint@1@@Z
	??$GetValue@V?$DL_GroupParameters_EC@VECP@CryptoPP@@@CryptoPP@@@NameValuePairs@CryptoPP@@QEBA_NPEBDAEAV?$DL_GroupParameters_EC@VECP@CryptoPP@@@1@@Z
	??$GetValue@V?$DL_PrivateKey@UECPPoint@CryptoPP@@@CryptoPP@@@NameValuePairs@CryptoPP@@QEBA_NPEBDAEAV?$DL_PrivateKey@UECPPoint@CryptoPP@@@1@@Z
	??$GetValue@V?$DL_PrivateKeyImpl@V?$DL_GroupParameters_EC@VECP@CryptoPP@@@CryptoPP@@@CryptoPP@@@NameValuePairs@CryptoPP@@QEBA_NPEBDAEAV?$DL_PrivateKeyImpl@V?$DL_GroupParameters_EC@VECP@CryptoPP@@@CryptoPP@@@1@@Z
	??$GetValue@V?$DL_PublicKey@UECPPoint@CryptoPP@@@CryptoPP@@@NameValuePairs@CryptoPP@@QEBA_NPEBDAEAV?$DL_PublicKey@UECPPoint@CryptoPP@@@1@@Z
	??$GetValue@V?$DL_PublicKeyImpl@V?$DL_GroupParameters_EC@VECP@CryptoPP@@@CryptoPP@@@CryptoPP@@@NameValuePairs@CryptoPP@@QEBA_NPEBDAEAV?$DL_PublicKeyImpl@V?$DL_GroupParameters_EC@VECP@CryptoPP@@@CryptoPP@@@1@@Z
	??$GetValue@VInteger@CryptoPP@@@NameValuePairs@CryptoPP@@QEBA_NPEBDAEAVInteger@1@@Z
	??$GetValueHelper@V?$DL_GroupParameters@UECPPoint@CryptoPP@@@CryptoPP@@@CryptoPP@@YA?AV?$GetValueHelperClass@V?$DL_GroupParameters@UECPPoint@CryptoPP@@@CryptoPP@@V12@@0@PEBV?$DL_GroupParameters@UECPPoint@CryptoPP@@@0@PEBDAEBVtype_info@@PEAXPEBVNameValuePairs@0@@Z
	??$GetValueHelper@V?$DL_PrivateKey@UECPPoint@CryptoPP@@@CryptoPP@@@CryptoPP@@YA?AV?$GetValueHelperClass@V?$DL_PrivateKey@UECPPoint@CryptoPP@@@CryptoPP@@V12@@0@PEBV?$DL_PrivateKey@UECPPoint@CryptoPP@@@0@PEBDAEBVtype_info@@PEAXPEBVNameValuePairs@0@@Z
	??$GetValueHelper@V?$DL_PrivateKey@UECPPoint@CryptoPP@@@CryptoPP@@V?$DL_PrivateKeyImpl@V?$DL_GroupParameters_EC@VECP@CryptoPP@@@CryptoPP@@@2@@CryptoPP@@YA?AV?$GetValueHelperClass@V?$DL_PrivateKeyImpl@V?$DL_GroupParameters_EC@VECP@CryptoPP@@@CryptoPP@@@CryptoPP@@V?$DL_PrivateKey@UECPPoint@CryptoPP@@@2@@0@PEBV?$DL_PrivateKeyImpl@V?$DL_GroupParameters_EC@VECP@CryptoPP@@@CryptoPP@@@0@PEBDAEBVtype_info@@PEAXPEBVNameValuePairs@0@@Z
	??$GetValueHelper@V?$DL_PublicKey@UECPPoint@CryptoPP@@@CryptoPP@@@CryptoPP@@YA?AV?$GetValueHelperClass@V?$DL_PublicKey@UECPPoint@CryptoPP@@@CryptoPP@@V12@@0@PEBV?$DL_PublicKey@UECPPoint@CryptoPP@@@0@PEBDAEBVtype_info@@PEAXPEBVNameValuePairs@0@@Z
	??$GetValueHelper@V?$DL_PublicKey@UECPPoint@CryptoPP@@@CryptoPP@@V?$DL_PublicKeyImpl@V?$DL_GroupParameters_EC@VECP@CryptoPP@@@CryptoPP@@@2@@CryptoPP@@YA?AV?$GetValueHelperClass@V?$DL_PublicKeyImpl@V?$DL_GroupParameters_EC@VECP@CryptoPP@@@CryptoPP@@@CryptoPP@@V?$DL_PublicKey@UECPPoint@CryptoPP@@@2@@0@PEBV?$DL_PublicKeyImpl@V?$DL_GroupParameters_EC@VECP@CryptoPP@@@CryptoPP@@@0@PEBDAEBVtype_info@@PEAXPEBVNameValuePairs@0@@Z
	??$IsPowerOf2@I@CryptoPP@@YA_NAEBI@Z
	??$MakeParameters@PEBD@CryptoPP@@YA?AVAlgorithmParameters@0@PEBDAEBQEBD_N@Z
	??$MakeParameters@PEBH@CryptoPP@@YA?AVAlgorithmParameters@0@PEBDAEBQEBH_N@Z
	??$MakeParameters@VConstByteArrayParameter@CryptoPP@@@CryptoPP@@YA?AVAlgorithmParameters@0@PEBDAEBVConstByteArrayParameter@0@_N@Z
	??$ModPowerOf2@_KI@CryptoPP@@YAIAEB_KAEBI@Z
	??$STDMIN@_K@CryptoPP@@YAAEB_KAEB_K0@Z
	??$SaturatingSubtract@II@CryptoPP@@YAIAEBI0@Z
	??$SecureWipeArray@E@CryptoPP@@YAXPEAE_K@Z
	??$SecureWipeArray@I@CryptoPP@@YAXPEAI_K@Z
	??$SecureWipeArray@_K@CryptoPP@@YAXPEA_K_K@Z
	??$SecureWipeBuffer@E@CryptoPP@@YAXPEAE_K@Z
	??$SecureWipeBuffer@G@CryptoPP@@YAXPEAG_K@Z
	??$SecureWipeBuffer@I@CryptoPP@@YAXPEAI_K@Z
	??$SecureWipeBuffer@_K@CryptoPP@@YAXPEA_K_K@Z
	??$StandardReallocate@EV?$AllocatorWithCleanup@E$0A@@CryptoPP@@@CryptoPP@@YAPEAEAEAV?$AllocatorWithCleanup@E$0A@@0@PEAE_K2_N@Z
	??$_Adl_verify_range@PEAEPEAE@std@@YAXAEBQEAE0@Z
	??$_Adl_verify_range@PEAIPEAI@std@@YAXAEBQEAI0@Z
	??$_Adl_verify_range@PEAPEAXPEAPEAX@std@@YAXAEBQEAPEAX0@Z
	??$_Adl_verify_range@PEAU?$format_item@DU?$char_traits@D@std@@V?$allocator@D@2@@detail@io@boost@@PEAU1234@@std@@YAXAEBQEAU?$format_item@DU?$char_traits@D@std@@V?$allocator@D@2@@detail@io@boost@@0@Z
	??$_Adl_verify_range@PEAUECPPoint@CryptoPP@@PEAU12@@std@@YAXAEBQEAUECPPoint@CryptoPP@@0@Z
	??$_Adl_verify_range@PEAV?$_List_unchecked_const_iterator@V?$_List_val@U?$_List_simple_types@V?$array@E$07@std@@@std@@@std@@U_Iterator_base0@2@@std@@PEAV12@@std@@YAXAEBQEAV?$_List_unchecked_const_iterator@V?$_List_val@U?$_List_simple_types@V?$array@E$07@std@@@std@@@std@@U_Iterator_base0@2@@0@0@Z
	??$_Adl_verify_range@PEAV?$_List_unchecked_iterator@V?$_List_val@U?$_List_simple_types@U?$pair@$$CBV?$array@E$02@std@@V?$_List_iterator@V?$_List_val@U?$_List_simple_types@U?$pair@$$CBV?$array@E$07@std@@UCertificate@v3@security@vanetza@@@std@@@std@@@std@@@2@@std@@@std@@@std@@@std@@PEAV12@@std@@YAXAEBQEAV?$_List_unchecked_iterator@V?$_List_val@U?$_List_simple_types@U?$pair@$$CBV?$array@E$02@std@@V?$_List_iterator@V?$_List_val@U?$_List_simple_types@U?$pair@$$CBV?$array@E$07@std@@UCertificate@v3@security@vanetza@@@std@@@std@@@std@@@2@@std@@@std@@@std@@@0@0@Z
	??$_Adl_verify_range@PEAV?$_List_unchecked_iterator@V?$_List_val@U?$_List_simple_types@U?$pair@$$CBV?$array@E$02@std@@V?$_List_iterator@V?$_List_val@U?$_List_simple_types@V?$array@E$02@std@@@std@@@std@@@2@@std@@@std@@@std@@@std@@PEAV12@@std@@YAXAEBQEAV?$_List_unchecked_iterator@V?$_List_val@U?$_List_simple_types@U?$pair@$$CBV?$array@E$02@std@@V?$_List_iterator@V?$_List_val@U?$_List_simple_types@V?$array@E$02@std@@@std@@@std@@@2@@std@@@std@@@std@@@0@0@Z
	??$_Adl_verify_range@PEAV?$_List_unchecked_iterator@V?$_List_val@U?$_List_simple_types@U?$pair@$$CBV?$array@E$07@std@@UCertificate@v3@security@vanetza@@@std@@@std@@@std@@@std@@PEAV12@@std@@YAXAEBQEAV?$_List_unchecked_iterator@V?$_List_val@U?$_List_simple_types@U?$pair@$$CBV?$array@E$07@std@@UCertificate@v3@security@vanetza@@@std@@@std@@@std@@@0@0@Z
	??$_Adl_verify_range@PEBEPEBE@std@@YAXAEBQEBE0@Z
	??$_Adl_verify_range@V?$_Array_const_iterator@E$0CA@@std@@V12@@std@@YAXAEBV?$_Array_const_iterator@E$0CA@@0@0@Z
	??$_Adl_verify_range@V?$_Array_const_iterator@E$0DA@@std@@V12@@std@@YAXAEBV?$_Array_const_iterator@E$0DA@@0@0@Z
	??$_Adl_verify_range@V?$_Array_iterator@E$0CA@@std@@V12@@std@@YAXAEBV?$_Array_iterator@E$0CA@@0@0@Z
	??$_Adl_verify_range@V?$_List_const_iterator@V?$_List_val@U?$_List_simple_types@URectangularRegion@v2@security@vanetza@@@std@@@std@@@std@@V12@@std@@YAXAEBV?$_List_const_iterator@V?$_List_val@U?$_List_simple_types@URectangularRegion@v2@security@vanetza@@@std@@@std@@@0@0@Z
	??$_Adl_verify_range@V?$_List_iterator@V?$_List_val@U?$_List_simple_types@E@std@@@std@@@std@@V12@@std@@YAXAEBV?$_List_iterator@V?$_List_val@U?$_List_simple_types@E@std@@@std@@@0@0@Z
	??$_Adl_verify_range@V?$_List_iterator@V?$_List_val@U?$_List_simple_types@I@std@@@std@@@std@@V12@@std@@YAXAEBV?$_List_iterator@V?$_List_val@U?$_List_simple_types@I@std@@@std@@@0@0@Z
	??$_Adl_verify_range@V?$_List_unchecked_const_iterator@V?$_List_val@U?$_List_simple_types@URectangularRegion@v2@security@vanetza@@@std@@@std@@U_Iterator_base0@2@@std@@V12@@std@@YAXAEBV?$_List_unchecked_const_iterator@V?$_List_val@U?$_List_simple_types@URectangularRegion@v2@security@vanetza@@@std@@@std@@U_Iterator_base0@2@@0@0@Z
	??$_Adl_verify_range@V?$_List_unchecked_iterator@V?$_List_val@U?$_List_simple_types@E@std@@@std@@@std@@V12@@std@@YAXAEBV?$_List_unchecked_iterator@V?$_List_val@U?$_List_simple_types@E@std@@@std@@@0@0@Z
	??$_Adl_verify_range@V?$_String_const_iterator@V?$_String_val@U?$_Simple_types@D@std@@@std@@@std@@V12@@std@@YAXAEBV?$_String_const_iterator@V?$_String_val@U?$_Simple_types@D@std@@@std@@@0@0@Z
	??$_Adl_verify_range@V?$_String_iterator@V?$_String_val@U?$_Simple_types@D@std@@@std@@@std@@V12@@std@@YAXAEBV?$_String_iterator@V?$_String_val@U?$_Simple_types@D@std@@@std@@@0@0@Z
	??$_Adl_verify_range@V?$_Tree_const_iterator@V?$_Tree_val@U?$_Tree_simple_types@V?$array@E$02@std@@@std@@@std@@@std@@V12@@std@@YAXAEBV?$_Tree_const_iterator@V?$_Tree_val@U?$_Tree_simple_types@V?$array@E$02@std@@@std@@@std@@@0@0@Z
	??$_Adl_verify_range@V?$_Vb_iterator@U?$_Wrap_alloc@V?$allocator@I@std@@@std@@@std@@V12@@std@@YAXAEBV?$_Vb_iterator@U?$_Wrap_alloc@V?$allocator@I@std@@@std@@@0@0@Z
	??$_Adl_verify_range@V?$_Vector_const_iterator@V?$_Vector_val@U?$_Simple_types@E@std@@@std@@@std@@V12@@std@@YAXAEBV?$_Vector_const_iterator@V?$_Vector_val@U?$_Simple_types@E@std@@@std@@@0@0@Z
	??$_Adl_verify_range@V?$_Vector_iterator@V?$_Vector_val@U?$_Simple_types@E@std@@@std@@@std@@V12@@std@@YAXAEBV?$_Vector_iterator@V?$_Vector_val@U?$_Simple_types@E@std@@@std@@@0@0@Z
	??$_Adl_verify_range@V?$istreambuf_iterator@DU?$char_traits@D@std@@@std@@V12@@std@@YAXAEBV?$istreambuf_iterator@DU?$char_traits@D@std@@@0@0@Z
	??$_Alloc_proxy@V?$allocator@U_Container_proxy@std@@@std@@@_Container_base12@std@@QEAAX$$QEAV?$allocator@U_Container_proxy@std@@@1@@Z
	??$_Allocate@$0BA@U_Default_allocate_traits@std@@$0A@@std@@YAPEAX_K@Z
	??$_Allocate_manually_vector_aligned@U_Default_allocate_traits@std@@@std@@YAPEAX_K@Z
	??$_Append_n@E@?$_List_node_insert_op2@V?$allocator@U?$_List_node@EPEAX@std@@@std@@@std@@QEAAX_KAEBE@Z
	??$_Append_range_unchecked@PEBUCertificate@v2@security@vanetza@@PEBU1234@@?$_List_node_insert_op2@V?$allocator@U?$_List_node@UCertificate@v2@security@vanetza@@PEAX@std@@@std@@@std@@QEAAXPEBUCertificate@v2@security@vanetza@@QEBU2345@@Z
	??$_Append_range_unchecked@PEBUItsAidSsp@v2@security@vanetza@@PEBU1234@@?$_List_node_insert_op2@V?$allocator@U?$_List_node@UItsAidSsp@v2@security@vanetza@@PEAX@std@@@std@@@std@@QEAAXPEBUItsAidSsp@v2@security@vanetza@@QEBU2345@@Z
	??$_Append_range_unchecked@PEBV?$variant@USignature@v2@security@vanetza@@$$V@boost@@PEBV12@@?$_List_node_insert_op2@V?$allocator@U?$_List_node@V?$variant@USignature@v2@security@vanetza@@$$V@boost@@PEAX@std@@@std@@@std@@QEAAXPEBV?$variant@USignature@v2@security@vanetza@@$$V@boost@@QEBV23@@Z
	??$_Append_range_unchecked@PEBVIntX@v2@security@vanetza@@PEBV1234@@?$_List_node_insert_op2@V?$allocator@U?$_List_node@VIntX@v2@security@vanetza@@PEAX@std@@@std@@@std@@QEAAXPEBVIntX@v2@security@vanetza@@QEBV2345@@Z
	??$_Append_range_unchecked@V?$_List_unchecked_const_iterator@V?$_List_val@U?$_List_simple_types@UCertificate@v2@security@vanetza@@@std@@@std@@U_Iterator_base0@2@@std@@V12@@?$_List_node_insert_op2@V?$allocator@U?$_List_node@UCertificate@v2@security@vanetza@@PEAX@std@@@std@@@std@@QEAAXV?$_List_unchecked_const_iterator@V?$_List_val@U?$_List_simple_types@UCertificate@v2@security@vanetza@@@std@@@std@@U_Iterator_base0@2@@1@V21@@Z
	??$_Append_range_unchecked@V?$_List_unchecked_const_iterator@V?$_List_val@U?$_List_simple_types@UItsAidSsp@v2@security@vanetza@@@std@@@std@@U_Iterator_base0@2@@std@@V12@@?$_List_node_insert_op2@V?$allocator@U?$_List_node@UItsAidSsp@v2@security@vanetza@@PEAX@std@@@std@@@std@@QEAAXV?$_List_unchecked_const_iterator@V?$_List_val@U?$_List_simple_types@UItsAidSsp@v2@security@vanetza@@@std@@@std@@U_Iterator_base0@2@@1@V21@@Z
	??$_Append_range_unchecked@V?$_List_unchecked_const_iterator@V?$_List_val@U?$_List_simple_types@URecipientInfo@v2@security@vanetza@@@std@@@std@@U_Iterator_base0@2@@std@@V12@@?$_List_node_insert_op2@V?$allocator@U?$_List_node@URecipientInfo@v2@security@vanetza@@PEAX@std@@@std@@@std@@QEAAXV?$_List_unchecked_const_iterator@V?$_List_val@U?$_List_simple_types@URecipientInfo@v2@security@vanetza@@@std@@@std@@U_Iterator_base0@2@@1@V21@@Z
	??$_Append_range_unchecked@V?$_List_unchecked_const_iterator@V?$_List_val@U?$_List_simple_types@URectangularRegion@v2@security@vanetza@@@std@@@std@@U_Iterator_base0@2@@std@@V12@@?$_List_node_insert_op2@V?$allocator@U?$_List_node@URectangularRegion@v2@security@vanetza@@PEAX@std@@@std@@@std@@QEAAXV?$_List_unchecked_const_iterator@V?$_List_val@U?$_List_simple_types@URectangularRegion@v2@security@vanetza@@@std@@@std@@U_Iterator_base0@2@@1@V21@@Z
	??$_Append_range_unchecked@V?$_List_unchecked_const_iterator@V?$_List_val@U?$_List_simple_types@UTwoDLocation@v2@security@vanetza@@@std@@@std@@U_Iterator_base0@2@@std@@V12@@?$_List_node_insert_op2@V?$allocator@U?$_List_node@UTwoDLocation@v2@security@vanetza@@PEAX@std@@@std@@@std@@QEAAXV?$_List_unchecked_const_iterator@V?$_List_val@U?$_List_simple_types@UTwoDLocation@v2@security@vanetza@@@std@@@std@@U_Iterator_base0@2@@1@V21@@Z
	??$_Append_range_unchecked@V?$_List_unchecked_const_iterator@V?$_List_val@U?$_List_simple_types@V?$array@E$02@std@@@std@@@std@@U_Iterator_base0@2@@std@@V12@@?$_List_node_insert_op2@V?$allocator@U?$_List_node@V?$array@E$02@std@@PEAX@std@@@std@@@std@@QEAAXV?$_List_unchecked_const_iterator@V?$_List_val@U?$_List_simple_types@V?$array@E$02@std@@@std@@@std@@U_Iterator_base0@2@@1@V21@@Z
	??$_Append_range_unchecked@V?$_List_unchecked_const_iterator@V?$_List_val@U?$_List_simple_types@V?$variant@IUStartAndEndValidity@v2@security@vanetza@@UStartAndDurationValidity@234@V?$variant@UNoneRegion@v2@security@vanetza@@UCircularRegion@234@V?$list@URectangularRegion@v2@security@vanetza@@V?$allocator@URectangularRegion@v2@security@vanetza@@@std@@@std@@V?$list@UTwoDLocation@v2@security@vanetza@@V?$allocator@UTwoDLocation@v2@security@vanetza@@@std@@@7@UIdentifiedRegion@234@@boost@@@boost@@@std@@@std@@U_Iterator_base0@2@@std@@V12@@?$_List_node_insert_op2@V?$allocator@U?$_List_node@V?$variant@IUStartAndEndValidity@v2@security@vanetza@@UStartAndDurationValidity@234@V?$variant@UNoneRegion@v2@security@vanetza@@UCircularRegion@234@V?$list@URectangularRegion@v2@security@vanetza@@V?$allocator@URectangularRegion@v2@security@vanetza@@@std@@@std@@V?$list@UTwoDLocation@v2@security@vanetza@@V?$allocator@UTwoDLocation@v2@security@vanetza@@@std@@@7@UIdentifiedRegion@234@@boost@@@boost@@PEAX@std@@@std@@@std@@QEAAXV?$_List_unchecked_const_iterator@V?$_List_val@U?$_List_simple_types@V?$variant@IUStartAndEndValidity@v2@security@vanetza@@UStartAndDurationValidity@234@V?$variant@UNoneRegion@v2@security@vanetza@@UCircularRegion@234@V?$list@URectangularRegion@v2@security@vanetza@@V?$allocator@URectangularRegion@v2@security@vanetza@@@std@@@std@@V?$list@UTwoDLocation@v2@security@vanetza@@V?$allocator@UTwoDLocation@v2@security@vanetza@@@std@@@7@UIdentifiedRegion@234@@boost@@@boost@@@std@@@std@@U_Iterator_base0@2@@1@V21@@Z
	??$_Append_range_unchecked@V?$_List_unchecked_const_iterator@V?$_List_val@U?$_List_simple_types@V?$variant@USignature@v2@security@vanetza@@$$V@boost@@@std@@@std@@U_Iterator_base0@2@@std@@V12@@?$_List_node_insert_op2@V?$allocator@U?$_List_node@V?$variant@USignature@v2@security@vanetza@@$$V@boost@@PEAX@std@@@std@@@std@@QEAAXV?$_List_unchecked_const_iterator@V?$_List_val@U?$_List_simple_types@V?$variant@USignature@v2@security@vanetza@@$$V@boost@@@std@@@std@@U_Iterator_base0@2@@1@V21@@Z
	??$_Append_range_unchecked@V?$_List_unchecked_const_iterator@V?$_List_val@U?$_List_simple_types@V?$variant@UVerificationKey@v2@security@vanetza@@UEncryptionKey@234@USubjectAssurance@234@V?$variant@UX_Coordinate_Only@security@vanetza@@UCompressed_Lsb_Y_0@23@UCompressed_Lsb_Y_1@23@UUncompressed@23@@boost@@V?$list@VIntX@v2@security@vanetza@@V?$allocator@VIntX@v2@security@vanetza@@@std@@@std@@V?$list@UItsAidSsp@v2@security@vanetza@@V?$allocator@UItsAidSsp@v2@security@vanetza@@@std@@@std@@@boost@@@std@@@std@@U_Iterator_base0@2@@std@@V12@@?$_List_node_insert_op2@V?$allocator@U?$_List_node@V?$variant@UVerificationKey@v2@security@vanetza@@UEncryptionKey@234@USubjectAssurance@234@V?$variant@UX_Coordinate_Only@security@vanetza@@UCompressed_Lsb_Y_0@23@UCompressed_Lsb_Y_1@23@UUncompressed@23@@boost@@V?$list@VIntX@v2@security@vanetza@@V?$allocator@VIntX@v2@security@vanetza@@@std@@@std@@V?$list@UItsAidSsp@v2@security@vanetza@@V?$allocator@UItsAidSsp@v2@security@vanetza@@@std@@@std@@@boost@@PEAX@std@@@std@@@std@@QEAAXV?$_List_unchecked_const_iterator@V?$_List_val@U?$_List_simple_types@V?$variant@UVerificationKey@v2@security@vanetza@@UEncryptionKey@234@USubjectAssurance@234@V?$variant@UX_Coordinate_Only@security@vanetza@@UCompressed_Lsb_Y_0@23@UCompressed_Lsb_Y_1@23@UUncompressed@23@@boost@@V?$list@VIntX@v2@security@vanetza@@V?$allocator@VIntX@v2@security@vanetza@@@std@@@std@@V?$list@UItsAidSsp@v2@security@vanetza@@V?$allocator@UItsAidSsp@v2@security@vanetza@@@std@@@std@@@boost@@@std@@@std@@U_Iterator_base0@2@@1@V21@@Z
	??$_Append_range_unchecked@V?$_List_unchecked_const_iterator@V?$_List_val@U?$_List_simple_types@V?$variant@_KUTime64WithStandardDeviation@v2@security@vanetza@@IUThreeDLocation@234@V?$list@V?$array@E$02@std@@V?$allocator@V?$array@E$02@std@@@2@@std@@VIntX@234@V?$variant@$$TV?$array@E$07@std@@V?$recursive_wrapper@UCertificate@v2@security@vanetza@@@boost@@V?$list@UCertificate@v2@security@vanetza@@V?$allocator@UCertificate@v2@security@vanetza@@@std@@@2@UCertificateDigestWithOtherAlgorithm@v2@security@vanetza@@@boost@@V?$variant@V?$array@E$0M@@std@@$$V@boost@@V?$list@URecipientInfo@v2@security@vanetza@@V?$allocator@URecipientInfo@v2@security@vanetza@@@std@@@7@@boost@@@std@@@std@@U_Iterator_base0@2@@std@@V12@@?$_List_node_insert_op2@V?$allocator@U?$_List_node@V?$variant@_KUTime64WithStandardDeviation@v2@security@vanetza@@IUThreeDLocation@234@V?$list@V?$array@E$02@std@@V?$allocator@V?$array@E$02@std@@@2@@std@@VIntX@234@V?$variant@$$TV?$array@E$07@std@@V?$recursive_wrapper@UCertificate@v2@security@vanetza@@@boost@@V?$list@UCertificate@v2@security@vanetza@@V?$allocator@UCertificate@v2@security@vanetza@@@std@@@2@UCertificateDigestWithOtherAlgorithm@v2@security@vanetza@@@boost@@V?$variant@V?$array@E$0M@@std@@$$V@boost@@V?$list@URecipientInfo@v2@security@vanetza@@V?$allocator@URecipientInfo@v2@security@vanetza@@@std@@@7@@boost@@PEAX@std@@@std@@@std@@QEAAXV?$_List_unchecked_const_iterator@V?$_List_val@U?$_List_simple_types@V?$variant@_KUTime64WithStandardDeviation@v2@security@vanetza@@IUThreeDLocation@234@V?$list@V?$array@E$02@std@@V?$allocator@V?$array@E$02@std@@@2@@std@@VIntX@234@V?$variant@$$TV?$array@E$07@std@@V?$recursive_wrapper@UCertificate@v2@security@vanetza@@@boost@@V?$list@UCertificate@v2@security@vanetza@@V?$allocator@UCertificate@v2@security@vanetza@@@std@@@2@UCertificateDigestWithOtherAlgorithm@v2@security@vanetza@@@boost@@V?$variant@V?$array@E$0M@@std@@$$V@boost@@V?$list@URecipientInfo@v2@security@vanetza@@V?$allocator@URecipientInfo@v2@security@vanetza@@@std@@@7@@boost@@@std@@@std@@U_Iterator_base0@2@@1@V21@@Z
	??$_Append_range_unchecked@V?$_List_unchecked_const_iterator@V?$_List_val@U?$_List_simple_types@VIntX@v2@security@vanetza@@@std@@@std@@U_Iterator_base0@2@@std@@V12@@?$_List_node_insert_op2@V?$allocator@U?$_List_node@VIntX@v2@security@vanetza@@PEAX@std@@@std@@@std@@QEAAXV?$_List_unchecked_const_iterator@V?$_List_val@U?$_List_simple_types@VIntX@v2@security@vanetza@@@std@@@std@@U_Iterator_base0@2@@1@V21@@Z
	??$_Append_range_unchecked@V?$_Tree_unchecked_const_iterator@V?$_Tree_val@U?$_Tree_simple_types@V?$array@E$02@std@@@std@@@std@@U_Iterator_base0@2@@std@@V12@@?$_List_node_insert_op2@V?$allocator@U?$_List_node@V?$array@E$02@std@@PEAX@std@@@std@@@std@@QEAAXV?$_Tree_unchecked_const_iterator@V?$_Tree_val@U?$_Tree_simple_types@V?$array@E$02@std@@@std@@@std@@U_Iterator_base0@2@@1@V21@@Z
	??$_Assign_cast@AEAUCertificate@v2@security@vanetza@@V?$_List_unchecked_const_iterator@V?$_List_val@U?$_List_simple_types@UCertificate@v2@security@vanetza@@@std@@@std@@U_Iterator_base0@2@@std@@@?$list@UCertificate@v2@security@vanetza@@V?$allocator@UCertificate@v2@security@vanetza@@@std@@@std@@AEAAXV?$_List_unchecked_const_iterator@V?$_List_val@U?$_List_simple_types@UCertificate@v2@security@vanetza@@@std@@@std@@U_Iterator_base0@2@@1@V21@@Z
	??$_Assign_cast@AEAUItsAidSsp@v2@security@vanetza@@V?$_List_unchecked_const_iterator@V?$_List_val@U?$_List_simple_types@UItsAidSsp@v2@security@vanetza@@@std@@@std@@U_Iterator_base0@2@@std@@@?$list@UItsAidSsp@v2@security@vanetza@@V?$allocator@UItsAidSsp@v2@security@vanetza@@@std@@@std@@AEAAXV?$_List_unchecked_const_iterator@V?$_List_val@U?$_List_simple_types@UItsAidSsp@v2@security@vanetza@@@std@@@std@@U_Iterator_base0@2@@1@V21@@Z
	??$_Assign_cast@AEAURecipientInfo@v2@security@vanetza@@V?$_List_unchecked_const_iterator@V?$_List_val@U?$_List_simple_types@URecipientInfo@v2@security@vanetza@@@std@@@std@@U_Iterator_base0@2@@std@@@?$list@URecipientInfo@v2@security@vanetza@@V?$allocator@URecipientInfo@v2@security@vanetza@@@std@@@std@@AEAAXV?$_List_unchecked_const_iterator@V?$_List_val@U?$_List_simple_types@URecipientInfo@v2@security@vanetza@@@std@@@std@@U_Iterator_base0@2@@1@V21@@Z
	??$_Assign_cast@AEAURectangularRegion@v2@security@vanetza@@V?$_List_unchecked_const_iterator@V?$_List_val@U?$_List_simple_types@URectangularRegion@v2@security@vanetza@@@std@@@std@@U_Iterator_base0@2@@std@@@?$list@URectangularRegion@v2@security@vanetza@@V?$allocator@URectangularRegion@v2@security@vanetza@@@std@@@std@@AEAAXV?$_List_unchecked_const_iterator@V?$_List_val@U?$_List_simple_types@URectangularRegion@v2@security@vanetza@@@std@@@std@@U_Iterator_base0@2@@1@V21@@Z
	??$_Assign_cast@AEAUTwoDLocation@v2@security@vanetza@@V?$_List_unchecked_const_iterator@V?$_List_val@U?$_List_simple_types@UTwoDLocation@v2@security@vanetza@@@std@@@std@@U_Iterator_base0@2@@std@@@?$list@UTwoDLocation@v2@security@vanetza@@V?$allocator@UTwoDLocation@v2@security@vanetza@@@std@@@std@@AEAAXV?$_List_unchecked_const_iterator@V?$_List_val@U?$_List_simple_types@UTwoDLocation@v2@security@vanetza@@@std@@@std@@U_Iterator_base0@2@@1@V21@@Z
	??$_Assign_cast@AEAV?$array@E$02@std@@V?$_List_unchecked_const_iterator@V?$_List_val@U?$_List_simple_types@V?$array@E$02@std@@@std@@@std@@U_Iterator_base0@2@@2@@?$list@V?$array@E$02@std@@V?$allocator@V?$array@E$02@std@@@2@@std@@AEAAXV?$_List_unchecked_const_iterator@V?$_List_val@U?$_List_simple_types@V?$array@E$02@std@@@std@@@std@@U_Iterator_base0@2@@1@V21@@Z
	??$_Assign_cast@AEAV?$variant@IUStartAndEndValidity@v2@security@vanetza@@UStartAndDurationValidity@234@V?$variant@UNoneRegion@v2@security@vanetza@@UCircularRegion@234@V?$list@URectangularRegion@v2@security@vanetza@@V?$allocator@URectangularRegion@v2@security@vanetza@@@std@@@std@@V?$list@UTwoDLocation@v2@security@vanetza@@V?$allocator@UTwoDLocation@v2@security@vanetza@@@std@@@7@UIdentifiedRegion@234@@boost@@@boost@@V?$_List_unchecked_const_iterator@V?$_List_val@U?$_List_simple_types@V?$variant@IUStartAndEndValidity@v2@security@vanetza@@UStartAndDurationValidity@234@V?$variant@UNoneRegion@v2@security@vanetza@@UCircularRegion@234@V?$list@URectangularRegion@v2@security@vanetza@@V?$allocator@URectangularRegion@v2@security@vanetza@@@std@@@std@@V?$list@UTwoDLocation@v2@security@vanetza@@V?$allocator@UTwoDLocation@v2@security@vanetza@@@std@@@7@UIdentifiedRegion@234@@boost@@@boost@@@std@@@std@@U_Iterator_base0@2@@std@@@?$list@V?$variant@IUStartAndEndValidity@v2@security@vanetza@@UStartAndDurationValidity@234@V?$variant@UNoneRegion@v2@security@vanetza@@UCircularRegion@234@V?$list@URectangularRegion@v2@security@vanetza@@V?$allocator@URectangularRegion@v2@security@vanetza@@@std@@@std@@V?$list@UTwoDLocation@v2@security@vanetza@@V?$allocator@UTwoDLocation@v2@security@vanetza@@@std@@@7@UIdentifiedRegion@234@@boost@@@boost@@V?$allocator@V?$variant@IUStartAndEndValidity@v2@security@vanetza@@UStartAndDurationValidity@234@V?$variant@UNoneRegion@v2@security@vanetza@@UCircularRegion@234@V?$list@URectangularRegion@v2@security@vanetza@@V?$allocator@URectangularRegion@v2@security@vanetza@@@std@@@std@@V?$list@UTwoDLocation@v2@security@vanetza@@V?$allocator@UTwoDLocation@v2@security@vanetza@@@std@@@7@UIdentifiedRegion@234@@boost@@@boost@@@std@@@std@@AEAAXV?$_List_unchecked_const_iterator@V?$_List_val@U?$_List_simple_types@V?$variant@IUStartAndEndValidity@v2@security@vanetza@@UStartAndDurationValidity@234@V?$variant@UNoneRegion@v2@security@vanetza@@UCircularRegion@234@V?$list@URectangularRegion@v2@security@vanetza@@V?$allocator@URectangularRegion@v2@security@vanetza@@@std@@@std@@V?$list@UTwoDLocation@v2@security@vanetza@@V?$allocator@UTwoDLocation@v2@security@vanetza@@@std@@@7@UIdentifiedRegion@234@@boost@@@boost@@@std@@@std@@U_Iterator_base0@2@@1@V21@@Z
	??$_Assign_cast@AEAV?$variant@UVerificationKey@v2@security@vanetza@@UEncryptionKey@234@USubjectAssurance@234@V?$variant@UX_Coordinate_Only@security@vanetza@@UCompressed_Lsb_Y_0@23@UCompressed_Lsb_Y_1@23@UUncompressed@23@@boost@@V?$list@VIntX@v2@security@vanetza@@V?$allocator@VIntX@v2@security@vanetza@@@std@@@std@@V?$list@UItsAidSsp@v2@security@vanetza@@V?$allocator@UItsAidSsp@v2@security@vanetza@@@std@@@std@@@boost@@V?$_List_unchecked_const_iterator@V?$_List_val@U?$_List_simple_types@V?$variant@UVerificationKey@v2@security@vanetza@@UEncryptionKey@234@USubjectAssurance@234@V?$variant@UX_Coordinate_Only@security@vanetza@@UCompressed_Lsb_Y_0@23@UCompressed_Lsb_Y_1@23@UUncompressed@23@@boost@@V?$list@VIntX@v2@security@vanetza@@V?$allocator@VIntX@v2@security@vanetza@@@std@@@std@@V?$list@UItsAidSsp@v2@security@vanetza@@V?$allocator@UItsAidSsp@v2@security@vanetza@@@std@@@std@@@boost@@@std@@@std@@U_Iterator_base0@2@@std@@@?$list@V?$variant@UVerificationKey@v2@security@vanetza@@UEncryptionKey@234@USubjectAssurance@234@V?$variant@UX_Coordinate_Only@security@vanetza@@UCompressed_Lsb_Y_0@23@UCompressed_Lsb_Y_1@23@UUncompressed@23@@boost@@V?$list@VIntX@v2@security@vanetza@@V?$allocator@VIntX@v2@security@vanetza@@@std@@@std@@V?$list@UItsAidSsp@v2@security@vanetza@@V?$allocator@UItsAidSsp@v2@security@vanetza@@@std@@@std@@@boost@@V?$allocator@V?$variant@UVerificationKey@v2@security@vanetza@@UEncryptionKey@234@USubjectAssurance@234@V?$variant@UX_Coordinate_Only@security@vanetza@@UCompressed_Lsb_Y_0@23@UCompressed_Lsb_Y_1@23@UUncompressed@23@@boost@@V?$list@VIntX@v2@security@vanetza@@V?$allocator@VIntX@v2@security@vanetza@@@std@@@std@@V?$list@UItsAidSsp@v2@security@vanetza@@V?$allocator@UItsAidSsp@v2@security@vanetza@@@std@@@std@@@boost@@@std@@@std@@AEAAXV?$_List_unchecked_const_iterator@V?$_List_val@U?$_List_simple_types@V?$variant@UVerificationKey@v2@security@vanetza@@UEncryptionKey@234@USubjectAssurance@234@V?$variant@UX_Coordinate_Only@security@vanetza@@UCompressed_Lsb_Y_0@23@UCompressed_Lsb_Y_1@23@UUncompressed@23@@boost@@V?$list@VIntX@v2@security@vanetza@@V?$allocator@VIntX@v2@security@vanetza@@@std@@@std@@V?$list@UItsAidSsp@v2@security@vanetza@@V?$allocator@UItsAidSsp@v2@security@vanetza@@@std@@@std@@@boost@@@std@@@std@@U_Iterator_base0@2@@1@V21@@Z
	??$_Assign_cast@AEAVIntX@v2@security@vanetza@@V?$_List_unchecked_const_iterator@V?$_List_val@U?$_List_simple_types@VIntX@v2@security@vanetza@@@std@@@std@@U_Iterator_base0@2@@std@@@?$list@VIntX@v2@security@vanetza@@V?$allocator@VIntX@v2@security@vanetza@@@std@@@std@@AEAAXV?$_List_unchecked_const_iterator@V?$_List_val@U?$_List_simple_types@VIntX@v2@security@vanetza@@@std@@@std@@U_Iterator_base0@2@@1@V21@@Z
	??$_Assign_range@PEAE@?$vector@EV?$allocator@E@std@@@std@@AEAAXPEAE0Uforward_iterator_tag@1@@Z
	??$_Assign_range@PEAI@?$vector@IV?$allocator@I@std@@@std@@AEAAXPEAI0Uforward_iterator_tag@1@@Z
	??$_Assign_range@PEAPEAX@?$vector@PEAXV?$allocator@PEAX@std@@@std@@AEAAXPEAPEAX0Uforward_iterator_tag@1@@Z
	??$_Assign_range@PEAUECPPoint@CryptoPP@@@?$vector@UECPPoint@CryptoPP@@V?$allocator@UECPPoint@CryptoPP@@@std@@@std@@AEAAXPEAUECPPoint@CryptoPP@@0Uforward_iterator_tag@1@@Z
	??$_Assign_range@PEBE@?$vector@EV?$allocator@E@std@@@std@@AEAAXPEBE0Uforward_iterator_tag@1@@Z
	??$_Atomic_address_as@HU?$_Atomic_padded@J@std@@@std@@YAPEDHAEBU?$_Atomic_padded@J@0@@Z
	??$_Atomic_address_as@JU?$_Atomic_padded@H@std@@@std@@YAPECJAEAU?$_Atomic_padded@H@0@@Z
	??$_Atomic_address_as@JU?$_Atomic_padded@J@std@@@std@@YAPECJAEAU?$_Atomic_padded@J@0@@Z
	??$_Atomic_address_as@_JU?$_Atomic_padded@PEAV?$DL_Algorithm_ECDSA@VECP@CryptoPP@@@CryptoPP@@@std@@@std@@YAPEC_JAEAU?$_Atomic_padded@PEAV?$DL_Algorithm_ECDSA@VECP@CryptoPP@@@CryptoPP@@@0@@Z
	??$_Atomic_address_as@_JU?$_Atomic_padded@PEAV?$DL_Algorithm_ECDSA@VECP@CryptoPP@@@CryptoPP@@@std@@@std@@YAPED_JAEBU?$_Atomic_padded@PEAV?$DL_Algorithm_ECDSA@VECP@CryptoPP@@@CryptoPP@@@0@@Z
	??$_Atomic_address_as@_JU?$_Atomic_padded@PEAVDL_SignatureMessageEncodingMethod_DSA@CryptoPP@@@std@@@std@@YAPEC_JAEAU?$_Atomic_padded@PEAVDL_SignatureMessageEncodingMethod_DSA@CryptoPP@@@0@@Z
	??$_Atomic_address_as@_JU?$_Atomic_padded@PEAVDL_SignatureMessageEncodingMethod_DSA@CryptoPP@@@std@@@std@@YAPED_JAEBU?$_Atomic_padded@PEAVDL_SignatureMessageEncodingMethod_DSA@CryptoPP@@@0@@Z
	??$_Atomic_reinterpret_as@JJ@std@@YAJAEBJ@Z
	??$_Atomic_reinterpret_as@_JPEAV?$DL_Algorithm_ECDSA@VECP@CryptoPP@@@CryptoPP@@@std@@YA_JAEBQEAV?$DL_Algorithm_ECDSA@VECP@CryptoPP@@@CryptoPP@@@Z
	??$_Atomic_reinterpret_as@_JPEAVDL_SignatureMessageEncodingMethod_DSA@CryptoPP@@@std@@YA_JAEBQEAVDL_SignatureMessageEncodingMethod_DSA@CryptoPP@@@Z
	??$_Attach_at_end@U?$_List_simple_types@UCertificate@v2@security@vanetza@@@std@@@?$_List_node_insert_op2@V?$allocator@U?$_List_node@UCertificate@v2@security@vanetza@@PEAX@std@@@std@@@std@@QEAAXAEAV?$_List_val@U?$_List_simple_types@UCertificate@v2@security@vanetza@@@std@@@1@@Z
	??$_Attach_at_end@U?$_List_simple_types@UItsAidSsp@v2@security@vanetza@@@std@@@?$_List_node_insert_op2@V?$allocator@U?$_List_node@UItsAidSsp@v2@security@vanetza@@PEAX@std@@@std@@@std@@QEAAXAEAV?$_List_val@U?$_List_simple_types@UItsAidSsp@v2@security@vanetza@@@std@@@1@@Z
	??$_Attach_at_end@U?$_List_simple_types@URecipientInfo@v2@security@vanetza@@@std@@@?$_List_node_insert_op2@V?$allocator@U?$_List_node@URecipientInfo@v2@security@vanetza@@PEAX@std@@@std@@@std@@QEAAXAEAV?$_List_val@U?$_List_simple_types@URecipientInfo@v2@security@vanetza@@@std@@@1@@Z
	??$_Attach_at_end@U?$_List_simple_types@URectangularRegion@v2@security@vanetza@@@std@@@?$_List_node_insert_op2@V?$allocator@U?$_List_node@URectangularRegion@v2@security@vanetza@@PEAX@std@@@std@@@std@@QEAAXAEAV?$_List_val@U?$_List_simple_types@URectangularRegion@v2@security@vanetza@@@std@@@1@@Z
	??$_Attach_at_end@U?$_List_simple_types@UTwoDLocation@v2@security@vanetza@@@std@@@?$_List_node_insert_op2@V?$allocator@U?$_List_node@UTwoDLocation@v2@security@vanetza@@PEAX@std@@@std@@@std@@QEAAXAEAV?$_List_val@U?$_List_simple_types@UTwoDLocation@v2@security@vanetza@@@std@@@1@@Z
	??$_Attach_at_end@U?$_List_simple_types@V?$array@E$02@std@@@std@@@?$_List_node_insert_op2@V?$allocator@U?$_List_node@V?$array@E$02@std@@PEAX@std@@@std@@@std@@QEAAXAEAV?$_List_val@U?$_List_simple_types@V?$array@E$02@std@@@std@@@1@@Z
	??$_Attach_at_end@U?$_List_simple_types@V?$variant@IUStartAndEndValidity@v2@security@vanetza@@UStartAndDurationValidity@234@V?$variant@UNoneRegion@v2@security@vanetza@@UCircularRegion@234@V?$list@URectangularRegion@v2@security@vanetza@@V?$allocator@URectangularRegion@v2@security@vanetza@@@std@@@std@@V?$list@UTwoDLocation@v2@security@vanetza@@V?$allocator@UTwoDLocation@v2@security@vanetza@@@std@@@7@UIdentifiedRegion@234@@boost@@@boost@@@std@@@?$_List_node_insert_op2@V?$allocator@U?$_List_node@V?$variant@IUStartAndEndValidity@v2@security@vanetza@@UStartAndDurationValidity@234@V?$variant@UNoneRegion@v2@security@vanetza@@UCircularRegion@234@V?$list@URectangularRegion@v2@security@vanetza@@V?$allocator@URectangularRegion@v2@security@vanetza@@@std@@@std@@V?$list@UTwoDLocation@v2@security@vanetza@@V?$allocator@UTwoDLocation@v2@security@vanetza@@@std@@@7@UIdentifiedRegion@234@@boost@@@boost@@PEAX@std@@@std@@@std@@QEAAXAEAV?$_List_val@U?$_List_simple_types@V?$variant@IUStartAndEndValidity@v2@security@vanetza@@UStartAndDurationValidity@234@V?$variant@UNoneRegion@v2@security@vanetza@@UCircularRegion@234@V?$list@URectangularRegion@v2@security@vanetza@@V?$allocator@URectangularRegion@v2@security@vanetza@@@std@@@std@@V?$list@UTwoDLocation@v2@security@vanetza@@V?$allocator@UTwoDLocation@v2@security@vanetza@@@std@@@7@UIdentifiedRegion@234@@boost@@@boost@@@std@@@1@@Z
	??$_Attach_at_end@U?$_List_simple_types@V?$variant@UVerificationKey@v2@security@vanetza@@UEncryptionKey@234@USubjectAssurance@234@V?$variant@UX_Coordinate_Only@security@vanetza@@UCompressed_Lsb_Y_0@23@UCompressed_Lsb_Y_1@23@UUncompressed@23@@boost@@V?$list@VIntX@v2@security@vanetza@@V?$allocator@VIntX@v2@security@vanetza@@@std@@@std@@V?$list@UItsAidSsp@v2@security@vanetza@@V?$allocator@UItsAidSsp@v2@security@vanetza@@@std@@@std@@@boost@@@std@@@?$_List_node_insert_op2@V?$allocator@U?$_List_node@V?$variant@UVerificationKey@v2@security@vanetza@@UEncryptionKey@234@USubjectAssurance@234@V?$variant@UX_Coordinate_Only@security@vanetza@@UCompressed_Lsb_Y_0@23@UCompressed_Lsb_Y_1@23@UUncompressed@23@@boost@@V?$list@VIntX@v2@security@vanetza@@V?$allocator@VIntX@v2@security@vanetza@@@std@@@std@@V?$list@UItsAidSsp@v2@security@vanetza@@V?$allocator@UItsAidSsp@v2@security@vanetza@@@std@@@std@@@boost@@PEAX@std@@@std@@@std@@QEAAXAEAV?$_List_val@U?$_List_simple_types@V?$variant@UVerificationKey@v2@security@vanetza@@UEncryptionKey@234@USubjectAssurance@234@V?$variant@UX_Coordinate_Only@security@vanetza@@UCompressed_Lsb_Y_0@23@UCompressed_Lsb_Y_1@23@UUncompressed@23@@boost@@V?$list@VIntX@v2@security@vanetza@@V?$allocator@VIntX@v2@security@vanetza@@@std@@@std@@V?$list@UItsAidSsp@v2@security@vanetza@@V?$allocator@UItsAidSsp@v2@security@vanetza@@@std@@@std@@@boost@@@std@@@1@@Z
	??$_Attach_at_end@U?$_List_simple_types@VIntX@v2@security@vanetza@@@std@@@?$_List_node_insert_op2@V?$allocator@U?$_List_node@VIntX@v2@security@vanetza@@PEAX@std@@@std@@@std@@QEAAXAEAV?$_List_val@U?$_List_simple_types@VIntX@v2@security@vanetza@@@std@@@1@@Z
	??$_Attach_before@U?$_List_simple_types@E@std@@@?$_List_node_insert_op2@V?$allocator@U?$_List_node@EPEAX@std@@@std@@@std@@QEAAPEAU?$_List_node@EPEAX@1@AEAV?$_List_val@U?$_List_simple_types@E@std@@@1@QEAU21@@Z
	??$_Attach_before@U?$_List_simple_types@UCertificate@v2@security@vanetza@@@std@@@?$_List_node_insert_op2@V?$allocator@U?$_List_node@UCertificate@v2@security@vanetza@@PEAX@std@@@std@@@std@@QEAAPEAU?$_List_node@UCertificate@v2@security@vanetza@@PEAX@1@AEAV?$_List_val@U?$_List_simple_types@UCertificate@v2@security@vanetza@@@std@@@1@QEAU21@@Z
	??$_Attach_before@U?$_List_simple_types@UItsAidSsp@v2@security@vanetza@@@std@@@?$_List_node_insert_op2@V?$allocator@U?$_List_node@UItsAidSsp@v2@security@vanetza@@PEAX@std@@@std@@@std@@QEAAPEAU?$_List_node@UItsAidSsp@v2@security@vanetza@@PEAX@1@AEAV?$_List_val@U?$_List_simple_types@UItsAidSsp@v2@security@vanetza@@@std@@@1@QEAU21@@Z
	??$_Attach_before@U?$_List_simple_types@URecipientInfo@v2@security@vanetza@@@std@@@?$_List_node_insert_op2@V?$allocator@U?$_List_node@URecipientInfo@v2@security@vanetza@@PEAX@std@@@std@@@std@@QEAAPEAU?$_List_node@URecipientInfo@v2@security@vanetza@@PEAX@1@AEAV?$_List_val@U?$_List_simple_types@URecipientInfo@v2@security@vanetza@@@std@@@1@QEAU21@@Z
	??$_Attach_before@U?$_List_simple_types@URectangularRegion@v2@security@vanetza@@@std@@@?$_List_node_insert_op2@V?$allocator@U?$_List_node@URectangularRegion@v2@security@vanetza@@PEAX@std@@@std@@@std@@QEAAPEAU?$_List_node@URectangularRegion@v2@security@vanetza@@PEAX@1@AEAV?$_List_val@U?$_List_simple_types@URectangularRegion@v2@security@vanetza@@@std@@@1@QEAU21@@Z
	??$_Attach_before@U?$_List_simple_types@UTwoDLocation@v2@security@vanetza@@@std@@@?$_List_node_insert_op2@V?$allocator@U?$_List_node@UTwoDLocation@v2@security@vanetza@@PEAX@std@@@std@@@std@@QEAAPEAU?$_List_node@UTwoDLocation@v2@security@vanetza@@PEAX@1@AEAV?$_List_val@U?$_List_simple_types@UTwoDLocation@v2@security@vanetza@@@std@@@1@QEAU21@@Z
	??$_Attach_before@U?$_List_simple_types@V?$array@E$02@std@@@std@@@?$_List_node_insert_op2@V?$allocator@U?$_List_node@V?$array@E$02@std@@PEAX@std@@@std@@@std@@QEAAPEAU?$_List_node@V?$array@E$02@std@@PEAX@1@AEAV?$_List_val@U?$_List_simple_types@V?$array@E$02@std@@@std@@@1@QEAU21@@Z
	??$_Attach_before@U?$_List_simple_types@V?$variant@IUStartAndEndValidity@v2@security@vanetza@@UStartAndDurationValidity@234@V?$variant@UNoneRegion@v2@security@vanetza@@UCircularRegion@234@V?$list@URectangularRegion@v2@security@vanetza@@V?$allocator@URectangularRegion@v2@security@vanetza@@@std@@@std@@V?$list@UTwoDLocation@v2@security@vanetza@@V?$allocator@UTwoDLocation@v2@security@vanetza@@@std@@@7@UIdentifiedRegion@234@@boost@@@boost@@@std@@@?$_List_node_insert_op2@V?$allocator@U?$_List_node@V?$variant@IUStartAndEndValidity@v2@security@vanetza@@UStartAndDurationValidity@234@V?$variant@UNoneRegion@v2@security@vanetza@@UCircularRegion@234@V?$list@URectangularRegion@v2@security@vanetza@@V?$allocator@URectangularRegion@v2@security@vanetza@@@std@@@std@@V?$list@UTwoDLocation@v2@security@vanetza@@V?$allocator@UTwoDLocation@v2@security@vanetza@@@std@@@7@UIdentifiedRegion@234@@boost@@@boost@@PEAX@std@@@std@@@std@@QEAAPEAU?$_List_node@V?$variant@IUStartAndEndValidity@v2@security@vanetza@@UStartAndDurationValidity@234@V?$variant@UNoneRegion@v2@security@vanetza@@UCircularRegion@234@V?$list@URectangularRegion@v2@security@vanetza@@V?$allocator@URectangularRegion@v2@security@vanetza@@@std@@@std@@V?$list@UTwoDLocation@v2@security@vanetza@@V?$allocator@UTwoDLocation@v2@security@vanetza@@@std@@@7@UIdentifiedRegion@234@@boost@@@boost@@PEAX@1@AEAV?$_List_val@U?$_List_simple_types@V?$variant@IUStartAndEndValidity@v2@security@vanetza@@UStartAndDurationValidity@234@V?$variant@UNoneRegion@v2@security@vanetza@@UCircularRegion@234@V?$list@URectangularRegion@v2@security@vanetza@@V?$allocator@URectangularRegion@v2@security@vanetza@@@std@@@std@@V?$list@UTwoDLocation@v2@security@vanetza@@V?$allocator@UTwoDLocation@v2@security@vanetza@@@std@@@7@UIdentifiedRegion@234@@boost@@@boost@@@std@@@1@QEAU21@@Z
	??$_Attach_before@U?$_List_simple_types@V?$variant@UVerificationKey@v2@security@vanetza@@UEncryptionKey@234@USubjectAssurance@234@V?$variant@UX_Coordinate_Only@security@vanetza@@UCompressed_Lsb_Y_0@23@UCompressed_Lsb_Y_1@23@UUncompressed@23@@boost@@V?$list@VIntX@v2@security@vanetza@@V?$allocator@VIntX@v2@security@vanetza@@@std@@@std@@V?$list@UItsAidSsp@v2@security@vanetza@@V?$allocator@UItsAidSsp@v2@security@vanetza@@@std@@@std@@@boost@@@std@@@?$_List_node_insert_op2@V?$allocator@U?$_List_node@V?$variant@UVerificationKey@v2@security@vanetza@@UEncryptionKey@234@USubjectAssurance@234@V?$variant@UX_Coordinate_Only@security@vanetza@@UCompressed_Lsb_Y_0@23@UCompressed_Lsb_Y_1@23@UUncompressed@23@@boost@@V?$list@VIntX@v2@security@vanetza@@V?$allocator@VIntX@v2@security@vanetza@@@std@@@std@@V?$list@UItsAidSsp@v2@security@vanetza@@V?$allocator@UItsAidSsp@v2@security@vanetza@@@std@@@std@@@boost@@PEAX@std@@@std@@@std@@QEAAPEAU?$_List_node@V?$variant@UVerificationKey@v2@security@vanetza@@UEncryptionKey@234@USubjectAssurance@234@V?$variant@UX_Coordinate_Only@security@vanetza@@UCompressed_Lsb_Y_0@23@UCompressed_Lsb_Y_1@23@UUncompressed@23@@boost@@V?$list@VIntX@v2@security@vanetza@@V?$allocator@VIntX@v2@security@vanetza@@@std@@@std@@V?$list@UItsAidSsp@v2@security@vanetza@@V?$allocator@UItsAidSsp@v2@security@vanetza@@@std@@@std@@@boost@@PEAX@1@AEAV?$_List_val@U?$_List_simple_types@V?$variant@UVerificationKey@v2@security@vanetza@@UEncryptionKey@234@USubjectAssurance@234@V?$variant@UX_Coordinate_Only@security@vanetza@@UCompressed_Lsb_Y_0@23@UCompressed_Lsb_Y_1@23@UUncompressed@23@@boost@@V?$list@VIntX@v2@security@vanetza@@V?$allocator@VIntX@v2@security@vanetza@@@std@@@std@@V?$list@UItsAidSsp@v2@security@vanetza@@V?$allocator@UItsAidSsp@v2@security@vanetza@@@std@@@std@@@boost@@@std@@@1@QEAU21@@Z
	??$_Attach_before@U?$_List_simple_types@VIntX@v2@security@vanetza@@@std@@@?$_List_node_insert_op2@V?$allocator@U?$_List_node@VIntX@v2@security@vanetza@@PEAX@std@@@std@@@std@@QEAAPEAU?$_List_node@VIntX@v2@security@vanetza@@PEAX@1@AEAV?$_List_val@U?$_List_simple_types@VIntX@v2@security@vanetza@@@std@@@1@QEAU21@@Z
	??$_Attach_head@U?$_List_simple_types@UCertificate@v2@security@vanetza@@@std@@@?$_List_node_insert_op2@V?$allocator@U?$_List_node@UCertificate@v2@security@vanetza@@PEAX@std@@@std@@@std@@QEAAXAEAV?$_List_val@U?$_List_simple_types@UCertificate@v2@security@vanetza@@@std@@@1@@Z
	??$_Attach_head@U?$_List_simple_types@UItsAidSsp@v2@security@vanetza@@@std@@@?$_List_node_insert_op2@V?$allocator@U?$_List_node@UItsAidSsp@v2@security@vanetza@@PEAX@std@@@std@@@std@@QEAAXAEAV?$_List_val@U?$_List_simple_types@UItsAidSsp@v2@security@vanetza@@@std@@@1@@Z
	??$_Attach_head@U?$_List_simple_types@URecipientInfo@v2@security@vanetza@@@std@@@?$_List_node_insert_op2@V?$allocator@U?$_List_node@URecipientInfo@v2@security@vanetza@@PEAX@std@@@std@@@std@@QEAAXAEAV?$_List_val@U?$_List_simple_types@URecipientInfo@v2@security@vanetza@@@std@@@1@@Z
	??$_Attach_head@U?$_List_simple_types@URectangularRegion@v2@security@vanetza@@@std@@@?$_List_node_insert_op2@V?$allocator@U?$_List_node@URectangularRegion@v2@security@vanetza@@PEAX@std@@@std@@@std@@QEAAXAEAV?$_List_val@U?$_List_simple_types@URectangularRegion@v2@security@vanetza@@@std@@@1@@Z
	??$_Attach_head@U?$_List_simple_types@UTwoDLocation@v2@security@vanetza@@@std@@@?$_List_node_insert_op2@V?$allocator@U?$_List_node@UTwoDLocation@v2@security@vanetza@@PEAX@std@@@std@@@std@@QEAAXAEAV?$_List_val@U?$_List_simple_types@UTwoDLocation@v2@security@vanetza@@@std@@@1@@Z
	??$_Attach_head@U?$_List_simple_types@V?$array@E$02@std@@@std@@@?$_List_node_insert_op2@V?$allocator@U?$_List_node@V?$array@E$02@std@@PEAX@std@@@std@@@std@@QEAAXAEAV?$_List_val@U?$_List_simple_types@V?$array@E$02@std@@@std@@@1@@Z
	??$_Attach_head@U?$_List_simple_types@V?$variant@IUStartAndEndValidity@v2@security@vanetza@@UStartAndDurationValidity@234@V?$variant@UNoneRegion@v2@security@vanetza@@UCircularRegion@234@V?$list@URectangularRegion@v2@security@vanetza@@V?$allocator@URectangularRegion@v2@security@vanetza@@@std@@@std@@V?$list@UTwoDLocation@v2@security@vanetza@@V?$allocator@UTwoDLocation@v2@security@vanetza@@@std@@@7@UIdentifiedRegion@234@@boost@@@boost@@@std@@@?$_List_node_insert_op2@V?$allocator@U?$_List_node@V?$variant@IUStartAndEndValidity@v2@security@vanetza@@UStartAndDurationValidity@234@V?$variant@UNoneRegion@v2@security@vanetza@@UCircularRegion@234@V?$list@URectangularRegion@v2@security@vanetza@@V?$allocator@URectangularRegion@v2@security@vanetza@@@std@@@std@@V?$list@UTwoDLocation@v2@security@vanetza@@V?$allocator@UTwoDLocation@v2@security@vanetza@@@std@@@7@UIdentifiedRegion@234@@boost@@@boost@@PEAX@std@@@std@@@std@@QEAAXAEAV?$_List_val@U?$_List_simple_types@V?$variant@IUStartAndEndValidity@v2@security@vanetza@@UStartAndDurationValidity@234@V?$variant@UNoneRegion@v2@security@vanetza@@UCircularRegion@234@V?$list@URectangularRegion@v2@security@vanetza@@V?$allocator@URectangularRegion@v2@security@vanetza@@@std@@@std@@V?$list@UTwoDLocation@v2@security@vanetza@@V?$allocator@UTwoDLocation@v2@security@vanetza@@@std@@@7@UIdentifiedRegion@234@@boost@@@boost@@@std@@@1@@Z
	??$_Attach_head@U?$_List_simple_types@V?$variant@USignature@v2@security@vanetza@@$$V@boost@@@std@@@?$_List_node_insert_op2@V?$allocator@U?$_List_node@V?$variant@USignature@v2@security@vanetza@@$$V@boost@@PEAX@std@@@std@@@std@@QEAAXAEAV?$_List_val@U?$_List_simple_types@V?$variant@USignature@v2@security@vanetza@@$$V@boost@@@std@@@1@@Z
	??$_Attach_head@U?$_List_simple_types@V?$variant@UVerificationKey@v2@security@vanetza@@UEncryptionKey@234@USubjectAssurance@234@V?$variant@UX_Coordinate_Only@security@vanetza@@UCompressed_Lsb_Y_0@23@UCompressed_Lsb_Y_1@23@UUncompressed@23@@boost@@V?$list@VIntX@v2@security@vanetza@@V?$allocator@VIntX@v2@security@vanetza@@@std@@@std@@V?$list@UItsAidSsp@v2@security@vanetza@@V?$allocator@UItsAidSsp@v2@security@vanetza@@@std@@@std@@@boost@@@std@@@?$_List_node_insert_op2@V?$allocator@U?$_List_node@V?$variant@UVerificationKey@v2@security@vanetza@@UEncryptionKey@234@USubjectAssurance@234@V?$variant@UX_Coordinate_Only@security@vanetza@@UCompressed_Lsb_Y_0@23@UCompressed_Lsb_Y_1@23@UUncompressed@23@@boost@@V?$list@VIntX@v2@security@vanetza@@V?$allocator@VIntX@v2@security@vanetza@@@std@@@std@@V?$list@UItsAidSsp@v2@security@vanetza@@V?$allocator@UItsAidSsp@v2@security@vanetza@@@std@@@std@@@boost@@PEAX@std@@@std@@@std@@QEAAXAEAV?$_List_val@U?$_List_simple_types@V?$variant@UVerificationKey@v2@security@vanetza@@UEncryptionKey@234@USubjectAssurance@234@V?$variant@UX_Coordinate_Only@security@vanetza@@UCompressed_Lsb_Y_0@23@UCompressed_Lsb_Y_1@23@UUncompressed@23@@boost@@V?$list@VIntX@v2@security@vanetza@@V?$allocator@VIntX@v2@security@vanetza@@@std@@@std@@V?$list@UItsAidSsp@v2@security@vanetza@@V?$allocator@UItsAidSsp@v2@security@vanetza@@@std@@@std@@@boost@@@std@@@1@@Z
	??$_Attach_head@U?$_List_simple_types@V?$variant@_KUTime64WithStandardDeviation@v2@security@vanetza@@IUThreeDLocation@234@V?$list@V?$array@E$02@std@@V?$allocator@V?$array@E$02@std@@@2@@std@@VIntX@234@V?$variant@$$TV?$array@E$07@std@@V?$recursive_wrapper@UCertificate@v2@security@vanetza@@@boost@@V?$list@UCertificate@v2@security@vanetza@@V?$allocator@UCertificate@v2@security@vanetza@@@std@@@2@UCertificateDigestWithOtherAlgorithm@v2@security@vanetza@@@boost@@V?$variant@V?$array@E$0M@@std@@$$V@boost@@V?$list@URecipientInfo@v2@security@vanetza@@V?$allocator@URecipientInfo@v2@security@vanetza@@@std@@@7@@boost@@@std@@@?$_List_node_insert_op2@V?$allocator@U?$_List_node@V?$variant@_KUTime64WithStandardDeviation@v2@security@vanetza@@IUThreeDLocation@234@V?$list@V?$array@E$02@std@@V?$allocator@V?$array@E$02@std@@@2@@std@@VIntX@234@V?$variant@$$TV?$array@E$07@std@@V?$recursive_wrapper@UCertificate@v2@security@vanetza@@@boost@@V?$list@UCertificate@v2@security@vanetza@@V?$allocator@UCertificate@v2@security@vanetza@@@std@@@2@UCertificateDigestWithOtherAlgorithm@v2@security@vanetza@@@boost@@V?$variant@V?$array@E$0M@@std@@$$V@boost@@V?$list@URecipientInfo@v2@security@vanetza@@V?$allocator@URecipientInfo@v2@security@vanetza@@@std@@@7@@boost@@PEAX@std@@@std@@@std@@QEAAXAEAV?$_List_val@U?$_List_simple_types@V?$variant@_KUTime64WithStandardDeviation@v2@security@vanetza@@IUThreeDLocation@234@V?$list@V?$array@E$02@std@@V?$allocator@V?$array@E$02@std@@@2@@std@@VIntX@234@V?$variant@$$TV?$array@E$07@std@@V?$recursive_wrapper@UCertificate@v2@security@vanetza@@@boost@@V?$list@UCertificate@v2@security@vanetza@@V?$allocator@UCertificate@v2@security@vanetza@@@std@@@2@UCertificateDigestWithOtherAlgorithm@v2@security@vanetza@@@boost@@V?$variant@V?$array@E$0M@@std@@$$V@boost@@V?$list@URecipientInfo@v2@security@vanetza@@V?$allocator@URecipientInfo@v2@security@vanetza@@@std@@@7@@boost@@@std@@@1@@Z
	??$_Attach_head@U?$_List_simple_types@VIntX@v2@security@vanetza@@@std@@@?$_List_node_insert_op2@V?$allocator@U?$_List_node@VIntX@v2@security@vanetza@@PEAX@std@@@std@@@std@@QEAAXAEAV?$_List_val@U?$_List_simple_types@VIntX@v2@security@vanetza@@@std@@@1@@Z
	??$_Buyheadnode@V?$allocator@U?$_Tree_node@U?$pair@$$CBV?$array@E$07@std@@UCachedCertificate@CertificateCache@v2@security@vanetza@@@std@@PEAX@std@@@std@@@?$_Tree_node@U?$pair@$$CBV?$array@E$07@std@@UCachedCertificate@CertificateCache@v2@security@vanetza@@@std@@PEAX@std@@SAPEAU01@AEAV?$allocator@U?$_Tree_node@U?$pair@$$CBV?$array@E$07@std@@UCachedCertificate@CertificateCache@v2@security@vanetza@@@std@@PEAX@std@@@1@@Z
	??$_Buyheadnode@V?$allocator@U?$_Tree_node@U?$pair@$$CBV?$basic_string@DU?$char_traits@D@std@@V?$allocator@D@2@@std@@V?$function@$$A6A?AV?$unique_ptr@VBackend@security@vanetza@@U?$default_delete@VBackend@security@vanetza@@@std@@@std@@XZ@2@@std@@PEAX@std@@@std@@@?$_Tree_node@U?$pair@$$CBV?$basic_string@DU?$char_traits@D@std@@V?$allocator@D@2@@std@@V?$function@$$A6A?AV?$unique_ptr@VBackend@security@vanetza@@U?$default_delete@VBackend@security@vanetza@@@std@@@std@@XZ@2@@std@@PEAX@std@@SAPEAU01@AEAV?$allocator@U?$_Tree_node@U?$pair@$$CBV?$basic_string@DU?$char_traits@D@std@@V?$allocator@D@2@@std@@V?$function@$$A6A?AV?$unique_ptr@VBackend@security@vanetza@@U?$default_delete@VBackend@security@vanetza@@@std@@@std@@XZ@2@@std@@PEAX@std@@@1@@Z
	??$_Buyheadnode@V?$allocator@U?$_Tree_node@U?$pair@$$CBW4OsiLayer@vanetza@@VByteBufferConvertible@2@@std@@PEAX@std@@@std@@@?$_Tree_node@U?$pair@$$CBW4OsiLayer@vanetza@@VByteBufferConvertible@2@@std@@PEAX@std@@SAPEAU01@AEAV?$allocator@U?$_Tree_node@U?$pair@$$CBW4OsiLayer@vanetza@@VByteBufferConvertible@2@@std@@PEAX@std@@@1@@Z
	??$_Buyheadnode@V?$allocator@U?$_Tree_node@V?$array@E$02@std@@PEAX@std@@@std@@@?$_Tree_node@V?$array@E$02@std@@PEAX@std@@SAPEAU01@AEAV?$allocator@U?$_Tree_node@V?$array@E$02@std@@PEAX@std@@@1@@Z
	??$_Buyheadnode@V?$allocator@U?$_Tree_node@W4CamPermission@security@vanetza@@PEAX@std@@@std@@@?$_Tree_node@W4CamPermission@security@vanetza@@PEAX@std@@SAPEAU01@AEAV?$allocator@U?$_Tree_node@W4CamPermission@security@vanetza@@PEAX@std@@@1@@Z
	??$_Call@AEAV<lambda_052e919cc0e5399df76dff3972c0cac1>@@$$V@?$_Invoker_ret@E@std@@SAEAEAV<lambda_052e919cc0e5399df76dff3972c0cac1>@@@Z
	??$_Call@AEAV<lambda_2fa3e3d11fb97352afa77a4a13bfb543>@@$$V@?$_Invoker_ret@X@std@@SAXAEAV<lambda_2fa3e3d11fb97352afa77a4a13bfb543>@@@Z
	??$_Call@AEAV<lambda_763529b0c7473cbc215a52d189ac9b18>@@$$V@?$_Invoker_ret@X@std@@SAXAEAV<lambda_763529b0c7473cbc215a52d189ac9b18>@@@Z
	??$_Call@AEAV<lambda_f25c37099038263181b5186a3fa41b37>@@$$V@?$_Invoker_ret@X@std@@SAXAEAV<lambda_f25c37099038263181b5186a3fa41b37>@@@Z
	??$_Construct@$00PEBD@?$basic_string@DU?$char_traits@D@std@@V?$allocator@D@2@@std@@AEAAXQEBD_K@Z
	??$_Construct@$01PEBD@?$basic_string@DU?$char_traits@D@std@@V?$allocator@D@2@@std@@AEAAXQEBD_K@Z
	??$_Construct_from_iter@V?$istreambuf_iterator@DU?$char_traits@D@std@@@std@@@?$basic_string@DU?$char_traits@D@std@@V?$allocator@D@2@@std@@AEAAXV?$istreambuf_iterator@DU?$char_traits@D@std@@@1@V21@@Z
	??$_Construct_from_weak@U_Task_impl_base@details@Concurrency@@@?$_Ptr_base@U_Task_impl_base@details@Concurrency@@@std@@IEAA_NAEBV?$weak_ptr@U_Task_impl_base@details@Concurrency@@@1@@Z
	??$_Construct_in_place@EAEBE@std@@YAXAEAEAEBE@Z
	??$_Construct_in_place@ED@std@@YAXAEAE$$QEAD@Z
	??$_Construct_in_place@EE@std@@YAXAEAE$$QEAE@Z
	??$_Construct_in_place@IAEBI@std@@YAXAEAIAEBI@Z
	??$_Construct_in_place@PEADAEAPEAD@std@@YAXAEAPEAD0@Z
	??$_Construct_in_place@PEADAEBQEAD@std@@YAXAEAPEADAEBQEAD@Z
	??$_Construct_in_place@PEAU?$_List_node@EPEAX@std@@AEAPEAU12@@std@@YAXAEAPEAU?$_List_node@EPEAX@0@0@Z
	??$_Construct_in_place@PEAU?$_List_node@EPEAX@std@@AEBQEAU12@@std@@YAXAEAPEAU?$_List_node@EPEAX@0@AEBQEAU10@@Z
	??$_Construct_in_place@PEAU?$_List_node@EPEAX@std@@PEAU12@@std@@YAXAEAPEAU?$_List_node@EPEAX@0@$$QEAPEAU10@@Z
	??$_Construct_in_place@PEAU?$_List_node@IPEAX@std@@AEAPEAU12@@std@@YAXAEAPEAU?$_List_node@IPEAX@0@0@Z
	??$_Construct_in_place@PEAU?$_List_node@IPEAX@std@@AEBQEAU12@@std@@YAXAEAPEAU?$_List_node@IPEAX@0@AEBQEAU10@@Z
	??$_Construct_in_place@PEAU?$_List_node@U?$pair@$$CBV?$array@E$02@std@@V?$_List_iterator@V?$_List_val@U?$_List_simple_types@U?$pair@$$CBV?$array@E$07@std@@UCertificate@v3@security@vanetza@@@std@@@std@@@std@@@2@@std@@PEAX@std@@AEAPEAU12@@std@@YAXAEAPEAU?$_List_node@U?$pair@$$CBV?$array@E$02@std@@V?$_List_iterator@V?$_List_val@U?$_List_simple_types@U?$pair@$$CBV?$array@E$07@std@@UCertificate@v3@security@vanetza@@@std@@@std@@@std@@@2@@std@@PEAX@0@0@Z
	??$_Construct_in_place@PEAU?$_List_node@U?$pair@$$CBV?$array@E$02@std@@V?$_List_iterator@V?$_List_val@U?$_List_simple_types@U?$pair@$$CBV?$array@E$07@std@@UCertificate@v3@security@vanetza@@@std@@@std@@@std@@@2@@std@@PEAX@std@@AEBQEAU12@@std@@YAXAEAPEAU?$_List_node@U?$pair@$$CBV?$array@E$02@std@@V?$_List_iterator@V?$_List_val@U?$_List_simple_types@U?$pair@$$CBV?$array@E$07@std@@UCertificate@v3@security@vanetza@@@std@@@std@@@std@@@2@@std@@PEAX@0@AEBQEAU10@@Z
	??$_Construct_in_place@PEAU?$_List_node@U?$pair@$$CBV?$array@E$02@std@@V?$_List_iterator@V?$_List_val@U?$_List_simple_types@V?$array@E$02@std@@@std@@@std@@@2@@std@@PEAX@std@@AEAPEAU12@@std@@YAXAEAPEAU?$_List_node@U?$pair@$$CBV?$array@E$02@std@@V?$_List_iterator@V?$_List_val@U?$_List_simple_types@V?$array@E$02@std@@@std@@@std@@@2@@std@@PEAX@0@0@Z
	??$_Construct_in_place@PEAU?$_List_node@U?$pair@$$CBV?$array@E$02@std@@V?$_List_iterator@V?$_List_val@U?$_List_simple_types@V?$array@E$02@std@@@std@@@std@@@2@@std@@PEAX@std@@AEBQEAU12@@std@@YAXAEAPEAU?$_List_node@U?$pair@$$CBV?$array@E$02@std@@V?$_List_iterator@V?$_List_val@U?$_List_simple_types@V?$array@E$02@std@@@std@@@std@@@2@@std@@PEAX@0@AEBQEAU10@@Z
	??$_Construct_in_place@PEAU?$_List_node@U?$pair@$$CBV?$array@E$07@std@@UCertificate@v3@security@vanetza@@@std@@PEAX@std@@AEAPEAU12@@std@@YAXAEAPEAU?$_List_node@U?$pair@$$CBV?$array@E$07@std@@UCertificate@v3@security@vanetza@@@std@@PEAX@0@0@Z
	??$_Construct_in_place@PEAU?$_List_node@U?$pair@$$CBV?$array@E$07@std@@UCertificate@v3@security@vanetza@@@std@@PEAX@std@@AEBQEAU12@@std@@YAXAEAPEAU?$_List_node@U?$pair@$$CBV?$array@E$07@std@@UCertificate@v3@security@vanetza@@@std@@PEAX@0@AEBQEAU10@@Z
	??$_Construct_in_place@PEAU?$_List_node@UCertificate@v2@security@vanetza@@PEAX@std@@AEAPEAU12@@std@@YAXAEAPEAU?$_List_node@UCertificate@v2@security@vanetza@@PEAX@0@0@Z
	??$_Construct_in_place@PEAU?$_List_node@UCertificate@v2@security@vanetza@@PEAX@std@@AEBQEAU12@@std@@YAXAEAPEAU?$_List_node@UCertificate@v2@security@vanetza@@PEAX@0@AEBQEAU10@@Z
	??$_Construct_in_place@PEAU?$_List_node@UCertificate@v2@security@vanetza@@PEAX@std@@PEAU12@@std@@YAXAEAPEAU?$_List_node@UCertificate@v2@security@vanetza@@PEAX@0@$$QEAPEAU10@@Z
	??$_Construct_in_place@PEAU?$_List_node@UCertificate@v3@security@vanetza@@PEAX@std@@AEAPEAU12@@std@@YAXAEAPEAU?$_List_node@UCertificate@v3@security@vanetza@@PEAX@0@0@Z
	??$_Construct_in_place@PEAU?$_List_node@UItsAidSsp@v2@security@vanetza@@PEAX@std@@AEAPEAU12@@std@@YAXAEAPEAU?$_List_node@UItsAidSsp@v2@security@vanetza@@PEAX@0@0@Z
	??$_Construct_in_place@PEAU?$_List_node@UItsAidSsp@v2@security@vanetza@@PEAX@std@@AEBQEAU12@@std@@YAXAEAPEAU?$_List_node@UItsAidSsp@v2@security@vanetza@@PEAX@0@AEBQEAU10@@Z
	??$_Construct_in_place@PEAU?$_List_node@UItsAidSsp@v2@security@vanetza@@PEAX@std@@PEAU12@@std@@YAXAEAPEAU?$_List_node@UItsAidSsp@v2@security@vanetza@@PEAX@0@$$QEAPEAU10@@Z
	??$_Construct_in_place@PEAU?$_List_node@URecipientInfo@v2@security@vanetza@@PEAX@std@@AEAPEAU12@@std@@YAXAEAPEAU?$_List_node@URecipientInfo@v2@security@vanetza@@PEAX@0@0@Z
	??$_Construct_in_place@PEAU?$_List_node@URecipientInfo@v2@security@vanetza@@PEAX@std@@AEBQEAU12@@std@@YAXAEAPEAU?$_List_node@URecipientInfo@v2@security@vanetza@@PEAX@0@AEBQEAU10@@Z
	??$_Construct_in_place@PEAU?$_List_node@URecipientInfo@v2@security@vanetza@@PEAX@std@@PEAU12@@std@@YAXAEAPEAU?$_List_node@URecipientInfo@v2@security@vanetza@@PEAX@0@$$QEAPEAU10@@Z
	??$_Construct_in_place@PEAU?$_List_node@URectangularRegion@v2@security@vanetza@@PEAX@std@@AEAPEAU12@@std@@YAXAEAPEAU?$_List_node@URectangularRegion@v2@security@vanetza@@PEAX@0@0@Z
	??$_Construct_in_place@PEAU?$_List_node@URectangularRegion@v2@security@vanetza@@PEAX@std@@AEBQEAU12@@std@@YAXAEAPEAU?$_List_node@URectangularRegion@v2@security@vanetza@@PEAX@0@AEBQEAU10@@Z
	??$_Construct_in_place@PEAU?$_List_node@URectangularRegion@v2@security@vanetza@@PEAX@std@@PEAU12@@std@@YAXAEAPEAU?$_List_node@URectangularRegion@v2@security@vanetza@@PEAX@0@$$QEAPEAU10@@Z
	??$_Construct_in_place@PEAU?$_List_node@UTwoDLocation@v2@security@vanetza@@PEAX@std@@AEAPEAU12@@std@@YAXAEAPEAU?$_List_node@UTwoDLocation@v2@security@vanetza@@PEAX@0@0@Z
	??$_Construct_in_place@PEAU?$_List_node@UTwoDLocation@v2@security@vanetza@@PEAX@std@@AEBQEAU12@@std@@YAXAEAPEAU?$_List_node@UTwoDLocation@v2@security@vanetza@@PEAX@0@AEBQEAU10@@Z
	??$_Construct_in_place@PEAU?$_List_node@UTwoDLocation@v2@security@vanetza@@PEAX@std@@PEAU12@@std@@YAXAEAPEAU?$_List_node@UTwoDLocation@v2@security@vanetza@@PEAX@0@$$QEAPEAU10@@Z
	??$_Construct_in_place@PEAU?$_List_node@V?$array@E$02@std@@PEAX@std@@AEAPEAU12@@std@@YAXAEAPEAU?$_List_node@V?$array@E$02@std@@PEAX@0@0@Z
	??$_Construct_in_place@PEAU?$_List_node@V?$array@E$02@std@@PEAX@std@@AEBQEAU12@@std@@YAXAEAPEAU?$_List_node@V?$array@E$02@std@@PEAX@0@AEBQEAU10@@Z
	??$_Construct_in_place@PEAU?$_List_node@V?$array@E$02@std@@PEAX@std@@PEAU12@@std@@YAXAEAPEAU?$_List_node@V?$array@E$02@std@@PEAX@0@$$QEAPEAU10@@Z
	??$_Construct_in_place@PEAU?$_List_node@V?$array@E$07@std@@PEAX@std@@AEAPEAU12@@std@@YAXAEAPEAU?$_List_node@V?$array@E$07@std@@PEAX@0@0@Z
	??$_Construct_in_place@PEAU?$_List_node@V?$array@E$07@std@@PEAX@std@@AEBQEAU12@@std@@YAXAEAPEAU?$_List_node@V?$array@E$07@std@@PEAX@0@AEBQEAU10@@Z
	??$_Construct_in_place@PEAU?$_List_node@V?$variant@IUStartAndEndValidity@v2@security@vanetza@@UStartAndDurationValidity@234@V?$variant@UNoneRegion@v2@security@vanetza@@UCircularRegion@234@V?$list@URectangularRegion@v2@security@vanetza@@V?$allocator@URectangularRegion@v2@security@vanetza@@@std@@@std@@V?$list@UTwoDLocation@v2@security@vanetza@@V?$allocator@UTwoDLocation@v2@security@vanetza@@@std@@@7@UIdentifiedRegion@234@@boost@@@boost@@PEAX@std@@AEAPEAU12@@std@@YAXAEAPEAU?$_List_node@V?$variant@IUStartAndEndValidity@v2@security@vanetza@@UStartAndDurationValidity@234@V?$variant@UNoneRegion@v2@security@vanetza@@UCircularRegion@234@V?$list@URectangularRegion@v2@security@vanetza@@V?$allocator@URectangularRegion@v2@security@vanetza@@@std@@@std@@V?$list@UTwoDLocation@v2@security@vanetza@@V?$allocator@UTwoDLocation@v2@security@vanetza@@@std@@@7@UIdentifiedRegion@234@@boost@@@boost@@PEAX@0@0@Z
	??$_Construct_in_place@PEAU?$_List_node@V?$variant@IUStartAndEndValidity@v2@security@vanetza@@UStartAndDurationValidity@234@V?$variant@UNoneRegion@v2@security@vanetza@@UCircularRegion@234@V?$list@URectangularRegion@v2@security@vanetza@@V?$allocator@URectangularRegion@v2@security@vanetza@@@std@@@std@@V?$list@UTwoDLocation@v2@security@vanetza@@V?$allocator@UTwoDLocation@v2@security@vanetza@@@std@@@7@UIdentifiedRegion@234@@boost@@@boost@@PEAX@std@@AEBQEAU12@@std@@YAXAEAPEAU?$_List_node@V?$variant@IUStartAndEndValidity@v2@security@vanetza@@UStartAndDurationValidity@234@V?$variant@UNoneRegion@v2@security@vanetza@@UCircularRegion@234@V?$list@URectangularRegion@v2@security@vanetza@@V?$allocator@URectangularRegion@v2@security@vanetza@@@std@@@std@@V?$list@UTwoDLocation@v2@security@vanetza@@V?$allocator@UTwoDLocation@v2@security@vanetza@@@std@@@7@UIdentifiedRegion@234@@boost@@@boost@@PEAX@0@AEBQEAU10@@Z
	??$_Construct_in_place@PEAU?$_List_node@V?$variant@IUStartAndEndValidity@v2@security@vanetza@@UStartAndDurationValidity@234@V?$variant@UNoneRegion@v2@security@vanetza@@UCircularRegion@234@V?$list@URectangularRegion@v2@security@vanetza@@V?$allocator@URectangularRegion@v2@security@vanetza@@@std@@@std@@V?$list@UTwoDLocation@v2@security@vanetza@@V?$allocator@UTwoDLocation@v2@security@vanetza@@@std@@@7@UIdentifiedRegion@234@@boost@@@boost@@PEAX@std@@PEAU12@@std@@YAXAEAPEAU?$_List_node@V?$variant@IUStartAndEndValidity@v2@security@vanetza@@UStartAndDurationValidity@234@V?$variant@UNoneRegion@v2@security@vanetza@@UCircularRegion@234@V?$list@URectangularRegion@v2@security@vanetza@@V?$allocator@URectangularRegion@v2@security@vanetza@@@std@@@std@@V?$list@UTwoDLocation@v2@security@vanetza@@V?$allocator@UTwoDLocation@v2@security@vanetza@@@std@@@7@UIdentifiedRegion@234@@boost@@@boost@@PEAX@0@$$QEAPEAU10@@Z
	??$_Construct_in_place@PEAU?$_List_node@V?$variant@USignature@v2@security@vanetza@@$$V@boost@@PEAX@std@@AEAPEAU12@@std@@YAXAEAPEAU?$_List_node@V?$variant@USignature@v2@security@vanetza@@$$V@boost@@PEAX@0@0@Z
	??$_Construct_in_place@PEAU?$_List_node@V?$variant@USignature@v2@security@vanetza@@$$V@boost@@PEAX@std@@AEBQEAU12@@std@@YAXAEAPEAU?$_List_node@V?$variant@USignature@v2@security@vanetza@@$$V@boost@@PEAX@0@AEBQEAU10@@Z
	??$_Construct_in_place@PEAU?$_List_node@V?$variant@USignature@v2@security@vanetza@@$$V@boost@@PEAX@std@@PEAU12@@std@@YAXAEAPEAU?$_List_node@V?$variant@USignature@v2@security@vanetza@@$$V@boost@@PEAX@0@$$QEAPEAU10@@Z
	??$_Construct_in_place@PEAU?$_List_node@V?$variant@UVerificationKey@v2@security@vanetza@@UEncryptionKey@234@USubjectAssurance@234@V?$variant@UX_Coordinate_Only@security@vanetza@@UCompressed_Lsb_Y_0@23@UCompressed_Lsb_Y_1@23@UUncompressed@23@@boost@@V?$list@VIntX@v2@security@vanetza@@V?$allocator@VIntX@v2@security@vanetza@@@std@@@std@@V?$list@UItsAidSsp@v2@security@vanetza@@V?$allocator@UItsAidSsp@v2@security@vanetza@@@std@@@std@@@boost@@PEAX@std@@AEAPEAU12@@std@@YAXAEAPEAU?$_List_node@V?$variant@UVerificationKey@v2@security@vanetza@@UEncryptionKey@234@USubjectAssurance@234@V?$variant@UX_Coordinate_Only@security@vanetza@@UCompressed_Lsb_Y_0@23@UCompressed_Lsb_Y_1@23@UUncompressed@23@@boost@@V?$list@VIntX@v2@security@vanetza@@V?$allocator@VIntX@v2@security@vanetza@@@std@@@std@@V?$list@UItsAidSsp@v2@security@vanetza@@V?$allocator@UItsAidSsp@v2@security@vanetza@@@std@@@std@@@boost@@PEAX@0@0@Z
	??$_Construct_in_place@PEAU?$_List_node@V?$variant@UVerificationKey@v2@security@vanetza@@UEncryptionKey@234@USubjectAssurance@234@V?$variant@UX_Coordinate_Only@security@vanetza@@UCompressed_Lsb_Y_0@23@UCompressed_Lsb_Y_1@23@UUncompressed@23@@boost@@V?$list@VIntX@v2@security@vanetza@@V?$allocator@VIntX@v2@security@vanetza@@@std@@@std@@V?$list@UItsAidSsp@v2@security@vanetza@@V?$allocator@UItsAidSsp@v2@security@vanetza@@@std@@@std@@@boost@@PEAX@std@@AEBQEAU12@@std@@YAXAEAPEAU?$_List_node@V?$variant@UVerificationKey@v2@security@vanetza@@UEncryptionKey@234@USubjectAssurance@234@V?$variant@UX_Coordinate_Only@security@vanetza@@UCompressed_Lsb_Y_0@23@UCompressed_Lsb_Y_1@23@UUncompressed@23@@boost@@V?$list@VIntX@v2@security@vanetza@@V?$allocator@VIntX@v2@security@vanetza@@@std@@@std@@V?$list@UItsAidSsp@v2@security@vanetza@@V?$allocator@UItsAidSsp@v2@security@vanetza@@@std@@@std@@@boost@@PEAX@0@AEBQEAU10@@Z
	??$_Construct_in_place@PEAU?$_List_node@V?$variant@UVerificationKey@v2@security@vanetza@@UEncryptionKey@234@USubjectAssurance@234@V?$variant@UX_Coordinate_Only@security@vanetza@@UCompressed_Lsb_Y_0@23@UCompressed_Lsb_Y_1@23@UUncompressed@23@@boost@@V?$list@VIntX@v2@security@vanetza@@V?$allocator@VIntX@v2@security@vanetza@@@std@@@std@@V?$list@UItsAidSsp@v2@security@vanetza@@V?$allocator@UItsAidSsp@v2@security@vanetza@@@std@@@std@@@boost@@PEAX@std@@PEAU12@@std@@YAXAEAPEAU?$_List_node@V?$variant@UVerificationKey@v2@security@vanetza@@UEncryptionKey@234@USubjectAssurance@234@V?$variant@UX_Coordinate_Only@security@vanetza@@UCompressed_Lsb_Y_0@23@UCompressed_Lsb_Y_1@23@UUncompressed@23@@boost@@V?$list@VIntX@v2@security@vanetza@@V?$allocator@VIntX@v2@security@vanetza@@@std@@@std@@V?$list@UItsAidSsp@v2@security@vanetza@@V?$allocator@UItsAidSsp@v2@security@vanetza@@@std@@@std@@@boost@@PEAX@0@$$QEAPEAU10@@Z
	??$_Construct_in_place@PEAU?$_List_node@V?$variant@_KUTime64WithStandardDeviation@v2@security@vanetza@@IUThreeDLocation@234@V?$list@V?$array@E$02@std@@V?$allocator@V?$array@E$02@std@@@2@@std@@VIntX@234@V?$variant@$$TV?$array@E$07@std@@V?$recursive_wrapper@UCertificate@v2@security@vanetza@@@boost@@V?$list@UCertificate@v2@security@vanetza@@V?$allocator@UCertificate@v2@security@vanetza@@@std@@@2@UCertificateDigestWithOtherAlgorithm@v2@security@vanetza@@@boost@@V?$variant@V?$array@E$0M@@std@@$$V@boost@@V?$list@URecipientInfo@v2@security@vanetza@@V?$allocator@URecipientInfo@v2@security@vanetza@@@std@@@7@@boost@@PEAX@std@@AEAPEAU12@@std@@YAXAEAPEAU?$_List_node@V?$variant@_KUTime64WithStandardDeviation@v2@security@vanetza@@IUThreeDLocation@234@V?$list@V?$array@E$02@std@@V?$allocator@V?$array@E$02@std@@@2@@std@@VIntX@234@V?$variant@$$TV?$array@E$07@std@@V?$recursive_wrapper@UCertificate@v2@security@vanetza@@@boost@@V?$list@UCertificate@v2@security@vanetza@@V?$allocator@UCertificate@v2@security@vanetza@@@std@@@2@UCertificateDigestWithOtherAlgorithm@v2@security@vanetza@@@boost@@V?$variant@V?$array@E$0M@@std@@$$V@boost@@V?$list@URecipientInfo@v2@security@vanetza@@V?$allocator@URecipientInfo@v2@security@vanetza@@@std@@@7@@boost@@PEAX@0@0@Z
	??$_Construct_in_place@PEAU?$_List_node@V?$variant@_KUTime64WithStandardDeviation@v2@security@vanetza@@IUThreeDLocation@234@V?$list@V?$array@E$02@std@@V?$allocator@V?$array@E$02@std@@@2@@std@@VIntX@234@V?$variant@$$TV?$array@E$07@std@@V?$recursive_wrapper@UCertificate@v2@security@vanetza@@@boost@@V?$list@UCertificate@v2@security@vanetza@@V?$allocator@UCertificate@v2@security@vanetza@@@std@@@2@UCertificateDigestWithOtherAlgorithm@v2@security@vanetza@@@boost@@V?$variant@V?$array@E$0M@@std@@$$V@boost@@V?$list@URecipientInfo@v2@security@vanetza@@V?$allocator@URecipientInfo@v2@security@vanetza@@@std@@@7@@boost@@PEAX@std@@AEBQEAU12@@std@@YAXAEAPEAU?$_List_node@V?$variant@_KUTime64WithStandardDeviation@v2@security@vanetza@@IUThreeDLocation@234@V?$list@V?$array@E$02@std@@V?$allocator@V?$array@E$02@std@@@2@@std@@VIntX@234@V?$variant@$$TV?$array@E$07@std@@V?$recursive_wrapper@UCertificate@v2@security@vanetza@@@boost@@V?$list@UCertificate@v2@security@vanetza@@V?$allocator@UCertificate@v2@security@vanetza@@@std@@@2@UCertificateDigestWithOtherAlgorithm@v2@security@vanetza@@@boost@@V?$variant@V?$array@E$0M@@std@@$$V@boost@@V?$list@URecipientInfo@v2@security@vanetza@@V?$allocator@URecipientInfo@v2@security@vanetza@@@std@@@7@@boost@@PEAX@0@AEBQEAU10@@Z
	??$_Construct_in_place@PEAU?$_List_node@V?$variant@_KUTime64WithStandardDeviation@v2@security@vanetza@@IUThreeDLocation@234@V?$list@V?$array@E$02@std@@V?$allocator@V?$array@E$02@std@@@2@@std@@VIntX@234@V?$variant@$$TV?$array@E$07@std@@V?$recursive_wrapper@UCertificate@v2@security@vanetza@@@boost@@V?$list@UCertificate@v2@security@vanetza@@V?$allocator@UCertificate@v2@security@vanetza@@@std@@@2@UCertificateDigestWithOtherAlgorithm@v2@security@vanetza@@@boost@@V?$variant@V?$array@E$0M@@std@@$$V@boost@@V?$list@URecipientInfo@v2@security@vanetza@@V?$allocator@URecipientInfo@v2@security@vanetza@@@std@@@7@@boost@@PEAX@std@@PEAU12@@std@@YAXAEAPEAU?$_List_node@V?$variant@_KUTime64WithStandardDeviation@v2@security@vanetza@@IUThreeDLocation@234@V?$list@V?$array@E$02@std@@V?$allocator@V?$array@E$02@std@@@2@@std@@VIntX@234@V?$variant@$$TV?$array@E$07@std@@V?$recursive_wrapper@UCertificate@v2@security@vanetza@@@boost@@V?$list@UCertificate@v2@security@vanetza@@V?$allocator@UCertificate@v2@security@vanetza@@@std@@@2@UCertificateDigestWithOtherAlgorithm@v2@security@vanetza@@@boost@@V?$variant@V?$array@E$0M@@std@@$$V@boost@@V?$list@URecipientInfo@v2@security@vanetza@@V?$allocator@URecipientInfo@v2@security@vanetza@@@std@@@7@@boost@@PEAX@0@$$QEAPEAU10@@Z
	??$_Construct_in_place@PEAU?$_List_node@VIntX@v2@security@vanetza@@PEAX@std@@AEAPEAU12@@std@@YAXAEAPEAU?$_List_node@VIntX@v2@security@vanetza@@PEAX@0@0@Z
	??$_Construct_in_place@PEAU?$_List_node@VIntX@v2@security@vanetza@@PEAX@std@@AEBQEAU12@@std@@YAXAEAPEAU?$_List_node@VIntX@v2@security@vanetza@@PEAX@0@AEBQEAU10@@Z
	??$_Construct_in_place@PEAU?$_List_node@VIntX@v2@security@vanetza@@PEAX@std@@PEAU12@@std@@YAXAEAPEAU?$_List_node@VIntX@v2@security@vanetza@@PEAX@0@$$QEAPEAU10@@Z
	??$_Construct_in_place@PEAU?$_Tree_node@U?$pair@$$CBV?$array@E$07@std@@UCachedCertificate@CertificateCache@v2@security@vanetza@@@std@@PEAX@std@@AEAPEAU12@@std@@YAXAEAPEAU?$_Tree_node@U?$pair@$$CBV?$array@E$07@std@@UCachedCertificate@CertificateCache@v2@security@vanetza@@@std@@PEAX@0@0@Z
	??$_Construct_in_place@PEAU?$_Tree_node@U?$pair@$$CBV?$array@E$07@std@@UCachedCertificate@CertificateCache@v2@security@vanetza@@@std@@PEAX@std@@AEBQEAU12@@std@@YAXAEAPEAU?$_Tree_node@U?$pair@$$CBV?$array@E$07@std@@UCachedCertificate@CertificateCache@v2@security@vanetza@@@std@@PEAX@0@AEBQEAU10@@Z
	??$_Construct_in_place@PEAU?$_Tree_node@U?$pair@$$CBV?$array@E$07@std@@UCertificate@v2@security@vanetza@@@std@@PEAX@std@@AEAPEAU12@@std@@YAXAEAPEAU?$_Tree_node@U?$pair@$$CBV?$array@E$07@std@@UCertificate@v2@security@vanetza@@@std@@PEAX@0@0@Z
	??$_Construct_in_place@PEAU?$_Tree_node@U?$pair@$$CBV?$basic_string@DU?$char_traits@D@std@@V?$allocator@D@2@@std@@V?$function@$$A6A?AV?$unique_ptr@VBackend@security@vanetza@@U?$default_delete@VBackend@security@vanetza@@@std@@@std@@XZ@2@@std@@PEAX@std@@AEAPEAU12@@std@@YAXAEAPEAU?$_Tree_node@U?$pair@$$CBV?$basic_string@DU?$char_traits@D@std@@V?$allocator@D@2@@std@@V?$function@$$A6A?AV?$unique_ptr@VBackend@security@vanetza@@U?$default_delete@VBackend@security@vanetza@@@std@@@std@@XZ@2@@std@@PEAX@0@0@Z
	??$_Construct_in_place@PEAU?$_Tree_node@U?$pair@$$CBV?$basic_string@DU?$char_traits@D@std@@V?$allocator@D@2@@std@@V?$function@$$A6A?AV?$unique_ptr@VBackend@security@vanetza@@U?$default_delete@VBackend@security@vanetza@@@std@@@std@@XZ@2@@std@@PEAX@std@@AEBQEAU12@@std@@YAXAEAPEAU?$_Tree_node@U?$pair@$$CBV?$basic_string@DU?$char_traits@D@std@@V?$allocator@D@2@@std@@V?$function@$$A6A?AV?$unique_ptr@VBackend@security@vanetza@@U?$default_delete@VBackend@security@vanetza@@@std@@@std@@XZ@2@@std@@PEAX@0@AEBQEAU10@@Z
	??$_Construct_in_place@PEAU?$_Tree_node@U?$pair@$$CBW4OsiLayer@vanetza@@VByteBufferConvertible@2@@std@@PEAX@std@@AEBQEAU12@@std@@YAXAEAPEAU?$_Tree_node@U?$pair@$$CBW4OsiLayer@vanetza@@VByteBufferConvertible@2@@std@@PEAX@0@AEBQEAU10@@Z
	??$_Construct_in_place@PEAU?$_Tree_node@V?$array@E$02@std@@PEAX@std@@AEAPEAU12@@std@@YAXAEAPEAU?$_Tree_node@V?$array@E$02@std@@PEAX@0@0@Z
	??$_Construct_in_place@PEAU?$_Tree_node@V?$array@E$02@std@@PEAX@std@@AEBQEAU12@@std@@YAXAEAPEAU?$_Tree_node@V?$array@E$02@std@@PEAX@0@AEBQEAU10@@Z
	??$_Construct_in_place@PEAU?$_Tree_node@W4CamPermission@security@vanetza@@PEAX@std@@AEAPEAU12@@std@@YAXAEAPEAU?$_Tree_node@W4CamPermission@security@vanetza@@PEAX@0@0@Z
	??$_Construct_in_place@PEAU?$_Tree_node@W4CamPermission@security@vanetza@@PEAX@std@@AEBQEAU12@@std@@YAXAEAPEAU?$_Tree_node@W4CamPermission@security@vanetza@@PEAX@0@AEBQEAU10@@Z
	??$_Construct_in_place@U?$_Task_impl@E@details@Concurrency@@AEAPEAV_CancellationTokenState@23@AEAUscheduler_ptr@3@@std@@YAXAEAU?$_Task_impl@E@details@Concurrency@@AEAPEAV_CancellationTokenState@23@AEAUscheduler_ptr@3@@Z
	??$_Construct_in_place@U_Container_proxy@std@@PEAU_Container_base12@2@@std@@YAXAEAU_Container_proxy@0@$$QEAPEAU_Container_base12@0@@Z
	??$_Construct_in_place@U_ExceptionHolder@details@Concurrency@@AEBVexception_ptr@std@@V_TaskCreationCallstack@23@@std@@YAXAEAU_ExceptionHolder@details@Concurrency@@AEBVexception_ptr@0@$$QEAV_TaskCreationCallstack@23@@Z
	??$_Construct_in_place@V?$_List_unchecked_const_iterator@V?$_List_val@U?$_List_simple_types@V?$array@E$07@std@@@std@@@std@@U_Iterator_base0@2@@std@@AEBV12@@std@@YAXAEAV?$_List_unchecked_const_iterator@V?$_List_val@U?$_List_simple_types@V?$array@E$07@std@@@std@@@std@@U_Iterator_base0@2@@0@AEBV10@@Z
	??$_Construct_in_place@V?$_List_unchecked_iterator@V?$_List_val@U?$_List_simple_types@U?$pair@$$CBV?$array@E$02@std@@V?$_List_iterator@V?$_List_val@U?$_List_simple_types@U?$pair@$$CBV?$array@E$07@std@@UCertificate@v3@security@vanetza@@@std@@@std@@@std@@@2@@std@@@std@@@std@@@std@@AEBV12@@std@@YAXAEAV?$_List_unchecked_iterator@V?$_List_val@U?$_List_simple_types@U?$pair@$$CBV?$array@E$02@std@@V?$_List_iterator@V?$_List_val@U?$_List_simple_types@U?$pair@$$CBV?$array@E$07@std@@UCertificate@v3@security@vanetza@@@std@@@std@@@std@@@2@@std@@@std@@@std@@@0@AEBV10@@Z
	??$_Construct_in_place@V?$_List_unchecked_iterator@V?$_List_val@U?$_List_simple_types@U?$pair@$$CBV?$array@E$02@std@@V?$_List_iterator@V?$_List_val@U?$_List_simple_types@V?$array@E$02@std@@@std@@@std@@@2@@std@@@std@@@std@@@std@@AEBV12@@std@@YAXAEAV?$_List_unchecked_iterator@V?$_List_val@U?$_List_simple_types@U?$pair@$$CBV?$array@E$02@std@@V?$_List_iterator@V?$_List_val@U?$_List_simple_types@V?$array@E$02@std@@@std@@@std@@@2@@std@@@std@@@std@@@0@AEBV10@@Z
	??$_Construct_in_place@V?$_List_unchecked_iterator@V?$_List_val@U?$_List_simple_types@U?$pair@$$CBV?$array@E$07@std@@UCertificate@v3@security@vanetza@@@std@@@std@@@std@@@std@@AEBV12@@std@@YAXAEAV?$_List_unchecked_iterator@V?$_List_val@U?$_List_simple_types@U?$pair@$$CBV?$array@E$07@std@@UCertificate@v3@security@vanetza@@@std@@@std@@@std@@@0@AEBV10@@Z
	??$_Construct_n@$$V@?$vector@EV?$allocator@E@std@@@std@@AEAAX_K@Z
	??$_Construct_n@AEBE@?$vector@EV?$allocator@E@std@@@std@@AEAAX_KAEBE@Z
	??$_Construct_n@AEBI@?$vector@IV?$allocator@I@std@@@std@@AEAAX_KAEBI@Z
	??$_Construct_n@AEBQEAEAEBQEAE@?$vector@EV?$allocator@E@std@@@std@@AEAAX_KAEBQEAE1@Z
	??$_Construct_n@AEBQEAIAEBQEAI@?$vector@IV?$allocator@I@std@@@std@@AEAAX_KAEBQEAI1@Z
	??$_Construct_n@AEBQEAPEAXAEBQEAPEAX@?$vector@PEAXV?$allocator@PEAX@std@@@std@@AEAAX_KAEBQEAPEAX1@Z
	??$_Construct_n@AEBQEAUECPPoint@CryptoPP@@AEBQEAU12@@?$vector@UECPPoint@CryptoPP@@V?$allocator@UECPPoint@CryptoPP@@@std@@@std@@AEAAX_KAEBQEAUECPPoint@CryptoPP@@1@Z
	??$_Construct_n@PEADPEAD@?$vector@EV?$allocator@E@std@@@std@@AEAAX_K$$QEAPEAD1@Z
	??$_Construct_n@PEAEPEAE@?$vector@EV?$allocator@E@std@@@std@@AEAAX_K$$QEAPEAE1@Z
	??$_Construct_n@PEBDPEBD@?$vector@EV?$allocator@E@std@@@std@@AEAAX_K$$QEAPEBD1@Z
	??$_Construct_n@PEBEPEBE@?$vector@EV?$allocator@E@std@@@std@@AEAAX_K$$QEAPEBE1@Z
	??$_Construct_n@V?$_List_unchecked_iterator@V?$_List_val@U?$_List_simple_types@E@std@@@std@@@std@@V12@@?$vector@EV?$allocator@E@std@@@std@@AEAAX_K$$QEAV?$_List_unchecked_iterator@V?$_List_val@U?$_List_simple_types@E@std@@@std@@@1@1@Z
	??$_Construct_range_unchecked@PEBUCertificate@v2@security@vanetza@@@?$list@UCertificate@v2@security@vanetza@@V?$allocator@UCertificate@v2@security@vanetza@@@std@@@std@@AEAAXPEBUCertificate@v2@security@vanetza@@0@Z
	??$_Construct_range_unchecked@PEBUItsAidSsp@v2@security@vanetza@@@?$list@UItsAidSsp@v2@security@vanetza@@V?$allocator@UItsAidSsp@v2@security@vanetza@@@std@@@std@@AEAAXPEBUItsAidSsp@v2@security@vanetza@@0@Z
	??$_Construct_range_unchecked@PEBV?$variant@USignature@v2@security@vanetza@@$$V@boost@@@?$list@V?$variant@USignature@v2@security@vanetza@@$$V@boost@@V?$allocator@V?$variant@USignature@v2@security@vanetza@@$$V@boost@@@std@@@std@@AEAAXPEBV?$variant@USignature@v2@security@vanetza@@$$V@boost@@0@Z
	??$_Construct_range_unchecked@PEBVIntX@v2@security@vanetza@@@?$list@VIntX@v2@security@vanetza@@V?$allocator@VIntX@v2@security@vanetza@@@std@@@std@@AEAAXPEBVIntX@v2@security@vanetza@@0@Z
	??$_Construct_range_unchecked@V?$_List_unchecked_const_iterator@V?$_List_val@U?$_List_simple_types@UCertificate@v2@security@vanetza@@@std@@@std@@U_Iterator_base0@2@@std@@@?$list@UCertificate@v2@security@vanetza@@V?$allocator@UCertificate@v2@security@vanetza@@@std@@@std@@AEAAXV?$_List_unchecked_const_iterator@V?$_List_val@U?$_List_simple_types@UCertificate@v2@security@vanetza@@@std@@@std@@U_Iterator_base0@2@@1@0@Z
	??$_Construct_range_unchecked@V?$_List_unchecked_const_iterator@V?$_List_val@U?$_List_simple_types@UItsAidSsp@v2@security@vanetza@@@std@@@std@@U_Iterator_base0@2@@std@@@?$list@UItsAidSsp@v2@security@vanetza@@V?$allocator@UItsAidSsp@v2@security@vanetza@@@std@@@std@@AEAAXV?$_List_unchecked_const_iterator@V?$_List_val@U?$_List_simple_types@UItsAidSsp@v2@security@vanetza@@@std@@@std@@U_Iterator_base0@2@@1@0@Z
	??$_Construct_range_unchecked@V?$_List_unchecked_const_iterator@V?$_List_val@U?$_List_simple_types@URecipientInfo@v2@security@vanetza@@@std@@@std@@U_Iterator_base0@2@@std@@@?$list@URecipientInfo@v2@security@vanetza@@V?$allocator@URecipientInfo@v2@security@vanetza@@@std@@@std@@AEAAXV?$_List_unchecked_const_iterator@V?$_List_val@U?$_List_simple_types@URecipientInfo@v2@security@vanetza@@@std@@@std@@U_Iterator_base0@2@@1@0@Z
	??$_Construct_range_unchecked@V?$_List_unchecked_const_iterator@V?$_List_val@U?$_List_simple_types@URectangularRegion@v2@security@vanetza@@@std@@@std@@U_Iterator_base0@2@@std@@@?$list@URectangularRegion@v2@security@vanetza@@V?$allocator@URectangularRegion@v2@security@vanetza@@@std@@@std@@AEAAXV?$_List_unchecked_const_iterator@V?$_List_val@U?$_List_simple_types@URectangularRegion@v2@security@vanetza@@@std@@@std@@U_Iterator_base0@2@@1@0@Z
	??$_Construct_range_unchecked@V?$_List_unchecked_const_iterator@V?$_List_val@U?$_List_simple_types@UTwoDLocation@v2@security@vanetza@@@std@@@std@@U_Iterator_base0@2@@std@@@?$list@UTwoDLocation@v2@security@vanetza@@V?$allocator@UTwoDLocation@v2@security@vanetza@@@std@@@std@@AEAAXV?$_List_unchecked_const_iterator@V?$_List_val@U?$_List_simple_types@UTwoDLocation@v2@security@vanetza@@@std@@@std@@U_Iterator_base0@2@@1@0@Z
	??$_Construct_range_unchecked@V?$_List_unchecked_const_iterator@V?$_List_val@U?$_List_simple_types@V?$array@E$02@std@@@std@@@std@@U_Iterator_base0@2@@std@@@?$list@V?$array@E$02@std@@V?$allocator@V?$array@E$02@std@@@2@@std@@AEAAXV?$_List_unchecked_const_iterator@V?$_List_val@U?$_List_simple_types@V?$array@E$02@std@@@std@@@std@@U_Iterator_base0@2@@1@0@Z
	??$_Construct_range_unchecked@V?$_List_unchecked_const_iterator@V?$_List_val@U?$_List_simple_types@V?$variant@IUStartAndEndValidity@v2@security@vanetza@@UStartAndDurationValidity@234@V?$variant@UNoneRegion@v2@security@vanetza@@UCircularRegion@234@V?$list@URectangularRegion@v2@security@vanetza@@V?$allocator@URectangularRegion@v2@security@vanetza@@@std@@@std@@V?$list@UTwoDLocation@v2@security@vanetza@@V?$allocator@UTwoDLocation@v2@security@vanetza@@@std@@@7@UIdentifiedRegion@234@@boost@@@boost@@@std@@@std@@U_Iterator_base0@2@@std@@@?$list@V?$variant@IUStartAndEndValidity@v2@security@vanetza@@UStartAndDurationValidity@234@V?$variant@UNoneRegion@v2@security@vanetza@@UCircularRegion@234@V?$list@URectangularRegion@v2@security@vanetza@@V?$allocator@URectangularRegion@v2@security@vanetza@@@std@@@std@@V?$list@UTwoDLocation@v2@security@vanetza@@V?$allocator@UTwoDLocation@v2@security@vanetza@@@std@@@7@UIdentifiedRegion@234@@boost@@@boost@@V?$allocator@V?$variant@IUStartAndEndValidity@v2@security@vanetza@@UStartAndDurationValidity@234@V?$variant@UNoneRegion@v2@security@vanetza@@UCircularRegion@234@V?$list@URectangularRegion@v2@security@vanetza@@V?$allocator@URectangularRegion@v2@security@vanetza@@@std@@@std@@V?$list@UTwoDLocation@v2@security@vanetza@@V?$allocator@UTwoDLocation@v2@security@vanetza@@@std@@@7@UIdentifiedRegion@234@@boost@@@boost@@@std@@@std@@AEAAXV?$_List_unchecked_const_iterator@V?$_List_val@U?$_List_simple_types@V?$variant@IUStartAndEndValidity@v2@security@vanetza@@UStartAndDurationValidity@234@V?$variant@UNoneRegion@v2@security@vanetza@@UCircularRegion@234@V?$list@URectangularRegion@v2@security@vanetza@@V?$allocator@URectangularRegion@v2@security@vanetza@@@std@@@std@@V?$list@UTwoDLocation@v2@security@vanetza@@V?$allocator@UTwoDLocation@v2@security@vanetza@@@std@@@7@UIdentifiedRegion@234@@boost@@@boost@@@std@@@std@@U_Iterator_base0@2@@1@0@Z
	??$_Construct_range_unchecked@V?$_List_unchecked_const_iterator@V?$_List_val@U?$_List_simple_types@V?$variant@USignature@v2@security@vanetza@@$$V@boost@@@std@@@std@@U_Iterator_base0@2@@std@@@?$list@V?$variant@USignature@v2@security@vanetza@@$$V@boost@@V?$allocator@V?$variant@USignature@v2@security@vanetza@@$$V@boost@@@std@@@std@@AEAAXV?$_List_unchecked_const_iterator@V?$_List_val@U?$_List_simple_types@V?$variant@USignature@v2@security@vanetza@@$$V@boost@@@std@@@std@@U_Iterator_base0@2@@1@0@Z
	??$_Construct_range_unchecked@V?$_List_unchecked_const_iterator@V?$_List_val@U?$_List_simple_types@V?$variant@UVerificationKey@v2@security@vanetza@@UEncryptionKey@234@USubjectAssurance@234@V?$variant@UX_Coordinate_Only@security@vanetza@@UCompressed_Lsb_Y_0@23@UCompressed_Lsb_Y_1@23@UUncompressed@23@@boost@@V?$list@VIntX@v2@security@vanetza@@V?$allocator@VIntX@v2@security@vanetza@@@std@@@std@@V?$list@UItsAidSsp@v2@security@vanetza@@V?$allocator@UItsAidSsp@v2@security@vanetza@@@std@@@std@@@boost@@@std@@@std@@U_Iterator_base0@2@@std@@@?$list@V?$variant@UVerificationKey@v2@security@vanetza@@UEncryptionKey@234@USubjectAssurance@234@V?$variant@UX_Coordinate_Only@security@vanetza@@UCompressed_Lsb_Y_0@23@UCompressed_Lsb_Y_1@23@UUncompressed@23@@boost@@V?$list@VIntX@v2@security@vanetza@@V?$allocator@VIntX@v2@security@vanetza@@@std@@@std@@V?$list@UItsAidSsp@v2@security@vanetza@@V?$allocator@UItsAidSsp@v2@security@vanetza@@@std@@@std@@@boost@@V?$allocator@V?$variant@UVerificationKey@v2@security@vanetza@@UEncryptionKey@234@USubjectAssurance@234@V?$variant@UX_Coordinate_Only@security@vanetza@@UCompressed_Lsb_Y_0@23@UCompressed_Lsb_Y_1@23@UUncompressed@23@@boost@@V?$list@VIntX@v2@security@vanetza@@V?$allocator@VIntX@v2@security@vanetza@@@std@@@std@@V?$list@UItsAidSsp@v2@security@vanetza@@V?$allocator@UItsAidSsp@v2@security@vanetza@@@std@@@std@@@boost@@@std@@@std@@AEAAXV?$_List_unchecked_const_iterator@V?$_List_val@U?$_List_simple_types@V?$variant@UVerificationKey@v2@security@vanetza@@UEncryptionKey@234@USubjectAssurance@234@V?$variant@UX_Coordinate_Only@security@vanetza@@UCompressed_Lsb_Y_0@23@UCompressed_Lsb_Y_1@23@UUncompressed@23@@boost@@V?$list@VIntX@v2@security@vanetza@@V?$allocator@VIntX@v2@security@vanetza@@@std@@@std@@V?$list@UItsAidSsp@v2@security@vanetza@@V?$allocator@UItsAidSsp@v2@security@vanetza@@@std@@@std@@@boost@@@std@@@std@@U_Iterator_base0@2@@1@0@Z
	??$_Construct_range_unchecked@V?$_List_unchecked_const_iterator@V?$_List_val@U?$_List_simple_types@V?$variant@_KUTime64WithStandardDeviation@v2@security@vanetza@@IUThreeDLocation@234@V?$list@V?$array@E$02@std@@V?$allocator@V?$array@E$02@std@@@2@@std@@VIntX@234@V?$variant@$$TV?$array@E$07@std@@V?$recursive_wrapper@UCertificate@v2@security@vanetza@@@boost@@V?$list@UCertificate@v2@security@vanetza@@V?$allocator@UCertificate@v2@security@vanetza@@@std@@@2@UCertificateDigestWithOtherAlgorithm@v2@security@vanetza@@@boost@@V?$variant@V?$array@E$0M@@std@@$$V@boost@@V?$list@URecipientInfo@v2@security@vanetza@@V?$allocator@URecipientInfo@v2@security@vanetza@@@std@@@7@@boost@@@std@@@std@@U_Iterator_base0@2@@std@@@?$list@V?$variant@_KUTime64WithStandardDeviation@v2@security@vanetza@@IUThreeDLocation@234@V?$list@V?$array@E$02@std@@V?$allocator@V?$array@E$02@std@@@2@@std@@VIntX@234@V?$variant@$$TV?$array@E$07@std@@V?$recursive_wrapper@UCertificate@v2@security@vanetza@@@boost@@V?$list@UCertificate@v2@security@vanetza@@V?$allocator@UCertificate@v2@security@vanetza@@@std@@@2@UCertificateDigestWithOtherAlgorithm@v2@security@vanetza@@@boost@@V?$variant@V?$array@E$0M@@std@@$$V@boost@@V?$list@URecipientInfo@v2@security@vanetza@@V?$allocator@URecipientInfo@v2@security@vanetza@@@std@@@7@@boost@@V?$allocator@V?$variant@_KUTime64WithStandardDeviation@v2@security@vanetza@@IUThreeDLocation@234@V?$list@V?$array@E$02@std@@V?$allocator@V?$array@E$02@std@@@2@@std@@VIntX@234@V?$variant@$$TV?$array@E$07@std@@V?$recursive_wrapper@UCertificate@v2@security@vanetza@@@boost@@V?$list@UCertificate@v2@security@vanetza@@V?$allocator@UCertificate@v2@security@vanetza@@@std@@@2@UCertificateDigestWithOtherAlgorithm@v2@security@vanetza@@@boost@@V?$variant@V?$array@E$0M@@std@@$$V@boost@@V?$list@URecipientInfo@v2@security@vanetza@@V?$allocator@URecipientInfo@v2@security@vanetza@@@std@@@7@@boost@@@std@@@std@@AEAAXV?$_List_unchecked_const_iterator@V?$_List_val@U?$_List_simple_types@V?$variant@_KUTime64WithStandardDeviation@v2@security@vanetza@@IUThreeDLocation@234@V?$list@V?$array@E$02@std@@V?$allocator@V?$array@E$02@std@@@2@@std@@VIntX@234@V?$variant@$$TV?$array@E$07@std@@V?$recursive_wrapper@UCertificate@v2@security@vanetza@@@boost@@V?$list@UCertificate@v2@security@vanetza@@V?$allocator@UCertificate@v2@security@vanetza@@@std@@@2@UCertificateDigestWithOtherAlgorithm@v2@security@vanetza@@@boost@@V?$variant@V?$array@E$0M@@std@@$$V@boost@@V?$list@URecipientInfo@v2@security@vanetza@@V?$allocator@URecipientInfo@v2@security@vanetza@@@std@@@7@@boost@@@std@@@std@@U_Iterator_base0@2@@1@0@Z
	??$_Construct_range_unchecked@V?$_List_unchecked_const_iterator@V?$_List_val@U?$_List_simple_types@VIntX@v2@security@vanetza@@@std@@@std@@U_Iterator_base0@2@@std@@@?$list@VIntX@v2@security@vanetza@@V?$allocator@VIntX@v2@security@vanetza@@@std@@@std@@AEAAXV?$_List_unchecked_const_iterator@V?$_List_val@U?$_List_simple_types@VIntX@v2@security@vanetza@@@std@@@std@@U_Iterator_base0@2@@1@0@Z
	??$_Construct_range_unchecked@V?$_Tree_unchecked_const_iterator@V?$_Tree_val@U?$_Tree_simple_types@V?$array@E$02@std@@@std@@@std@@U_Iterator_base0@2@@std@@@?$list@V?$array@E$02@std@@V?$allocator@V?$array@E$02@std@@@2@@std@@AEAAXV?$_Tree_unchecked_const_iterator@V?$_Tree_val@U?$_Tree_simple_types@V?$array@E$02@std@@@std@@@std@@U_Iterator_base0@2@@1@0@Z
	??$_Convert_size@_K@std@@YA_K_K@Z
	??$_Copy_backward_memmove@PEAEPEAE@std@@YAPEAEPEAE00@Z
	??$_Copy_backward_unchecked@V?$_Vb_iterator@U?$_Wrap_alloc@V?$allocator@I@std@@@std@@@std@@V12@@std@@YA?AV?$_Vb_iterator@U?$_Wrap_alloc@V?$allocator@I@std@@@std@@@0@V10@00@Z
	??$_Copy_construct_from@U?$_Task_impl@E@details@Concurrency@@@?$_Ptr_base@U?$_Task_impl@E@details@Concurrency@@@std@@IEAAXAEBV?$shared_ptr@U?$_Task_impl@E@details@Concurrency@@@1@@Z
	??$_Copy_construct_from@U_ExceptionHolder@details@Concurrency@@@?$_Ptr_base@U_ExceptionHolder@details@Concurrency@@@std@@IEAAXAEBV?$shared_ptr@U_ExceptionHolder@details@Concurrency@@@1@@Z
	??$_Copy_construct_from@U_Task_impl_base@details@Concurrency@@@?$_Ptr_base@U_Task_impl_base@details@Concurrency@@@std@@IEAAXAEBV?$shared_ptr@U_Task_impl_base@details@Concurrency@@@1@@Z
	??$_Copy_construct_from@Uscheduler_interface@Concurrency@@@?$_Ptr_base@Uscheduler_interface@Concurrency@@@std@@IEAAXAEBV?$shared_ptr@Uscheduler_interface@Concurrency@@@1@@Z
	??$_Copy_memmove@PEADPEAE@std@@YAPEAEPEAD0PEAE@Z
	??$_Copy_memmove@PEAEPEAE@std@@YAPEAEPEAE00@Z
	??$_Copy_memmove@PEAIPEAI@std@@YAPEAIPEAI00@Z
	??$_Copy_memmove@PEAPEAXPEAPEAX@std@@YAPEAPEAXPEAPEAX00@Z
	??$_Copy_memmove@PEBDPEAE@std@@YAPEAEPEBD0PEAE@Z
	??$_Copy_memmove@PEBEPEAE@std@@YAPEAEPEBE0PEAE@Z
	??$_Copy_unchecked@PEAEPEAE@std@@YAPEAEPEAE00@Z
	??$_Copy_unchecked@PEAIPEAI@std@@YAPEAIPEAI00@Z
	??$_Copy_unchecked@PEAPEAXPEAPEAX@std@@YAPEAPEAXPEAPEAX00@Z
	??$_Copy_unchecked@PEAUECPPoint@CryptoPP@@PEAU12@@std@@YAPEAUECPPoint@CryptoPP@@PEAU12@00@Z
	??$_Copy_unchecked@PEBEPEAE@std@@YAPEAEPEBE0PEAE@Z
	??$_Copy_unchecked@PEBEV?$back_insert_iterator@V?$vector@EV?$allocator@E@std@@@std@@@std@@@std@@YA?AV?$back_insert_iterator@V?$vector@EV?$allocator@E@std@@@std@@@0@PEBE0V10@@Z
	??$_Copy_unchecked@V?$_Vb_iterator@U?$_Wrap_alloc@V?$allocator@I@std@@@std@@@std@@V12@@std@@YA?AV?$_Vb_iterator@U?$_Wrap_alloc@V?$allocator@I@std@@@std@@@0@V10@00@Z
	??$_Deallocate@$07$0A@@std@@YAXPEAX_K@Z
	??$_Deallocate@$0BA@$0A@@std@@YAXPEAX_K@Z
	??$_Deallocate_plain@V?$allocator@U_Container_proxy@std@@@std@@@std@@YAXAEAV?$allocator@U_Container_proxy@std@@@0@QEAU_Container_proxy@0@@Z
	??$_Debug_lt_pred@AEAU?$less@X@std@@AEAIAEAI$0A@@std@@YA_NAEAU?$less@X@0@AEAI1@Z
	??$_Debug_lt_pred@AEAU?$less@X@std@@AEBEAEBE$0A@@std@@YA_NAEAU?$less@X@0@AEBE1@Z
	??$_Debug_lt_pred@AEBU?$less@V?$array@E$02@std@@@std@@AEBV?$array@E$02@2@AEBV32@$0A@@std@@YA_NAEBU?$less@V?$array@E$02@std@@@0@AEBV?$array@E$02@0@1@Z
	??$_Debug_lt_pred@AEBU?$less@V?$array@E$07@std@@@std@@AEBV?$array@E$07@2@AEBV32@$0A@@std@@YA_NAEBU?$less@V?$array@E$07@std@@@0@AEBV?$array@E$07@0@1@Z
	??$_Debug_lt_pred@AEBU?$less@V?$basic_string@DU?$char_traits@D@std@@V?$allocator@D@2@@std@@@std@@AEBV?$basic_string@DU?$char_traits@D@std@@V?$allocator@D@2@@2@AEBV32@$0A@@std@@YA_NAEBU?$less@V?$basic_string@DU?$char_traits@D@std@@V?$allocator@D@2@@std@@@0@AEBV?$basic_string@DU?$char_traits@D@std@@V?$allocator@D@2@@0@1@Z
	??$_Debug_lt_pred@AEBU?$less@W4CamPermission@security@vanetza@@@std@@AEBW4CamPermission@security@vanetza@@AEBW4345@$0A@@std@@YA_NAEBU?$less@W4CamPermission@security@vanetza@@@0@AEBW4CamPermission@security@vanetza@@1@Z
	??$_Debug_order_set_unchecked@V?$_List_iterator@V?$_List_val@U?$_List_simple_types@I@std@@@std@@@std@@V?$_List_unchecked_iterator@V?$_List_val@U?$_List_simple_types@I@std@@@std@@@2@AEAU?$less@X@2@@std@@YAXV?$_List_unchecked_iterator@V?$_List_val@U?$_List_simple_types@I@std@@@std@@@0@0AEAU?$less@X@0@@Z
	??$_Debug_order_unchecked@V?$_List_unchecked_iterator@V?$_List_val@U?$_List_simple_types@I@std@@@std@@@std@@V12@AEAU?$less@X@2@@std@@YAXV?$_List_unchecked_iterator@V?$_List_val@U?$_List_simple_types@I@std@@@std@@@0@0AEAU?$less@X@0@@Z
	??$_Delete_plain_internal@V?$allocator@U_Container_proxy@std@@@std@@@std@@YAXAEAV?$allocator@U_Container_proxy@std@@@0@QEAU_Container_proxy@0@@Z
	??$_Destroy_in_place@PEAD@std@@YAXAEAPEAD@Z
	??$_Destroy_in_place@PEAU?$_List_node@EPEAX@std@@@std@@YAXAEAPEAU?$_List_node@EPEAX@0@@Z
	??$_Destroy_in_place@PEAU?$_List_node@IPEAX@std@@@std@@YAXAEAPEAU?$_List_node@IPEAX@0@@Z
	??$_Destroy_in_place@PEAU?$_List_node@U?$pair@$$CBV?$array@E$02@std@@V?$_List_iterator@V?$_List_val@U?$_List_simple_types@U?$pair@$$CBV?$array@E$07@std@@UCertificate@v3@security@vanetza@@@std@@@std@@@std@@@2@@std@@PEAX@std@@@std@@YAXAEAPEAU?$_List_node@U?$pair@$$CBV?$array@E$02@std@@V?$_List_iterator@V?$_List_val@U?$_List_simple_types@U?$pair@$$CBV?$array@E$07@std@@UCertificate@v3@security@vanetza@@@std@@@std@@@std@@@2@@std@@PEAX@0@@Z
	??$_Destroy_in_place@PEAU?$_List_node@U?$pair@$$CBV?$array@E$02@std@@V?$_List_iterator@V?$_List_val@U?$_List_simple_types@V?$array@E$02@std@@@std@@@std@@@2@@std@@PEAX@std@@@std@@YAXAEAPEAU?$_List_node@U?$pair@$$CBV?$array@E$02@std@@V?$_List_iterator@V?$_List_val@U?$_List_simple_types@V?$array@E$02@std@@@std@@@std@@@2@@std@@PEAX@0@@Z
	??$_Destroy_in_place@PEAU?$_List_node@U?$pair@$$CBV?$array@E$07@std@@UCertificate@v3@security@vanetza@@@std@@PEAX@std@@@std@@YAXAEAPEAU?$_List_node@U?$pair@$$CBV?$array@E$07@std@@UCertificate@v3@security@vanetza@@@std@@PEAX@0@@Z
	??$_Destroy_in_place@PEAU?$_List_node@UCertificate@v2@security@vanetza@@PEAX@std@@@std@@YAXAEAPEAU?$_List_node@UCertificate@v2@security@vanetza@@PEAX@0@@Z
	??$_Destroy_in_place@PEAU?$_List_node@UCertificate@v3@security@vanetza@@PEAX@std@@@std@@YAXAEAPEAU?$_List_node@UCertificate@v3@security@vanetza@@PEAX@0@@Z
	??$_Destroy_in_place@PEAU?$_List_node@UItsAidSsp@v2@security@vanetza@@PEAX@std@@@std@@YAXAEAPEAU?$_List_node@UItsAidSsp@v2@security@vanetza@@PEAX@0@@Z
	??$_Destroy_in_place@PEAU?$_List_node@URecipientInfo@v2@security@vanetza@@PEAX@std@@@std@@YAXAEAPEAU?$_List_node@URecipientInfo@v2@security@vanetza@@PEAX@0@@Z
	??$_Destroy_in_place@PEAU?$_List_node@URectangularRegion@v2@security@vanetza@@PEAX@std@@@std@@YAXAEAPEAU?$_List_node@URectangularRegion@v2@security@vanetza@@PEAX@0@@Z
	??$_Destroy_in_place@PEAU?$_List_node@UTwoDLocation@v2@security@vanetza@@PEAX@std@@@std@@YAXAEAPEAU?$_List_node@UTwoDLocation@v2@security@vanetza@@PEAX@0@@Z
	??$_Destroy_in_place@PEAU?$_List_node@V?$array@E$02@std@@PEAX@std@@@std@@YAXAEAPEAU?$_List_node@V?$array@E$02@std@@PEAX@0@@Z
	??$_Destroy_in_place@PEAU?$_List_node@V?$array@E$07@std@@PEAX@std@@@std@@YAXAEAPEAU?$_List_node@V?$array@E$07@std@@PEAX@0@@Z
	??$_Destroy_in_place@PEAU?$_List_node@V?$variant@IUStartAndEndValidity@v2@security@vanetza@@UStartAndDurationValidity@234@V?$variant@UNoneRegion@v2@security@vanetza@@UCircularRegion@234@V?$list@URectangularRegion@v2@security@vanetza@@V?$allocator@URectangularRegion@v2@security@vanetza@@@std@@@std@@V?$list@UTwoDLocation@v2@security@vanetza@@V?$allocator@UTwoDLocation@v2@security@vanetza@@@std@@@7@UIdentifiedRegion@234@@boost@@@boost@@PEAX@std@@@std@@YAXAEAPEAU?$_List_node@V?$variant@IUStartAndEndValidity@v2@security@vanetza@@UStartAndDurationValidity@234@V?$variant@UNoneRegion@v2@security@vanetza@@UCircularRegion@234@V?$list@URectangularRegion@v2@security@vanetza@@V?$allocator@URectangularRegion@v2@security@vanetza@@@std@@@std@@V?$list@UTwoDLocation@v2@security@vanetza@@V?$allocator@UTwoDLocation@v2@security@vanetza@@@std@@@7@UIdentifiedRegion@234@@boost@@@boost@@PEAX@0@@Z
	??$_Destroy_in_place@PEAU?$_List_node@V?$variant@USignature@v2@security@vanetza@@$$V@boost@@PEAX@std@@@std@@YAXAEAPEAU?$_List_node@V?$variant@USignature@v2@security@vanetza@@$$V@boost@@PEAX@0@@Z
	??$_Destroy_in_place@PEAU?$_List_node@V?$variant@UVerificationKey@v2@security@vanetza@@UEncryptionKey@234@USubjectAssurance@234@V?$variant@UX_Coordinate_Only@security@vanetza@@UCompressed_Lsb_Y_0@23@UCompressed_Lsb_Y_1@23@UUncompressed@23@@boost@@V?$list@VIntX@v2@security@vanetza@@V?$allocator@VIntX@v2@security@vanetza@@@std@@@std@@V?$list@UItsAidSsp@v2@security@vanetza@@V?$allocator@UItsAidSsp@v2@security@vanetza@@@std@@@std@@@boost@@PEAX@std@@@std@@YAXAEAPEAU?$_List_node@V?$variant@UVerificationKey@v2@security@vanetza@@UEncryptionKey@234@USubjectAssurance@234@V?$variant@UX_Coordinate_Only@security@vanetza@@UCompressed_Lsb_Y_0@23@UCompressed_Lsb_Y_1@23@UUncompressed@23@@boost@@V?$list@VIntX@v2@security@vanetza@@V?$allocator@VIntX@v2@security@vanetza@@@std@@@std@@V?$list@UItsAidSsp@v2@security@vanetza@@V?$allocator@UItsAidSsp@v2@security@vanetza@@@std@@@std@@@boost@@PEAX@0@@Z
	??$_Destroy_in_place@PEAU?$_List_node@V?$variant@_KUTime64WithStandardDeviation@v2@security@vanetza@@IUThreeDLocation@234@V?$list@V?$array@E$02@std@@V?$allocator@V?$array@E$02@std@@@2@@std@@VIntX@234@V?$variant@$$TV?$array@E$07@std@@V?$recursive_wrapper@UCertificate@v2@security@vanetza@@@boost@@V?$list@UCertificate@v2@security@vanetza@@V?$allocator@UCertificate@v2@security@vanetza@@@std@@@2@UCertificateDigestWithOtherAlgorithm@v2@security@vanetza@@@boost@@V?$variant@V?$array@E$0M@@std@@$$V@boost@@V?$list@URecipientInfo@v2@security@vanetza@@V?$allocator@URecipientInfo@v2@security@vanetza@@@std@@@7@@boost@@PEAX@std@@@std@@YAXAEAPEAU?$_List_node@V?$variant@_KUTime64WithStandardDeviation@v2@security@vanetza@@IUThreeDLocation@234@V?$list@V?$array@E$02@std@@V?$allocator@V?$array@E$02@std@@@2@@std@@VIntX@234@V?$variant@$$TV?$array@E$07@std@@V?$recursive_wrapper@UCertificate@v2@security@vanetza@@@boost@@V?$list@UCertificate@v2@security@vanetza@@V?$allocator@UCertificate@v2@security@vanetza@@@std@@@2@UCertificateDigestWithOtherAlgorithm@v2@security@vanetza@@@boost@@V?$variant@V?$array@E$0M@@std@@$$V@boost@@V?$list@URecipientInfo@v2@security@vanetza@@V?$allocator@URecipientInfo@v2@security@vanetza@@@std@@@7@@boost@@PEAX@0@@Z
	??$_Destroy_in_place@PEAU?$_List_node@VIntX@v2@security@vanetza@@PEAX@std@@@std@@YAXAEAPEAU?$_List_node@VIntX@v2@security@vanetza@@PEAX@0@@Z
	??$_Destroy_in_place@PEAU?$_Tree_node@U?$pair@$$CBV?$array@E$07@std@@UCachedCertificate@CertificateCache@v2@security@vanetza@@@std@@PEAX@std@@@std@@YAXAEAPEAU?$_Tree_node@U?$pair@$$CBV?$array@E$07@std@@UCachedCertificate@CertificateCache@v2@security@vanetza@@@std@@PEAX@0@@Z
	??$_Destroy_in_place@PEAU?$_Tree_node@U?$pair@$$CBV?$array@E$07@std@@UCertificate@v2@security@vanetza@@@std@@PEAX@std@@@std@@YAXAEAPEAU?$_Tree_node@U?$pair@$$CBV?$array@E$07@std@@UCertificate@v2@security@vanetza@@@std@@PEAX@0@@Z
	??$_Destroy_in_place@PEAU?$_Tree_node@U?$pair@$$CBV?$basic_string@DU?$char_traits@D@std@@V?$allocator@D@2@@std@@V?$function@$$A6A?AV?$unique_ptr@VBackend@security@vanetza@@U?$default_delete@VBackend@security@vanetza@@@std@@@std@@XZ@2@@std@@PEAX@std@@@std@@YAXAEAPEAU?$_Tree_node@U?$pair@$$CBV?$basic_string@DU?$char_traits@D@std@@V?$allocator@D@2@@std@@V?$function@$$A6A?AV?$unique_ptr@VBackend@security@vanetza@@U?$default_delete@VBackend@security@vanetza@@@std@@@std@@XZ@2@@std@@PEAX@0@@Z
	??$_Destroy_in_place@PEAU?$_Tree_node@U?$pair@$$CBW4OsiLayer@vanetza@@VByteBufferConvertible@2@@std@@PEAX@std@@@std@@YAXAEAPEAU?$_Tree_node@U?$pair@$$CBW4OsiLayer@vanetza@@VByteBufferConvertible@2@@std@@PEAX@0@@Z
	??$_Destroy_in_place@PEAU?$_Tree_node@V?$array@E$02@std@@PEAX@std@@@std@@YAXAEAPEAU?$_Tree_node@V?$array@E$02@std@@PEAX@0@@Z
	??$_Destroy_in_place@PEAU?$_Tree_node@W4CamPermission@security@vanetza@@PEAX@std@@@std@@YAXAEAPEAU?$_Tree_node@W4CamPermission@security@vanetza@@PEAX@0@@Z
	??$_Destroy_in_place@U?$_Task_impl@E@details@Concurrency@@@std@@YAXAEAU?$_Task_impl@E@details@Concurrency@@@Z
	??$_Destroy_in_place@U_ExceptionHolder@details@Concurrency@@@std@@YAXAEAU_ExceptionHolder@details@Concurrency@@@Z
	??$_Destroy_range@PEAV?$_List_unchecked_const_iterator@V?$_List_val@U?$_List_simple_types@V?$array@E$07@std@@@std@@@std@@U_Iterator_base0@2@@std@@PEAV12@@std@@YAXPEAV?$_List_unchecked_const_iterator@V?$_List_val@U?$_List_simple_types@V?$array@E$07@std@@@std@@@std@@U_Iterator_base0@2@@0@QEAV10@@Z
	??$_Destroy_range@PEAV?$_List_unchecked_iterator@V?$_List_val@U?$_List_simple_types@U?$pair@$$CBV?$array@E$02@std@@V?$_List_iterator@V?$_List_val@U?$_List_simple_types@U?$pair@$$CBV?$array@E$07@std@@UCertificate@v3@security@vanetza@@@std@@@std@@@std@@@2@@std@@@std@@@std@@@std@@PEAV12@@std@@YAXPEAV?$_List_unchecked_iterator@V?$_List_val@U?$_List_simple_types@U?$pair@$$CBV?$array@E$02@std@@V?$_List_iterator@V?$_List_val@U?$_List_simple_types@U?$pair@$$CBV?$array@E$07@std@@UCertificate@v3@security@vanetza@@@std@@@std@@@std@@@2@@std@@@std@@@std@@@0@QEAV10@@Z
	??$_Destroy_range@PEAV?$_List_unchecked_iterator@V?$_List_val@U?$_List_simple_types@U?$pair@$$CBV?$array@E$02@std@@V?$_List_iterator@V?$_List_val@U?$_List_simple_types@V?$array@E$02@std@@@std@@@std@@@2@@std@@@std@@@std@@@std@@PEAV12@@std@@YAXPEAV?$_List_unchecked_iterator@V?$_List_val@U?$_List_simple_types@U?$pair@$$CBV?$array@E$02@std@@V?$_List_iterator@V?$_List_val@U?$_List_simple_types@V?$array@E$02@std@@@std@@@std@@@2@@std@@@std@@@std@@@0@QEAV10@@Z
	??$_Destroy_range@PEAV?$_List_unchecked_iterator@V?$_List_val@U?$_List_simple_types@U?$pair@$$CBV?$array@E$07@std@@UCertificate@v3@security@vanetza@@@std@@@std@@@std@@@std@@PEAV12@@std@@YAXPEAV?$_List_unchecked_iterator@V?$_List_val@U?$_List_simple_types@U?$pair@$$CBV?$array@E$07@std@@UCertificate@v3@security@vanetza@@@std@@@std@@@std@@@0@QEAV10@@Z
	??$_Destroy_range@V?$allocator@E@std@@@std@@YAXPEAEQEAEAEAV?$allocator@E@0@@Z
	??$_Destroy_range@V?$allocator@I@std@@@std@@YAXPEAIQEAIAEAV?$allocator@I@0@@Z
	??$_Destroy_range@V?$allocator@PEAX@std@@@std@@YAXPEAPEAXQEAPEAXAEAV?$allocator@PEAX@0@@Z
	??$_Destroy_range@V?$allocator@U?$format_item@DU?$char_traits@D@std@@V?$allocator@D@2@@detail@io@boost@@@std@@@std@@YAXPEAU?$format_item@DU?$char_traits@D@std@@V?$allocator@D@2@@detail@io@boost@@QEAU1234@AEAV?$allocator@U?$format_item@DU?$char_traits@D@std@@V?$allocator@D@2@@detail@io@boost@@@0@@Z
	??$_Destroy_range@V?$allocator@UECPPoint@CryptoPP@@@std@@@std@@YAXPEAUECPPoint@CryptoPP@@QEAU12@AEAV?$allocator@UECPPoint@CryptoPP@@@0@@Z
	??$_Emplace@AEBE@?$list@EV?$allocator@E@std@@@std@@QEAAPEAU?$_List_node@EPEAX@1@QEAU21@AEBE@Z
	??$_Emplace@AEBUCertificate@v2@security@vanetza@@@?$list@UCertificate@v2@security@vanetza@@V?$allocator@UCertificate@v2@security@vanetza@@@std@@@std@@QEAAPEAU?$_List_node@UCertificate@v2@security@vanetza@@PEAX@1@QEAU21@AEBUCertificate@v2@security@vanetza@@@Z
	??$_Emplace@AEBUItsAidSsp@v2@security@vanetza@@@?$list@UItsAidSsp@v2@security@vanetza@@V?$allocator@UItsAidSsp@v2@security@vanetza@@@std@@@std@@QEAAPEAU?$_List_node@UItsAidSsp@v2@security@vanetza@@PEAX@1@QEAU21@AEBUItsAidSsp@v2@security@vanetza@@@Z
	??$_Emplace@AEBURectangularRegion@v2@security@vanetza@@@?$list@URectangularRegion@v2@security@vanetza@@V?$allocator@URectangularRegion@v2@security@vanetza@@@std@@@std@@QEAAPEAU?$_List_node@URectangularRegion@v2@security@vanetza@@PEAX@1@QEAU21@AEBURectangularRegion@v2@security@vanetza@@@Z
	??$_Emplace@AEBUTwoDLocation@v2@security@vanetza@@@?$list@UTwoDLocation@v2@security@vanetza@@V?$allocator@UTwoDLocation@v2@security@vanetza@@@std@@@std@@QEAAPEAU?$_List_node@UTwoDLocation@v2@security@vanetza@@PEAX@1@QEAU21@AEBUTwoDLocation@v2@security@vanetza@@@Z
	??$_Emplace@AEBV?$array@E$02@std@@@?$list@V?$array@E$02@std@@V?$allocator@V?$array@E$02@std@@@2@@std@@QEAAPEAU?$_List_node@V?$array@E$02@std@@PEAX@1@QEAU21@AEBV?$array@E$02@1@@Z
	??$_Emplace@AEBV?$array@E$07@std@@AEAUCachedCertificate@CertificateCache@v2@security@vanetza@@@?$_Tree@V?$_Tmap_traits@V?$array@E$07@std@@UCachedCertificate@CertificateCache@v2@security@vanetza@@U?$less@V?$array@E$07@std@@@2@V?$allocator@U?$pair@$$CBV?$array@E$07@std@@UCachedCertificate@CertificateCache@v2@security@vanetza@@@std@@@2@$00@std@@@std@@IEAA?AU?$pair@PEAU?$_Tree_node@U?$pair@$$CBV?$array@E$07@std@@UCachedCertificate@CertificateCache@v2@security@vanetza@@@std@@PEAX@std@@_N@1@AEBV?$array@E$07@1@AEAUCachedCertificate@CertificateCache@v2@security@vanetza@@@Z
	??$_Emplace@AEBV?$basic_string@DU?$char_traits@D@std@@V?$allocator@D@2@@std@@V?$function@$$A6A?AV?$unique_ptr@VBackend@security@vanetza@@U?$default_delete@VBackend@security@vanetza@@@std@@@std@@XZ@2@@?$_Tree@V?$_Tmap_traits@V?$basic_string@DU?$char_traits@D@std@@V?$allocator@D@2@@std@@V?$function@$$A6A?AV?$unique_ptr@VBackend@security@vanetza@@U?$default_delete@VBackend@security@vanetza@@@std@@@std@@XZ@2@U?$less@V?$basic_string@DU?$char_traits@D@std@@V?$allocator@D@2@@std@@@2@V?$allocator@U?$pair@$$CBV?$basic_string@DU?$char_traits@D@std@@V?$allocator@D@2@@std@@V?$function@$$A6A?AV?$unique_ptr@VBackend@security@vanetza@@U?$default_delete@VBackend@security@vanetza@@@std@@@std@@XZ@2@@std@@@2@$0A@@std@@@std@@IEAA?AU?$pair@PEAU?$_Tree_node@U?$pair@$$CBV?$basic_string@DU?$char_traits@D@std@@V?$allocator@D@2@@std@@V?$function@$$A6A?AV?$unique_ptr@VBackend@security@vanetza@@U?$default_delete@VBackend@security@vanetza@@@std@@@std@@XZ@2@@std@@PEAX@std@@_N@1@AEBV?$basic_string@DU?$char_traits@D@std@@V?$allocator@D@2@@1@$$QEAV?$function@$$A6A?AV?$unique_ptr@VBackend@security@vanetza@@U?$default_delete@VBackend@security@vanetza@@@std@@@std@@XZ@1@@Z
	??$_Emplace@AEBV?$variant@USignature@v2@security@vanetza@@$$V@boost@@@?$list@V?$variant@USignature@v2@security@vanetza@@$$V@boost@@V?$allocator@V?$variant@USignature@v2@security@vanetza@@$$V@boost@@@std@@@std@@QEAAPEAU?$_List_node@V?$variant@USignature@v2@security@vanetza@@$$V@boost@@PEAX@1@QEAU21@AEBV?$variant@USignature@v2@security@vanetza@@$$V@boost@@@Z
	??$_Emplace@AEBV?$variant@_KUTime64WithStandardDeviation@v2@security@vanetza@@IUThreeDLocation@234@V?$list@V?$array@E$02@std@@V?$allocator@V?$array@E$02@std@@@2@@std@@VIntX@234@V?$variant@$$TV?$array@E$07@std@@V?$recursive_wrapper@UCertificate@v2@security@vanetza@@@boost@@V?$list@UCertificate@v2@security@vanetza@@V?$allocator@UCertificate@v2@security@vanetza@@@std@@@2@UCertificateDigestWithOtherAlgorithm@v2@security@vanetza@@@boost@@V?$variant@V?$array@E$0M@@std@@$$V@boost@@V?$list@URecipientInfo@v2@security@vanetza@@V?$allocator@URecipientInfo@v2@security@vanetza@@@std@@@7@@boost@@@?$list@V?$variant@_KUTime64WithStandardDeviation@v2@security@vanetza@@IUThreeDLocation@234@V?$list@V?$array@E$02@std@@V?$allocator@V?$array@E$02@std@@@2@@std@@VIntX@234@V?$variant@$$TV?$array@E$07@std@@V?$recursive_wrapper@UCertificate@v2@security@vanetza@@@boost@@V?$list@UCertificate@v2@security@vanetza@@V?$allocator@UCertificate@v2@security@vanetza@@@std@@@2@UCertificateDigestWithOtherAlgorithm@v2@security@vanetza@@@boost@@V?$variant@V?$array@E$0M@@std@@$$V@boost@@V?$list@URecipientInfo@v2@security@vanetza@@V?$allocator@URecipientInfo@v2@security@vanetza@@@std@@@7@@boost@@V?$allocator@V?$variant@_KUTime64WithStandardDeviation@v2@security@vanetza@@IUThreeDLocation@234@V?$list@V?$array@E$02@std@@V?$allocator@V?$array@E$02@std@@@2@@std@@VIntX@234@V?$variant@$$TV?$array@E$07@std@@V?$recursive_wrapper@UCertificate@v2@security@vanetza@@@boost@@V?$list@UCertificate@v2@security@vanetza@@V?$allocator@UCertificate@v2@security@vanetza@@@std@@@2@UCertificateDigestWithOtherAlgorithm@v2@security@vanetza@@@boost@@V?$variant@V?$array@E$0M@@std@@$$V@boost@@V?$list@URecipientInfo@v2@security@vanetza@@V?$allocator@URecipientInfo@v2@security@vanetza@@@std@@@7@@boost@@@std@@@std@@QEAAPEAU?$_List_node@V?$variant@_KUTime64WithStandardDeviation@v2@security@vanetza@@IUThreeDLocation@234@V?$list@V?$array@E$02@std@@V?$allocator@V?$array@E$02@std@@@2@@std@@VIntX@234@V?$variant@$$TV?$array@E$07@std@@V?$recursive_wrapper@UCertificate@v2@security@vanetza@@@boost@@V?$list@UCertificate@v2@security@vanetza@@V?$allocator@UCertificate@v2@security@vanetza@@@std@@@2@UCertificateDigestWithOtherAlgorithm@v2@security@vanetza@@@boost@@V?$variant@V?$array@E$0M@@std@@$$V@boost@@V?$list@URecipientInfo@v2@security@vanetza@@V?$allocator@URecipientInfo@v2@security@vanetza@@@std@@@7@@boost@@PEAX@1@QEAU21@AEBV?$variant@_KUTime64WithStandardDeviation@v2@security@vanetza@@IUThreeDLocation@234@V?$list@V?$array@E$02@std@@V?$allocator@V?$array@E$02@std@@@2@@std@@VIntX@234@V?$variant@$$TV?$array@E$07@std@@V?$recursive_wrapper@UCertificate@v2@security@vanetza@@@boost@@V?$list@UCertificate@v2@security@vanetza@@V?$allocator@UCertificate@v2@security@vanetza@@@std@@@2@UCertificateDigestWithOtherAlgorithm@v2@security@vanetza@@@boost@@V?$variant@V?$array@E$0M@@std@@$$V@boost@@V?$list@URecipientInfo@v2@security@vanetza@@V?$allocator@URecipientInfo@v2@security@vanetza@@@std@@@7@@boost@@@Z
	??$_Emplace@AEBW4CamPermission@security@vanetza@@@?$_Tree@V?$_Tset_traits@W4CamPermission@security@vanetza@@U?$less@W4CamPermission@security@vanetza@@@std@@V?$allocator@W4CamPermission@security@vanetza@@@5@$0A@@std@@@std@@IEAA?AU?$pair@PEAU?$_Tree_node@W4CamPermission@security@vanetza@@PEAX@std@@_N@1@AEBW4CamPermission@security@vanetza@@@Z
	??$_Emplace@E@?$list@EV?$allocator@E@std@@@std@@QEAAPEAU?$_List_node@EPEAX@1@QEAU21@$$QEAE@Z
	??$_Emplace@I@?$list@IV?$allocator@I@std@@@std@@QEAAPEAU?$_List_node@IPEAX@1@QEAU21@$$QEAI@Z
	??$_Emplace@U?$pair@V?$array@E$07@std@@UCertificate@v2@security@vanetza@@@std@@@?$_Tree@V?$_Tmap_traits@V?$array@E$07@std@@UCertificate@v2@security@vanetza@@U?$less@V?$array@E$07@std@@@2@V?$allocator@U?$pair@$$CBV?$array@E$07@std@@UCertificate@v2@security@vanetza@@@std@@@2@$00@std@@@std@@IEAA?AU?$pair@PEAU?$_Tree_node@U?$pair@$$CBV?$array@E$07@std@@UCertificate@v2@security@vanetza@@@std@@PEAX@std@@_N@1@$$QEAU?$pair@V?$array@E$07@std@@UCertificate@v2@security@vanetza@@@1@@Z
	??$_Emplace@UCertificate@v2@security@vanetza@@@?$list@UCertificate@v2@security@vanetza@@V?$allocator@UCertificate@v2@security@vanetza@@@std@@@std@@QEAAPEAU?$_List_node@UCertificate@v2@security@vanetza@@PEAX@1@QEAU21@$$QEAUCertificate@v2@security@vanetza@@@Z
	??$_Emplace@UItsAidSsp@v2@security@vanetza@@@?$list@UItsAidSsp@v2@security@vanetza@@V?$allocator@UItsAidSsp@v2@security@vanetza@@@std@@@std@@QEAAPEAU?$_List_node@UItsAidSsp@v2@security@vanetza@@PEAX@1@QEAU21@$$QEAUItsAidSsp@v2@security@vanetza@@@Z
	??$_Emplace@URecipientInfo@v2@security@vanetza@@@?$list@URecipientInfo@v2@security@vanetza@@V?$allocator@URecipientInfo@v2@security@vanetza@@@std@@@std@@QEAAPEAU?$_List_node@URecipientInfo@v2@security@vanetza@@PEAX@1@QEAU21@$$QEAURecipientInfo@v2@security@vanetza@@@Z
	??$_Emplace@V?$array@E$02@std@@@?$_Tree@V?$_Tset_traits@V?$array@E$02@std@@U?$less@V?$array@E$02@std@@@2@V?$allocator@V?$array@E$02@std@@@2@$0A@@std@@@std@@IEAA?AU?$pair@PEAU?$_Tree_node@V?$array@E$02@std@@PEAX@std@@_N@1@$$QEAV?$array@E$02@1@@Z
	??$_Emplace@V?$variant@IUStartAndEndValidity@v2@security@vanetza@@UStartAndDurationValidity@234@V?$variant@UNoneRegion@v2@security@vanetza@@UCircularRegion@234@V?$list@URectangularRegion@v2@security@vanetza@@V?$allocator@URectangularRegion@v2@security@vanetza@@@std@@@std@@V?$list@UTwoDLocation@v2@security@vanetza@@V?$allocator@UTwoDLocation@v2@security@vanetza@@@std@@@7@UIdentifiedRegion@234@@boost@@@boost@@@?$list@V?$variant@IUStartAndEndValidity@v2@security@vanetza@@UStartAndDurationValidity@234@V?$variant@UNoneRegion@v2@security@vanetza@@UCircularRegion@234@V?$list@URectangularRegion@v2@security@vanetza@@V?$allocator@URectangularRegion@v2@security@vanetza@@@std@@@std@@V?$list@UTwoDLocation@v2@security@vanetza@@V?$allocator@UTwoDLocation@v2@security@vanetza@@@std@@@7@UIdentifiedRegion@234@@boost@@@boost@@V?$allocator@V?$variant@IUStartAndEndValidity@v2@security@vanetza@@UStartAndDurationValidity@234@V?$variant@UNoneRegion@v2@security@vanetza@@UCircularRegion@234@V?$list@URectangularRegion@v2@security@vanetza@@V?$allocator@URectangularRegion@v2@security@vanetza@@@std@@@std@@V?$list@UTwoDLocation@v2@security@vanetza@@V?$allocator@UTwoDLocation@v2@security@vanetza@@@std@@@7@UIdentifiedRegion@234@@boost@@@boost@@@std@@@std@@QEAAPEAU?$_List_node@V?$variant@IUStartAndEndValidity@v2@security@vanetza@@UStartAndDurationValidity@234@V?$variant@UNoneRegion@v2@security@vanetza@@UCircularRegion@234@V?$list@URectangularRegion@v2@security@vanetza@@V?$allocator@URectangularRegion@v2@security@vanetza@@@std@@@std@@V?$list@UTwoDLocation@v2@security@vanetza@@V?$allocator@UTwoDLocation@v2@security@vanetza@@@std@@@7@UIdentifiedRegion@234@@boost@@@boost@@PEAX@1@QEAU21@$$QEAV?$variant@IUStartAndEndValidity@v2@security@vanetza@@UStartAndDurationValidity@234@V?$variant@UNoneRegion@v2@security@vanetza@@UCircularRegion@234@V?$list@URectangularRegion@v2@security@vanetza@@V?$allocator@URectangularRegion@v2@security@vanetza@@@std@@@std@@V?$list@UTwoDLocation@v2@security@vanetza@@V?$allocator@UTwoDLocation@v2@security@vanetza@@@std@@@7@UIdentifiedRegion@234@@boost@@@boost@@@Z
	??$_Emplace@V?$variant@USignature@v2@security@vanetza@@$$V@boost@@@?$list@V?$variant@USignature@v2@security@vanetza@@$$V@boost@@V?$allocator@V?$variant@USignature@v2@security@vanetza@@$$V@boost@@@std@@@std@@QEAAPEAU?$_List_node@V?$variant@USignature@v2@security@vanetza@@$$V@boost@@PEAX@1@QEAU21@$$QEAV?$variant@USignature@v2@security@vanetza@@$$V@boost@@@Z
	??$_Emplace@V?$variant@UVerificationKey@v2@security@vanetza@@UEncryptionKey@234@USubjectAssurance@234@V?$variant@UX_Coordinate_Only@security@vanetza@@UCompressed_Lsb_Y_0@23@UCompressed_Lsb_Y_1@23@UUncompressed@23@@boost@@V?$list@VIntX@v2@security@vanetza@@V?$allocator@VIntX@v2@security@vanetza@@@std@@@std@@V?$list@UItsAidSsp@v2@security@vanetza@@V?$allocator@UItsAidSsp@v2@security@vanetza@@@std@@@std@@@boost@@@?$list@V?$variant@UVerificationKey@v2@security@vanetza@@UEncryptionKey@234@USubjectAssurance@234@V?$variant@UX_Coordinate_Only@security@vanetza@@UCompressed_Lsb_Y_0@23@UCompressed_Lsb_Y_1@23@UUncompressed@23@@boost@@V?$list@VIntX@v2@security@vanetza@@V?$allocator@VIntX@v2@security@vanetza@@@std@@@std@@V?$list@UItsAidSsp@v2@security@vanetza@@V?$allocator@UItsAidSsp@v2@security@vanetza@@@std@@@std@@@boost@@V?$allocator@V?$variant@UVerificationKey@v2@security@vanetza@@UEncryptionKey@234@USubjectAssurance@234@V?$variant@UX_Coordinate_Only@security@vanetza@@UCompressed_Lsb_Y_0@23@UCompressed_Lsb_Y_1@23@UUncompressed@23@@boost@@V?$list@VIntX@v2@security@vanetza@@V?$allocator@VIntX@v2@security@vanetza@@@std@@@std@@V?$list@UItsAidSsp@v2@security@vanetza@@V?$allocator@UItsAidSsp@v2@security@vanetza@@@std@@@std@@@boost@@@std@@@std@@QEAAPEAU?$_List_node@V?$variant@UVerificationKey@v2@security@vanetza@@UEncryptionKey@234@USubjectAssurance@234@V?$variant@UX_Coordinate_Only@security@vanetza@@UCompressed_Lsb_Y_0@23@UCompressed_Lsb_Y_1@23@UUncompressed@23@@boost@@V?$list@VIntX@v2@security@vanetza@@V?$allocator@VIntX@v2@security@vanetza@@@std@@@std@@V?$list@UItsAidSsp@v2@security@vanetza@@V?$allocator@UItsAidSsp@v2@security@vanetza@@@std@@@std@@@boost@@PEAX@1@QEAU21@$$QEAV?$variant@UVerificationKey@v2@security@vanetza@@UEncryptionKey@234@USubjectAssurance@234@V?$variant@UX_Coordinate_Only@security@vanetza@@UCompressed_Lsb_Y_0@23@UCompressed_Lsb_Y_1@23@UUncompressed@23@@boost@@V?$list@VIntX@v2@security@vanetza@@V?$allocator@VIntX@v2@security@vanetza@@@std@@@std@@V?$list@UItsAidSsp@v2@security@vanetza@@V?$allocator@UItsAidSsp@v2@security@vanetza@@@std@@@std@@@boost@@@Z
	??$_Emplace@V?$variant@_KUTime64WithStandardDeviation@v2@security@vanetza@@IUThreeDLocation@234@V?$list@V?$array@E$02@std@@V?$allocator@V?$array@E$02@std@@@2@@std@@VIntX@234@V?$variant@$$TV?$array@E$07@std@@V?$recursive_wrapper@UCertificate@v2@security@vanetza@@@boost@@V?$list@UCertificate@v2@security@vanetza@@V?$allocator@UCertificate@v2@security@vanetza@@@std@@@2@UCertificateDigestWithOtherAlgorithm@v2@security@vanetza@@@boost@@V?$variant@V?$array@E$0M@@std@@$$V@boost@@V?$list@URecipientInfo@v2@security@vanetza@@V?$allocator@URecipientInfo@v2@security@vanetza@@@std@@@7@@boost@@@?$list@V?$variant@_KUTime64WithStandardDeviation@v2@security@vanetza@@IUThreeDLocation@234@V?$list@V?$array@E$02@std@@V?$allocator@V?$array@E$02@std@@@2@@std@@VIntX@234@V?$variant@$$TV?$array@E$07@std@@V?$recursive_wrapper@UCertificate@v2@security@vanetza@@@boost@@V?$list@UCertificate@v2@security@vanetza@@V?$allocator@UCertificate@v2@security@vanetza@@@std@@@2@UCertificateDigestWithOtherAlgorithm@v2@security@vanetza@@@boost@@V?$variant@V?$array@E$0M@@std@@$$V@boost@@V?$list@URecipientInfo@v2@security@vanetza@@V?$allocator@URecipientInfo@v2@security@vanetza@@@std@@@7@@boost@@V?$allocator@V?$variant@_KUTime64WithStandardDeviation@v2@security@vanetza@@IUThreeDLocation@234@V?$list@V?$array@E$02@std@@V?$allocator@V?$array@E$02@std@@@2@@std@@VIntX@234@V?$variant@$$TV?$array@E$07@std@@V?$recursive_wrapper@UCertificate@v2@security@vanetza@@@boost@@V?$list@UCertificate@v2@security@vanetza@@V?$allocator@UCertificate@v2@security@vanetza@@@std@@@2@UCertificateDigestWithOtherAlgorithm@v2@security@vanetza@@@boost@@V?$variant@V?$array@E$0M@@std@@$$V@boost@@V?$list@URecipientInfo@v2@security@vanetza@@V?$allocator@URecipientInfo@v2@security@vanetza@@@std@@@7@@boost@@@std@@@std@@QEAAPEAU?$_List_node@V?$variant@_KUTime64WithStandardDeviation@v2@security@vanetza@@IUThreeDLocation@234@V?$list@V?$array@E$02@std@@V?$allocator@V?$array@E$02@std@@@2@@std@@VIntX@234@V?$variant@$$TV?$array@E$07@std@@V?$recursive_wrapper@UCertificate@v2@security@vanetza@@@boost@@V?$list@UCertificate@v2@security@vanetza@@V?$allocator@UCertificate@v2@security@vanetza@@@std@@@2@UCertificateDigestWithOtherAlgorithm@v2@security@vanetza@@@boost@@V?$variant@V?$array@E$0M@@std@@$$V@boost@@V?$list@URecipientInfo@v2@security@vanetza@@V?$allocator@URecipientInfo@v2@security@vanetza@@@std@@@7@@boost@@PEAX@1@QEAU21@$$QEAV?$variant@_KUTime64WithStandardDeviation@v2@security@vanetza@@IUThreeDLocation@234@V?$list@V?$array@E$02@std@@V?$allocator@V?$array@E$02@std@@@2@@std@@VIntX@234@V?$variant@$$TV?$array@E$07@std@@V?$recursive_wrapper@UCertificate@v2@security@vanetza@@@boost@@V?$list@UCertificate@v2@security@vanetza@@V?$allocator@UCertificate@v2@security@vanetza@@@std@@@2@UCertificateDigestWithOtherAlgorithm@v2@security@vanetza@@@boost@@V?$variant@V?$array@E$0M@@std@@$$V@boost@@V?$list@URecipientInfo@v2@security@vanetza@@V?$allocator@URecipientInfo@v2@security@vanetza@@@std@@@7@@boost@@@Z
	??$_Emplace@VIntX@v2@security@vanetza@@@?$list@VIntX@v2@security@vanetza@@V?$allocator@VIntX@v2@security@vanetza@@@std@@@std@@QEAAPEAU?$_List_node@VIntX@v2@security@vanetza@@PEAX@1@QEAU21@$$QEAVIntX@v2@security@vanetza@@@Z
	??$_Emplace_back@$$V@?$_Uninitialized_backout_al@V?$allocator@E@std@@@std@@QEAAXXZ
	??$_Emplace_back@$$V@?$_Uninitialized_backout_al@V?$allocator@PEAX@std@@@std@@QEAAXXZ
	??$_Emplace_back@AEAD@?$_Uninitialized_backout_al@V?$allocator@E@std@@@std@@QEAAXAEAD@Z
	??$_Emplace_back@AEAE@?$_Uninitialized_backout_al@V?$allocator@E@std@@@std@@QEAAXAEAE@Z
	??$_Emplace_back@AEAI@?$_Uninitialized_backout_al@V?$allocator@I@std@@@std@@QEAAXAEAI@Z
	??$_Emplace_back@AEAPEAX@?$_Uninitialized_backout_al@V?$allocator@PEAX@std@@@std@@QEAAXAEAPEAX@Z
	??$_Emplace_back@AEAUECPPoint@CryptoPP@@@?$_Uninitialized_backout_al@V?$allocator@UECPPoint@CryptoPP@@@std@@@std@@QEAAXAEAUECPPoint@CryptoPP@@@Z
	??$_Emplace_back@AEBD@?$_Uninitialized_backout_al@V?$allocator@E@std@@@std@@QEAAXAEBD@Z
	??$_Emplace_back@AEBE@?$_Uninitialized_backout_al@V?$allocator@E@std@@@std@@QEAAXAEBE@Z
	??$_Emplace_back@AEBI@?$_Uninitialized_backout_al@V?$allocator@I@std@@@std@@QEAAXAEBI@Z
	??$_Emplace_back@AEBU?$format_item@DU?$char_traits@D@std@@V?$allocator@D@2@@detail@io@boost@@@?$_Uninitialized_backout_al@V?$allocator@U?$format_item@DU?$char_traits@D@std@@V?$allocator@D@2@@detail@io@boost@@@std@@@std@@QEAAXAEBU?$format_item@DU?$char_traits@D@std@@V?$allocator@D@2@@detail@io@boost@@@Z
	??$_Emplace_back@AEBV?$_List_unchecked_const_iterator@V?$_List_val@U?$_List_simple_types@V?$array@E$07@std@@@std@@@std@@U_Iterator_base0@2@@std@@@?$_Uninitialized_backout@PEAV?$_List_unchecked_const_iterator@V?$_List_val@U?$_List_simple_types@V?$array@E$07@std@@@std@@@std@@U_Iterator_base0@2@@std@@@std@@QEAAXAEBV?$_List_unchecked_const_iterator@V?$_List_val@U?$_List_simple_types@V?$array@E$07@std@@@std@@@std@@U_Iterator_base0@2@@1@@Z
	??$_Emplace_back@AEBV?$_List_unchecked_iterator@V?$_List_val@U?$_List_simple_types@U?$pair@$$CBV?$array@E$02@std@@V?$_List_iterator@V?$_List_val@U?$_List_simple_types@U?$pair@$$CBV?$array@E$07@std@@UCertificate@v3@security@vanetza@@@std@@@std@@@std@@@2@@std@@@std@@@std@@@std@@@?$_Uninitialized_backout@PEAV?$_List_unchecked_iterator@V?$_List_val@U?$_List_simple_types@U?$pair@$$CBV?$array@E$02@std@@V?$_List_iterator@V?$_List_val@U?$_List_simple_types@U?$pair@$$CBV?$array@E$07@std@@UCertificate@v3@security@vanetza@@@std@@@std@@@std@@@2@@std@@@std@@@std@@@std@@@std@@QEAAXAEBV?$_List_unchecked_iterator@V?$_List_val@U?$_List_simple_types@U?$pair@$$CBV?$array@E$02@std@@V?$_List_iterator@V?$_List_val@U?$_List_simple_types@U?$pair@$$CBV?$array@E$07@std@@UCertificate@v3@security@vanetza@@@std@@@std@@@std@@@2@@std@@@std@@@std@@@1@@Z
	??$_Emplace_back@AEBV?$_List_unchecked_iterator@V?$_List_val@U?$_List_simple_types@U?$pair@$$CBV?$array@E$02@std@@V?$_List_iterator@V?$_List_val@U?$_List_simple_types@V?$array@E$02@std@@@std@@@std@@@2@@std@@@std@@@std@@@std@@@?$_Uninitialized_backout@PEAV?$_List_unchecked_iterator@V?$_List_val@U?$_List_simple_types@U?$pair@$$CBV?$array@E$02@std@@V?$_List_iterator@V?$_List_val@U?$_List_simple_types@V?$array@E$02@std@@@std@@@std@@@2@@std@@@std@@@std@@@std@@@std@@QEAAXAEBV?$_List_unchecked_iterator@V?$_List_val@U?$_List_simple_types@U?$pair@$$CBV?$array@E$02@std@@V?$_List_iterator@V?$_List_val@U?$_List_simple_types@V?$array@E$02@std@@@std@@@std@@@2@@std@@@std@@@std@@@1@@Z
	??$_Emplace_back@AEBV?$_List_unchecked_iterator@V?$_List_val@U?$_List_simple_types@U?$pair@$$CBV?$array@E$07@std@@UCertificate@v3@security@vanetza@@@std@@@std@@@std@@@std@@@?$_Uninitialized_backout@PEAV?$_List_unchecked_iterator@V?$_List_val@U?$_List_simple_types@U?$pair@$$CBV?$array@E$07@std@@UCertificate@v3@security@vanetza@@@std@@@std@@@std@@@std@@@std@@QEAAXAEBV?$_List_unchecked_iterator@V?$_List_val@U?$_List_simple_types@U?$pair@$$CBV?$array@E$07@std@@UCertificate@v3@security@vanetza@@@std@@@std@@@std@@@1@@Z
	??$_Emplace_back@E@?$_Uninitialized_backout_al@V?$allocator@E@std@@@std@@QEAAX$$QEAE@Z
	??$_Emplace_back@I@?$_Uninitialized_backout_al@V?$allocator@I@std@@@std@@QEAAX$$QEAI@Z
	??$_Emplace_back@PEAX@?$_Uninitialized_backout_al@V?$allocator@PEAX@std@@@std@@QEAAX$$QEAPEAX@Z
	??$_Emplace_back@U?$format_item@DU?$char_traits@D@std@@V?$allocator@D@2@@detail@io@boost@@@?$_Uninitialized_backout_al@V?$allocator@U?$format_item@DU?$char_traits@D@std@@V?$allocator@D@2@@detail@io@boost@@@std@@@std@@QEAAX$$QEAU?$format_item@DU?$char_traits@D@std@@V?$allocator@D@2@@detail@io@boost@@@Z
	??$_Emplace_back_with_unused_capacity@AEBE@?$vector@EV?$allocator@E@std@@@std@@AEAAAEAEAEBE@Z
	??$_Emplace_back_with_unused_capacity@AEBI@?$vector@IV?$allocator@I@std@@@std@@AEAAAEAIAEBI@Z
	??$_Emplace_back_with_unused_capacity@D@?$vector@EV?$allocator@E@std@@@std@@AEAAAEAE$$QEAD@Z
	??$_Emplace_back_with_unused_capacity@E@?$vector@EV?$allocator@E@std@@@std@@AEAAAEAE$$QEAE@Z
	??$_Emplace_one_at_back@AEBE@?$vector@EV?$allocator@E@std@@@std@@AEAAAEAEAEBE@Z
	??$_Emplace_one_at_back@AEBI@?$vector@IV?$allocator@I@std@@@std@@AEAAAEAIAEBI@Z
	??$_Emplace_one_at_back@D@?$vector@EV?$allocator@E@std@@@std@@AEAAAEAE$$QEAD@Z
	??$_Emplace_one_at_back@E@?$vector@EV?$allocator@E@std@@@std@@AEAAAEAE$$QEAE@Z
	??$_Emplace_reallocate@AEBE@?$vector@EV?$allocator@E@std@@@std@@AEAAPEAEQEAEAEBE@Z
	??$_Emplace_reallocate@AEBI@?$vector@IV?$allocator@I@std@@@std@@AEAAPEAIQEAIAEBI@Z
	??$_Emplace_reallocate@D@?$vector@EV?$allocator@E@std@@@std@@AEAAPEAEQEAE$$QEAD@Z
	??$_Emplace_reallocate@E@?$vector@EV?$allocator@E@std@@@std@@AEAAPEAEQEAE$$QEAE@Z
	??$_Emplace_result@UEcdsaSignature@security@vanetza@@@?$_Associated_state@UEcdsaSignature@security@vanetza@@@std@@QEAAX$$QEAUEcdsaSignature@security@vanetza@@@Z
	??$_Eqrange@V?$array@E$07@std@@@?$_Tree@V?$_Tmap_traits@V?$array@E$07@std@@UCachedCertificate@CertificateCache@v2@security@vanetza@@U?$less@V?$array@E$07@std@@@2@V?$allocator@U?$pair@$$CBV?$array@E$07@std@@UCachedCertificate@CertificateCache@v2@security@vanetza@@@std@@@2@$00@std@@@std@@IEBA?AU?$pair@PEAU?$_Tree_node@U?$pair@$$CBV?$array@E$07@std@@UCachedCertificate@CertificateCache@v2@security@vanetza@@@std@@PEAX@std@@PEAU12@@1@AEBV?$array@E$07@1@@Z
	??$_Eqrange@V?$array@E$07@std@@@?$_Tree@V?$_Tmap_traits@V?$array@E$07@std@@UCertificate@v2@security@vanetza@@U?$less@V?$array@E$07@std@@@2@V?$allocator@U?$pair@$$CBV?$array@E$07@std@@UCertificate@v2@security@vanetza@@@std@@@2@$00@std@@@std@@IEBA?AU?$pair@PEAU?$_Tree_node@U?$pair@$$CBV?$array@E$07@std@@UCertificate@v2@security@vanetza@@@std@@PEAX@std@@PEAU12@@1@AEBV?$array@E$07@1@@Z
	??$_Erase@V?$array@E$02@std@@@?$_Hash@V?$_Umap_traits@V?$array@E$02@std@@V?$_List_iterator@V?$_List_val@U?$_List_simple_types@V?$array@E$02@std@@@std@@@std@@@2@V?$_Uhash_compare@V?$array@E$02@std@@U?$hash@V?$array@E$02@std@@@2@U?$equal_to@V?$array@E$02@std@@@2@@2@V?$allocator@U?$pair@$$CBV?$array@E$02@std@@V?$_List_iterator@V?$_List_val@U?$_List_simple_types@V?$array@E$02@std@@@std@@@std@@@2@@std@@@2@$0A@@std@@@std@@AEAA_KAEBV?$array@E$02@1@@Z
	??$_Erase_head@V?$allocator@U?$_Tree_node@U?$pair@$$CBV?$basic_string@DU?$char_traits@D@std@@V?$allocator@D@2@@std@@V?$function@$$A6A?AV?$unique_ptr@VBackend@security@vanetza@@U?$default_delete@VBackend@security@vanetza@@@std@@@std@@XZ@2@@std@@PEAX@std@@@std@@@?$_Tree_val@U?$_Tree_simple_types@U?$pair@$$CBV?$basic_string@DU?$char_traits@D@std@@V?$allocator@D@2@@std@@V?$function@$$A6A?AV?$unique_ptr@VBackend@security@vanetza@@U?$default_delete@VBackend@security@vanetza@@@std@@@std@@XZ@2@@std@@@std@@@std@@QEAAXAEAV?$allocator@U?$_Tree_node@U?$pair@$$CBV?$basic_string@DU?$char_traits@D@std@@V?$allocator@D@2@@std@@V?$function@$$A6A?AV?$unique_ptr@VBackend@security@vanetza@@U?$default_delete@VBackend@security@vanetza@@@std@@@std@@XZ@2@@std@@PEAX@std@@@1@@Z
	??$_Erase_head@V?$allocator@U?$_Tree_node@U?$pair@$$CBW4OsiLayer@vanetza@@VByteBufferConvertible@2@@std@@PEAX@std@@@std@@@?$_Tree_val@U?$_Tree_simple_types@U?$pair@$$CBW4OsiLayer@vanetza@@VByteBufferConvertible@2@@std@@@std@@@std@@QEAAXAEAV?$allocator@U?$_Tree_node@U?$pair@$$CBW4OsiLayer@vanetza@@VByteBufferConvertible@2@@std@@PEAX@std@@@1@@Z
	??$_Erase_head@V?$allocator@U?$_Tree_node@V?$array@E$02@std@@PEAX@std@@@std@@@?$_Tree_val@U?$_Tree_simple_types@V?$array@E$02@std@@@std@@@std@@QEAAXAEAV?$allocator@U?$_Tree_node@V?$array@E$02@std@@PEAX@std@@@1@@Z
	??$_Erase_head@V?$allocator@U?$_Tree_node@W4CamPermission@security@vanetza@@PEAX@std@@@std@@@?$_Tree_val@U?$_Tree_simple_types@W4CamPermission@security@vanetza@@@std@@@std@@QEAAXAEAV?$allocator@U?$_Tree_node@W4CamPermission@security@vanetza@@PEAX@std@@@1@@Z
	??$_Erase_tree@V?$allocator@U?$_Tree_node@U?$pair@$$CBV?$basic_string@DU?$char_traits@D@std@@V?$allocator@D@2@@std@@V?$function@$$A6A?AV?$unique_ptr@VBackend@security@vanetza@@U?$default_delete@VBackend@security@vanetza@@@std@@@std@@XZ@2@@std@@PEAX@std@@@std@@@?$_Tree_val@U?$_Tree_simple_types@U?$pair@$$CBV?$basic_string@DU?$char_traits@D@std@@V?$allocator@D@2@@std@@V?$function@$$A6A?AV?$unique_ptr@VBackend@security@vanetza@@U?$default_delete@VBackend@security@vanetza@@@std@@@std@@XZ@2@@std@@@std@@@std@@QEAAXAEAV?$allocator@U?$_Tree_node@U?$pair@$$CBV?$basic_string@DU?$char_traits@D@std@@V?$allocator@D@2@@std@@V?$function@$$A6A?AV?$unique_ptr@VBackend@security@vanetza@@U?$default_delete@VBackend@security@vanetza@@@std@@@std@@XZ@2@@std@@PEAX@std@@@1@PEAU?$_Tree_node@U?$pair@$$CBV?$basic_string@DU?$char_traits@D@std@@V?$allocator@D@2@@std@@V?$function@$$A6A?AV?$unique_ptr@VBackend@security@vanetza@@U?$default_delete@VBackend@security@vanetza@@@std@@@std@@XZ@2@@std@@PEAX@1@@Z
	??$_Erase_tree@V?$allocator@U?$_Tree_node@U?$pair@$$CBW4OsiLayer@vanetza@@VByteBufferConvertible@2@@std@@PEAX@std@@@std@@@?$_Tree_val@U?$_Tree_simple_types@U?$pair@$$CBW4OsiLayer@vanetza@@VByteBufferConvertible@2@@std@@@std@@@std@@QEAAXAEAV?$allocator@U?$_Tree_node@U?$pair@$$CBW4OsiLayer@vanetza@@VByteBufferConvertible@2@@std@@PEAX@std@@@1@PEAU?$_Tree_node@U?$pair@$$CBW4OsiLayer@vanetza@@VByteBufferConvertible@2@@std@@PEAX@1@@Z
	??$_Erase_tree@V?$allocator@U?$_Tree_node@V?$array@E$02@std@@PEAX@std@@@std@@@?$_Tree_val@U?$_Tree_simple_types@V?$array@E$02@std@@@std@@@std@@QEAAXAEAV?$allocator@U?$_Tree_node@V?$array@E$02@std@@PEAX@std@@@1@PEAU?$_Tree_node@V?$array@E$02@std@@PEAX@1@@Z
	??$_Erase_tree@V?$allocator@U?$_Tree_node@W4CamPermission@security@vanetza@@PEAX@std@@@std@@@?$_Tree_val@U?$_Tree_simple_types@W4CamPermission@security@vanetza@@@std@@@std@@QEAAXAEAV?$allocator@U?$_Tree_node@W4CamPermission@security@vanetza@@PEAX@std@@@1@PEAU?$_Tree_node@W4CamPermission@security@vanetza@@PEAX@1@@Z
	??$_Fgetc@D@std@@YA_NAEADPEAU_iobuf@@@Z
	??$_Fill_memset@PEAEE@std@@YAXPEAEE_K@Z
	??$_Fill_vbool@V?$_Vb_iterator@U?$_Wrap_alloc@V?$allocator@I@std@@@std@@@std@@@std@@YAXV?$_Vb_iterator@U?$_Wrap_alloc@V?$allocator@I@std@@@std@@@0@V10@_N@Z
	??$_Fill_zero_memset@PEAI@std@@YAXPEAI_K@Z
	??$_Find@V?$array@E$02@std@@@?$_Hash@V?$_Umap_traits@V?$array@E$02@std@@V?$_List_iterator@V?$_List_val@U?$_List_simple_types@U?$pair@$$CBV?$array@E$07@std@@UCertificate@v3@security@vanetza@@@std@@@std@@@std@@@2@V?$_Uhash_compare@V?$array@E$02@std@@U?$hash@V?$array@E$02@std@@@2@U?$equal_to@V?$array@E$02@std@@@2@@2@V?$allocator@U?$pair@$$CBV?$array@E$02@std@@V?$_List_iterator@V?$_List_val@U?$_List_simple_types@U?$pair@$$CBV?$array@E$07@std@@UCertificate@v3@security@vanetza@@@std@@@std@@@std@@@2@@std@@@2@$0A@@std@@@std@@AEBAPEAU?$_List_node@U?$pair@$$CBV?$array@E$02@std@@V?$_List_iterator@V?$_List_val@U?$_List_simple_types@U?$pair@$$CBV?$array@E$07@std@@UCertificate@v3@security@vanetza@@@std@@@std@@@std@@@2@@std@@PEAX@1@AEBV?$array@E$02@1@_K@Z
	??$_Find@V?$array@E$02@std@@@?$_Hash@V?$_Umap_traits@V?$array@E$02@std@@V?$_List_iterator@V?$_List_val@U?$_List_simple_types@V?$array@E$02@std@@@std@@@std@@@2@V?$_Uhash_compare@V?$array@E$02@std@@U?$hash@V?$array@E$02@std@@@2@U?$equal_to@V?$array@E$02@std@@@2@@2@V?$allocator@U?$pair@$$CBV?$array@E$02@std@@V?$_List_iterator@V?$_List_val@U?$_List_simple_types@V?$array@E$02@std@@@std@@@std@@@2@@std@@@2@$0A@@std@@@std@@AEBAPEAU?$_List_node@U?$pair@$$CBV?$array@E$02@std@@V?$_List_iterator@V?$_List_val@U?$_List_simple_types@V?$array@E$02@std@@@std@@@std@@@2@@std@@PEAX@1@AEBV?$array@E$02@1@_K@Z
	??$_Find@V?$array@E$07@std@@@?$_Hash@V?$_Umap_traits@V?$array@E$07@std@@UCertificate@v3@security@vanetza@@V?$_Uhash_compare@V?$array@E$07@std@@U?$hash@V?$array@E$07@std@@@2@U?$equal_to@V?$array@E$07@std@@@2@@2@V?$allocator@U?$pair@$$CBV?$array@E$07@std@@UCertificate@v3@security@vanetza@@@std@@@2@$0A@@std@@@std@@AEBAPEAU?$_List_node@U?$pair@$$CBV?$array@E$07@std@@UCertificate@v3@security@vanetza@@@std@@PEAX@1@AEBV?$array@E$07@1@_K@Z
	??$_Find@V?$array@E$07@std@@@?$_Hash@V?$_Uset_traits@V?$array@E$07@std@@V?$_Uhash_compare@V?$array@E$07@std@@U?$hash@V?$array@E$07@std@@@2@U?$equal_to@V?$array@E$07@std@@@2@@2@V?$allocator@V?$array@E$07@std@@@2@$0A@@std@@@std@@AEBAPEAU?$_List_node@V?$array@E$07@std@@PEAX@1@AEBV?$array@E$07@1@_K@Z
	??$_Find@V?$basic_string@DU?$char_traits@D@std@@V?$allocator@D@2@@std@@@?$_Tree@V?$_Tmap_traits@V?$basic_string@DU?$char_traits@D@std@@V?$allocator@D@2@@std@@V?$function@$$A6A?AV?$unique_ptr@VBackend@security@vanetza@@U?$default_delete@VBackend@security@vanetza@@@std@@@std@@XZ@2@U?$less@V?$basic_string@DU?$char_traits@D@std@@V?$allocator@D@2@@std@@@2@V?$allocator@U?$pair@$$CBV?$basic_string@DU?$char_traits@D@std@@V?$allocator@D@2@@std@@V?$function@$$A6A?AV?$unique_ptr@VBackend@security@vanetza@@U?$default_delete@VBackend@security@vanetza@@@std@@@std@@XZ@2@@std@@@2@$0A@@std@@@std@@AEBAPEAU?$_Tree_node@U?$pair@$$CBV?$basic_string@DU?$char_traits@D@std@@V?$allocator@D@2@@std@@V?$function@$$A6A?AV?$unique_ptr@VBackend@security@vanetza@@U?$default_delete@VBackend@security@vanetza@@@std@@@std@@XZ@2@@std@@PEAX@1@AEBV?$basic_string@DU?$char_traits@D@std@@V?$allocator@D@2@@1@@Z
	??$_Find_last@V?$array@E$02@std@@@?$_Hash@V?$_Umap_traits@V?$array@E$02@std@@V?$_List_iterator@V?$_List_val@U?$_List_simple_types@U?$pair@$$CBV?$array@E$07@std@@UCertificate@v3@security@vanetza@@@std@@@std@@@std@@@2@V?$_Uhash_compare@V?$array@E$02@std@@U?$hash@V?$array@E$02@std@@@2@U?$equal_to@V?$array@E$02@std@@@2@@2@V?$allocator@U?$pair@$$CBV?$array@E$02@std@@V?$_List_iterator@V?$_List_val@U?$_List_simple_types@U?$pair@$$CBV?$array@E$07@std@@UCertificate@v3@security@vanetza@@@std@@@std@@@std@@@2@@std@@@2@$0A@@std@@@std@@IEBA?AU?$_Hash_find_last_result@PEAU?$_List_node@U?$pair@$$CBV?$array@E$02@std@@V?$_List_iterator@V?$_List_val@U?$_List_simple_types@U?$pair@$$CBV?$array@E$07@std@@UCertificate@v3@security@vanetza@@@std@@@std@@@std@@@2@@std@@PEAX@std@@@1@AEBV?$array@E$02@1@_K@Z
	??$_Find_last@V?$array@E$02@std@@@?$_Hash@V?$_Umap_traits@V?$array@E$02@std@@V?$_List_iterator@V?$_List_val@U?$_List_simple_types@V?$array@E$02@std@@@std@@@std@@@2@V?$_Uhash_compare@V?$array@E$02@std@@U?$hash@V?$array@E$02@std@@@2@U?$equal_to@V?$array@E$02@std@@@2@@2@V?$allocator@U?$pair@$$CBV?$array@E$02@std@@V?$_List_iterator@V?$_List_val@U?$_List_simple_types@V?$array@E$02@std@@@std@@@std@@@2@@std@@@2@$0A@@std@@@std@@IEBA?AU?$_Hash_find_last_result@PEAU?$_List_node@U?$pair@$$CBV?$array@E$02@std@@V?$_List_iterator@V?$_List_val@U?$_List_simple_types@V?$array@E$02@std@@@std@@@std@@@2@@std@@PEAX@std@@@1@AEBV?$array@E$02@1@_K@Z
	??$_Find_last@V?$array@E$07@std@@@?$_Hash@V?$_Umap_traits@V?$array@E$07@std@@UCertificate@v3@security@vanetza@@V?$_Uhash_compare@V?$array@E$07@std@@U?$hash@V?$array@E$07@std@@@2@U?$equal_to@V?$array@E$07@std@@@2@@2@V?$allocator@U?$pair@$$CBV?$array@E$07@std@@UCertificate@v3@security@vanetza@@@std@@@2@$0A@@std@@@std@@IEBA?AU?$_Hash_find_last_result@PEAU?$_List_node@U?$pair@$$CBV?$array@E$07@std@@UCertificate@v3@security@vanetza@@@std@@PEAX@std@@@1@AEBV?$array@E$07@1@_K@Z
	??$_Find_last@V?$array@E$07@std@@@?$_Hash@V?$_Uset_traits@V?$array@E$07@std@@V?$_Uhash_compare@V?$array@E$07@std@@U?$hash@V?$array@E$07@std@@@2@U?$equal_to@V?$array@E$07@std@@@2@@2@V?$allocator@V?$array@E$07@std@@@2@$0A@@std@@@std@@IEBA?AU?$_Hash_find_last_result@PEAU?$_List_node@V?$array@E$07@std@@PEAX@std@@@1@AEBV?$array@E$07@1@_K@Z
	??$_Find_lower_bound@V?$array@E$02@std@@@?$_Tree@V?$_Tset_traits@V?$array@E$02@std@@U?$less@V?$array@E$02@std@@@2@V?$allocator@V?$array@E$02@std@@@2@$0A@@std@@@std@@IEBA?AU?$_Tree_find_result@PEAU?$_Tree_node@V?$array@E$02@std@@PEAX@std@@@1@AEBV?$array@E$02@1@@Z
	??$_Find_lower_bound@V?$basic_string@DU?$char_traits@D@std@@V?$allocator@D@2@@std@@@?$_Tree@V?$_Tmap_traits@V?$basic_string@DU?$char_traits@D@std@@V?$allocator@D@2@@std@@V?$function@$$A6A?AV?$unique_ptr@VBackend@security@vanetza@@U?$default_delete@VBackend@security@vanetza@@@std@@@std@@XZ@2@U?$less@V?$basic_string@DU?$char_traits@D@std@@V?$allocator@D@2@@std@@@2@V?$allocator@U?$pair@$$CBV?$basic_string@DU?$char_traits@D@std@@V?$allocator@D@2@@std@@V?$function@$$A6A?AV?$unique_ptr@VBackend@security@vanetza@@U?$default_delete@VBackend@security@vanetza@@@std@@@std@@XZ@2@@std@@@2@$0A@@std@@@std@@IEBA?AU?$_Tree_find_result@PEAU?$_Tree_node@U?$pair@$$CBV?$basic_string@DU?$char_traits@D@std@@V?$allocator@D@2@@std@@V?$function@$$A6A?AV?$unique_ptr@VBackend@security@vanetza@@U?$default_delete@VBackend@security@vanetza@@@std@@@std@@XZ@2@@std@@PEAX@std@@@1@AEBV?$basic_string@DU?$char_traits@D@std@@V?$allocator@D@2@@1@@Z
	??$_Find_lower_bound@W4CamPermission@security@vanetza@@@?$_Tree@V?$_Tset_traits@W4CamPermission@security@vanetza@@U?$less@W4CamPermission@security@vanetza@@@std@@V?$allocator@W4CamPermission@security@vanetza@@@5@$0A@@std@@@std@@IEBA?AU?$_Tree_find_result@PEAU?$_Tree_node@W4CamPermission@security@vanetza@@PEAX@std@@@1@AEBW4CamPermission@security@vanetza@@@Z
	??$_Find_upper_bound@V?$array@E$07@std@@@?$_Tree@V?$_Tmap_traits@V?$array@E$07@std@@UCachedCertificate@CertificateCache@v2@security@vanetza@@U?$less@V?$array@E$07@std@@@2@V?$allocator@U?$pair@$$CBV?$array@E$07@std@@UCachedCertificate@CertificateCache@v2@security@vanetza@@@std@@@2@$00@std@@@std@@IEBA?AU?$_Tree_find_result@PEAU?$_Tree_node@U?$pair@$$CBV?$array@E$07@std@@UCachedCertificate@CertificateCache@v2@security@vanetza@@@std@@PEAX@std@@@1@AEBV?$array@E$07@1@@Z
	??$_Find_upper_bound@V?$array@E$07@std@@@?$_Tree@V?$_Tmap_traits@V?$array@E$07@std@@UCertificate@v2@security@vanetza@@U?$less@V?$array@E$07@std@@@2@V?$allocator@U?$pair@$$CBV?$array@E$07@std@@UCertificate@v2@security@vanetza@@@std@@@2@$00@std@@@std@@IEBA?AU?$_Tree_find_result@PEAU?$_Tree_node@U?$pair@$$CBV?$array@E$07@std@@UCertificate@v2@security@vanetza@@@std@@PEAX@std@@@1@AEBV?$array@E$07@1@@Z
	??$_Fputc@D@std@@YA_NDPEAU_iobuf@@@Z
	??$_Free_non_head@V?$allocator@U?$_List_node@EPEAX@std@@@std@@@?$_List_node@EPEAX@std@@SAXAEAV?$allocator@U?$_List_node@EPEAX@std@@@1@PEAU01@@Z
	??$_Free_non_head@V?$allocator@U?$_List_node@IPEAX@std@@@std@@@?$_List_node@IPEAX@std@@SAXAEAV?$allocator@U?$_List_node@IPEAX@std@@@1@PEAU01@@Z
	??$_Free_non_head@V?$allocator@U?$_List_node@U?$pair@$$CBV?$array@E$02@std@@V?$_List_iterator@V?$_List_val@U?$_List_simple_types@U?$pair@$$CBV?$array@E$07@std@@UCertificate@v3@security@vanetza@@@std@@@std@@@std@@@2@@std@@PEAX@std@@@std@@@?$_List_node@U?$pair@$$CBV?$array@E$02@std@@V?$_List_iterator@V?$_List_val@U?$_List_simple_types@U?$pair@$$CBV?$array@E$07@std@@UCertificate@v3@security@vanetza@@@std@@@std@@@std@@@2@@std@@PEAX@std@@SAXAEAV?$allocator@U?$_List_node@U?$pair@$$CBV?$array@E$02@std@@V?$_List_iterator@V?$_List_val@U?$_List_simple_types@U?$pair@$$CBV?$array@E$07@std@@UCertificate@v3@security@vanetza@@@std@@@std@@@std@@@2@@std@@PEAX@std@@@1@PEAU01@@Z
	??$_Free_non_head@V?$allocator@U?$_List_node@U?$pair@$$CBV?$array@E$02@std@@V?$_List_iterator@V?$_List_val@U?$_List_simple_types@V?$array@E$02@std@@@std@@@std@@@2@@std@@PEAX@std@@@std@@@?$_List_node@U?$pair@$$CBV?$array@E$02@std@@V?$_List_iterator@V?$_List_val@U?$_List_simple_types@V?$array@E$02@std@@@std@@@std@@@2@@std@@PEAX@std@@SAXAEAV?$allocator@U?$_List_node@U?$pair@$$CBV?$array@E$02@std@@V?$_List_iterator@V?$_List_val@U?$_List_simple_types@V?$array@E$02@std@@@std@@@std@@@2@@std@@PEAX@std@@@1@PEAU01@@Z
	??$_Free_non_head@V?$allocator@U?$_List_node@U?$pair@$$CBV?$array@E$07@std@@UCertificate@v3@security@vanetza@@@std@@PEAX@std@@@std@@@?$_List_node@U?$pair@$$CBV?$array@E$07@std@@UCertificate@v3@security@vanetza@@@std@@PEAX@std@@SAXAEAV?$allocator@U?$_List_node@U?$pair@$$CBV?$array@E$07@std@@UCertificate@v3@security@vanetza@@@std@@PEAX@std@@@1@PEAU01@@Z
	??$_Free_non_head@V?$allocator@U?$_List_node@UCertificate@v2@security@vanetza@@PEAX@std@@@std@@@?$_List_node@UCertificate@v2@security@vanetza@@PEAX@std@@SAXAEAV?$allocator@U?$_List_node@UCertificate@v2@security@vanetza@@PEAX@std@@@1@PEAU01@@Z
	??$_Free_non_head@V?$allocator@U?$_List_node@UCertificate@v3@security@vanetza@@PEAX@std@@@std@@@?$_List_node@UCertificate@v3@security@vanetza@@PEAX@std@@SAXAEAV?$allocator@U?$_List_node@UCertificate@v3@security@vanetza@@PEAX@std@@@1@PEAU01@@Z
	??$_Free_non_head@V?$allocator@U?$_List_node@UItsAidSsp@v2@security@vanetza@@PEAX@std@@@std@@@?$_List_node@UItsAidSsp@v2@security@vanetza@@PEAX@std@@SAXAEAV?$allocator@U?$_List_node@UItsAidSsp@v2@security@vanetza@@PEAX@std@@@1@PEAU01@@Z
	??$_Free_non_head@V?$allocator@U?$_List_node@URecipientInfo@v2@security@vanetza@@PEAX@std@@@std@@@?$_List_node@URecipientInfo@v2@security@vanetza@@PEAX@std@@SAXAEAV?$allocator@U?$_List_node@URecipientInfo@v2@security@vanetza@@PEAX@std@@@1@PEAU01@@Z
	??$_Free_non_head@V?$allocator@U?$_List_node@URectangularRegion@v2@security@vanetza@@PEAX@std@@@std@@@?$_List_node@URectangularRegion@v2@security@vanetza@@PEAX@std@@SAXAEAV?$allocator@U?$_List_node@URectangularRegion@v2@security@vanetza@@PEAX@std@@@1@PEAU01@@Z
	??$_Free_non_head@V?$allocator@U?$_List_node@UTwoDLocation@v2@security@vanetza@@PEAX@std@@@std@@@?$_List_node@UTwoDLocation@v2@security@vanetza@@PEAX@std@@SAXAEAV?$allocator@U?$_List_node@UTwoDLocation@v2@security@vanetza@@PEAX@std@@@1@PEAU01@@Z
	??$_Free_non_head@V?$allocator@U?$_List_node@V?$array@E$02@std@@PEAX@std@@@std@@@?$_List_node@V?$array@E$02@std@@PEAX@std@@SAXAEAV?$allocator@U?$_List_node@V?$array@E$02@std@@PEAX@std@@@1@PEAU01@@Z
	??$_Free_non_head@V?$allocator@U?$_List_node@V?$array@E$07@std@@PEAX@std@@@std@@@?$_List_node@V?$array@E$07@std@@PEAX@std@@SAXAEAV?$allocator@U?$_List_node@V?$array@E$07@std@@PEAX@std@@@1@PEAU01@@Z
	??$_Free_non_head@V?$allocator@U?$_List_node@V?$variant@IUStartAndEndValidity@v2@security@vanetza@@UStartAndDurationValidity@234@V?$variant@UNoneRegion@v2@security@vanetza@@UCircularRegion@234@V?$list@URectangularRegion@v2@security@vanetza@@V?$allocator@URectangularRegion@v2@security@vanetza@@@std@@@std@@V?$list@UTwoDLocation@v2@security@vanetza@@V?$allocator@UTwoDLocation@v2@security@vanetza@@@std@@@7@UIdentifiedRegion@234@@boost@@@boost@@PEAX@std@@@std@@@?$_List_node@V?$variant@IUStartAndEndValidity@v2@security@vanetza@@UStartAndDurationValidity@234@V?$variant@UNoneRegion@v2@security@vanetza@@UCircularRegion@234@V?$list@URectangularRegion@v2@security@vanetza@@V?$allocator@URectangularRegion@v2@security@vanetza@@@std@@@std@@V?$list@UTwoDLocation@v2@security@vanetza@@V?$allocator@UTwoDLocation@v2@security@vanetza@@@std@@@7@UIdentifiedRegion@234@@boost@@@boost@@PEAX@std@@SAXAEAV?$allocator@U?$_List_node@V?$variant@IUStartAndEndValidity@v2@security@vanetza@@UStartAndDurationValidity@234@V?$variant@UNoneRegion@v2@security@vanetza@@UCircularRegion@234@V?$list@URectangularRegion@v2@security@vanetza@@V?$allocator@URectangularRegion@v2@security@vanetza@@@std@@@std@@V?$list@UTwoDLocation@v2@security@vanetza@@V?$allocator@UTwoDLocation@v2@security@vanetza@@@std@@@7@UIdentifiedRegion@234@@boost@@@boost@@PEAX@std@@@1@PEAU01@@Z
	??$_Free_non_head@V?$allocator@U?$_List_node@V?$variant@USignature@v2@security@vanetza@@$$V@boost@@PEAX@std@@@std@@@?$_List_node@V?$variant@USignature@v2@security@vanetza@@$$V@boost@@PEAX@std@@SAXAEAV?$allocator@U?$_List_node@V?$variant@USignature@v2@security@vanetza@@$$V@boost@@PEAX@std@@@1@PEAU01@@Z
	??$_Free_non_head@V?$allocator@U?$_List_node@V?$variant@UVerificationKey@v2@security@vanetza@@UEncryptionKey@234@USubjectAssurance@234@V?$variant@UX_Coordinate_Only@security@vanetza@@UCompressed_Lsb_Y_0@23@UCompressed_Lsb_Y_1@23@UUncompressed@23@@boost@@V?$list@VIntX@v2@security@vanetza@@V?$allocator@VIntX@v2@security@vanetza@@@std@@@std@@V?$list@UItsAidSsp@v2@security@vanetza@@V?$allocator@UItsAidSsp@v2@security@vanetza@@@std@@@std@@@boost@@PEAX@std@@@std@@@?$_List_node@V?$variant@UVerificationKey@v2@security@vanetza@@UEncryptionKey@234@USubjectAssurance@234@V?$variant@UX_Coordinate_Only@security@vanetza@@UCompressed_Lsb_Y_0@23@UCompressed_Lsb_Y_1@23@UUncompressed@23@@boost@@V?$list@VIntX@v2@security@vanetza@@V?$allocator@VIntX@v2@security@vanetza@@@std@@@std@@V?$list@UItsAidSsp@v2@security@vanetza@@V?$allocator@UItsAidSsp@v2@security@vanetza@@@std@@@std@@@boost@@PEAX@std@@SAXAEAV?$allocator@U?$_List_node@V?$variant@UVerificationKey@v2@security@vanetza@@UEncryptionKey@234@USubjectAssurance@234@V?$variant@UX_Coordinate_Only@security@vanetza@@UCompressed_Lsb_Y_0@23@UCompressed_Lsb_Y_1@23@UUncompressed@23@@boost@@V?$list@VIntX@v2@security@vanetza@@V?$allocator@VIntX@v2@security@vanetza@@@std@@@std@@V?$list@UItsAidSsp@v2@security@vanetza@@V?$allocator@UItsAidSsp@v2@security@vanetza@@@std@@@std@@@boost@@PEAX@std@@@1@PEAU01@@Z
	??$_Free_non_head@V?$allocator@U?$_List_node@V?$variant@_KUTime64WithStandardDeviation@v2@security@vanetza@@IUThreeDLocation@234@V?$list@V?$array@E$02@std@@V?$allocator@V?$array@E$02@std@@@2@@std@@VIntX@234@V?$variant@$$TV?$array@E$07@std@@V?$recursive_wrapper@UCertificate@v2@security@vanetza@@@boost@@V?$list@UCertificate@v2@security@vanetza@@V?$allocator@UCertificate@v2@security@vanetza@@@std@@@2@UCertificateDigestWithOtherAlgorithm@v2@security@vanetza@@@boost@@V?$variant@V?$array@E$0M@@std@@$$V@boost@@V?$list@URecipientInfo@v2@security@vanetza@@V?$allocator@URecipientInfo@v2@security@vanetza@@@std@@@7@@boost@@PEAX@std@@@std@@@?$_List_node@V?$variant@_KUTime64WithStandardDeviation@v2@security@vanetza@@IUThreeDLocation@234@V?$list@V?$array@E$02@std@@V?$allocator@V?$array@E$02@std@@@2@@std@@VIntX@234@V?$variant@$$TV?$array@E$07@std@@V?$recursive_wrapper@UCertificate@v2@security@vanetza@@@boost@@V?$list@UCertificate@v2@security@vanetza@@V?$allocator@UCertificate@v2@security@vanetza@@@std@@@2@UCertificateDigestWithOtherAlgorithm@v2@security@vanetza@@@boost@@V?$variant@V?$array@E$0M@@std@@$$V@boost@@V?$list@URecipientInfo@v2@security@vanetza@@V?$allocator@URecipientInfo@v2@security@vanetza@@@std@@@7@@boost@@PEAX@std@@SAXAEAV?$allocator@U?$_List_node@V?$variant@_KUTime64WithStandardDeviation@v2@security@vanetza@@IUThreeDLocation@234@V?$list@V?$array@E$02@std@@V?$allocator@V?$array@E$02@std@@@2@@std@@VIntX@234@V?$variant@$$TV?$array@E$07@std@@V?$recursive_wrapper@UCertificate@v2@security@vanetza@@@boost@@V?$list@UCertificate@v2@security@vanetza@@V?$allocator@UCertificate@v2@security@vanetza@@@std@@@2@UCertificateDigestWithOtherAlgorithm@v2@security@vanetza@@@boost@@V?$variant@V?$array@E$0M@@std@@$$V@boost@@V?$list@URecipientInfo@v2@security@vanetza@@V?$allocator@URecipientInfo@v2@security@vanetza@@@std@@@7@@boost@@PEAX@std@@@1@PEAU01@@Z
	??$_Free_non_head@V?$allocator@U?$_List_node@VIntX@v2@security@vanetza@@PEAX@std@@@std@@@?$_List_node@VIntX@v2@security@vanetza@@PEAX@std@@SAXAEAV?$allocator@U?$_List_node@VIntX@v2@security@vanetza@@PEAX@std@@@1@PEAU01@@Z
	??$_Freenode0@V?$allocator@U?$_List_node@EPEAX@std@@@std@@@?$_List_node@EPEAX@std@@SAXAEAV?$allocator@U?$_List_node@EPEAX@std@@@1@PEAU01@@Z
	??$_Freenode0@V?$allocator@U?$_List_node@IPEAX@std@@@std@@@?$_List_node@IPEAX@std@@SAXAEAV?$allocator@U?$_List_node@IPEAX@std@@@1@PEAU01@@Z
	??$_Freenode0@V?$allocator@U?$_List_node@U?$pair@$$CBV?$array@E$02@std@@V?$_List_iterator@V?$_List_val@U?$_List_simple_types@U?$pair@$$CBV?$array@E$07@std@@UCertificate@v3@security@vanetza@@@std@@@std@@@std@@@2@@std@@PEAX@std@@@std@@@?$_List_node@U?$pair@$$CBV?$array@E$02@std@@V?$_List_iterator@V?$_List_val@U?$_List_simple_types@U?$pair@$$CBV?$array@E$07@std@@UCertificate@v3@security@vanetza@@@std@@@std@@@std@@@2@@std@@PEAX@std@@SAXAEAV?$allocator@U?$_List_node@U?$pair@$$CBV?$array@E$02@std@@V?$_List_iterator@V?$_List_val@U?$_List_simple_types@U?$pair@$$CBV?$array@E$07@std@@UCertificate@v3@security@vanetza@@@std@@@std@@@std@@@2@@std@@PEAX@std@@@1@PEAU01@@Z
	??$_Freenode0@V?$allocator@U?$_List_node@U?$pair@$$CBV?$array@E$02@std@@V?$_List_iterator@V?$_List_val@U?$_List_simple_types@V?$array@E$02@std@@@std@@@std@@@2@@std@@PEAX@std@@@std@@@?$_List_node@U?$pair@$$CBV?$array@E$02@std@@V?$_List_iterator@V?$_List_val@U?$_List_simple_types@V?$array@E$02@std@@@std@@@std@@@2@@std@@PEAX@std@@SAXAEAV?$allocator@U?$_List_node@U?$pair@$$CBV?$array@E$02@std@@V?$_List_iterator@V?$_List_val@U?$_List_simple_types@V?$array@E$02@std@@@std@@@std@@@2@@std@@PEAX@std@@@1@PEAU01@@Z
	??$_Freenode0@V?$allocator@U?$_List_node@U?$pair@$$CBV?$array@E$07@std@@UCertificate@v3@security@vanetza@@@std@@PEAX@std@@@std@@@?$_List_node@U?$pair@$$CBV?$array@E$07@std@@UCertificate@v3@security@vanetza@@@std@@PEAX@std@@SAXAEAV?$allocator@U?$_List_node@U?$pair@$$CBV?$array@E$07@std@@UCertificate@v3@security@vanetza@@@std@@PEAX@std@@@1@PEAU01@@Z
	??$_Freenode0@V?$allocator@U?$_List_node@UCertificate@v2@security@vanetza@@PEAX@std@@@std@@@?$_List_node@UCertificate@v2@security@vanetza@@PEAX@std@@SAXAEAV?$allocator@U?$_List_node@UCertificate@v2@security@vanetza@@PEAX@std@@@1@PEAU01@@Z
	??$_Freenode0@V?$allocator@U?$_List_node@UCertificate@v3@security@vanetza@@PEAX@std@@@std@@@?$_List_node@UCertificate@v3@security@vanetza@@PEAX@std@@SAXAEAV?$allocator@U?$_List_node@UCertificate@v3@security@vanetza@@PEAX@std@@@1@PEAU01@@Z
	??$_Freenode0@V?$allocator@U?$_List_node@UItsAidSsp@v2@security@vanetza@@PEAX@std@@@std@@@?$_List_node@UItsAidSsp@v2@security@vanetza@@PEAX@std@@SAXAEAV?$allocator@U?$_List_node@UItsAidSsp@v2@security@vanetza@@PEAX@std@@@1@PEAU01@@Z
	??$_Freenode0@V?$allocator@U?$_List_node@URecipientInfo@v2@security@vanetza@@PEAX@std@@@std@@@?$_List_node@URecipientInfo@v2@security@vanetza@@PEAX@std@@SAXAEAV?$allocator@U?$_List_node@URecipientInfo@v2@security@vanetza@@PEAX@std@@@1@PEAU01@@Z
	??$_Freenode0@V?$allocator@U?$_List_node@URectangularRegion@v2@security@vanetza@@PEAX@std@@@std@@@?$_List_node@URectangularRegion@v2@security@vanetza@@PEAX@std@@SAXAEAV?$allocator@U?$_List_node@URectangularRegion@v2@security@vanetza@@PEAX@std@@@1@PEAU01@@Z
	??$_Freenode0@V?$allocator@U?$_List_node@UTwoDLocation@v2@security@vanetza@@PEAX@std@@@std@@@?$_List_node@UTwoDLocation@v2@security@vanetza@@PEAX@std@@SAXAEAV?$allocator@U?$_List_node@UTwoDLocation@v2@security@vanetza@@PEAX@std@@@1@PEAU01@@Z
	??$_Freenode0@V?$allocator@U?$_List_node@V?$array@E$02@std@@PEAX@std@@@std@@@?$_List_node@V?$array@E$02@std@@PEAX@std@@SAXAEAV?$allocator@U?$_List_node@V?$array@E$02@std@@PEAX@std@@@1@PEAU01@@Z
	??$_Freenode0@V?$allocator@U?$_List_node@V?$array@E$07@std@@PEAX@std@@@std@@@?$_List_node@V?$array@E$07@std@@PEAX@std@@SAXAEAV?$allocator@U?$_List_node@V?$array@E$07@std@@PEAX@std@@@1@PEAU01@@Z
	??$_Freenode0@V?$allocator@U?$_List_node@V?$variant@IUStartAndEndValidity@v2@security@vanetza@@UStartAndDurationValidity@234@V?$variant@UNoneRegion@v2@security@vanetza@@UCircularRegion@234@V?$list@URectangularRegion@v2@security@vanetza@@V?$allocator@URectangularRegion@v2@security@vanetza@@@std@@@std@@V?$list@UTwoDLocation@v2@security@vanetza@@V?$allocator@UTwoDLocation@v2@security@vanetza@@@std@@@7@UIdentifiedRegion@234@@boost@@@boost@@PEAX@std@@@std@@@?$_List_node@V?$variant@IUStartAndEndValidity@v2@security@vanetza@@UStartAndDurationValidity@234@V?$variant@UNoneRegion@v2@security@vanetza@@UCircularRegion@234@V?$list@URectangularRegion@v2@security@vanetza@@V?$allocator@URectangularRegion@v2@security@vanetza@@@std@@@std@@V?$list@UTwoDLocation@v2@security@vanetza@@V?$allocator@UTwoDLocation@v2@security@vanetza@@@std@@@7@UIdentifiedRegion@234@@boost@@@boost@@PEAX@std@@SAXAEAV?$allocator@U?$_List_node@V?$variant@IUStartAndEndValidity@v2@security@vanetza@@UStartAndDurationValidity@234@V?$variant@UNoneRegion@v2@security@vanetza@@UCircularRegion@234@V?$list@URectangularRegion@v2@security@vanetza@@V?$allocator@URectangularRegion@v2@security@vanetza@@@std@@@std@@V?$list@UTwoDLocation@v2@security@vanetza@@V?$allocator@UTwoDLocation@v2@security@vanetza@@@std@@@7@UIdentifiedRegion@234@@boost@@@boost@@PEAX@std@@@1@PEAU01@@Z
	??$_Freenode0@V?$allocator@U?$_List_node@V?$variant@USignature@v2@security@vanetza@@$$V@boost@@PEAX@std@@@std@@@?$_List_node@V?$variant@USignature@v2@security@vanetza@@$$V@boost@@PEAX@std@@SAXAEAV?$allocator@U?$_List_node@V?$variant@USignature@v2@security@vanetza@@$$V@boost@@PEAX@std@@@1@PEAU01@@Z
	??$_Freenode0@V?$allocator@U?$_List_node@V?$variant@UVerificationKey@v2@security@vanetza@@UEncryptionKey@234@USubjectAssurance@234@V?$variant@UX_Coordinate_Only@security@vanetza@@UCompressed_Lsb_Y_0@23@UCompressed_Lsb_Y_1@23@UUncompressed@23@@boost@@V?$list@VIntX@v2@security@vanetza@@V?$allocator@VIntX@v2@security@vanetza@@@std@@@std@@V?$list@UItsAidSsp@v2@security@vanetza@@V?$allocator@UItsAidSsp@v2@security@vanetza@@@std@@@std@@@boost@@PEAX@std@@@std@@@?$_List_node@V?$variant@UVerificationKey@v2@security@vanetza@@UEncryptionKey@234@USubjectAssurance@234@V?$variant@UX_Coordinate_Only@security@vanetza@@UCompressed_Lsb_Y_0@23@UCompressed_Lsb_Y_1@23@UUncompressed@23@@boost@@V?$list@VIntX@v2@security@vanetza@@V?$allocator@VIntX@v2@security@vanetza@@@std@@@std@@V?$list@UItsAidSsp@v2@security@vanetza@@V?$allocator@UItsAidSsp@v2@security@vanetza@@@std@@@std@@@boost@@PEAX@std@@SAXAEAV?$allocator@U?$_List_node@V?$variant@UVerificationKey@v2@security@vanetza@@UEncryptionKey@234@USubjectAssurance@234@V?$variant@UX_Coordinate_Only@security@vanetza@@UCompressed_Lsb_Y_0@23@UCompressed_Lsb_Y_1@23@UUncompressed@23@@boost@@V?$list@VIntX@v2@security@vanetza@@V?$allocator@VIntX@v2@security@vanetza@@@std@@@std@@V?$list@UItsAidSsp@v2@security@vanetza@@V?$allocator@UItsAidSsp@v2@security@vanetza@@@std@@@std@@@boost@@PEAX@std@@@1@PEAU01@@Z
	??$_Freenode0@V?$allocator@U?$_List_node@V?$variant@_KUTime64WithStandardDeviation@v2@security@vanetza@@IUThreeDLocation@234@V?$list@V?$array@E$02@std@@V?$allocator@V?$array@E$02@std@@@2@@std@@VIntX@234@V?$variant@$$TV?$array@E$07@std@@V?$recursive_wrapper@UCertificate@v2@security@vanetza@@@boost@@V?$list@UCertificate@v2@security@vanetza@@V?$allocator@UCertificate@v2@security@vanetza@@@std@@@2@UCertificateDigestWithOtherAlgorithm@v2@security@vanetza@@@boost@@V?$variant@V?$array@E$0M@@std@@$$V@boost@@V?$list@URecipientInfo@v2@security@vanetza@@V?$allocator@URecipientInfo@v2@security@vanetza@@@std@@@7@@boost@@PEAX@std@@@std@@@?$_List_node@V?$variant@_KUTime64WithStandardDeviation@v2@security@vanetza@@IUThreeDLocation@234@V?$list@V?$array@E$02@std@@V?$allocator@V?$array@E$02@std@@@2@@std@@VIntX@234@V?$variant@$$TV?$array@E$07@std@@V?$recursive_wrapper@UCertificate@v2@security@vanetza@@@boost@@V?$list@UCertificate@v2@security@vanetza@@V?$allocator@UCertificate@v2@security@vanetza@@@std@@@2@UCertificateDigestWithOtherAlgorithm@v2@security@vanetza@@@boost@@V?$variant@V?$array@E$0M@@std@@$$V@boost@@V?$list@URecipientInfo@v2@security@vanetza@@V?$allocator@URecipientInfo@v2@security@vanetza@@@std@@@7@@boost@@PEAX@std@@SAXAEAV?$allocator@U?$_List_node@V?$variant@_KUTime64WithStandardDeviation@v2@security@vanetza@@IUThreeDLocation@234@V?$list@V?$array@E$02@std@@V?$allocator@V?$array@E$02@std@@@2@@std@@VIntX@234@V?$variant@$$TV?$array@E$07@std@@V?$recursive_wrapper@UCertificate@v2@security@vanetza@@@boost@@V?$list@UCertificate@v2@security@vanetza@@V?$allocator@UCertificate@v2@security@vanetza@@@std@@@2@UCertificateDigestWithOtherAlgorithm@v2@security@vanetza@@@boost@@V?$variant@V?$array@E$0M@@std@@$$V@boost@@V?$list@URecipientInfo@v2@security@vanetza@@V?$allocator@URecipientInfo@v2@security@vanetza@@@std@@@7@@boost@@PEAX@std@@@1@PEAU01@@Z
	??$_Freenode0@V?$allocator@U?$_List_node@VIntX@v2@security@vanetza@@PEAX@std@@@std@@@?$_List_node@VIntX@v2@security@vanetza@@PEAX@std@@SAXAEAV?$allocator@U?$_List_node@VIntX@v2@security@vanetza@@PEAX@std@@@1@PEAU01@@Z
	??$_Freenode0@V?$allocator@U?$_Tree_node@U?$pair@$$CBV?$array@E$07@std@@UCachedCertificate@CertificateCache@v2@security@vanetza@@@std@@PEAX@std@@@std@@@?$_Tree_node@U?$pair@$$CBV?$array@E$07@std@@UCachedCertificate@CertificateCache@v2@security@vanetza@@@std@@PEAX@std@@SAXAEAV?$allocator@U?$_Tree_node@U?$pair@$$CBV?$array@E$07@std@@UCachedCertificate@CertificateCache@v2@security@vanetza@@@std@@PEAX@std@@@1@PEAU01@@Z
	??$_Freenode0@V?$allocator@U?$_Tree_node@U?$pair@$$CBV?$basic_string@DU?$char_traits@D@std@@V?$allocator@D@2@@std@@V?$function@$$A6A?AV?$unique_ptr@VBackend@security@vanetza@@U?$default_delete@VBackend@security@vanetza@@@std@@@std@@XZ@2@@std@@PEAX@std@@@std@@@?$_Tree_node@U?$pair@$$CBV?$basic_string@DU?$char_traits@D@std@@V?$allocator@D@2@@std@@V?$function@$$A6A?AV?$unique_ptr@VBackend@security@vanetza@@U?$default_delete@VBackend@security@vanetza@@@std@@@std@@XZ@2@@std@@PEAX@std@@SAXAEAV?$allocator@U?$_Tree_node@U?$pair@$$CBV?$basic_string@DU?$char_traits@D@std@@V?$allocator@D@2@@std@@V?$function@$$A6A?AV?$unique_ptr@VBackend@security@vanetza@@U?$default_delete@VBackend@security@vanetza@@@std@@@std@@XZ@2@@std@@PEAX@std@@@1@PEAU01@@Z
	??$_Freenode0@V?$allocator@U?$_Tree_node@U?$pair@$$CBW4OsiLayer@vanetza@@VByteBufferConvertible@2@@std@@PEAX@std@@@std@@@?$_Tree_node@U?$pair@$$CBW4OsiLayer@vanetza@@VByteBufferConvertible@2@@std@@PEAX@std@@SAXAEAV?$allocator@U?$_Tree_node@U?$pair@$$CBW4OsiLayer@vanetza@@VByteBufferConvertible@2@@std@@PEAX@std@@@1@PEAU01@@Z
	??$_Freenode0@V?$allocator@U?$_Tree_node@V?$array@E$02@std@@PEAX@std@@@std@@@?$_Tree_node@V?$array@E$02@std@@PEAX@std@@SAXAEAV?$allocator@U?$_Tree_node@V?$array@E$02@std@@PEAX@std@@@1@PEAU01@@Z
	??$_Freenode0@V?$allocator@U?$_Tree_node@W4CamPermission@security@vanetza@@PEAX@std@@@std@@@?$_Tree_node@W4CamPermission@security@vanetza@@PEAX@std@@SAXAEAV?$allocator@U?$_Tree_node@W4CamPermission@security@vanetza@@PEAX@std@@@1@PEAU01@@Z
	??$_Freenode@V?$allocator@U?$_List_node@EPEAX@std@@@std@@@?$_List_node@EPEAX@std@@SAXAEAV?$allocator@U?$_List_node@EPEAX@std@@@1@PEAU01@@Z
	??$_Freenode@V?$allocator@U?$_List_node@IPEAX@std@@@std@@@?$_List_node@IPEAX@std@@SAXAEAV?$allocator@U?$_List_node@IPEAX@std@@@1@PEAU01@@Z
	??$_Freenode@V?$allocator@U?$_List_node@U?$pair@$$CBV?$array@E$02@std@@V?$_List_iterator@V?$_List_val@U?$_List_simple_types@U?$pair@$$CBV?$array@E$07@std@@UCertificate@v3@security@vanetza@@@std@@@std@@@std@@@2@@std@@PEAX@std@@@std@@@?$_List_node@U?$pair@$$CBV?$array@E$02@std@@V?$_List_iterator@V?$_List_val@U?$_List_simple_types@U?$pair@$$CBV?$array@E$07@std@@UCertificate@v3@security@vanetza@@@std@@@std@@@std@@@2@@std@@PEAX@std@@SAXAEAV?$allocator@U?$_List_node@U?$pair@$$CBV?$array@E$02@std@@V?$_List_iterator@V?$_List_val@U?$_List_simple_types@U?$pair@$$CBV?$array@E$07@std@@UCertificate@v3@security@vanetza@@@std@@@std@@@std@@@2@@std@@PEAX@std@@@1@PEAU01@@Z
	??$_Freenode@V?$allocator@U?$_List_node@U?$pair@$$CBV?$array@E$02@std@@V?$_List_iterator@V?$_List_val@U?$_List_simple_types@V?$array@E$02@std@@@std@@@std@@@2@@std@@PEAX@std@@@std@@@?$_List_node@U?$pair@$$CBV?$array@E$02@std@@V?$_List_iterator@V?$_List_val@U?$_List_simple_types@V?$array@E$02@std@@@std@@@std@@@2@@std@@PEAX@std@@SAXAEAV?$allocator@U?$_List_node@U?$pair@$$CBV?$array@E$02@std@@V?$_List_iterator@V?$_List_val@U?$_List_simple_types@V?$array@E$02@std@@@std@@@std@@@2@@std@@PEAX@std@@@1@PEAU01@@Z
	??$_Freenode@V?$allocator@U?$_List_node@U?$pair@$$CBV?$array@E$07@std@@UCertificate@v3@security@vanetza@@@std@@PEAX@std@@@std@@@?$_List_node@U?$pair@$$CBV?$array@E$07@std@@UCertificate@v3@security@vanetza@@@std@@PEAX@std@@SAXAEAV?$allocator@U?$_List_node@U?$pair@$$CBV?$array@E$07@std@@UCertificate@v3@security@vanetza@@@std@@PEAX@std@@@1@PEAU01@@Z
	??$_Freenode@V?$allocator@U?$_List_node@UCertificate@v2@security@vanetza@@PEAX@std@@@std@@@?$_List_node@UCertificate@v2@security@vanetza@@PEAX@std@@SAXAEAV?$allocator@U?$_List_node@UCertificate@v2@security@vanetza@@PEAX@std@@@1@PEAU01@@Z
	??$_Freenode@V?$allocator@U?$_List_node@UCertificate@v3@security@vanetza@@PEAX@std@@@std@@@?$_List_node@UCertificate@v3@security@vanetza@@PEAX@std@@SAXAEAV?$allocator@U?$_List_node@UCertificate@v3@security@vanetza@@PEAX@std@@@1@PEAU01@@Z
	??$_Freenode@V?$allocator@U?$_List_node@UItsAidSsp@v2@security@vanetza@@PEAX@std@@@std@@@?$_List_node@UItsAidSsp@v2@security@vanetza@@PEAX@std@@SAXAEAV?$allocator@U?$_List_node@UItsAidSsp@v2@security@vanetza@@PEAX@std@@@1@PEAU01@@Z
	??$_Freenode@V?$allocator@U?$_List_node@URecipientInfo@v2@security@vanetza@@PEAX@std@@@std@@@?$_List_node@URecipientInfo@v2@security@vanetza@@PEAX@std@@SAXAEAV?$allocator@U?$_List_node@URecipientInfo@v2@security@vanetza@@PEAX@std@@@1@PEAU01@@Z
	??$_Freenode@V?$allocator@U?$_List_node@URectangularRegion@v2@security@vanetza@@PEAX@std@@@std@@@?$_List_node@URectangularRegion@v2@security@vanetza@@PEAX@std@@SAXAEAV?$allocator@U?$_List_node@URectangularRegion@v2@security@vanetza@@PEAX@std@@@1@PEAU01@@Z
	??$_Freenode@V?$allocator@U?$_List_node@UTwoDLocation@v2@security@vanetza@@PEAX@std@@@std@@@?$_List_node@UTwoDLocation@v2@security@vanetza@@PEAX@std@@SAXAEAV?$allocator@U?$_List_node@UTwoDLocation@v2@security@vanetza@@PEAX@std@@@1@PEAU01@@Z
	??$_Freenode@V?$allocator@U?$_List_node@V?$array@E$02@std@@PEAX@std@@@std@@@?$_List_node@V?$array@E$02@std@@PEAX@std@@SAXAEAV?$allocator@U?$_List_node@V?$array@E$02@std@@PEAX@std@@@1@PEAU01@@Z
	??$_Freenode@V?$allocator@U?$_List_node@V?$array@E$07@std@@PEAX@std@@@std@@@?$_List_node@V?$array@E$07@std@@PEAX@std@@SAXAEAV?$allocator@U?$_List_node@V?$array@E$07@std@@PEAX@std@@@1@PEAU01@@Z
	??$_Freenode@V?$allocator@U?$_List_node@V?$variant@IUStartAndEndValidity@v2@security@vanetza@@UStartAndDurationValidity@234@V?$variant@UNoneRegion@v2@security@vanetza@@UCircularRegion@234@V?$list@URectangularRegion@v2@security@vanetza@@V?$allocator@URectangularRegion@v2@security@vanetza@@@std@@@std@@V?$list@UTwoDLocation@v2@security@vanetza@@V?$allocator@UTwoDLocation@v2@security@vanetza@@@std@@@7@UIdentifiedRegion@234@@boost@@@boost@@PEAX@std@@@std@@@?$_List_node@V?$variant@IUStartAndEndValidity@v2@security@vanetza@@UStartAndDurationValidity@234@V?$variant@UNoneRegion@v2@security@vanetza@@UCircularRegion@234@V?$list@URectangularRegion@v2@security@vanetza@@V?$allocator@URectangularRegion@v2@security@vanetza@@@std@@@std@@V?$list@UTwoDLocation@v2@security@vanetza@@V?$allocator@UTwoDLocation@v2@security@vanetza@@@std@@@7@UIdentifiedRegion@234@@boost@@@boost@@PEAX@std@@SAXAEAV?$allocator@U?$_List_node@V?$variant@IUStartAndEndValidity@v2@security@vanetza@@UStartAndDurationValidity@234@V?$variant@UNoneRegion@v2@security@vanetza@@UCircularRegion@234@V?$list@URectangularRegion@v2@security@vanetza@@V?$allocator@URectangularRegion@v2@security@vanetza@@@std@@@std@@V?$list@UTwoDLocation@v2@security@vanetza@@V?$allocator@UTwoDLocation@v2@security@vanetza@@@std@@@7@UIdentifiedRegion@234@@boost@@@boost@@PEAX@std@@@1@PEAU01@@Z
	??$_Freenode@V?$allocator@U?$_List_node@V?$variant@USignature@v2@security@vanetza@@$$V@boost@@PEAX@std@@@std@@@?$_List_node@V?$variant@USignature@v2@security@vanetza@@$$V@boost@@PEAX@std@@SAXAEAV?$allocator@U?$_List_node@V?$variant@USignature@v2@security@vanetza@@$$V@boost@@PEAX@std@@@1@PEAU01@@Z
	??$_Freenode@V?$allocator@U?$_List_node@V?$variant@UVerificationKey@v2@security@vanetza@@UEncryptionKey@234@USubjectAssurance@234@V?$variant@UX_Coordinate_Only@security@vanetza@@UCompressed_Lsb_Y_0@23@UCompressed_Lsb_Y_1@23@UUncompressed@23@@boost@@V?$list@VIntX@v2@security@vanetza@@V?$allocator@VIntX@v2@security@vanetza@@@std@@@std@@V?$list@UItsAidSsp@v2@security@vanetza@@V?$allocator@UItsAidSsp@v2@security@vanetza@@@std@@@std@@@boost@@PEAX@std@@@std@@@?$_List_node@V?$variant@UVerificationKey@v2@security@vanetza@@UEncryptionKey@234@USubjectAssurance@234@V?$variant@UX_Coordinate_Only@security@vanetza@@UCompressed_Lsb_Y_0@23@UCompressed_Lsb_Y_1@23@UUncompressed@23@@boost@@V?$list@VIntX@v2@security@vanetza@@V?$allocator@VIntX@v2@security@vanetza@@@std@@@std@@V?$list@UItsAidSsp@v2@security@vanetza@@V?$allocator@UItsAidSsp@v2@security@vanetza@@@std@@@std@@@boost@@PEAX@std@@SAXAEAV?$allocator@U?$_List_node@V?$variant@UVerificationKey@v2@security@vanetza@@UEncryptionKey@234@USubjectAssurance@234@V?$variant@UX_Coordinate_Only@security@vanetza@@UCompressed_Lsb_Y_0@23@UCompressed_Lsb_Y_1@23@UUncompressed@23@@boost@@V?$list@VIntX@v2@security@vanetza@@V?$allocator@VIntX@v2@security@vanetza@@@std@@@std@@V?$list@UItsAidSsp@v2@security@vanetza@@V?$allocator@UItsAidSsp@v2@security@vanetza@@@std@@@std@@@boost@@PEAX@std@@@1@PEAU01@@Z
	??$_Freenode@V?$allocator@U?$_List_node@V?$variant@_KUTime64WithStandardDeviation@v2@security@vanetza@@IUThreeDLocation@234@V?$list@V?$array@E$02@std@@V?$allocator@V?$array@E$02@std@@@2@@std@@VIntX@234@V?$variant@$$TV?$array@E$07@std@@V?$recursive_wrapper@UCertificate@v2@security@vanetza@@@boost@@V?$list@UCertificate@v2@security@vanetza@@V?$allocator@UCertificate@v2@security@vanetza@@@std@@@2@UCertificateDigestWithOtherAlgorithm@v2@security@vanetza@@@boost@@V?$variant@V?$array@E$0M@@std@@$$V@boost@@V?$list@URecipientInfo@v2@security@vanetza@@V?$allocator@URecipientInfo@v2@security@vanetza@@@std@@@7@@boost@@PEAX@std@@@std@@@?$_List_node@V?$variant@_KUTime64WithStandardDeviation@v2@security@vanetza@@IUThreeDLocation@234@V?$list@V?$array@E$02@std@@V?$allocator@V?$array@E$02@std@@@2@@std@@VIntX@234@V?$variant@$$TV?$array@E$07@std@@V?$recursive_wrapper@UCertificate@v2@security@vanetza@@@boost@@V?$list@UCertificate@v2@security@vanetza@@V?$allocator@UCertificate@v2@security@vanetza@@@std@@@2@UCertificateDigestWithOtherAlgorithm@v2@security@vanetza@@@boost@@V?$variant@V?$array@E$0M@@std@@$$V@boost@@V?$list@URecipientInfo@v2@security@vanetza@@V?$allocator@URecipientInfo@v2@security@vanetza@@@std@@@7@@boost@@PEAX@std@@SAXAEAV?$allocator@U?$_List_node@V?$variant@_KUTime64WithStandardDeviation@v2@security@vanetza@@IUThreeDLocation@234@V?$list@V?$array@E$02@std@@V?$allocator@V?$array@E$02@std@@@2@@std@@VIntX@234@V?$variant@$$TV?$array@E$07@std@@V?$recursive_wrapper@UCertificate@v2@security@vanetza@@@boost@@V?$list@UCertificate@v2@security@vanetza@@V?$allocator@UCertificate@v2@security@vanetza@@@std@@@2@UCertificateDigestWithOtherAlgorithm@v2@security@vanetza@@@boost@@V?$variant@V?$array@E$0M@@std@@$$V@boost@@V?$list@URecipientInfo@v2@security@vanetza@@V?$allocator@URecipientInfo@v2@security@vanetza@@@std@@@7@@boost@@PEAX@std@@@1@PEAU01@@Z
	??$_Freenode@V?$allocator@U?$_List_node@VIntX@v2@security@vanetza@@PEAX@std@@@std@@@?$_List_node@VIntX@v2@security@vanetza@@PEAX@std@@SAXAEAV?$allocator@U?$_List_node@VIntX@v2@security@vanetza@@PEAX@std@@@1@PEAU01@@Z
	??$_Freenode@V?$allocator@U?$_Tree_node@U?$pair@$$CBV?$array@E$07@std@@UCachedCertificate@CertificateCache@v2@security@vanetza@@@std@@PEAX@std@@@std@@@?$_Tree_node@U?$pair@$$CBV?$array@E$07@std@@UCachedCertificate@CertificateCache@v2@security@vanetza@@@std@@PEAX@std@@SAXAEAV?$allocator@U?$_Tree_node@U?$pair@$$CBV?$array@E$07@std@@UCachedCertificate@CertificateCache@v2@security@vanetza@@@std@@PEAX@std@@@1@PEAU01@@Z
	??$_Freenode@V?$allocator@U?$_Tree_node@U?$pair@$$CBV?$basic_string@DU?$char_traits@D@std@@V?$allocator@D@2@@std@@V?$function@$$A6A?AV?$unique_ptr@VBackend@security@vanetza@@U?$default_delete@VBackend@security@vanetza@@@std@@@std@@XZ@2@@std@@PEAX@std@@@std@@@?$_Tree_node@U?$pair@$$CBV?$basic_string@DU?$char_traits@D@std@@V?$allocator@D@2@@std@@V?$function@$$A6A?AV?$unique_ptr@VBackend@security@vanetza@@U?$default_delete@VBackend@security@vanetza@@@std@@@std@@XZ@2@@std@@PEAX@std@@SAXAEAV?$allocator@U?$_Tree_node@U?$pair@$$CBV?$basic_string@DU?$char_traits@D@std@@V?$allocator@D@2@@std@@V?$function@$$A6A?AV?$unique_ptr@VBackend@security@vanetza@@U?$default_delete@VBackend@security@vanetza@@@std@@@std@@XZ@2@@std@@PEAX@std@@@1@PEAU01@@Z
	??$_Freenode@V?$allocator@U?$_Tree_node@U?$pair@$$CBW4OsiLayer@vanetza@@VByteBufferConvertible@2@@std@@PEAX@std@@@std@@@?$_Tree_node@U?$pair@$$CBW4OsiLayer@vanetza@@VByteBufferConvertible@2@@std@@PEAX@std@@SAXAEAV?$allocator@U?$_Tree_node@U?$pair@$$CBW4OsiLayer@vanetza@@VByteBufferConvertible@2@@std@@PEAX@std@@@1@PEAU01@@Z
	??$_Freenode@V?$allocator@U?$_Tree_node@V?$array@E$02@std@@PEAX@std@@@std@@@?$_Tree_node@V?$array@E$02@std@@PEAX@std@@SAXAEAV?$allocator@U?$_Tree_node@V?$array@E$02@std@@PEAX@std@@@1@PEAU01@@Z
	??$_Freenode@V?$allocator@U?$_Tree_node@W4CamPermission@security@vanetza@@PEAX@std@@@std@@@?$_Tree_node@W4CamPermission@security@vanetza@@PEAX@std@@SAXAEAV?$allocator@U?$_Tree_node@W4CamPermission@security@vanetza@@PEAX@std@@@1@PEAU01@@Z
	??$_Get_size_of_n@$00@std@@YA_K_K@Z
	??$_Get_size_of_n@$03@std@@YA_K_K@Z
	??$_Get_size_of_n@$07@std@@YA_K_K@Z
	??$_Get_size_of_n@$0BA@@std@@YA_K_K@Z
	??$_Get_size_of_n@$0BAI@@std@@YA_K_K@Z
	??$_Get_size_of_n@$0BCA@@std@@YA_K_K@Z
	??$_Get_size_of_n@$0BCI@@std@@YA_K_K@Z
	??$_Get_size_of_n@$0BI@@std@@YA_K_K@Z
	??$_Get_size_of_n@$0CA@@std@@YA_K_K@Z
	??$_Get_size_of_n@$0CI@@std@@YA_K_K@Z
	??$_Get_size_of_n@$0DA@@std@@YA_K_K@Z
	??$_Get_size_of_n@$0DI@@std@@YA_K_K@Z
	??$_Get_size_of_n@$0EA@@std@@YA_K_K@Z
	??$_Get_size_of_n@$0FA@@std@@YA_K_K@Z
	??$_Get_size_of_n@$0HA@@std@@YA_K_K@Z
	??$_Get_size_of_n@$0II@@std@@YA_K_K@Z
	??$_Get_size_of_n@$0JI@@std@@YA_K_K@Z
	??$_Get_size_of_n@$0KA@@std@@YA_K_K@Z
	??$_Get_unwrapped@AEAPEAE@std@@YA?A_TAEAPEAE@Z
	??$_Get_unwrapped@AEAPEAI@std@@YA?A_TAEAPEAI@Z
	??$_Get_unwrapped@AEAPEAPEAX@std@@YA?A_TAEAPEAPEAX@Z
	??$_Get_unwrapped@AEAPEAUECPPoint@CryptoPP@@@std@@YA?A_TAEAPEAUECPPoint@CryptoPP@@@Z
	??$_Get_unwrapped@AEAV?$_Array_const_iterator@E$0CA@@std@@@std@@YA?A_TAEAV?$_Array_const_iterator@E$0CA@@0@@Z
	??$_Get_unwrapped@AEAV?$_Array_const_iterator@E$0DA@@std@@@std@@YA?A_TAEAV?$_Array_const_iterator@E$0DA@@0@@Z
	??$_Get_unwrapped@AEAV?$_Array_iterator@E$0CA@@std@@@std@@YA?A_TAEAV?$_Array_iterator@E$0CA@@0@@Z
	??$_Get_unwrapped@AEAV?$_List_iterator@V?$_List_val@U?$_List_simple_types@E@std@@@std@@@std@@@std@@YA?A_TAEAV?$_List_iterator@V?$_List_val@U?$_List_simple_types@E@std@@@std@@@0@@Z
	??$_Get_unwrapped@AEAV?$_List_iterator@V?$_List_val@U?$_List_simple_types@I@std@@@std@@@std@@@std@@YA?A_TAEAV?$_List_iterator@V?$_List_val@U?$_List_simple_types@I@std@@@std@@@0@@Z
	??$_Get_unwrapped@AEAV?$_List_unchecked_const_iterator@V?$_List_val@U?$_List_simple_types@UCertificate@v2@security@vanetza@@@std@@@std@@U_Iterator_base0@2@@std@@@std@@YA?A_TAEAV?$_List_unchecked_const_iterator@V?$_List_val@U?$_List_simple_types@UCertificate@v2@security@vanetza@@@std@@@std@@U_Iterator_base0@2@@0@@Z
	??$_Get_unwrapped@AEAV?$_List_unchecked_const_iterator@V?$_List_val@U?$_List_simple_types@UItsAidSsp@v2@security@vanetza@@@std@@@std@@U_Iterator_base0@2@@std@@@std@@YA?A_TAEAV?$_List_unchecked_const_iterator@V?$_List_val@U?$_List_simple_types@UItsAidSsp@v2@security@vanetza@@@std@@@std@@U_Iterator_base0@2@@0@@Z
	??$_Get_unwrapped@AEAV?$_List_unchecked_const_iterator@V?$_List_val@U?$_List_simple_types@URecipientInfo@v2@security@vanetza@@@std@@@std@@U_Iterator_base0@2@@std@@@std@@YA?A_TAEAV?$_List_unchecked_const_iterator@V?$_List_val@U?$_List_simple_types@URecipientInfo@v2@security@vanetza@@@std@@@std@@U_Iterator_base0@2@@0@@Z
	??$_Get_unwrapped@AEAV?$_List_unchecked_const_iterator@V?$_List_val@U?$_List_simple_types@URectangularRegion@v2@security@vanetza@@@std@@@std@@U_Iterator_base0@2@@std@@@std@@YA?A_TAEAV?$_List_unchecked_const_iterator@V?$_List_val@U?$_List_simple_types@URectangularRegion@v2@security@vanetza@@@std@@@std@@U_Iterator_base0@2@@0@@Z
	??$_Get_unwrapped@AEAV?$_List_unchecked_const_iterator@V?$_List_val@U?$_List_simple_types@UTwoDLocation@v2@security@vanetza@@@std@@@std@@U_Iterator_base0@2@@std@@@std@@YA?A_TAEAV?$_List_unchecked_const_iterator@V?$_List_val@U?$_List_simple_types@UTwoDLocation@v2@security@vanetza@@@std@@@std@@U_Iterator_base0@2@@0@@Z
	??$_Get_unwrapped@AEAV?$_List_unchecked_const_iterator@V?$_List_val@U?$_List_simple_types@V?$array@E$02@std@@@std@@@std@@U_Iterator_base0@2@@std@@@std@@YA?A_TAEAV?$_List_unchecked_const_iterator@V?$_List_val@U?$_List_simple_types@V?$array@E$02@std@@@std@@@std@@U_Iterator_base0@2@@0@@Z
	??$_Get_unwrapped@AEAV?$_List_unchecked_const_iterator@V?$_List_val@U?$_List_simple_types@V?$variant@IUStartAndEndValidity@v2@security@vanetza@@UStartAndDurationValidity@234@V?$variant@UNoneRegion@v2@security@vanetza@@UCircularRegion@234@V?$list@URectangularRegion@v2@security@vanetza@@V?$allocator@URectangularRegion@v2@security@vanetza@@@std@@@std@@V?$list@UTwoDLocation@v2@security@vanetza@@V?$allocator@UTwoDLocation@v2@security@vanetza@@@std@@@7@UIdentifiedRegion@234@@boost@@@boost@@@std@@@std@@U_Iterator_base0@2@@std@@@std@@YA?A_TAEAV?$_List_unchecked_const_iterator@V?$_List_val@U?$_List_simple_types@V?$variant@IUStartAndEndValidity@v2@security@vanetza@@UStartAndDurationValidity@234@V?$variant@UNoneRegion@v2@security@vanetza@@UCircularRegion@234@V?$list@URectangularRegion@v2@security@vanetza@@V?$allocator@URectangularRegion@v2@security@vanetza@@@std@@@std@@V?$list@UTwoDLocation@v2@security@vanetza@@V?$allocator@UTwoDLocation@v2@security@vanetza@@@std@@@7@UIdentifiedRegion@234@@boost@@@boost@@@std@@@std@@U_Iterator_base0@2@@0@@Z
	??$_Get_unwrapped@AEAV?$_List_unchecked_const_iterator@V?$_List_val@U?$_List_simple_types@V?$variant@UVerificationKey@v2@security@vanetza@@UEncryptionKey@234@USubjectAssurance@234@V?$variant@UX_Coordinate_Only@security@vanetza@@UCompressed_Lsb_Y_0@23@UCompressed_Lsb_Y_1@23@UUncompressed@23@@boost@@V?$list@VIntX@v2@security@vanetza@@V?$allocator@VIntX@v2@security@vanetza@@@std@@@std@@V?$list@UItsAidSsp@v2@security@vanetza@@V?$allocator@UItsAidSsp@v2@security@vanetza@@@std@@@std@@@boost@@@std@@@std@@U_Iterator_base0@2@@std@@@std@@YA?A_TAEAV?$_List_unchecked_const_iterator@V?$_List_val@U?$_List_simple_types@V?$variant@UVerificationKey@v2@security@vanetza@@UEncryptionKey@234@USubjectAssurance@234@V?$variant@UX_Coordinate_Only@security@vanetza@@UCompressed_Lsb_Y_0@23@UCompressed_Lsb_Y_1@23@UUncompressed@23@@boost@@V?$list@VIntX@v2@security@vanetza@@V?$allocator@VIntX@v2@security@vanetza@@@std@@@std@@V?$list@UItsAidSsp@v2@security@vanetza@@V?$allocator@UItsAidSsp@v2@security@vanetza@@@std@@@std@@@boost@@@std@@@std@@U_Iterator_base0@2@@0@@Z
	??$_Get_unwrapped@AEAV?$_List_unchecked_const_iterator@V?$_List_val@U?$_List_simple_types@VIntX@v2@security@vanetza@@@std@@@std@@U_Iterator_base0@2@@std@@@std@@YA?A_TAEAV?$_List_unchecked_const_iterator@V?$_List_val@U?$_List_simple_types@VIntX@v2@security@vanetza@@@std@@@std@@U_Iterator_base0@2@@0@@Z
	??$_Get_unwrapped@AEAV?$_List_unchecked_iterator@V?$_List_val@U?$_List_simple_types@E@std@@@std@@@std@@@std@@YA?A_TAEAV?$_List_unchecked_iterator@V?$_List_val@U?$_List_simple_types@E@std@@@std@@@0@@Z
	??$_Get_unwrapped@AEAV?$_String_const_iterator@V?$_String_val@U?$_Simple_types@D@std@@@std@@@std@@@std@@YA?A_TAEAV?$_String_const_iterator@V?$_String_val@U?$_Simple_types@D@std@@@std@@@0@@Z
	??$_Get_unwrapped@AEAV?$_String_iterator@V?$_String_val@U?$_Simple_types@D@std@@@std@@@std@@@std@@YA?A_TAEAV?$_String_iterator@V?$_String_val@U?$_Simple_types@D@std@@@std@@@0@@Z
	??$_Get_unwrapped@AEAV?$_Tree_const_iterator@V?$_Tree_val@U?$_Tree_simple_types@V?$array@E$02@std@@@std@@@std@@@std@@@std@@YA?A_TAEAV?$_Tree_const_iterator@V?$_Tree_val@U?$_Tree_simple_types@V?$array@E$02@std@@@std@@@std@@@0@@Z
	??$_Get_unwrapped@AEAV?$_Vb_iterator@U?$_Wrap_alloc@V?$allocator@I@std@@@std@@@std@@@std@@YA?A_TAEAV?$_Vb_iterator@U?$_Wrap_alloc@V?$allocator@I@std@@@std@@@0@@Z
	??$_Get_unwrapped@AEAV?$_Vector_const_iterator@V?$_Vector_val@U?$_Simple_types@E@std@@@std@@@std@@@std@@YA?A_TAEAV?$_Vector_const_iterator@V?$_Vector_val@U?$_Simple_types@E@std@@@std@@@0@@Z
	??$_Get_unwrapped@AEAV?$_Vector_iterator@V?$_Vector_val@U?$_Simple_types@E@std@@@std@@@std@@@std@@YA?A_TAEAV?$_Vector_iterator@V?$_Vector_val@U?$_Simple_types@E@std@@@std@@@0@@Z
	??$_Get_unwrapped@AEAV?$istreambuf_iterator@DU?$char_traits@D@std@@@std@@@std@@YA?A_TAEAV?$istreambuf_iterator@DU?$char_traits@D@std@@@0@@Z
	??$_Get_unwrapped@AEBQEAD@std@@YA?A_TAEBQEAD@Z
	??$_Get_unwrapped@AEBQEAE@std@@YA?A_TAEBQEAE@Z
	??$_Get_unwrapped@AEBQEAI@std@@YA?A_TAEBQEAI@Z
	??$_Get_unwrapped@AEBQEAPEAX@std@@YA?A_TAEBQEAPEAX@Z
	??$_Get_unwrapped@AEBQEAU?$format_item@DU?$char_traits@D@std@@V?$allocator@D@2@@detail@io@boost@@@std@@YA?A_TAEBQEAU?$format_item@DU?$char_traits@D@std@@V?$allocator@D@2@@detail@io@boost@@@Z
	??$_Get_unwrapped@AEBQEAUECPPoint@CryptoPP@@@std@@YA?A_TAEBQEAUECPPoint@CryptoPP@@@Z
	??$_Get_unwrapped@AEBQEAV?$_List_unchecked_const_iterator@V?$_List_val@U?$_List_simple_types@V?$array@E$07@std@@@std@@@std@@U_Iterator_base0@2@@std@@@std@@YA?A_TAEBQEAV?$_List_unchecked_const_iterator@V?$_List_val@U?$_List_simple_types@V?$array@E$07@std@@@std@@@std@@U_Iterator_base0@2@@0@@Z
	??$_Get_unwrapped@AEBQEAV?$_List_unchecked_iterator@V?$_List_val@U?$_List_simple_types@U?$pair@$$CBV?$array@E$02@std@@V?$_List_iterator@V?$_List_val@U?$_List_simple_types@U?$pair@$$CBV?$array@E$07@std@@UCertificate@v3@security@vanetza@@@std@@@std@@@std@@@2@@std@@@std@@@std@@@std@@@std@@YA?A_TAEBQEAV?$_List_unchecked_iterator@V?$_List_val@U?$_List_simple_types@U?$pair@$$CBV?$array@E$02@std@@V?$_List_iterator@V?$_List_val@U?$_List_simple_types@U?$pair@$$CBV?$array@E$07@std@@UCertificate@v3@security@vanetza@@@std@@@std@@@std@@@2@@std@@@std@@@std@@@0@@Z
	??$_Get_unwrapped@AEBQEAV?$_List_unchecked_iterator@V?$_List_val@U?$_List_simple_types@U?$pair@$$CBV?$array@E$02@std@@V?$_List_iterator@V?$_List_val@U?$_List_simple_types@V?$array@E$02@std@@@std@@@std@@@2@@std@@@std@@@std@@@std@@@std@@YA?A_TAEBQEAV?$_List_unchecked_iterator@V?$_List_val@U?$_List_simple_types@U?$pair@$$CBV?$array@E$02@std@@V?$_List_iterator@V?$_List_val@U?$_List_simple_types@V?$array@E$02@std@@@std@@@std@@@2@@std@@@std@@@std@@@0@@Z
	??$_Get_unwrapped@AEBQEAV?$_List_unchecked_iterator@V?$_List_val@U?$_List_simple_types@U?$pair@$$CBV?$array@E$07@std@@UCertificate@v3@security@vanetza@@@std@@@std@@@std@@@std@@@std@@YA?A_TAEBQEAV?$_List_unchecked_iterator@V?$_List_val@U?$_List_simple_types@U?$pair@$$CBV?$array@E$07@std@@UCertificate@v3@security@vanetza@@@std@@@std@@@std@@@0@@Z
	??$_Get_unwrapped@AEBQEBD@std@@YA?A_TAEBQEBD@Z
	??$_Get_unwrapped@AEBQEBE@std@@YA?A_TAEBQEBE@Z
	??$_Get_unwrapped@AEBV?$_List_const_iterator@V?$_List_val@U?$_List_simple_types@URectangularRegion@v2@security@vanetza@@@std@@@std@@@std@@@std@@YA?A_TAEBV?$_List_const_iterator@V?$_List_val@U?$_List_simple_types@URectangularRegion@v2@security@vanetza@@@std@@@std@@@0@@Z
	??$_Get_unwrapped@AEBV?$_List_unchecked_const_iterator@V?$_List_val@U?$_List_simple_types@URectangularRegion@v2@security@vanetza@@@std@@@std@@U_Iterator_base0@2@@std@@@std@@YA?A_TAEBV?$_List_unchecked_const_iterator@V?$_List_val@U?$_List_simple_types@URectangularRegion@v2@security@vanetza@@@std@@@std@@U_Iterator_base0@2@@0@@Z
	??$_Get_unwrapped@AEBV?$_List_unchecked_iterator@V?$_List_val@U?$_List_simple_types@E@std@@@std@@@std@@@std@@YA?A_TAEBV?$_List_unchecked_iterator@V?$_List_val@U?$_List_simple_types@E@std@@@std@@@0@@Z
	??$_Get_unwrapped@AEBV?$_String_const_iterator@V?$_String_val@U?$_Simple_types@D@std@@@std@@@std@@@std@@YA?A_TAEBV?$_String_const_iterator@V?$_String_val@U?$_Simple_types@D@std@@@std@@@0@@Z
	??$_Get_unwrapped_n@AEAPEAE_J@std@@YA?A_TAEAPEAE_J@Z
	??$_Get_unwrapped_n@AEAPEAE_K@std@@YA?A_TAEAPEAE_K@Z
	??$_Get_unwrapped_n@AEAPEBE_K@std@@YA?A_TAEAPEBE_K@Z
	??$_Get_unwrapped_n@AEAV?$_Array_iterator@E$07@std@@_J@std@@YA?A_TAEAV?$_Array_iterator@E$07@0@_J@Z
	??$_Get_unwrapped_n@AEAV?$_Array_iterator@E$0CA@@std@@_K@std@@YA?A_TAEAV?$_Array_iterator@E$0CA@@0@_K@Z
	??$_Get_unwrapped_n@AEAV?$_Array_iterator@E$0DA@@std@@_K@std@@YA?A_TAEAV?$_Array_iterator@E$0DA@@0@_K@Z
	??$_Get_unwrapped_n@AEAV?$_Vb_iterator@U?$_Wrap_alloc@V?$allocator@I@std@@@std@@@std@@_J@std@@YA?A_TAEAV?$_Vb_iterator@U?$_Wrap_alloc@V?$allocator@I@std@@@std@@@0@_J@Z
	??$_Get_unwrapped_n@AEAV?$_Vector_const_iterator@V?$_Vector_val@U?$_Simple_types@E@std@@@std@@@std@@_K@std@@YA?A_TAEAV?$_Vector_const_iterator@V?$_Vector_val@U?$_Simple_types@E@std@@@std@@@0@_K@Z
	??$_Get_unwrapped_n@AEAV?$_Vector_iterator@V?$_Vector_val@U?$_Simple_types@E@std@@@std@@@std@@_K@std@@YA?A_TAEAV?$_Vector_iterator@V?$_Vector_val@U?$_Simple_types@E@std@@@std@@@0@_K@Z
	??$_Get_unwrapped_n@AEAV?$back_insert_iterator@V?$vector@EV?$allocator@E@std@@@std@@@std@@_J@std@@YA?A_TAEAV?$back_insert_iterator@V?$vector@EV?$allocator@E@std@@@std@@@0@_J@Z
	??$_Get_unwrapped_n@AEAV?$back_insert_iterator@V?$vector@EV?$allocator@E@std@@@std@@@std@@_K@std@@YA?A_TAEAV?$back_insert_iterator@V?$vector@EV?$allocator@E@std@@@std@@@0@_K@Z
	??$_Get_unwrapped_n@AEAV?$reverse_iterator@V?$_Array_const_iterator@E$07@std@@@std@@_K@std@@YA?A_TAEAV?$reverse_iterator@V?$_Array_const_iterator@E$07@std@@@0@_K@Z
	??$_Get_unwrapped_n@AEAV?$reverse_iterator@V?$_Array_iterator@E$02@std@@@std@@_K@std@@YA?A_TAEAV?$reverse_iterator@V?$_Array_iterator@E$02@std@@@0@_K@Z
	??$_Get_unwrapped_n@AEBQEBE_J@std@@YA?A_TAEBQEBE_J@Z
	??$_Get_unwrapped_n@AEBV?$_List_unchecked_const_iterator@V?$_List_val@U?$_List_simple_types@URectangularRegion@v2@security@vanetza@@@std@@@std@@U_Iterator_base0@2@@std@@U_Distance_unknown@2@@std@@YA?A_TAEBV?$_List_unchecked_const_iterator@V?$_List_val@U?$_List_simple_types@URectangularRegion@v2@security@vanetza@@@std@@@std@@U_Iterator_base0@2@@0@U_Distance_unknown@0@@Z
	??$_Get_unwrapped_n@V?$_List_iterator@V?$_List_val@U?$_List_simple_types@V?$array@E$02@std@@@std@@@std@@@std@@_J@std@@YA?A_T$$QEAV?$_List_iterator@V?$_List_val@U?$_List_simple_types@V?$array@E$02@std@@@std@@@std@@@0@_J@Z
	??$_Getvals@_W@?$time_get@DV?$istreambuf_iterator@DU?$char_traits@D@std@@@std@@@std@@IEAAX_WAEBV_Locinfo@1@@Z
	??$_Getvals@_W@?$time_get@_WV?$istreambuf_iterator@_WU?$char_traits@_W@std@@@std@@@std@@IEAAX_WAEBV_Locinfo@1@@Z
	??$_Global_new@V?$_Func_impl_no_alloc@V<lambda_052e919cc0e5399df76dff3972c0cac1>@@E$$V@std@@AEBV<lambda_052e919cc0e5399df76dff3972c0cac1>@@@std@@YAPEAV?$_Func_impl_no_alloc@V<lambda_052e919cc0e5399df76dff3972c0cac1>@@E$$V@0@AEBV<lambda_052e919cc0e5399df76dff3972c0cac1>@@@Z
	??$_Global_new@V?$_Func_impl_no_alloc@V<lambda_052e919cc0e5399df76dff3972c0cac1>@@E$$V@std@@V<lambda_052e919cc0e5399df76dff3972c0cac1>@@@std@@YAPEAV?$_Func_impl_no_alloc@V<lambda_052e919cc0e5399df76dff3972c0cac1>@@E$$V@0@$$QEAV<lambda_052e919cc0e5399df76dff3972c0cac1>@@@Z
	??$_Idl_distance@PEBEPEBE@std@@YA?A_PAEBQEBE0@Z
	??$_Idl_distance@V?$_Array_const_iterator@E$0CA@@std@@PEBE@std@@YA?A_PAEBQEBE0@Z
	??$_Idl_distance@V?$_Array_const_iterator@E$0DA@@std@@PEBE@std@@YA?A_PAEBQEBE0@Z
	??$_Idl_distance@V?$_Array_iterator@E$0CA@@std@@PEAE@std@@YA?A_PAEBQEAE0@Z
	??$_Idl_distance@V?$_List_unchecked_const_iterator@V?$_List_val@U?$_List_simple_types@URectangularRegion@v2@security@vanetza@@@std@@@std@@U_Iterator_base0@2@@std@@V12@@std@@YA?A_PAEBV?$_List_unchecked_const_iterator@V?$_List_val@U?$_List_simple_types@URectangularRegion@v2@security@vanetza@@@std@@@std@@U_Iterator_base0@2@@0@0@Z
	??$_Idl_distance@V?$_Vb_iterator@U?$_Wrap_alloc@V?$allocator@I@std@@@std@@@std@@V12@@std@@YA?A_PAEBV?$_Vb_iterator@U?$_Wrap_alloc@V?$allocator@I@std@@@std@@@0@0@Z
	??$_Idl_distance@V?$_Vector_const_iterator@V?$_Vector_val@U?$_Simple_types@E@std@@@std@@@std@@PEBE@std@@YA?A_PAEBQEBE0@Z
	??$_Immortalize_memcpy_image@V_Future_error_category2@std@@@std@@YAAEBV_Future_error_category2@0@XZ
	??$_Immortalize_memcpy_image@V_Generic_error_category@std@@@std@@YAAEBV_Generic_error_category@0@XZ
	??$_Immortalize_memcpy_image@V_Iostream_error_category2@std@@@std@@YAAEBV_Iostream_error_category2@0@XZ
	??$_Insert_range@PEAE@?$vector@EV?$allocator@E@std@@@std@@AEAAXV?$_Vector_const_iterator@V?$_Vector_val@U?$_Simple_types@E@std@@@std@@@1@PEAE1Uforward_iterator_tag@1@@Z
	??$_Insert_range@PEBE@?$vector@EV?$allocator@E@std@@@std@@AEAAXV?$_Vector_const_iterator@V?$_Vector_val@U?$_Simple_types@E@std@@@std@@@1@PEBE1Uforward_iterator_tag@1@@Z
	??$_Insert_string@DU?$char_traits@D@std@@_K@std@@YAAEAV?$basic_ostream@DU?$char_traits@D@std@@@0@AEAV10@QEBD_K@Z
	??$_Is_all_bits_zero@I@std@@YA_NAEBI@Z
	??$_Kfn@$$CBV?$array@E$02@std@@V?$_List_iterator@V?$_List_val@U?$_List_simple_types@U?$pair@$$CBV?$array@E$07@std@@UCertificate@v3@security@vanetza@@@std@@@std@@@std@@@2@@?$_Umap_traits@V?$array@E$02@std@@V?$_List_iterator@V?$_List_val@U?$_List_simple_types@U?$pair@$$CBV?$array@E$07@std@@UCertificate@v3@security@vanetza@@@std@@@std@@@std@@@2@V?$_Uhash_compare@V?$array@E$02@std@@U?$hash@V?$array@E$02@std@@@2@U?$equal_to@V?$array@E$02@std@@@2@@2@V?$allocator@U?$pair@$$CBV?$array@E$02@std@@V?$_List_iterator@V?$_List_val@U?$_List_simple_types@U?$pair@$$CBV?$array@E$07@std@@UCertificate@v3@security@vanetza@@@std@@@std@@@std@@@2@@std@@@2@$0A@@std@@SAAEBV?$array@E$02@1@AEBU?$pair@$$CBV?$array@E$02@std@@V?$_List_iterator@V?$_List_val@U?$_List_simple_types@U?$pair@$$CBV?$array@E$07@std@@UCertificate@v3@security@vanetza@@@std@@@std@@@std@@@2@@1@@Z
	??$_Kfn@$$CBV?$array@E$02@std@@V?$_List_iterator@V?$_List_val@U?$_List_simple_types@V?$array@E$02@std@@@std@@@std@@@2@@?$_Umap_traits@V?$array@E$02@std@@V?$_List_iterator@V?$_List_val@U?$_List_simple_types@V?$array@E$02@std@@@std@@@std@@@2@V?$_Uhash_compare@V?$array@E$02@std@@U?$hash@V?$array@E$02@std@@@2@U?$equal_to@V?$array@E$02@std@@@2@@2@V?$allocator@U?$pair@$$CBV?$array@E$02@std@@V?$_List_iterator@V?$_List_val@U?$_List_simple_types@V?$array@E$02@std@@@std@@@std@@@2@@std@@@2@$0A@@std@@SAAEBV?$array@E$02@1@AEBU?$pair@$$CBV?$array@E$02@std@@V?$_List_iterator@V?$_List_val@U?$_List_simple_types@V?$array@E$02@std@@@std@@@std@@@2@@1@@Z
	??$_Kfn@$$CBV?$array@E$07@std@@UCachedCertificate@CertificateCache@v2@security@vanetza@@@?$_Tmap_traits@V?$array@E$07@std@@UCachedCertificate@CertificateCache@v2@security@vanetza@@U?$less@V?$array@E$07@std@@@2@V?$allocator@U?$pair@$$CBV?$array@E$07@std@@UCachedCertificate@CertificateCache@v2@security@vanetza@@@std@@@2@$00@std@@SAAEBV?$array@E$07@1@AEBU?$pair@$$CBV?$array@E$07@std@@UCachedCertificate@CertificateCache@v2@security@vanetza@@@1@@Z
	??$_Kfn@$$CBV?$array@E$07@std@@UCertificate@v2@security@vanetza@@@?$_Tmap_traits@V?$array@E$07@std@@UCertificate@v2@security@vanetza@@U?$less@V?$array@E$07@std@@@2@V?$allocator@U?$pair@$$CBV?$array@E$07@std@@UCertificate@v2@security@vanetza@@@std@@@2@$00@std@@SAAEBV?$array@E$07@1@AEBU?$pair@$$CBV?$array@E$07@std@@UCertificate@v2@security@vanetza@@@1@@Z
	??$_Kfn@$$CBV?$array@E$07@std@@UCertificate@v3@security@vanetza@@@?$_Umap_traits@V?$array@E$07@std@@UCertificate@v3@security@vanetza@@V?$_Uhash_compare@V?$array@E$07@std@@U?$hash@V?$array@E$07@std@@@2@U?$equal_to@V?$array@E$07@std@@@2@@2@V?$allocator@U?$pair@$$CBV?$array@E$07@std@@UCertificate@v3@security@vanetza@@@std@@@2@$0A@@std@@SAAEBV?$array@E$07@1@AEBU?$pair@$$CBV?$array@E$07@std@@UCertificate@v3@security@vanetza@@@1@@Z
	??$_Kfn@$$CBV?$basic_string@DU?$char_traits@D@std@@V?$allocator@D@2@@std@@V?$function@$$A6A?AV?$unique_ptr@VBackend@security@vanetza@@U?$default_delete@VBackend@security@vanetza@@@std@@@std@@XZ@2@@?$_Tmap_traits@V?$basic_string@DU?$char_traits@D@std@@V?$allocator@D@2@@std@@V?$function@$$A6A?AV?$unique_ptr@VBackend@security@vanetza@@U?$default_delete@VBackend@security@vanetza@@@std@@@std@@XZ@2@U?$less@V?$basic_string@DU?$char_traits@D@std@@V?$allocator@D@2@@std@@@2@V?$allocator@U?$pair@$$CBV?$basic_string@DU?$char_traits@D@std@@V?$allocator@D@2@@std@@V?$function@$$A6A?AV?$unique_ptr@VBackend@security@vanetza@@U?$default_delete@VBackend@security@vanetza@@@std@@@std@@XZ@2@@std@@@2@$0A@@std@@SAAEBV?$basic_string@DU?$char_traits@D@std@@V?$allocator@D@2@@1@AEBU?$pair@$$CBV?$basic_string@DU?$char_traits@D@std@@V?$allocator@D@2@@std@@V?$function@$$A6A?AV?$unique_ptr@VBackend@security@vanetza@@U?$default_delete@VBackend@security@vanetza@@@std@@@std@@XZ@2@@1@@Z
	??$_Lower_bound_duplicate@V?$array@E$02@std@@@?$_Tree@V?$_Tset_traits@V?$array@E$02@std@@U?$less@V?$array@E$02@std@@@2@V?$allocator@V?$array@E$02@std@@@2@$0A@@std@@@std@@IEBA_NQEAU?$_Tree_node@V?$array@E$02@std@@PEAX@1@AEBV?$array@E$02@1@@Z
	??$_Lower_bound_duplicate@V?$basic_string@DU?$char_traits@D@std@@V?$allocator@D@2@@std@@@?$_Tree@V?$_Tmap_traits@V?$basic_string@DU?$char_traits@D@std@@V?$allocator@D@2@@std@@V?$function@$$A6A?AV?$unique_ptr@VBackend@security@vanetza@@U?$default_delete@VBackend@security@vanetza@@@std@@@std@@XZ@2@U?$less@V?$basic_string@DU?$char_traits@D@std@@V?$allocator@D@2@@std@@@2@V?$allocator@U?$pair@$$CBV?$basic_string@DU?$char_traits@D@std@@V?$allocator@D@2@@std@@V?$function@$$A6A?AV?$unique_ptr@VBackend@security@vanetza@@U?$default_delete@VBackend@security@vanetza@@@std@@@std@@XZ@2@@std@@@2@$0A@@std@@@std@@IEBA_NQEAU?$_Tree_node@U?$pair@$$CBV?$basic_string@DU?$char_traits@D@std@@V?$allocator@D@2@@std@@V?$function@$$A6A?AV?$unique_ptr@VBackend@security@vanetza@@U?$default_delete@VBackend@security@vanetza@@@std@@@std@@XZ@2@@std@@PEAX@1@AEBV?$basic_string@DU?$char_traits@D@std@@V?$allocator@D@2@@1@@Z
	??$_Lower_bound_duplicate@W4CamPermission@security@vanetza@@@?$_Tree@V?$_Tset_traits@W4CamPermission@security@vanetza@@U?$less@W4CamPermission@security@vanetza@@@std@@V?$allocator@W4CamPermission@security@vanetza@@@5@$0A@@std@@@std@@IEBA_NQEAU?$_Tree_node@W4CamPermission@security@vanetza@@PEAX@1@AEBW4CamPermission@security@vanetza@@@Z
	??$_Maklocstr@D@std@@YAPEADPEBDPEADAEBU_Cvtvec@@@Z
	??$_Maklocstr@_W@std@@YAPEA_WPEBDPEA_WAEBU_Cvtvec@@@Z
	??$_Memcmp_count@PEBEPEBE@std@@YAHPEBE0_K@Z
	??$_Memcmp_ranges@PEBEPEBE@std@@YAHPEBE00@Z
	??$_Move_backward_unchecked@PEAEPEAE@std@@YAPEAEPEAE00@Z
	??$_Move_construct_from@U?$_Task_impl@E@details@Concurrency@@@?$_Ptr_base@U?$_Task_impl@E@details@Concurrency@@@std@@IEAAX$$QEAV01@@Z
	??$_Move_construct_from@U_ExceptionHolder@details@Concurrency@@@?$_Ptr_base@U_ExceptionHolder@details@Concurrency@@@std@@IEAAX$$QEAV01@@Z
	??$_Move_construct_from@U_Task_impl_base@details@Concurrency@@@?$_Ptr_base@U_Task_impl_base@details@Concurrency@@@std@@IEAAX$$QEAV01@@Z
	??$_Move_construct_from@Uscheduler_interface@Concurrency@@@?$_Ptr_base@Uscheduler_interface@Concurrency@@@std@@IEAAX$$QEAV01@@Z
	??$_Move_unchecked@PEAEPEAE@std@@YAPEAEPEAE00@Z
	??$_Move_unchecked@PEAIPEAI@std@@YAPEAIPEAI00@Z
	??$_Pocca@V?$allocator@D@std@@@std@@YAXAEAV?$allocator@D@0@AEBV10@@Z
	??$_Pocca@V?$allocator@E@std@@@std@@YAXAEAV?$allocator@E@0@AEBV10@@Z
	??$_Pocca@V?$allocator@I@std@@@std@@YAXAEAV?$allocator@I@0@AEBV10@@Z
	??$_Pocca@V?$allocator@PEAX@std@@@std@@YAXAEAV?$allocator@PEAX@0@AEBV10@@Z
	??$_Pocca@V?$allocator@U?$_List_node@UCertificate@v2@security@vanetza@@PEAX@std@@@std@@@std@@YAXAEAV?$allocator@U?$_List_node@UCertificate@v2@security@vanetza@@PEAX@std@@@0@AEBV10@@Z
	??$_Pocca@V?$allocator@U?$_List_node@UItsAidSsp@v2@security@vanetza@@PEAX@std@@@std@@@std@@YAXAEAV?$allocator@U?$_List_node@UItsAidSsp@v2@security@vanetza@@PEAX@std@@@0@AEBV10@@Z
	??$_Pocca@V?$allocator@U?$_List_node@URecipientInfo@v2@security@vanetza@@PEAX@std@@@std@@@std@@YAXAEAV?$allocator@U?$_List_node@URecipientInfo@v2@security@vanetza@@PEAX@std@@@0@AEBV10@@Z
	??$_Pocca@V?$allocator@U?$_List_node@URectangularRegion@v2@security@vanetza@@PEAX@std@@@std@@@std@@YAXAEAV?$allocator@U?$_List_node@URectangularRegion@v2@security@vanetza@@PEAX@std@@@0@AEBV10@@Z
	??$_Pocca@V?$allocator@U?$_List_node@UTwoDLocation@v2@security@vanetza@@PEAX@std@@@std@@@std@@YAXAEAV?$allocator@U?$_List_node@UTwoDLocation@v2@security@vanetza@@PEAX@std@@@0@AEBV10@@Z
	??$_Pocca@V?$allocator@U?$_List_node@V?$array@E$02@std@@PEAX@std@@@std@@@std@@YAXAEAV?$allocator@U?$_List_node@V?$array@E$02@std@@PEAX@std@@@0@AEBV10@@Z
	??$_Pocca@V?$allocator@U?$_List_node@V?$variant@IUStartAndEndValidity@v2@security@vanetza@@UStartAndDurationValidity@234@V?$variant@UNoneRegion@v2@security@vanetza@@UCircularRegion@234@V?$list@URectangularRegion@v2@security@vanetza@@V?$allocator@URectangularRegion@v2@security@vanetza@@@std@@@std@@V?$list@UTwoDLocation@v2@security@vanetza@@V?$allocator@UTwoDLocation@v2@security@vanetza@@@std@@@7@UIdentifiedRegion@234@@boost@@@boost@@PEAX@std@@@std@@@std@@YAXAEAV?$allocator@U?$_List_node@V?$variant@IUStartAndEndValidity@v2@security@vanetza@@UStartAndDurationValidity@234@V?$variant@UNoneRegion@v2@security@vanetza@@UCircularRegion@234@V?$list@URectangularRegion@v2@security@vanetza@@V?$allocator@URectangularRegion@v2@security@vanetza@@@std@@@std@@V?$list@UTwoDLocation@v2@security@vanetza@@V?$allocator@UTwoDLocation@v2@security@vanetza@@@std@@@7@UIdentifiedRegion@234@@boost@@@boost@@PEAX@std@@@0@AEBV10@@Z
	??$_Pocca@V?$allocator@U?$_List_node@V?$variant@UVerificationKey@v2@security@vanetza@@UEncryptionKey@234@USubjectAssurance@234@V?$variant@UX_Coordinate_Only@security@vanetza@@UCompressed_Lsb_Y_0@23@UCompressed_Lsb_Y_1@23@UUncompressed@23@@boost@@V?$list@VIntX@v2@security@vanetza@@V?$allocator@VIntX@v2@security@vanetza@@@std@@@std@@V?$list@UItsAidSsp@v2@security@vanetza@@V?$allocator@UItsAidSsp@v2@security@vanetza@@@std@@@std@@@boost@@PEAX@std@@@std@@@std@@YAXAEAV?$allocator@U?$_List_node@V?$variant@UVerificationKey@v2@security@vanetza@@UEncryptionKey@234@USubjectAssurance@234@V?$variant@UX_Coordinate_Only@security@vanetza@@UCompressed_Lsb_Y_0@23@UCompressed_Lsb_Y_1@23@UUncompressed@23@@boost@@V?$list@VIntX@v2@security@vanetza@@V?$allocator@VIntX@v2@security@vanetza@@@std@@@std@@V?$list@UItsAidSsp@v2@security@vanetza@@V?$allocator@UItsAidSsp@v2@security@vanetza@@@std@@@std@@@boost@@PEAX@std@@@0@AEBV10@@Z
	??$_Pocca@V?$allocator@U?$_List_node@VIntX@v2@security@vanetza@@PEAX@std@@@std@@@std@@YAXAEAV?$allocator@U?$_List_node@VIntX@v2@security@vanetza@@PEAX@std@@@0@AEBV10@@Z
	??$_Pocca@V?$allocator@UECPPoint@CryptoPP@@@std@@@std@@YAXAEAV?$allocator@UECPPoint@CryptoPP@@@0@AEBV10@@Z
	??$_Pocma@V?$allocator@D@std@@@std@@YAXAEAV?$allocator@D@0@0@Z
	??$_Pocma@V?$allocator@E@std@@@std@@YAXAEAV?$allocator@E@0@0@Z
	??$_Pocma@V?$allocator@U?$_List_node@UCertificate@v2@security@vanetza@@PEAX@std@@@std@@@std@@YAXAEAV?$allocator@U?$_List_node@UCertificate@v2@security@vanetza@@PEAX@std@@@0@0@Z
	??$_Pocma@V?$allocator@U?$_List_node@UItsAidSsp@v2@security@vanetza@@PEAX@std@@@std@@@std@@YAXAEAV?$allocator@U?$_List_node@UItsAidSsp@v2@security@vanetza@@PEAX@std@@@0@0@Z
	??$_Pocma@V?$allocator@U?$_List_node@URecipientInfo@v2@security@vanetza@@PEAX@std@@@std@@@std@@YAXAEAV?$allocator@U?$_List_node@URecipientInfo@v2@security@vanetza@@PEAX@std@@@0@0@Z
	??$_Pocma@V?$allocator@U?$_List_node@URectangularRegion@v2@security@vanetza@@PEAX@std@@@std@@@std@@YAXAEAV?$allocator@U?$_List_node@URectangularRegion@v2@security@vanetza@@PEAX@std@@@0@0@Z
	??$_Pocma@V?$allocator@U?$_List_node@UTwoDLocation@v2@security@vanetza@@PEAX@std@@@std@@@std@@YAXAEAV?$allocator@U?$_List_node@UTwoDLocation@v2@security@vanetza@@PEAX@std@@@0@0@Z
	??$_Pocma@V?$allocator@U?$_List_node@V?$array@E$02@std@@PEAX@std@@@std@@@std@@YAXAEAV?$allocator@U?$_List_node@V?$array@E$02@std@@PEAX@std@@@0@0@Z
	??$_Pocma@V?$allocator@U?$_List_node@V?$variant@IUStartAndEndValidity@v2@security@vanetza@@UStartAndDurationValidity@234@V?$variant@UNoneRegion@v2@security@vanetza@@UCircularRegion@234@V?$list@URectangularRegion@v2@security@vanetza@@V?$allocator@URectangularRegion@v2@security@vanetza@@@std@@@std@@V?$list@UTwoDLocation@v2@security@vanetza@@V?$allocator@UTwoDLocation@v2@security@vanetza@@@std@@@7@UIdentifiedRegion@234@@boost@@@boost@@PEAX@std@@@std@@@std@@YAXAEAV?$allocator@U?$_List_node@V?$variant@IUStartAndEndValidity@v2@security@vanetza@@UStartAndDurationValidity@234@V?$variant@UNoneRegion@v2@security@vanetza@@UCircularRegion@234@V?$list@URectangularRegion@v2@security@vanetza@@V?$allocator@URectangularRegion@v2@security@vanetza@@@std@@@std@@V?$list@UTwoDLocation@v2@security@vanetza@@V?$allocator@UTwoDLocation@v2@security@vanetza@@@std@@@7@UIdentifiedRegion@234@@boost@@@boost@@PEAX@std@@@0@0@Z
	??$_Pocma@V?$allocator@U?$_List_node@V?$variant@UVerificationKey@v2@security@vanetza@@UEncryptionKey@234@USubjectAssurance@234@V?$variant@UX_Coordinate_Only@security@vanetza@@UCompressed_Lsb_Y_0@23@UCompressed_Lsb_Y_1@23@UUncompressed@23@@boost@@V?$list@VIntX@v2@security@vanetza@@V?$allocator@VIntX@v2@security@vanetza@@@std@@@std@@V?$list@UItsAidSsp@v2@security@vanetza@@V?$allocator@UItsAidSsp@v2@security@vanetza@@@std@@@std@@@boost@@PEAX@std@@@std@@@std@@YAXAEAV?$allocator@U?$_List_node@V?$variant@UVerificationKey@v2@security@vanetza@@UEncryptionKey@234@USubjectAssurance@234@V?$variant@UX_Coordinate_Only@security@vanetza@@UCompressed_Lsb_Y_0@23@UCompressed_Lsb_Y_1@23@UUncompressed@23@@boost@@V?$list@VIntX@v2@security@vanetza@@V?$allocator@VIntX@v2@security@vanetza@@@std@@@std@@V?$list@UItsAidSsp@v2@security@vanetza@@V?$allocator@UItsAidSsp@v2@security@vanetza@@@std@@@std@@@boost@@PEAX@std@@@0@0@Z
	??$_Pocma@V?$allocator@U?$_List_node@V?$variant@_KUTime64WithStandardDeviation@v2@security@vanetza@@IUThreeDLocation@234@V?$list@V?$array@E$02@std@@V?$allocator@V?$array@E$02@std@@@2@@std@@VIntX@234@V?$variant@$$TV?$array@E$07@std@@V?$recursive_wrapper@UCertificate@v2@security@vanetza@@@boost@@V?$list@UCertificate@v2@security@vanetza@@V?$allocator@UCertificate@v2@security@vanetza@@@std@@@2@UCertificateDigestWithOtherAlgorithm@v2@security@vanetza@@@boost@@V?$variant@V?$array@E$0M@@std@@$$V@boost@@V?$list@URecipientInfo@v2@security@vanetza@@V?$allocator@URecipientInfo@v2@security@vanetza@@@std@@@7@@boost@@PEAX@std@@@std@@@std@@YAXAEAV?$allocator@U?$_List_node@V?$variant@_KUTime64WithStandardDeviation@v2@security@vanetza@@IUThreeDLocation@234@V?$list@V?$array@E$02@std@@V?$allocator@V?$array@E$02@std@@@2@@std@@VIntX@234@V?$variant@$$TV?$array@E$07@std@@V?$recursive_wrapper@UCertificate@v2@security@vanetza@@@boost@@V?$list@UCertificate@v2@security@vanetza@@V?$allocator@UCertificate@v2@security@vanetza@@@std@@@2@UCertificateDigestWithOtherAlgorithm@v2@security@vanetza@@@boost@@V?$variant@V?$array@E$0M@@std@@$$V@boost@@V?$list@URecipientInfo@v2@security@vanetza@@V?$allocator@URecipientInfo@v2@security@vanetza@@@std@@@7@@boost@@PEAX@std@@@0@0@Z
	??$_Pocma@V?$allocator@U?$_List_node@VIntX@v2@security@vanetza@@PEAX@std@@@std@@@std@@YAXAEAV?$allocator@U?$_List_node@VIntX@v2@security@vanetza@@PEAX@std@@@0@0@Z
	??$_Pocma@V?$allocator@U?$_Tree_node@U?$pair@$$CBW4OsiLayer@vanetza@@VByteBufferConvertible@2@@std@@PEAX@std@@@std@@@std@@YAXAEAV?$allocator@U?$_Tree_node@U?$pair@$$CBW4OsiLayer@vanetza@@VByteBufferConvertible@2@@std@@PEAX@std@@@0@0@Z
	??$_Reallocate_for@V<lambda_66f57f934f28d61049862f64df852ff0>@@PEBD@?$basic_string@DU?$char_traits@D@std@@V?$allocator@D@2@@std@@AEAAAEAV01@_KV<lambda_66f57f934f28d61049862f64df852ff0>@@PEBD@Z
	??$_Reallocate_grow_by@V<lambda_319d5e083f45f90dcdce5dce53cbb275>@@D@?$basic_string@DU?$char_traits@D@std@@V?$allocator@D@2@@std@@AEAAAEAV01@_KV<lambda_319d5e083f45f90dcdce5dce53cbb275>@@D@Z
	??$_Reallocate_grow_by@V<lambda_65e615be2a453ca0576c979606f46740>@@PEBD_K@?$basic_string@DU?$char_traits@D@std@@V?$allocator@D@2@@std@@AEAAAEAV01@_KV<lambda_65e615be2a453ca0576c979606f46740>@@PEBD_K@Z
	??$_Reallocate_grow_by@V<lambda_9013ee9e23efe4882b67eff5b0ecf103>@@$$V@?$basic_string@DU?$char_traits@D@std@@V?$allocator@D@2@@std@@AEAAAEAV01@_KV<lambda_9013ee9e23efe4882b67eff5b0ecf103>@@@Z
	??$_Reallocate_grow_by@V<lambda_e1befb086ad3257e3f042a63030725f7>@@_KD@?$basic_string@DU?$char_traits@D@std@@V?$allocator@D@2@@std@@AEAAAEAV01@_KV<lambda_e1befb086ad3257e3f042a63030725f7>@@_KD@Z
	??$_Reallocate_grow_by@V<lambda_f3a66ab6a0570788f31503db83886f49>@@_KPEBD_K@?$basic_string@DU?$char_traits@D@std@@V?$allocator@D@2@@std@@AEAAAEAV01@_KV<lambda_f3a66ab6a0570788f31503db83886f49>@@_KPEBD2@Z
	??$_Refancy@PEAD$0A@@std@@YAPEADPEAD@Z
	??$_Refancy@PEBD$0A@@std@@YAPEBDPEBD@Z
	??$_Reset@V<lambda_052e919cc0e5399df76dff3972c0cac1>@@@?$_Func_class@E$$V@std@@IEAAX$$QEAV<lambda_052e919cc0e5399df76dff3972c0cac1>@@@Z
	??$_Reset@V<lambda_2fa3e3d11fb97352afa77a4a13bfb543>@@@?$_Func_class@X$$V@std@@IEAAX$$QEAV<lambda_2fa3e3d11fb97352afa77a4a13bfb543>@@@Z
	??$_Reset@V<lambda_763529b0c7473cbc215a52d189ac9b18>@@@?$_Func_class@X$$V@std@@IEAAX$$QEAV<lambda_763529b0c7473cbc215a52d189ac9b18>@@@Z
	??$_Reset@V<lambda_f25c37099038263181b5186a3fa41b37>@@@?$_Func_class@X$$V@std@@IEAAX$$QEAV<lambda_f25c37099038263181b5186a3fa41b37>@@@Z
	??$_Resize@E@?$vector@EV?$allocator@E@std@@@std@@AEAAX_KAEBE@Z
	??$_Resize@I@?$vector@IV?$allocator@I@std@@@std@@AEAAX_KAEBI@Z
	??$_Resize@U?$format_item@DU?$char_traits@D@std@@V?$allocator@D@2@@detail@io@boost@@@?$vector@U?$format_item@DU?$char_traits@D@std@@V?$allocator@D@2@@detail@io@boost@@V?$allocator@U?$format_item@DU?$char_traits@D@std@@V?$allocator@D@2@@detail@io@boost@@@std@@@std@@AEAAX_KAEBU?$format_item@DU?$char_traits@D@std@@V?$allocator@D@2@@detail@io@boost@@@Z
	??$_Resize@U_Value_init_tag@std@@@?$vector@EV?$allocator@E@std@@@std@@AEAAX_KAEBU_Value_init_tag@1@@Z
	??$_Resize@U_Value_init_tag@std@@@?$vector@PEAXV?$allocator@PEAX@std@@@std@@AEAAX_KAEBU_Value_init_tag@1@@Z
	??$_Resize_reallocate@E@?$vector@EV?$allocator@E@std@@@std@@AEAAX_KAEBE@Z
	??$_Resize_reallocate@I@?$vector@IV?$allocator@I@std@@@std@@AEAAX_KAEBI@Z
	??$_Resize_reallocate@U?$format_item@DU?$char_traits@D@std@@V?$allocator@D@2@@detail@io@boost@@@?$vector@U?$format_item@DU?$char_traits@D@std@@V?$allocator@D@2@@detail@io@boost@@V?$allocator@U?$format_item@DU?$char_traits@D@std@@V?$allocator@D@2@@detail@io@boost@@@std@@@std@@AEAAX_KAEBU?$format_item@DU?$char_traits@D@std@@V?$allocator@D@2@@detail@io@boost@@@Z
	??$_Resize_reallocate@U_Value_init_tag@std@@@?$vector@EV?$allocator@E@std@@@std@@AEAAX_KAEBU_Value_init_tag@1@@Z
	??$_Resize_reallocate@U_Value_init_tag@std@@@?$vector@PEAXV?$allocator@PEAX@std@@@std@@AEAAX_KAEBU_Value_init_tag@1@@Z
	??$_Seek_to@PEAE$0A@@?$reverse_iterator@V?$_Array_iterator@E$02@std@@@std@@QEAAXAEBV?$reverse_iterator@PEAE@1@@Z
	??$_Seek_wrapped@PEAEAEAPEAE@std@@YAXAEAPEAE0@Z
	??$_Seek_wrapped@PEAEPEAE@std@@YAXAEAPEAE$$QEAPEAE@Z
	??$_Seek_wrapped@V?$_Array_iterator@E$07@std@@PEAE@std@@YAXAEAV?$_Array_iterator@E$07@0@$$QEAPEAE@Z
	??$_Seek_wrapped@V?$_Array_iterator@E$0CA@@std@@AEAPEAE@std@@YAXAEAV?$_Array_iterator@E$0CA@@0@AEAPEAE@Z
	??$_Seek_wrapped@V?$_Array_iterator@E$0DA@@std@@AEAPEAE@std@@YAXAEAV?$_Array_iterator@E$0DA@@0@AEAPEAE@Z
	??$_Seek_wrapped@V?$_Vb_iterator@U?$_Wrap_alloc@V?$allocator@I@std@@@std@@@std@@V12@@std@@YAXAEAV?$_Vb_iterator@U?$_Wrap_alloc@V?$allocator@I@std@@@std@@@0@$$QEAV10@@Z
	??$_Seek_wrapped@V?$back_insert_iterator@V?$vector@EV?$allocator@E@std@@@std@@@std@@AEAV12@@std@@YAXAEAV?$back_insert_iterator@V?$vector@EV?$allocator@E@std@@@std@@@0@0@Z
	??$_Seek_wrapped@V?$back_insert_iterator@V?$vector@EV?$allocator@E@std@@@std@@@std@@V12@@std@@YAXAEAV?$back_insert_iterator@V?$vector@EV?$allocator@E@std@@@std@@@0@$$QEAV10@@Z
	??$_Seek_wrapped@V?$reverse_iterator@V?$_Array_iterator@E$02@std@@@std@@AEAV?$reverse_iterator@PEAE@2@@std@@YAXAEAV?$reverse_iterator@V?$_Array_iterator@E$02@std@@@0@AEAV?$reverse_iterator@PEAE@0@@Z
	??$_Set_ptr_rep_and_enable_shared@U?$_Task_impl@E@details@Concurrency@@@?$shared_ptr@U?$_Task_impl@E@details@Concurrency@@@std@@AEAAXQEAU?$_Task_impl@E@details@Concurrency@@QEAV_Ref_count_base@1@@Z
	??$_Set_ptr_rep_and_enable_shared@U_ExceptionHolder@details@Concurrency@@@?$shared_ptr@U_ExceptionHolder@details@Concurrency@@@std@@AEAAXQEAU_ExceptionHolder@details@Concurrency@@QEAV_Ref_count_base@1@@Z
	??$_Swap_adl@PEAU?$_List_node@IPEAX@std@@@std@@YAXAEAPEAU?$_List_node@IPEAX@0@0@Z
	??$_Swap_adl@PEAU?$_List_node@UCertificate@v2@security@vanetza@@PEAX@std@@@std@@YAXAEAPEAU?$_List_node@UCertificate@v2@security@vanetza@@PEAX@0@0@Z
	??$_Swap_adl@PEAU?$_List_node@UItsAidSsp@v2@security@vanetza@@PEAX@std@@@std@@YAXAEAPEAU?$_List_node@UItsAidSsp@v2@security@vanetza@@PEAX@0@0@Z
	??$_Swap_adl@PEAU?$_List_node@URecipientInfo@v2@security@vanetza@@PEAX@std@@@std@@YAXAEAPEAU?$_List_node@URecipientInfo@v2@security@vanetza@@PEAX@0@0@Z
	??$_Swap_adl@PEAU?$_List_node@URectangularRegion@v2@security@vanetza@@PEAX@std@@@std@@YAXAEAPEAU?$_List_node@URectangularRegion@v2@security@vanetza@@PEAX@0@0@Z
	??$_Swap_adl@PEAU?$_List_node@UTwoDLocation@v2@security@vanetza@@PEAX@std@@@std@@YAXAEAPEAU?$_List_node@UTwoDLocation@v2@security@vanetza@@PEAX@0@0@Z
	??$_Swap_adl@PEAU?$_List_node@V?$array@E$02@std@@PEAX@std@@@std@@YAXAEAPEAU?$_List_node@V?$array@E$02@std@@PEAX@0@0@Z
	??$_Swap_adl@PEAU?$_List_node@V?$variant@IUStartAndEndValidity@v2@security@vanetza@@UStartAndDurationValidity@234@V?$variant@UNoneRegion@v2@security@vanetza@@UCircularRegion@234@V?$list@URectangularRegion@v2@security@vanetza@@V?$allocator@URectangularRegion@v2@security@vanetza@@@std@@@std@@V?$list@UTwoDLocation@v2@security@vanetza@@V?$allocator@UTwoDLocation@v2@security@vanetza@@@std@@@7@UIdentifiedRegion@234@@boost@@@boost@@PEAX@std@@@std@@YAXAEAPEAU?$_List_node@V?$variant@IUStartAndEndValidity@v2@security@vanetza@@UStartAndDurationValidity@234@V?$variant@UNoneRegion@v2@security@vanetza@@UCircularRegion@234@V?$list@URectangularRegion@v2@security@vanetza@@V?$allocator@URectangularRegion@v2@security@vanetza@@@std@@@std@@V?$list@UTwoDLocation@v2@security@vanetza@@V?$allocator@UTwoDLocation@v2@security@vanetza@@@std@@@7@UIdentifiedRegion@234@@boost@@@boost@@PEAX@0@0@Z
	??$_Swap_adl@PEAU?$_List_node@V?$variant@USignature@v2@security@vanetza@@$$V@boost@@PEAX@std@@@std@@YAXAEAPEAU?$_List_node@V?$variant@USignature@v2@security@vanetza@@$$V@boost@@PEAX@0@0@Z
	??$_Swap_adl@PEAU?$_List_node@V?$variant@UVerificationKey@v2@security@vanetza@@UEncryptionKey@234@USubjectAssurance@234@V?$variant@UX_Coordinate_Only@security@vanetza@@UCompressed_Lsb_Y_0@23@UCompressed_Lsb_Y_1@23@UUncompressed@23@@boost@@V?$list@VIntX@v2@security@vanetza@@V?$allocator@VIntX@v2@security@vanetza@@@std@@@std@@V?$list@UItsAidSsp@v2@security@vanetza@@V?$allocator@UItsAidSsp@v2@security@vanetza@@@std@@@std@@@boost@@PEAX@std@@@std@@YAXAEAPEAU?$_List_node@V?$variant@UVerificationKey@v2@security@vanetza@@UEncryptionKey@234@USubjectAssurance@234@V?$variant@UX_Coordinate_Only@security@vanetza@@UCompressed_Lsb_Y_0@23@UCompressed_Lsb_Y_1@23@UUncompressed@23@@boost@@V?$list@VIntX@v2@security@vanetza@@V?$allocator@VIntX@v2@security@vanetza@@@std@@@std@@V?$list@UItsAidSsp@v2@security@vanetza@@V?$allocator@UItsAidSsp@v2@security@vanetza@@@std@@@std@@@boost@@PEAX@0@0@Z
	??$_Swap_adl@PEAU?$_List_node@V?$variant@_KUTime64WithStandardDeviation@v2@security@vanetza@@IUThreeDLocation@234@V?$list@V?$array@E$02@std@@V?$allocator@V?$array@E$02@std@@@2@@std@@VIntX@234@V?$variant@$$TV?$array@E$07@std@@V?$recursive_wrapper@UCertificate@v2@security@vanetza@@@boost@@V?$list@UCertificate@v2@security@vanetza@@V?$allocator@UCertificate@v2@security@vanetza@@@std@@@2@UCertificateDigestWithOtherAlgorithm@v2@security@vanetza@@@boost@@V?$variant@V?$array@E$0M@@std@@$$V@boost@@V?$list@URecipientInfo@v2@security@vanetza@@V?$allocator@URecipientInfo@v2@security@vanetza@@@std@@@7@@boost@@PEAX@std@@@std@@YAXAEAPEAU?$_List_node@V?$variant@_KUTime64WithStandardDeviation@v2@security@vanetza@@IUThreeDLocation@234@V?$list@V?$array@E$02@std@@V?$allocator@V?$array@E$02@std@@@2@@std@@VIntX@234@V?$variant@$$TV?$array@E$07@std@@V?$recursive_wrapper@UCertificate@v2@security@vanetza@@@boost@@V?$list@UCertificate@v2@security@vanetza@@V?$allocator@UCertificate@v2@security@vanetza@@@std@@@2@UCertificateDigestWithOtherAlgorithm@v2@security@vanetza@@@boost@@V?$variant@V?$array@E$0M@@std@@$$V@boost@@V?$list@URecipientInfo@v2@security@vanetza@@V?$allocator@URecipientInfo@v2@security@vanetza@@@std@@@7@@boost@@PEAX@0@0@Z
	??$_Swap_adl@PEAU?$_List_node@VIntX@v2@security@vanetza@@PEAX@std@@@std@@YAXAEAPEAU?$_List_node@VIntX@v2@security@vanetza@@PEAX@0@0@Z
	??$_Swap_adl@PEAU?$_Tree_node@U?$pair@$$CBW4OsiLayer@vanetza@@VByteBufferConvertible@2@@std@@PEAX@std@@@std@@YAXAEAPEAU?$_Tree_node@U?$pair@$$CBW4OsiLayer@vanetza@@VByteBufferConvertible@2@@std@@PEAX@0@0@Z
	??$_Swap_adl@PEAU?$_Tree_node@W4CamPermission@security@vanetza@@PEAX@std@@@std@@YAXAEAPEAU?$_Tree_node@W4CamPermission@security@vanetza@@PEAX@0@0@Z
	??$_Test_callable@V<lambda_052e919cc0e5399df76dff3972c0cac1>@@@std@@YA_NAEBV<lambda_052e919cc0e5399df76dff3972c0cac1>@@@Z
	??$_Test_callable@V<lambda_2fa3e3d11fb97352afa77a4a13bfb543>@@@std@@YA_NAEBV<lambda_2fa3e3d11fb97352afa77a4a13bfb543>@@@Z
	??$_Test_callable@V<lambda_763529b0c7473cbc215a52d189ac9b18>@@@std@@YA_NAEBV<lambda_763529b0c7473cbc215a52d189ac9b18>@@@Z
	??$_Test_callable@V<lambda_f25c37099038263181b5186a3fa41b37>@@@std@@YA_NAEBV<lambda_f25c37099038263181b5186a3fa41b37>@@@Z
	??$_To_address@PEAD@std@@YA?A_PAEBQEAD@Z
