EXPORTS 
	?bssid_wildcard@dot11@ieee802@access@vanetza@@3VMacAddress@4@B 	 DATA
	??$?6U?$char_traits@D@std@@@std@@YAAEAV?$basic_ostream@DU?$char_traits@D@std@@@0@AEAV10@PEBD@Z
	??$_Memcmp_ranges@PEBEPEBE@std@@YAHPEBE00@Z
	??$convert_endian@G$00$0A@@detail@vanetza@@YAGAEBG@Z
	??$deserialize@E@vanetza@@YAXAEAVInputArchive@0@AEAE@Z
	??$deserialize@G$0A@@vanetza@@YAXAEAVInputArchive@0@AEAV?$EndianType@G$0A@@0@@Z
	??$endian_cast@$00G@vanetza@@YA?AV?$EndianType@G$00@0@G@Z
	??$endian_cast@$0A@G@vanetza@@YA?AV?$EndianType@G$0A@@0@G@Z
	??$host_cast@G@vanetza@@YA?AV?$EndianType@G$00@0@G@Z
	??$hton@E@vanetza@@YAEE@Z
	??$network_cast@G@vanetza@@YA?AV?$EndianType@G$0A@@0@G@Z
	??$ntoh@E@vanetza@@YAEE@Z
	??$serialize@E@vanetza@@YAXAEAVOutputArchive@0@E@Z
	??$serialize@G$0A@@vanetza@@YAXAEAVOutputArchive@0@V?$EndianType@G$0A@@0@@Z
	??0G5LinkLayer@access@vanetza@@QEAA@XZ
	??1_Sentry_base@?$basic_ostream@DU?$char_traits@D@std@@@std@@QEAA@XZ
	??1sentry@?$basic_ostream@DU?$char_traits@D@std@@@std@@QEAA@XZ
	??6access@vanetza@@YAAEAV?$basic_ostream@DU?$char_traits@D@std@@@std@@AEAV23@W4AccessCategory@01@@Z
	??8ieee802@access@vanetza@@YA_NAEBULlcSnapHeader@012@0@Z
	??9ieee802@access@vanetza@@YA_NAEBULlcSnapHeader@012@0@Z
	?check_fixed_fields@access@vanetza@@YA_NAEBUG5LinkLayer@12@@Z
	?data_length@DataRateG5@access@vanetza@@QEBA_K_K@Z
	?deserialize@access@vanetza@@YAXAEAVInputArchive@2@AEAUG5LinkLayer@12@@Z
	?deserialize@dot11@ieee802@access@vanetza@@YAXAEAVInputArchive@4@AEAUQosDataHeader@1234@@Z
	?deserialize@ieee802@access@vanetza@@YAXAEAVInputArchive@3@AEAULlcSnapHeader@123@@Z
	?qos_data_frame@FrameControl@dot11@ieee802@access@vanetza@@SA?AU12345@XZ
	?serialize@access@vanetza@@YAXAEAVOutputArchive@2@AEBUG5LinkLayer@12@@Z
	?serialize@dot11@ieee802@access@vanetza@@YAXAEAVOutputArchive@4@AEBUQosDataHeader@1234@@Z
	?serialize@ieee802@access@vanetza@@YAXAEAVOutputArchive@3@AEBULlcSnapHeader@123@@Z
	?user_priority@QosControl@dot11@ieee802@access@vanetza@@QEAAXW4AccessCategory@45@@Z
