EXPORTS 
	??_R0?AU?$wrapexcept@Vbad_format_string@io@boost@@@boost@@@8 	 DATA
	??_R0?AU?$wrapexcept@Vlength_error@std@@@boost@@@8 	 DATA
	??_R0?AU?$wrapexcept@Vtoo_few_args@io@boost@@@boost@@@8 	 DATA
	??_R0?AU?$wrapexcept@Vtoo_many_args@io@boost@@@boost@@@8 	 DATA
	??_R0?AUPendingTransmission@FlowControl@dcc@vanetza@@@8 	 DATA
	??_R0?AUTransmissionLite@dcc@vanetza@@@8 	 DATA
	??_R0?AV?$_Binder@U_Unforced@std@@P8FlowControl@dcc@vanetza@@EAAXXZPEAV345@@std@@@8 	 DATA
	??_R0?AV?$_Func_base@XV?$time_point@VClock@vanetza@@V?$duration@_JU?$ratio@$00$0PECEA@@std@@@chrono@std@@@chrono@std@@@std@@@8 	 DATA
	??_R0?AV?$_Func_impl_no_alloc@V?$_Binder@U_Unforced@std@@P8FlowControl@dcc@vanetza@@EAAXXZPEAV345@@std@@XV?$time_point@VClock@vanetza@@V?$duration@_JU?$ratio@$00$0PECEA@@std@@@chrono@std@@@chrono@2@@std@@@8 	 DATA
	??_R0?AV?$_Iosb@H@std@@@8 	 DATA
	??_R0?AV?$base_from_member@V?$shared_ptr@V?$basic_altstringbuf@DU?$char_traits@D@std@@V?$allocator@D@2@@io@boost@@@boost@@$0A@@boost@@@8 	 DATA
	??_R0?AV?$basic_altstringbuf@DU?$char_traits@D@std@@V?$allocator@D@2@@io@boost@@@8 	 DATA
	??_R0?AV?$basic_ios@DU?$char_traits@D@std@@@std@@@8 	 DATA
	??_R0?AV?$basic_oaltstringstream@DU?$char_traits@D@std@@V?$allocator@D@2@@io@boost@@@8 	 DATA
	??_R0?AV?$basic_ostream@DU?$char_traits@D@std@@@std@@@8 	 DATA
	??_R0?AV?$basic_streambuf@DU?$char_traits@D@std@@@std@@@8 	 DATA
	??_R0?AV?$sp_counted_impl_pd@PEAV?$basic_altstringbuf@DU?$char_traits@D@std@@V?$allocator@D@2@@io@boost@@VNo_Op@?$basic_oaltstringstream@DU?$char_traits@D@std@@V?$allocator@D@2@@23@@detail@boost@@@8 	 DATA
	??_R0?AVActive@dcc@vanetza@@@8 	 DATA
	??_R0?AVBurstyTransmitRateControl@dcc@vanetza@@@8 	 DATA
	??_R0?AVChannelProbeProcessor@dcc@vanetza@@@8 	 DATA
	??_R0?AVDutyCyclePermit@dcc@vanetza@@@8 	 DATA
	??_R0?AVFlowControl@dcc@vanetza@@@8 	 DATA
	??_R0?AVFullyMeshedStateMachine@dcc@vanetza@@@8 	 DATA
	??_R0?AVGradualStateMachine@dcc@vanetza@@@8 	 DATA
	??_R0?AVHookedChannelProbeProcessor@dcc@vanetza@@@8 	 DATA
	??_R0?AVLimeric@dcc@vanetza@@@8 	 DATA
	??_R0?AVLimericTransmitRateControl@dcc@vanetza@@@8 	 DATA
	??_R0?AVNo_Op@?$basic_oaltstringstream@DU?$char_traits@D@std@@V?$allocator@D@2@@io@boost@@@8 	 DATA
	??_R0?AVRelaxed@dcc@vanetza@@@8 	 DATA
	??_R0?AVRequestInterface@dcc@vanetza@@@8 	 DATA
	??_R0?AVRestrictive@dcc@vanetza@@@8 	 DATA
	??_R0?AVSingleReactiveTransmitRateControl@dcc@vanetza@@@8 	 DATA
	??_R0?AVSmoothingChannelProbeProcessor@dcc@vanetza@@@8 	 DATA
	??_R0?AVState@dcc@vanetza@@@8 	 DATA
	??_R0?AVStateMachine@dcc@vanetza@@@8 	 DATA
	??_R0?AVTransmission@dcc@vanetza@@@8 	 DATA
	??_R0?AVTransmitRateControl@dcc@vanetza@@@8 	 DATA
	??_R0?AVTransmitRateFeedback@dcc@vanetza@@@8 	 DATA
	??_R0?AVTransmitRateThrottle@dcc@vanetza@@@8 	 DATA
	??_R0?AVbad_alloc@std@@@8 	 DATA
	??_R0?AVbad_array_new_length@std@@@8 	 DATA
	??_R0?AVbad_cast@std@@@8 	 DATA
	??_R0?AVbad_format_string@io@boost@@@8 	 DATA
	??_R0?AVclone_base@exception_detail@boost@@@8 	 DATA
	??_R0?AVexception@boost@@@8 	 DATA
	??_R0?AVexception@std@@@8 	 DATA
	??_R0?AVformat_error@io@boost@@@8 	 DATA
	??_R0?AVinvalid_argument@std@@@8 	 DATA
	??_R0?AVios_base@std@@@8 	 DATA
	??_R0?AVlength_error@std@@@8 	 DATA
	??_R0?AVlogic_error@std@@@8 	 DATA
	??_R0?AVsp_counted_base@detail@boost@@@8 	 DATA
	??_R0?AVtoo_few_args@io@boost@@@8 	 DATA
	??_R0?AVtoo_many_args@io@boost@@@8 	 DATA
	?_Psave@?$_Facetptr@V?$ctype@D@std@@@std@@2PEBVfacet@locale@2@EB 	 DATA
	??$?0$$CBW4AccessCategory@access@vanetza@@V?$list@UPendingTransmission@FlowControl@dcc@vanetza@@V?$allocator@UPendingTransmission@FlowControl@dcc@vanetza@@@std@@@std@@$0A@@?$pair@W4AccessCategory@access@vanetza@@AEBV?$list@UPendingTransmission@FlowControl@dcc@vanetza@@V?$allocator@UPendingTransmission@FlowControl@dcc@vanetza@@@std@@@std@@@std@@QEAA@AEBU?$pair@$$CBW4AccessCategory@access@vanetza@@V?$list@UPendingTransmission@FlowControl@dcc@vanetza@@V?$allocator@UPendingTransmission@FlowControl@dcc@vanetza@@@std@@@std@@@1@@Z
	??$?0$$CB_J@?$put_holder@DU?$char_traits@D@std@@@detail@io@boost@@QEAA@AEB_J@Z
	??$?0$$V@?$_Compressed_pair@V?$allocator@D@std@@V?$_String_val@U?$_Simple_types@D@std@@@2@$00@std@@QEAA@U_Zero_then_variadic_args_t@1@@Z
	??$?0$$V@?$_Compressed_pair@V?$allocator@I@std@@V?$_Vector_val@U?$_Simple_types@I@std@@@2@$00@std@@QEAA@U_Zero_then_variadic_args_t@1@@Z
	??$?0$$V@?$_Compressed_pair@V?$allocator@U?$_List_node@UPendingTransmission@FlowControl@dcc@vanetza@@PEAX@std@@@std@@V?$_List_val@U?$_List_simple_types@UPendingTransmission@FlowControl@dcc@vanetza@@@std@@@2@$00@std@@QEAA@U_Zero_then_variadic_args_t@1@@Z
	??$?0$$V@?$_Compressed_pair@V?$allocator@U?$_Tree_node@U?$pair@$$CBW4AccessCategory@access@vanetza@@V?$list@UPendingTransmission@FlowControl@dcc@vanetza@@V?$allocator@UPendingTransmission@FlowControl@dcc@vanetza@@@std@@@std@@@std@@PEAX@std@@@std@@V?$_Tree_val@U?$_Tree_simple_types@U?$pair@$$CBW4AccessCategory@access@vanetza@@V?$list@UPendingTransmission@FlowControl@dcc@vanetza@@V?$allocator@UPendingTransmission@FlowControl@dcc@vanetza@@@std@@@std@@@std@@@std@@@2@$00@std@@QEAA@U_Zero_then_variadic_args_t@1@@Z
	??$?0$$V@?$_Compressed_pair@V?$allocator@U?$_Tree_node@UState@GradualStateMachine@dcc@vanetza@@PEAX@std@@@std@@V?$_Tree_val@U?$_Tree_simple_types@UState@GradualStateMachine@dcc@vanetza@@@std@@@2@$00@std@@QEAA@U_Zero_then_variadic_args_t@1@@Z
	??$?0$$V@?$_Compressed_pair@V?$allocator@U?$format_item@DU?$char_traits@D@std@@V?$allocator@D@2@@detail@io@boost@@@std@@V?$_Vector_val@U?$_Simple_types@U?$format_item@DU?$char_traits@D@std@@V?$allocator@D@2@@detail@io@boost@@@std@@@2@$00@std@@QEAA@U_Zero_then_variadic_args_t@1@@Z
	??$?0AEAPEAU?$_Tree_node@UState@GradualStateMachine@dcc@vanetza@@PEAX@std@@_N$0A@@?$pair@PEAU?$_Tree_node@UState@GradualStateMachine@dcc@vanetza@@PEAX@std@@_N@std@@QEAA@AEAPEAU?$_Tree_node@UState@GradualStateMachine@dcc@vanetza@@PEAX@1@$$QEA_N@Z
	??$?0AEAPEAV?$basic_altstringbuf@DU?$char_traits@D@std@@V?$allocator@D@2@@io@boost@@VNo_Op@?$basic_oaltstringstream@DU?$char_traits@D@std@@V?$allocator@D@2@@12@X@?$base_from_member@V?$shared_ptr@V?$basic_altstringbuf@DU?$char_traits@D@std@@V?$allocator@D@2@@io@boost@@@boost@@$0A@@boost@@IEAA@AEAPEAV?$basic_altstringbuf@DU?$char_traits@D@std@@V?$allocator@D@2@@io@1@$$QEAVNo_Op@?$basic_oaltstringstream@DU?$char_traits@D@std@@V?$allocator@D@2@@31@@Z
	??$?0AEAPEAV_Facet_base@std@@@?$_Compressed_pair@U?$default_delete@V_Facet_base@std@@@std@@PEAV_Facet_base@2@$00@std@@QEAA@U_Zero_then_variadic_args_t@1@AEAPEAV_Facet_base@1@@Z
	??$?0AEAV?$time_point@VClock@vanetza@@V?$duration@_JU?$ratio@$00$0PECEA@@std@@@chrono@std@@@chrono@std@@AEBUDataRequest@dcc@vanetza@@V?$unique_ptr@VChunkPacket@vanetza@@U?$default_delete@VChunkPacket@vanetza@@@std@@@2@@?$_List_node_emplace_op2@V?$allocator@U?$_List_node@UPendingTransmission@FlowControl@dcc@vanetza@@PEAX@std@@@std@@@std@@QEAA@AEAV?$allocator@U?$_List_node@UPendingTransmission@FlowControl@dcc@vanetza@@PEAX@std@@@1@AEAV?$time_point@VClock@vanetza@@V?$duration@_JU?$ratio@$00$0PECEA@@std@@@chrono@std@@@chrono@1@AEBUDataRequest@dcc@vanetza@@$$QEAV?$unique_ptr@VChunkPacket@vanetza@@U?$default_delete@VChunkPacket@vanetza@@@std@@@1@@Z
	??$?0AEBQEAU?$_Tree_node@U?$pair@$$CBW4AccessCategory@access@vanetza@@V?$list@UPendingTransmission@FlowControl@dcc@vanetza@@V?$allocator@UPendingTransmission@FlowControl@dcc@vanetza@@@std@@@std@@@std@@PEAX@std@@_N$0A@@?$pair@PEAU?$_Tree_node@U?$pair@$$CBW4AccessCategory@access@vanetza@@V?$list@UPendingTransmission@FlowControl@dcc@vanetza@@V?$allocator@UPendingTransmission@FlowControl@dcc@vanetza@@@std@@@std@@@std@@PEAX@std@@_N@std@@QEAA@AEBQEAU?$_Tree_node@U?$pair@$$CBW4AccessCategory@access@vanetza@@V?$list@UPendingTransmission@FlowControl@dcc@vanetza@@V?$allocator@UPendingTransmission@FlowControl@dcc@vanetza@@@std@@@std@@@std@@PEAX@1@$$QEA_N@Z
	??$?0AEBU?$greater@W4AccessCategory@access@vanetza@@@std@@U_Zero_then_variadic_args_t@1@@?$_Compressed_pair@U?$greater@W4AccessCategory@access@vanetza@@@std@@V?$_Compressed_pair@V?$allocator@U?$_Tree_node@U?$pair@$$CBW4AccessCategory@access@vanetza@@V?$list@UPendingTransmission@FlowControl@dcc@vanetza@@V?$allocator@UPendingTransmission@FlowControl@dcc@vanetza@@@std@@@std@@@std@@PEAX@std@@@std@@V?$_Tree_val@U?$_Tree_simple_types@U?$pair@$$CBW4AccessCategory@access@vanetza@@V?$list@UPendingTransmission@FlowControl@dcc@vanetza@@V?$allocator@UPendingTransmission@FlowControl@dcc@vanetza@@@std@@@std@@@std@@@std@@@2@$00@2@$00@std@@QEAA@U_One_then_variadic_args_t@1@AEBU?$greater@W4AccessCategory@access@vanetza@@@1@$$QEAU_Zero_then_variadic_args_t@1@@Z
	??$?0AEBU?$less@UState@GradualStateMachine@dcc@vanetza@@@std@@U_Zero_then_variadic_args_t@1@@?$_Compressed_pair@U?$less@UState@GradualStateMachine@dcc@vanetza@@@std@@V?$_Compressed_pair@V?$allocator@U?$_Tree_node@UState@GradualStateMachine@dcc@vanetza@@PEAX@std@@@std@@V?$_Tree_val@U?$_Tree_simple_types@UState@GradualStateMachine@dcc@vanetza@@@std@@@2@$00@2@$00@std@@QEAA@U_One_then_variadic_args_t@1@AEBU?$less@UState@GradualStateMachine@dcc@vanetza@@@1@$$QEAU_Zero_then_variadic_args_t@1@@Z
	??$?0AEBUState@GradualStateMachine@dcc@vanetza@@@?$_Tree_temp_node@V?$allocator@U?$_Tree_node@UState@GradualStateMachine@dcc@vanetza@@PEAX@std@@@std@@@std@@QEAA@AEAV?$allocator@U?$_Tree_node@UState@GradualStateMachine@dcc@vanetza@@PEAX@std@@@1@PEAU?$_Tree_node@UState@GradualStateMachine@dcc@vanetza@@PEAX@1@AEBUState@GradualStateMachine@dcc@vanetza@@@Z
	??$?0AEBUpiecewise_construct_t@std@@V?$tuple@AEBW4AccessCategory@access@vanetza@@@1@V?$tuple@$$V@1@@?$_Tree_temp_node@V?$allocator@U?$_Tree_node@U?$pair@$$CBW4AccessCategory@access@vanetza@@V?$list@UPendingTransmission@FlowControl@dcc@vanetza@@V?$allocator@UPendingTransmission@FlowControl@dcc@vanetza@@@std@@@std@@@std@@PEAX@std@@@std@@@std@@QEAA@AEAV?$allocator@U?$_Tree_node@U?$pair@$$CBW4AccessCategory@access@vanetza@@V?$list@UPendingTransmission@FlowControl@dcc@vanetza@@V?$allocator@UPendingTransmission@FlowControl@dcc@vanetza@@@std@@@std@@@std@@PEAX@std@@@1@PEAU?$_Tree_node@U?$pair@$$CBW4AccessCategory@access@vanetza@@V?$list@UPendingTransmission@FlowControl@dcc@vanetza@@V?$allocator@UPendingTransmission@FlowControl@dcc@vanetza@@@std@@@std@@@std@@PEAX@1@AEBUpiecewise_construct_t@1@$$QEAV?$tuple@AEBW4AccessCategory@access@vanetza@@@1@$$QEAV?$tuple@$$V@1@@Z
	??$?0AEBV?$_Binder@U_Unforced@std@@P8FlowControl@dcc@vanetza@@EAAXXZPEAV345@@std@@$0A@@?$_Func_impl_no_alloc@V?$_Binder@U_Unforced@std@@P8FlowControl@dcc@vanetza@@EAAXXZPEAV345@@std@@XV?$time_point@VClock@vanetza@@V?$duration@_JU?$ratio@$00$0PECEA@@std@@@chrono@std@@@chrono@2@@std@@QEAA@AEBV?$_Binder@U_Unforced@std@@P8FlowControl@dcc@vanetza@@EAAXXZPEAV345@@1@@Z
	??$?0AEBV?$allocator@V?$time_point@VClock@vanetza@@V?$duration@_JU?$ratio@$00$0PECEA@@std@@@chrono@std@@@chrono@std@@@std@@$$V@?$empty_value@V?$allocator@V?$time_point@VClock@vanetza@@V?$duration@_JU?$ratio@$00$0PECEA@@std@@@chrono@std@@@chrono@std@@@std@@$0A@$00@empty_@boost@@QEAA@Uempty_init_t@2@AEBV?$allocator@V?$time_point@VClock@vanetza@@V?$duration@_JU?$ratio@$00$0PECEA@@std@@@chrono@std@@@chrono@std@@@std@@@Z
	??$?0AEBV?$allocator@VChannelLoad@dcc@vanetza@@@std@@$$V@?$empty_value@V?$allocator@VChannelLoad@dcc@vanetza@@@std@@$0A@$00@empty_@boost@@QEAA@Uempty_init_t@2@AEBV?$allocator@VChannelLoad@dcc@vanetza@@@std@@@Z
	??$?0AEBW4AccessCategory@access@vanetza@@$$Z$$V@?$pair@$$CBW4AccessCategory@access@vanetza@@V?$list@UPendingTransmission@FlowControl@dcc@vanetza@@V?$allocator@UPendingTransmission@FlowControl@dcc@vanetza@@@std@@@std@@@std@@QEAA@Upiecewise_construct_t@1@V?$tuple@AEBW4AccessCategory@access@vanetza@@@1@V?$tuple@$$V@1@@Z
	??$?0AEBW4AccessCategory@access@vanetza@@$0A@@?$tuple@AEBW4AccessCategory@access@vanetza@@@std@@QEAA@AEBW4AccessCategory@access@vanetza@@@Z
	??$?0AEBW4AccessCategory@access@vanetza@@@?$_Tuple_val@AEBW4AccessCategory@access@vanetza@@@std@@QEAA@AEBW4AccessCategory@access@vanetza@@@Z
	??$?0D@?$allocator@U_Container_proxy@std@@@std@@QEAA@AEBV?$allocator@D@1@@Z
	??$?0H$0A@@?$duration@_JU?$ratio@$00$00@std@@@chrono@std@@QEAA@AEBH@Z
	??$?0H$0A@@?$duration@_JU?$ratio@$00$0DOI@@std@@@chrono@std@@QEAA@AEBH@Z
	??$?0I@?$allocator@U_Container_proxy@std@@@std@@QEAA@AEBV?$allocator@I@1@@Z
	??$?0N$0A@@?$duration@NU?$ratio@$00$00@std@@@chrono@std@@QEAA@AEBN@Z
	??$?0N$0A@@?$duration@NU?$ratio@$00$0PECEA@@std@@@chrono@std@@QEAA@AEBN@Z
	??$?0NU?$ratio@$00$00@std@@$0A@@?$duration@NU?$ratio@$00$0PECEA@@std@@@chrono@std@@QEAA@AEBV?$duration@NU?$ratio@$00$00@std@@@12@@Z
	??$?0P8FlowControl@dcc@vanetza@@EAAXXZPEAV012@@?$_Compressed_pair@P8FlowControl@dcc@vanetza@@EAAXXZV?$tuple@PEAVFlowControl@dcc@vanetza@@@std@@$0A@@std@@QEAA@U_One_then_variadic_args_t@1@$$QEAP8FlowControl@dcc@vanetza@@EAAXXZ$$QEAPEAV345@@Z
	??$?0PEAU?$_Tree_node@U?$pair@$$CBW4AccessCategory@access@vanetza@@V?$list@UPendingTransmission@FlowControl@dcc@vanetza@@V?$allocator@UPendingTransmission@FlowControl@dcc@vanetza@@@std@@@std@@@std@@PEAX@std@@_N$0A@@?$pair@PEAU?$_Tree_node@U?$pair@$$CBW4AccessCategory@access@vanetza@@V?$list@UPendingTransmission@FlowControl@dcc@vanetza@@V?$allocator@UPendingTransmission@FlowControl@dcc@vanetza@@@std@@@std@@@std@@PEAX@std@@_N@std@@QEAA@$$QEAPEAU?$_Tree_node@U?$pair@$$CBW4AccessCategory@access@vanetza@@V?$list@UPendingTransmission@FlowControl@dcc@vanetza@@V?$allocator@UPendingTransmission@FlowControl@dcc@vanetza@@@std@@@std@@@std@@PEAX@1@$$QEA_N@Z
	??$?0PEAU?$_Tree_node@UState@GradualStateMachine@dcc@vanetza@@PEAX@std@@_N$0A@@?$pair@PEAU?$_Tree_node@UState@GradualStateMachine@dcc@vanetza@@PEAX@std@@_N@std@@QEAA@$$QEAPEAU?$_Tree_node@UState@GradualStateMachine@dcc@vanetza@@PEAX@1@$$QEA_N@Z
	??$?0PEAV?$basic_altstringbuf@DU?$char_traits@D@std@@V?$allocator@D@2@@io@boost@@VNo_Op@?$basic_oaltstringstream@DU?$char_traits@D@std@@V?$allocator@D@2@@12@@shared_count@detail@boost@@QEAA@PEAV?$basic_altstringbuf@DU?$char_traits@D@std@@V?$allocator@D@2@@io@2@VNo_Op@?$basic_oaltstringstream@DU?$char_traits@D@std@@V?$allocator@D@2@@42@@Z
	??$?0PEAVFlowControl@dcc@vanetza@@$$V$0A@@?$tuple@PEAVFlowControl@dcc@vanetza@@@std@@QEAA@$$QEAPEAVFlowControl@dcc@vanetza@@@Z
	??$?0PEAVFlowControl@dcc@vanetza@@@?$_Tuple_val@PEAVFlowControl@dcc@vanetza@@@std@@QEAA@$$QEAPEAVFlowControl@dcc@vanetza@@@Z
	??$?0U?$_List_node@UPendingTransmission@FlowControl@dcc@vanetza@@PEAX@std@@@?$allocator@U_Container_proxy@std@@@std@@QEAA@AEBV?$allocator@U?$_List_node@UPendingTransmission@FlowControl@dcc@vanetza@@PEAX@std@@@1@@Z
	??$?0U?$_Tree_node@U?$pair@$$CBW4AccessCategory@access@vanetza@@V?$list@UPendingTransmission@FlowControl@dcc@vanetza@@V?$allocator@UPendingTransmission@FlowControl@dcc@vanetza@@@std@@@std@@@std@@PEAX@std@@@?$allocator@U_Container_proxy@std@@@std@@QEAA@AEBV?$allocator@U?$_Tree_node@U?$pair@$$CBW4AccessCategory@access@vanetza@@V?$list@UPendingTransmission@FlowControl@dcc@vanetza@@V?$allocator@UPendingTransmission@FlowControl@dcc@vanetza@@@std@@@std@@@std@@PEAX@std@@@1@@Z
	??$?0U?$_Tree_node@U?$pair@$$CBW4OsiLayer@vanetza@@VByteBufferConvertible@2@@std@@PEAX@std@@@?$allocator@U_Container_proxy@std@@@std@@QEAA@AEBV?$allocator@U?$_Tree_node@U?$pair@$$CBW4OsiLayer@vanetza@@VByteBufferConvertible@2@@std@@PEAX@std@@@1@@Z
	??$?0U?$_Tree_node@UState@GradualStateMachine@dcc@vanetza@@PEAX@std@@@?$allocator@U_Container_proxy@std@@@std@@QEAA@AEBV?$allocator@U?$_Tree_node@UState@GradualStateMachine@dcc@vanetza@@PEAX@std@@@1@@Z
	??$?0U?$default_delete@VChunkPacket@vanetza@@@std@@$0A@@?$unique_ptr@VChunkPacket@vanetza@@U?$default_delete@VChunkPacket@vanetza@@@std@@@std@@QEAA@$$QEAV01@@Z
	??$?0U?$default_delete@VChunkPacket@vanetza@@@std@@PEAVChunkPacket@vanetza@@@?$_Compressed_pair@U?$default_delete@VChunkPacket@vanetza@@@std@@PEAVChunkPacket@vanetza@@$00@std@@QEAA@U_One_then_variadic_args_t@1@$$QEAU?$default_delete@VChunkPacket@vanetza@@@1@$$QEAPEAVChunkPacket@vanetza@@@Z
	??$?0U?$default_delete@V_Facet_base@std@@@std@@$0A@@?$unique_ptr@V_Facet_base@std@@U?$default_delete@V_Facet_base@std@@@2@@std@@QEAA@PEAV_Facet_base@1@@Z
	??$?0U?$format_item@DU?$char_traits@D@std@@V?$allocator@D@2@@detail@io@boost@@@?$allocator@U_Container_proxy@std@@@std@@QEAA@AEBV?$allocator@U?$format_item@DU?$char_traits@D@std@@V?$allocator@D@2@@detail@io@boost@@@1@@Z
	??$?0U?$less@UState@GradualStateMachine@dcc@vanetza@@@std@@U_One_then_variadic_args_t@1@V?$allocator@U?$_Tree_node@UState@GradualStateMachine@dcc@vanetza@@PEAX@std@@@1@@?$_Compressed_pair@U?$less@UState@GradualStateMachine@dcc@vanetza@@@std@@V?$_Compressed_pair@V?$allocator@U?$_Tree_node@UState@GradualStateMachine@dcc@vanetza@@PEAX@std@@@std@@V?$_Tree_val@U?$_Tree_simple_types@UState@GradualStateMachine@dcc@vanetza@@@std@@@2@$00@2@$00@std@@QEAA@U_One_then_variadic_args_t@1@$$QEAU?$less@UState@GradualStateMachine@dcc@vanetza@@@1@$$QEAU21@$$QEAV?$allocator@U?$_Tree_node@UState@GradualStateMachine@dcc@vanetza@@PEAX@std@@@1@@Z
	??$?0U_Exact_args_t@std@@$0A@@?$tuple@$$V@std@@QEAA@U_Exact_args_t@1@@Z
	??$?0U_Exact_args_t@std@@AEBW4AccessCategory@access@vanetza@@$$V$0A@@?$tuple@AEBW4AccessCategory@access@vanetza@@@std@@QEAA@U_Exact_args_t@1@AEBW4AccessCategory@access@vanetza@@@Z
	??$?0U_Exact_args_t@std@@PEAVFlowControl@dcc@vanetza@@$$V$0A@@?$tuple@PEAVFlowControl@dcc@vanetza@@@std@@QEAA@U_Exact_args_t@1@$$QEAPEAVFlowControl@dcc@vanetza@@@Z
	??$?0U_Exact_args_t@std@@V?$time_point@VClock@vanetza@@V?$duration@_JU?$ratio@$00$0PECEA@@std@@@chrono@std@@@chrono@1@$$V$0A@@?$tuple@$$QEAV?$time_point@VClock@vanetza@@V?$duration@_JU?$ratio@$00$0PECEA@@std@@@chrono@std@@@chrono@std@@@std@@QEAA@U_Exact_args_t@1@$$QEAV?$time_point@VClock@vanetza@@V?$duration@_JU?$ratio@$00$0PECEA@@std@@@chrono@std@@@chrono@1@@Z
	??$?0V?$_Binder@U_Unforced@std@@P8FlowControl@dcc@vanetza@@EAAXXZPEAV345@@std@@$0A@@?$_Func_impl_no_alloc@V?$_Binder@U_Unforced@std@@P8FlowControl@dcc@vanetza@@EAAXXZPEAV345@@std@@XV?$time_point@VClock@vanetza@@V?$duration@_JU?$ratio@$00$0PECEA@@std@@@chrono@std@@@chrono@2@@std@@QEAA@$$QEAV?$_Binder@U_Unforced@std@@P8FlowControl@dcc@vanetza@@EAAXXZPEAV345@@1@@Z
	??$?0V?$_Binder@U_Unforced@std@@P8FlowControl@dcc@vanetza@@EAAXXZPEAV345@@std@@$0A@@?$function@$$A6AXV?$time_point@VClock@vanetza@@V?$duration@_JU?$ratio@$00$0PECEA@@std@@@chrono@std@@@chrono@std@@@Z@std@@QEAA@$$QEAV?$_Binder@U_Unforced@std@@P8FlowControl@dcc@vanetza@@EAAXXZPEAV345@@1@@Z
	??$?0V?$_Tree_const_iterator@V?$_Tree_val@U?$_Tree_simple_types@UState@GradualStateMachine@dcc@vanetza@@@std@@@std@@@std@@AEB_N$0A@@?$pair@V?$_Tree_const_iterator@V?$_Tree_val@U?$_Tree_simple_types@UState@GradualStateMachine@dcc@vanetza@@@std@@@std@@@std@@_N@std@@QEAA@$$QEAV?$_Tree_const_iterator@V?$_Tree_val@U?$_Tree_simple_types@UState@GradualStateMachine@dcc@vanetza@@@std@@@std@@@1@AEB_N@Z
	??$?0V?$allocator@D@std@@$$V@?$_Compressed_pair@V?$allocator@D@std@@V?$_String_val@U?$_Simple_types@D@std@@@2@$00@std@@QEAA@U_One_then_variadic_args_t@1@$$QEAV?$allocator@D@1@@Z
	??$?0V?$allocator@I@std@@$$V@?$_Compressed_pair@V?$allocator@I@std@@V?$_Vector_val@U?$_Simple_types@I@std@@@2@$00@std@@QEAA@U_One_then_variadic_args_t@1@$$QEAV?$allocator@I@1@@Z
	??$?0V?$allocator@U?$_Tree_node@UState@GradualStateMachine@dcc@vanetza@@PEAX@std@@@std@@$$V@?$_Compressed_pair@V?$allocator@U?$_Tree_node@UState@GradualStateMachine@dcc@vanetza@@PEAX@std@@@std@@V?$_Tree_val@U?$_Tree_simple_types@UState@GradualStateMachine@dcc@vanetza@@@std@@@2@$00@std@@QEAA@U_One_then_variadic_args_t@1@$$QEAV?$allocator@U?$_Tree_node@UState@GradualStateMachine@dcc@vanetza@@PEAX@std@@@1@@Z
	??$?0V?$allocator@U?$_Tree_node@UState@GradualStateMachine@dcc@vanetza@@PEAX@std@@@std@@@?$_Tree@V?$_Tset_traits@UState@GradualStateMachine@dcc@vanetza@@U?$less@UState@GradualStateMachine@dcc@vanetza@@@std@@V?$allocator@UState@GradualStateMachine@dcc@vanetza@@@6@$0A@@std@@@std@@QEAA@AEBV01@$$QEAV?$allocator@U?$_Tree_node@UState@GradualStateMachine@dcc@vanetza@@PEAX@std@@@1@@Z
	??$?0V?$allocator@U?$format_item@DU?$char_traits@D@std@@V?$allocator@D@2@@detail@io@boost@@@std@@$$V@?$_Compressed_pair@V?$allocator@U?$format_item@DU?$char_traits@D@std@@V?$allocator@D@2@@detail@io@boost@@@std@@V?$_Vector_val@U?$_Simple_types@U?$format_item@DU?$char_traits@D@std@@V?$allocator@D@2@@detail@io@boost@@@std@@@2@$00@std@@QEAA@U_One_then_variadic_args_t@1@$$QEAV?$allocator@U?$format_item@DU?$char_traits@D@std@@V?$allocator@D@2@@detail@io@boost@@@1@@Z
	??$?0V?$basic_altstringbuf@DU?$char_traits@D@std@@V?$allocator@D@2@@io@boost@@VNo_Op@?$basic_oaltstringstream@DU?$char_traits@D@std@@V?$allocator@D@2@@12@@?$shared_ptr@V?$basic_altstringbuf@DU?$char_traits@D@std@@V?$allocator@D@2@@io@boost@@@boost@@QEAA@PEAV?$basic_altstringbuf@DU?$char_traits@D@std@@V?$allocator@D@2@@io@1@VNo_Op@?$basic_oaltstringstream@DU?$char_traits@D@std@@V?$allocator@D@2@@31@@Z
	??$?0V?$time_point@VClock@vanetza@@V?$duration@_JU?$ratio@$00$0PECEA@@std@@@chrono@std@@@chrono@std@@$$V$0A@@?$tuple@$$QEAV?$time_point@VClock@vanetza@@V?$duration@_JU?$ratio@$00$0PECEA@@std@@@chrono@std@@@chrono@std@@@std@@QEAA@$$QEAV?$time_point@VClock@vanetza@@V?$duration@_JU?$ratio@$00$0PECEA@@std@@@chrono@std@@@chrono@1@@Z
	??$?0V?$time_point@VClock@vanetza@@V?$duration@_JU?$ratio@$00$0PECEA@@std@@@chrono@std@@@chrono@std@@@?$_Tuple_val@$$QEAV?$time_point@VClock@vanetza@@V?$duration@_JU?$ratio@$00$0PECEA@@std@@@chrono@std@@@chrono@std@@@std@@QEAA@$$QEAV?$time_point@VClock@vanetza@@V?$duration@_JU?$ratio@$00$0PECEA@@std@@@chrono@std@@@chrono@1@@Z
	??$?0V?$tuple@AEBW4AccessCategory@access@vanetza@@@std@@V?$tuple@$$V@1@$0A@$$Z$S@?$pair@$$CBW4AccessCategory@access@vanetza@@V?$list@UPendingTransmission@FlowControl@dcc@vanetza@@V?$allocator@UPendingTransmission@FlowControl@dcc@vanetza@@@std@@@std@@@std@@QEAA@AEAV?$tuple@AEBW4AccessCategory@access@vanetza@@@1@AEAV?$tuple@$$V@1@U?$integer_sequence@_K$0A@@1@U?$integer_sequence@_K$S@1@@Z
	??$?0VChannelLoad@dcc@vanetza@@V?$duration@_JU?$ratio@$00$0PECEA@@std@@@chrono@std@@@?$_Tree_temp_node@V?$allocator@U?$_Tree_node@UState@GradualStateMachine@dcc@vanetza@@PEAX@std@@@std@@@std@@QEAA@AEAV?$allocator@U?$_Tree_node@UState@GradualStateMachine@dcc@vanetza@@PEAX@std@@@1@PEAU?$_Tree_node@UState@GradualStateMachine@dcc@vanetza@@PEAX@1@$$QEAVChannelLoad@dcc@vanetza@@$$QEAV?$duration@_JU?$ratio@$00$0PECEA@@std@@@chrono@1@@Z
	??$?0_J$0A@@?$duration@_JU?$ratio@$00$0PECEA@@std@@@chrono@std@@QEAA@AEB_J@Z
	??$?0_JU?$ratio@$00$00@std@@$0A@@?$duration@NU?$ratio@$00$00@std@@@chrono@std@@QEAA@AEBV?$duration@_JU?$ratio@$00$00@std@@@12@@Z
	??$?0_JU?$ratio@$00$0DOI@@std@@$0A@@?$duration@_JU?$ratio@$00$0PECEA@@std@@@chrono@std@@QEAA@AEBV?$duration@_JU?$ratio@$00$0DOI@@std@@@12@@Z
	??$?0_JU?$ratio@$00$0PECEA@@std@@$0A@@?$duration@NU?$ratio@$00$0PECEA@@std@@@chrono@std@@QEAA@AEBV?$duration@_JU?$ratio@$00$0PECEA@@std@@@12@@Z
	??$?4U?$default_delete@VChunkPacket@vanetza@@@std@@$0A@@?$unique_ptr@VChunkPacket@vanetza@@U?$default_delete@VChunkPacket@vanetza@@@std@@@std@@QEAAAEAV01@$$QEAV01@@Z
	??$?4UPendingTransmission@FlowControl@dcc@vanetza@@@?$optional@UPendingTransmission@FlowControl@dcc@vanetza@@@boost@@QEAAAEAV01@$$QEAUPendingTransmission@FlowControl@dcc@vanetza@@@Z
	??$?4V?$time_point@VClock@vanetza@@V?$duration@_JU?$ratio@$00$0PECEA@@std@@@chrono@std@@@chrono@std@@@?$optional@V?$time_point@VClock@vanetza@@V?$duration@_JU?$ratio@$00$0PECEA@@std@@@chrono@std@@@chrono@std@@@boost@@QEAAAEAV01@$$QEAV?$time_point@VClock@vanetza@@V?$duration@_JU?$ratio@$00$0PECEA@@std@@@chrono@std@@@chrono@std@@@Z
	??$?6U?$char_traits@D@std@@@std@@YAAEAV?$basic_ostream@DU?$char_traits@D@std@@@0@AEAV10@D@Z
	??$?8U?$nonconst_traits@V?$allocator@V?$time_point@VClock@vanetza@@V?$duration@_JU?$ratio@$00$0PECEA@@std@@@chrono@std@@@chrono@std@@@std@@@cb_details@boost@@@?$iterator@V?$circular_buffer@V?$time_point@VClock@vanetza@@V?$duration@_JU?$ratio@$00$0PECEA@@std@@@chrono@std@@@chrono@std@@V?$allocator@V?$time_point@VClock@vanetza@@V?$duration@_JU?$ratio@$00$0PECEA@@std@@@chrono@std@@@chrono@std@@@3@@boost@@U?$nonconst_traits@V?$allocator@V?$time_point@VClock@vanetza@@V?$duration@_JU?$ratio@$00$0PECEA@@std@@@chrono@std@@@chrono@std@@@std@@@cb_details@2@@cb_details@boost@@QEBA_NAEBU012@@Z
	??$?8_JU?$ratio@$00$0PECEA@@std@@_JU01@@chrono@std@@YA_NAEBV?$duration@_JU?$ratio@$00$0PECEA@@std@@@01@0@Z
	??$?9U?$const_traits@V?$allocator@VChannelLoad@dcc@vanetza@@@std@@@cb_details@boost@@@?$iterator@V?$circular_buffer@VChannelLoad@dcc@vanetza@@V?$allocator@VChannelLoad@dcc@vanetza@@@std@@@boost@@U?$const_traits@V?$allocator@VChannelLoad@dcc@vanetza@@@std@@@cb_details@2@@cb_details@boost@@QEBA_NAEBU012@@Z
	??$?9U?$nonconst_traits@V?$allocator@V?$time_point@VClock@vanetza@@V?$duration@_JU?$ratio@$00$0PECEA@@std@@@chrono@std@@@chrono@std@@@std@@@cb_details@boost@@@?$iterator@V?$circular_buffer@V?$time_point@VClock@vanetza@@V?$duration@_JU?$ratio@$00$0PECEA@@std@@@chrono@std@@@chrono@std@@V?$allocator@V?$time_point@VClock@vanetza@@V?$duration@_JU?$ratio@$00$0PECEA@@std@@@chrono@std@@@chrono@std@@@3@@boost@@U?$nonconst_traits@V?$allocator@V?$time_point@VClock@vanetza@@V?$duration@_JU?$ratio@$00$0PECEA@@std@@@chrono@std@@@chrono@std@@@std@@@cb_details@2@@cb_details@boost@@QEBA_NAEBU012@@Z
	??$?9U?$nonconst_traits@V?$allocator@VChannelLoad@dcc@vanetza@@@std@@@cb_details@boost@@@?$iterator@V?$circular_buffer@VChannelLoad@dcc@vanetza@@V?$allocator@VChannelLoad@dcc@vanetza@@@std@@@boost@@U?$nonconst_traits@V?$allocator@VChannelLoad@dcc@vanetza@@@std@@@cb_details@2@@cb_details@boost@@QEBA_NAEBU012@@Z
	??$?DH_JU?$ratio@$00$0PECEA@@std@@$0A@@chrono@std@@YA?AV?$duration@_JU?$ratio@$00$0PECEA@@std@@@01@AEBHAEBV201@@Z
	??$?DNU?$ratio@$00$0PECEA@@std@@N$0A@@chrono@std@@YA?AV?$duration@NU?$ratio@$00$0PECEA@@std@@@01@AEBV201@AEBN@Z
	??$?D_JU?$ratio@$00$0PECEA@@std@@H$0A@@chrono@std@@YA?AV?$duration@_JU?$ratio@$00$0PECEA@@std@@@01@AEBV201@AEBH@Z
	??$?GU?$nonconst_traits@V?$allocator@V?$time_point@VClock@vanetza@@V?$duration@_JU?$ratio@$00$0PECEA@@std@@@chrono@std@@@chrono@std@@@std@@@cb_details@boost@@@?$iterator@V?$circular_buffer@V?$time_point@VClock@vanetza@@V?$duration@_JU?$ratio@$00$0PECEA@@std@@@chrono@std@@@chrono@std@@V?$allocator@V?$time_point@VClock@vanetza@@V?$duration@_JU?$ratio@$00$0PECEA@@std@@@chrono@std@@@chrono@std@@@3@@boost@@U?$nonconst_traits@V?$allocator@V?$time_point@VClock@vanetza@@V?$duration@_JU?$ratio@$00$0PECEA@@std@@@chrono@std@@@chrono@std@@@std@@@cb_details@2@@cb_details@boost@@QEBA_JAEBU012@@Z
	??$?GVClock@vanetza@@V?$duration@_JU?$ratio@$00$0PECEA@@std@@@chrono@std@@V234@@chrono@std@@YA?AV?$duration@_JU?$ratio@$00$0PECEA@@std@@@01@AEBV?$time_point@VClock@vanetza@@V?$duration@_JU?$ratio@$00$0PECEA@@std@@@chrono@std@@@01@0@Z
	??$?G_JU?$ratio@$00$0PECEA@@std@@_JU01@@chrono@std@@YA?AV?$duration@_JU?$ratio@$00$0PECEA@@std@@@01@AEBV201@0@Z
	??$?HVClock@vanetza@@V?$duration@_JU?$ratio@$00$0PECEA@@std@@@chrono@std@@_JU?$ratio@$00$0PECEA@@4@@chrono@std@@YA?AV?$time_point@VClock@vanetza@@V?$duration@_JU?$ratio@$00$0PECEA@@std@@@chrono@std@@@01@AEBV201@AEBV?$duration@_JU?$ratio@$00$0PECEA@@std@@@01@@Z
	??$?H_JU?$ratio@$00$0PECEA@@std@@VClock@vanetza@@V?$duration@_JU?$ratio@$00$0PECEA@@std@@@chrono@1@@chrono@std@@YA?AV?$time_point@VClock@vanetza@@V?$duration@_JU?$ratio@$00$0PECEA@@std@@@chrono@std@@@01@AEBV?$duration@_JU?$ratio@$00$0PECEA@@std@@@01@AEBV201@@Z
	??$?H_JU?$ratio@$00$0PECEA@@std@@_JU01@@chrono@std@@YA?AV?$duration@_JU?$ratio@$00$0PECEA@@std@@@01@AEBV201@0@Z
	??$?KNU?$ratio@$00$00@std@@_JU?$ratio@$00$0PECEA@@1@@chrono@std@@YANAEBV?$duration@NU?$ratio@$00$00@std@@@01@AEBV?$duration@_JU?$ratio@$00$0PECEA@@std@@@01@@Z
	??$?KNU?$ratio@$00$0PECEA@@std@@_JU01@@chrono@std@@YANAEBV?$duration@NU?$ratio@$00$0PECEA@@std@@@01@AEBV?$duration@_JU?$ratio@$00$0PECEA@@std@@@01@@Z
	??$?K_JU?$ratio@$00$0PECEA@@std@@N@chrono@std@@YA?AV?$duration@NU?$ratio@$00$0PECEA@@std@@@01@AEBV?$duration@_JU?$ratio@$00$0PECEA@@std@@@01@AEBN@Z
	??$?L_J@?$basic_format@DU?$char_traits@D@std@@V?$allocator@D@2@@boost@@QEAAAEAV01@AEB_J@Z
	??$?L_JU?$ratio@$00$0PECEA@@std@@_JU01@@chrono@std@@YA?AV?$duration@_JU?$ratio@$00$0PECEA@@std@@@01@AEBV201@0@Z
	??$?MVClock@vanetza@@V?$duration@_JU?$ratio@$00$0PECEA@@std@@@chrono@std@@V234@@chrono@std@@YA_NAEBV?$time_point@VClock@vanetza@@V?$duration@_JU?$ratio@$00$0PECEA@@std@@@chrono@std@@@01@0@Z
	??$?M_JU?$ratio@$00$0PECEA@@std@@_JU01@@chrono@std@@YA_NAEBV?$duration@_JU?$ratio@$00$0PECEA@@std@@@01@0@Z
	??$?OVClock@vanetza@@V?$duration@_JU?$ratio@$00$0PECEA@@std@@@chrono@std@@V234@@chrono@std@@YA_NAEBV?$time_point@VClock@vanetza@@V?$duration@_JU?$ratio@$00$0PECEA@@std@@@chrono@std@@@01@0@Z
	??$?O_JU?$ratio@$00$0PECEA@@std@@_JU01@@chrono@std@@YA_NAEBV?$duration@_JU?$ratio@$00$0PECEA@@std@@@01@0@Z
	??$?PVClock@vanetza@@V?$duration@_JU?$ratio@$00$0PECEA@@std@@@chrono@std@@V234@@chrono@std@@YA_NAEBV?$time_point@VClock@vanetza@@V?$duration@_JU?$ratio@$00$0PECEA@@std@@@chrono@std@@@01@0@Z
	??$?RAEBNAEBN@?$less@X@std@@QEBA_NAEBN0@Z
	??$?RPEAV?$basic_altstringbuf@DU?$char_traits@D@std@@V?$allocator@D@2@@io@boost@@@No_Op@?$basic_oaltstringstream@DU?$char_traits@D@std@@V?$allocator@D@2@@io@boost@@QEAAAEBQEAV?$basic_altstringbuf@DU?$char_traits@D@std@@V?$allocator@D@2@@23@AEBQEAV423@@Z
	??$?RV?$time_point@VClock@vanetza@@V?$duration@_JU?$ratio@$00$0PECEA@@std@@@chrono@std@@@chrono@std@@@?$_Binder@U_Unforced@std@@P8FlowControl@dcc@vanetza@@EAAXXZPEAV345@@std@@QEAAX$$QEAV?$time_point@VClock@vanetza@@V?$duration@_JU?$ratio@$00$0PECEA@@std@@@chrono@std@@@chrono@1@@Z
	??$_Adl_verify_range@PEAU?$format_item@DU?$char_traits@D@std@@V?$allocator@D@2@@detail@io@boost@@PEAU1234@@std@@YAXAEBQEAU?$format_item@DU?$char_traits@D@std@@V?$allocator@D@2@@detail@io@boost@@0@Z
	??$_Adl_verify_range@PEBUState@GradualStateMachine@dcc@vanetza@@PEBU1234@@std@@YAXAEBQEBUState@GradualStateMachine@dcc@vanetza@@0@Z
	??$_Adl_verify_range@V?$_Array_const_iterator@N$04@std@@V12@@std@@YAXAEBV?$_Array_const_iterator@N$04@0@0@Z
	??$_Adl_verify_range@V?$_String_const_iterator@V?$_String_val@U?$_Simple_types@D@std@@@std@@@std@@V12@@std@@YAXAEBV?$_String_const_iterator@V?$_String_val@U?$_Simple_types@D@std@@@std@@@0@0@Z
	??$_Adl_verify_range@V?$_Tree_const_iterator@V?$_Tree_val@U?$_Tree_simple_types@U?$pair@$$CBW4AccessCategory@access@vanetza@@V?$list@UPendingTransmission@FlowControl@dcc@vanetza@@V?$allocator@UPendingTransmission@FlowControl@dcc@vanetza@@@std@@@std@@@std@@@std@@@std@@@std@@V12@@std@@YAXAEBV?$_Tree_const_iterator@V?$_Tree_val@U?$_Tree_simple_types@U?$pair@$$CBW4AccessCategory@access@vanetza@@V?$list@UPendingTransmission@FlowControl@dcc@vanetza@@V?$allocator@UPendingTransmission@FlowControl@dcc@vanetza@@@std@@@std@@@std@@@std@@@std@@@0@0@Z
	??$_Adl_verify_range@V?$_Tree_const_iterator@V?$_Tree_val@U?$_Tree_simple_types@UState@GradualStateMachine@dcc@vanetza@@@std@@@std@@@std@@V12@@std@@YAXAEBV?$_Tree_const_iterator@V?$_Tree_val@U?$_Tree_simple_types@UState@GradualStateMachine@dcc@vanetza@@@std@@@std@@@0@0@Z
	??$_Adl_verify_range@V?$_Vb_iterator@U?$_Wrap_alloc@V?$allocator@I@std@@@std@@@std@@V12@@std@@YAXAEBV?$_Vb_iterator@U?$_Wrap_alloc@V?$allocator@I@std@@@std@@@0@0@Z
	??$_Alloc_proxy@V?$allocator@U_Container_proxy@std@@@std@@@_Container_base12@std@@QEAAX$$QEAV?$allocator@U_Container_proxy@std@@@1@@Z
	??$_Allocate@$0BA@U_Default_allocate_traits@std@@$0A@@std@@YAPEAX_K@Z
	??$_Allocate_manually_vector_aligned@U_Default_allocate_traits@std@@@std@@YAPEAX_K@Z
	??$_Atomic_address_as@JU?$_Atomic_padded@H@std@@@std@@YAPECJAEAU?$_Atomic_padded@H@0@@Z
	??$_Buyheadnode@V?$allocator@U?$_Tree_node@U?$pair@$$CBW4AccessCategory@access@vanetza@@V?$list@UPendingTransmission@FlowControl@dcc@vanetza@@V?$allocator@UPendingTransmission@FlowControl@dcc@vanetza@@@std@@@std@@@std@@PEAX@std@@@std@@@?$_Tree_node@U?$pair@$$CBW4AccessCategory@access@vanetza@@V?$list@UPendingTransmission@FlowControl@dcc@vanetza@@V?$allocator@UPendingTransmission@FlowControl@dcc@vanetza@@@std@@@std@@@std@@PEAX@std@@SAPEAU01@AEAV?$allocator@U?$_Tree_node@U?$pair@$$CBW4AccessCategory@access@vanetza@@V?$list@UPendingTransmission@FlowControl@dcc@vanetza@@V?$allocator@UPendingTransmission@FlowControl@dcc@vanetza@@@std@@@std@@@std@@PEAX@std@@@1@@Z
	??$_Buyheadnode@V?$allocator@U?$_Tree_node@UState@GradualStateMachine@dcc@vanetza@@PEAX@std@@@std@@@?$_Tree_node@UState@GradualStateMachine@dcc@vanetza@@PEAX@std@@SAPEAU01@AEAV?$allocator@U?$_Tree_node@UState@GradualStateMachine@dcc@vanetza@@PEAX@std@@@1@@Z
	??$_Buynode@AEAUState@GradualStateMachine@dcc@vanetza@@@?$_Tree@V?$_Tset_traits@UState@GradualStateMachine@dcc@vanetza@@U?$less@UState@GradualStateMachine@dcc@vanetza@@@std@@V?$allocator@UState@GradualStateMachine@dcc@vanetza@@@6@$0A@@std@@@std@@IEAAPEAU?$_Tree_node@UState@GradualStateMachine@dcc@vanetza@@PEAX@1@AEAUState@GradualStateMachine@dcc@vanetza@@@Z
	??$_Buynode@V?$allocator@U?$_Tree_node@UState@GradualStateMachine@dcc@vanetza@@PEAX@std@@@std@@AEAUState@GradualStateMachine@dcc@vanetza@@@?$_Tree_node@UState@GradualStateMachine@dcc@vanetza@@PEAX@std@@SAPEAU01@AEAV?$allocator@U?$_Tree_node@UState@GradualStateMachine@dcc@vanetza@@PEAX@std@@@1@PEAU01@AEAUState@GradualStateMachine@dcc@vanetza@@@Z
	??$_Call@AEAP8FlowControl@dcc@vanetza@@EAAXXZAEAPEAV123@@?$_Invoker_ret@U_Unforced@std@@@std@@SAXAEAP8FlowControl@dcc@vanetza@@EAAXXZAEAPEAV234@@Z
	??$_Call@AEAV?$_Binder@U_Unforced@std@@P8FlowControl@dcc@vanetza@@EAAXXZPEAV345@@std@@V?$time_point@VClock@vanetza@@V?$duration@_JU?$ratio@$00$0PECEA@@std@@@chrono@std@@@chrono@2@@?$_Invoker_ret@X@std@@SAXAEAV?$_Binder@U_Unforced@std@@P8FlowControl@dcc@vanetza@@EAAXXZPEAV345@@1@$$QEAV?$time_point@VClock@vanetza@@V?$duration@_JU?$ratio@$00$0PECEA@@std@@@chrono@std@@@chrono@1@@Z
	??$_Call_binder@U_Unforced@std@@$0A@P8FlowControl@dcc@vanetza@@EAAXXZV?$tuple@PEAVFlowControl@dcc@vanetza@@@2@V?$tuple@$$QEAV?$time_point@VClock@vanetza@@V?$duration@_JU?$ratio@$00$0PECEA@@std@@@chrono@std@@@chrono@std@@@2@@std@@YAXU?$_Invoker_ret@U_Unforced@std@@@0@U?$integer_sequence@_K$0A@@0@AEAP8FlowControl@dcc@vanetza@@EAAXXZAEAV?$tuple@PEAVFlowControl@dcc@vanetza@@@0@$$QEAV?$tuple@$$QEAV?$time_point@VClock@vanetza@@V?$duration@_JU?$ratio@$00$0PECEA@@std@@@chrono@std@@@chrono@std@@@0@@Z
	??$_Construct@$00PEBD@?$basic_string@DU?$char_traits@D@std@@V?$allocator@D@2@@std@@AEAAXQEBD_K@Z
	??$_Construct@$01PEBD@?$basic_string@DU?$char_traits@D@std@@V?$allocator@D@2@@std@@AEAAXQEBD_K@Z
	??$_Construct_in_place@PEADAEAPEAD@std@@YAXAEAPEAD0@Z
	??$_Construct_in_place@PEADAEBQEAD@std@@YAXAEAPEADAEBQEAD@Z
	??$_Construct_in_place@PEAU?$_List_node@UPendingTransmission@FlowControl@dcc@vanetza@@PEAX@std@@AEAPEAU12@@std@@YAXAEAPEAU?$_List_node@UPendingTransmission@FlowControl@dcc@vanetza@@PEAX@0@0@Z
	??$_Construct_in_place@PEAU?$_List_node@UPendingTransmission@FlowControl@dcc@vanetza@@PEAX@std@@AEBQEAU12@@std@@YAXAEAPEAU?$_List_node@UPendingTransmission@FlowControl@dcc@vanetza@@PEAX@0@AEBQEAU10@@Z
	??$_Construct_in_place@PEAU?$_Tree_node@U?$pair@$$CBW4AccessCategory@access@vanetza@@V?$list@UPendingTransmission@FlowControl@dcc@vanetza@@V?$allocator@UPendingTransmission@FlowControl@dcc@vanetza@@@std@@@std@@@std@@PEAX@std@@AEAPEAU12@@std@@YAXAEAPEAU?$_Tree_node@U?$pair@$$CBW4AccessCategory@access@vanetza@@V?$list@UPendingTransmission@FlowControl@dcc@vanetza@@V?$allocator@UPendingTransmission@FlowControl@dcc@vanetza@@@std@@@std@@@std@@PEAX@0@0@Z
	??$_Construct_in_place@PEAU?$_Tree_node@U?$pair@$$CBW4AccessCategory@access@vanetza@@V?$list@UPendingTransmission@FlowControl@dcc@vanetza@@V?$allocator@UPendingTransmission@FlowControl@dcc@vanetza@@@std@@@std@@@std@@PEAX@std@@AEBQEAU12@@std@@YAXAEAPEAU?$_Tree_node@U?$pair@$$CBW4AccessCategory@access@vanetza@@V?$list@UPendingTransmission@FlowControl@dcc@vanetza@@V?$allocator@UPendingTransmission@FlowControl@dcc@vanetza@@@std@@@std@@@std@@PEAX@0@AEBQEAU10@@Z
	??$_Construct_in_place@PEAU?$_Tree_node@UState@GradualStateMachine@dcc@vanetza@@PEAX@std@@AEAPEAU12@@std@@YAXAEAPEAU?$_Tree_node@UState@GradualStateMachine@dcc@vanetza@@PEAX@0@0@Z
	??$_Construct_in_place@PEAU?$_Tree_node@UState@GradualStateMachine@dcc@vanetza@@PEAX@std@@AEBQEAU12@@std@@YAXAEAPEAU?$_Tree_node@UState@GradualStateMachine@dcc@vanetza@@PEAX@0@AEBQEAU10@@Z
	??$_Construct_in_place@U_Container_proxy@std@@PEAU_Container_base12@2@@std@@YAXAEAU_Container_proxy@0@$$QEAPEAU_Container_base12@0@@Z
	??$_Construct_n@AEBQEAIAEBQEAI@?$vector@IV?$allocator@I@std@@@std@@AEAAX_KAEBQEAI1@Z
	??$_Construct_n@AEBQEAU?$format_item@DU?$char_traits@D@std@@V?$allocator@D@2@@detail@io@boost@@AEBQEAU1234@@?$vector@U?$format_item@DU?$char_traits@D@std@@V?$allocator@D@2@@detail@io@boost@@V?$allocator@U?$format_item@DU?$char_traits@D@std@@V?$allocator@D@2@@detail@io@boost@@@std@@@std@@AEAAX_KAEBQEAU?$format_item@DU?$char_traits@D@std@@V?$allocator@D@2@@detail@io@boost@@1@Z
	??$_Convert_size@_K@std@@YA_K_K@Z
	??$_Copy@$0A@@?$_Tree@V?$_Tset_traits@UState@GradualStateMachine@dcc@vanetza@@U?$less@UState@GradualStateMachine@dcc@vanetza@@@std@@V?$allocator@UState@GradualStateMachine@dcc@vanetza@@@6@$0A@@std@@@std@@IEAAXAEBV01@@Z
	??$_Copy_backward_unchecked@V?$_Vb_iterator@U?$_Wrap_alloc@V?$allocator@I@std@@@std@@@std@@V12@@std@@YA?AV?$_Vb_iterator@U?$_Wrap_alloc@V?$allocator@I@std@@@std@@@0@V10@00@Z
	??$_Copy_memmove@PEAIPEAI@std@@YAPEAIPEAI00@Z
	??$_Copy_nodes@$0A@@?$_Tree@V?$_Tset_traits@UState@GradualStateMachine@dcc@vanetza@@U?$less@UState@GradualStateMachine@dcc@vanetza@@@std@@V?$allocator@UState@GradualStateMachine@dcc@vanetza@@@6@$0A@@std@@@std@@IEAAPEAU?$_Tree_node@UState@GradualStateMachine@dcc@vanetza@@PEAX@1@PEAU21@0@Z
	??$_Copy_or_move@$0A@UState@GradualStateMachine@dcc@vanetza@@@?$_Tree@V?$_Tset_traits@UState@GradualStateMachine@dcc@vanetza@@U?$less@UState@GradualStateMachine@dcc@vanetza@@@std@@V?$allocator@UState@GradualStateMachine@dcc@vanetza@@@6@$0A@@std@@@std@@IEAAPEAU?$_Tree_node@UState@GradualStateMachine@dcc@vanetza@@PEAX@1@AEAUState@GradualStateMachine@dcc@vanetza@@@Z
	??$_Copy_unchecked@V?$_Vb_iterator@U?$_Wrap_alloc@V?$allocator@I@std@@@std@@@std@@V12@@std@@YA?AV?$_Vb_iterator@U?$_Wrap_alloc@V?$allocator@I@std@@@std@@@0@V10@00@Z
	??$_Deallocate@$07$0A@@std@@YAXPEAX_K@Z
	??$_Deallocate@$0BA@$0A@@std@@YAXPEAX_K@Z
	??$_Deallocate_plain@V?$allocator@U_Container_proxy@std@@@std@@@std@@YAXAEAV?$allocator@U_Container_proxy@std@@@0@QEAU_Container_proxy@0@@Z
	??$_Debug_lt_pred@AEBU?$greater@W4AccessCategory@access@vanetza@@@std@@AEBW4AccessCategory@access@vanetza@@AEBW4345@$0A@@std@@YA_NAEBU?$greater@W4AccessCategory@access@vanetza@@@0@AEBW4AccessCategory@access@vanetza@@1@Z
	??$_Debug_lt_pred@AEBU?$less@UState@GradualStateMachine@dcc@vanetza@@@std@@AEBUState@GradualStateMachine@dcc@vanetza@@AEBU3456@$0A@@std@@YA_NAEBU?$less@UState@GradualStateMachine@dcc@vanetza@@@0@AEBUState@GradualStateMachine@dcc@vanetza@@1@Z
	??$_Delete_plain_internal@V?$allocator@U_Container_proxy@std@@@std@@@std@@YAXAEAV?$allocator@U_Container_proxy@std@@@0@QEAU_Container_proxy@0@@Z
	??$_Destroy_in_place@PEAD@std@@YAXAEAPEAD@Z
	??$_Destroy_in_place@PEAU?$_List_node@UPendingTransmission@FlowControl@dcc@vanetza@@PEAX@std@@@std@@YAXAEAPEAU?$_List_node@UPendingTransmission@FlowControl@dcc@vanetza@@PEAX@0@@Z
	??$_Destroy_in_place@PEAU?$_Tree_node@U?$pair@$$CBW4AccessCategory@access@vanetza@@V?$list@UPendingTransmission@FlowControl@dcc@vanetza@@V?$allocator@UPendingTransmission@FlowControl@dcc@vanetza@@@std@@@std@@@std@@PEAX@std@@@std@@YAXAEAPEAU?$_Tree_node@U?$pair@$$CBW4AccessCategory@access@vanetza@@V?$list@UPendingTransmission@FlowControl@dcc@vanetza@@V?$allocator@UPendingTransmission@FlowControl@dcc@vanetza@@@std@@@std@@@std@@PEAX@0@@Z
	??$_Destroy_in_place@PEAU?$_Tree_node@U?$pair@$$CBW4OsiLayer@vanetza@@VByteBufferConvertible@2@@std@@PEAX@std@@@std@@YAXAEAPEAU?$_Tree_node@U?$pair@$$CBW4OsiLayer@vanetza@@VByteBufferConvertible@2@@std@@PEAX@0@@Z
	??$_Destroy_in_place@PEAU?$_Tree_node@UState@GradualStateMachine@dcc@vanetza@@PEAX@std@@@std@@YAXAEAPEAU?$_Tree_node@UState@GradualStateMachine@dcc@vanetza@@PEAX@0@@Z
	??$_Destroy_range@V?$allocator@I@std@@@std@@YAXPEAIQEAIAEAV?$allocator@I@0@@Z
	??$_Destroy_range@V?$allocator@U?$format_item@DU?$char_traits@D@std@@V?$allocator@D@2@@detail@io@boost@@@std@@@std@@YAXPEAU?$format_item@DU?$char_traits@D@std@@V?$allocator@D@2@@detail@io@boost@@QEAU1234@AEAV?$allocator@U?$format_item@DU?$char_traits@D@std@@V?$allocator@D@2@@detail@io@boost@@@0@@Z
	??$_Emplace@AEAV?$time_point@VClock@vanetza@@V?$duration@_JU?$ratio@$00$0PECEA@@std@@@chrono@std@@@chrono@std@@AEBUDataRequest@dcc@vanetza@@V?$unique_ptr@VChunkPacket@vanetza@@U?$default_delete@VChunkPacket@vanetza@@@std@@@3@@?$list@UPendingTransmission@FlowControl@dcc@vanetza@@V?$allocator@UPendingTransmission@FlowControl@dcc@vanetza@@@std@@@std@@QEAAPEAU?$_List_node@UPendingTransmission@FlowControl@dcc@vanetza@@PEAX@1@QEAU21@AEAV?$time_point@VClock@vanetza@@V?$duration@_JU?$ratio@$00$0PECEA@@std@@@chrono@std@@@chrono@1@AEBUDataRequest@dcc@vanetza@@$$QEAV?$unique_ptr@VChunkPacket@vanetza@@U?$default_delete@VChunkPacket@vanetza@@@std@@@1@@Z
	??$_Emplace@VChannelLoad@dcc@vanetza@@V?$duration@_JU?$ratio@$00$0PECEA@@std@@@chrono@std@@@?$_Tree@V?$_Tset_traits@UState@GradualStateMachine@dcc@vanetza@@U?$less@UState@GradualStateMachine@dcc@vanetza@@@std@@V?$allocator@UState@GradualStateMachine@dcc@vanetza@@@6@$0A@@std@@@std@@IEAA?AU?$pair@PEAU?$_Tree_node@UState@GradualStateMachine@dcc@vanetza@@PEAX@std@@_N@1@$$QEAVChannelLoad@dcc@vanetza@@$$QEAV?$duration@_JU?$ratio@$00$0PECEA@@std@@@chrono@1@@Z
	??$_Emplace_back@AEAI@?$_Uninitialized_backout_al@V?$allocator@I@std@@@std@@QEAAXAEAI@Z
	??$_Emplace_back@AEAU?$format_item@DU?$char_traits@D@std@@V?$allocator@D@2@@detail@io@boost@@@?$_Uninitialized_backout_al@V?$allocator@U?$format_item@DU?$char_traits@D@std@@V?$allocator@D@2@@detail@io@boost@@@std@@@std@@QEAAXAEAU?$format_item@DU?$char_traits@D@std@@V?$allocator@D@2@@detail@io@boost@@@Z
	??$_Emplace_back@AEBI@?$_Uninitialized_backout_al@V?$allocator@I@std@@@std@@QEAAXAEBI@Z
	??$_Emplace_back@AEBU?$format_item@DU?$char_traits@D@std@@V?$allocator@D@2@@detail@io@boost@@@?$_Uninitialized_backout_al@V?$allocator@U?$format_item@DU?$char_traits@D@std@@V?$allocator@D@2@@detail@io@boost@@@std@@@std@@QEAAXAEBU?$format_item@DU?$char_traits@D@std@@V?$allocator@D@2@@detail@io@boost@@@Z
	??$_Emplace_back@I@?$_Uninitialized_backout_al@V?$allocator@I@std@@@std@@QEAAX$$QEAI@Z
	??$_Emplace_back@U?$format_item@DU?$char_traits@D@std@@V?$allocator@D@2@@detail@io@boost@@@?$_Uninitialized_backout_al@V?$allocator@U?$format_item@DU?$char_traits@D@std@@V?$allocator@D@2@@detail@io@boost@@@std@@@std@@QEAAX$$QEAU?$format_item@DU?$char_traits@D@std@@V?$allocator@D@2@@detail@io@boost@@@Z
	??$_Emplace_hint@AEBUState@GradualStateMachine@dcc@vanetza@@@?$_Tree@V?$_Tset_traits@UState@GradualStateMachine@dcc@vanetza@@U?$less@UState@GradualStateMachine@dcc@vanetza@@@std@@V?$allocator@UState@GradualStateMachine@dcc@vanetza@@@6@$0A@@std@@@std@@IEAAPEAU?$_Tree_node@UState@GradualStateMachine@dcc@vanetza@@PEAX@1@QEAU21@AEBUState@GradualStateMachine@dcc@vanetza@@@Z
	??$_Erase_head@V?$allocator@U?$_Tree_node@U?$pair@$$CBW4AccessCategory@access@vanetza@@V?$list@UPendingTransmission@FlowControl@dcc@vanetza@@V?$allocator@UPendingTransmission@FlowControl@dcc@vanetza@@@std@@@std@@@std@@PEAX@std@@@std@@@?$_Tree_val@U?$_Tree_simple_types@U?$pair@$$CBW4AccessCategory@access@vanetza@@V?$list@UPendingTransmission@FlowControl@dcc@vanetza@@V?$allocator@UPendingTransmission@FlowControl@dcc@vanetza@@@std@@@std@@@std@@@std@@@std@@QEAAXAEAV?$allocator@U?$_Tree_node@U?$pair@$$CBW4AccessCategory@access@vanetza@@V?$list@UPendingTransmission@FlowControl@dcc@vanetza@@V?$allocator@UPendingTransmission@FlowControl@dcc@vanetza@@@std@@@std@@@std@@PEAX@std@@@1@@Z
	??$_Erase_head@V?$allocator@U?$_Tree_node@U?$pair@$$CBW4OsiLayer@vanetza@@VByteBufferConvertible@2@@std@@PEAX@std@@@std@@@?$_Tree_val@U?$_Tree_simple_types@U?$pair@$$CBW4OsiLayer@vanetza@@VByteBufferConvertible@2@@std@@@std@@@std@@QEAAXAEAV?$allocator@U?$_Tree_node@U?$pair@$$CBW4OsiLayer@vanetza@@VByteBufferConvertible@2@@std@@PEAX@std@@@1@@Z
	??$_Erase_head@V?$allocator@U?$_Tree_node@UState@GradualStateMachine@dcc@vanetza@@PEAX@std@@@std@@@?$_Tree_val@U?$_Tree_simple_types@UState@GradualStateMachine@dcc@vanetza@@@std@@@std@@QEAAXAEAV?$allocator@U?$_Tree_node@UState@GradualStateMachine@dcc@vanetza@@PEAX@std@@@1@@Z
	??$_Erase_tree@V?$allocator@U?$_Tree_node@U?$pair@$$CBW4AccessCategory@access@vanetza@@V?$list@UPendingTransmission@FlowControl@dcc@vanetza@@V?$allocator@UPendingTransmission@FlowControl@dcc@vanetza@@@std@@@std@@@std@@PEAX@std@@@std@@@?$_Tree_val@U?$_Tree_simple_types@U?$pair@$$CBW4AccessCategory@access@vanetza@@V?$list@UPendingTransmission@FlowControl@dcc@vanetza@@V?$allocator@UPendingTransmission@FlowControl@dcc@vanetza@@@std@@@std@@@std@@@std@@@std@@QEAAXAEAV?$allocator@U?$_Tree_node@U?$pair@$$CBW4AccessCategory@access@vanetza@@V?$list@UPendingTransmission@FlowControl@dcc@vanetza@@V?$allocator@UPendingTransmission@FlowControl@dcc@vanetza@@@std@@@std@@@std@@PEAX@std@@@1@PEAU?$_Tree_node@U?$pair@$$CBW4AccessCategory@access@vanetza@@V?$list@UPendingTransmission@FlowControl@dcc@vanetza@@V?$allocator@UPendingTransmission@FlowControl@dcc@vanetza@@@std@@@std@@@std@@PEAX@1@@Z
	??$_Erase_tree@V?$allocator@U?$_Tree_node@U?$pair@$$CBW4OsiLayer@vanetza@@VByteBufferConvertible@2@@std@@PEAX@std@@@std@@@?$_Tree_val@U?$_Tree_simple_types@U?$pair@$$CBW4OsiLayer@vanetza@@VByteBufferConvertible@2@@std@@@std@@@std@@QEAAXAEAV?$allocator@U?$_Tree_node@U?$pair@$$CBW4OsiLayer@vanetza@@VByteBufferConvertible@2@@std@@PEAX@std@@@1@PEAU?$_Tree_node@U?$pair@$$CBW4OsiLayer@vanetza@@VByteBufferConvertible@2@@std@@PEAX@1@@Z
	??$_Erase_tree@V?$allocator@U?$_Tree_node@UState@GradualStateMachine@dcc@vanetza@@PEAX@std@@@std@@@?$_Tree_val@U?$_Tree_simple_types@UState@GradualStateMachine@dcc@vanetza@@@std@@@std@@QEAAXAEAV?$allocator@U?$_Tree_node@UState@GradualStateMachine@dcc@vanetza@@PEAX@std@@@1@PEAU?$_Tree_node@UState@GradualStateMachine@dcc@vanetza@@PEAX@1@@Z
	??$_Erase_tree_and_orphan@V?$allocator@U?$_Tree_node@UState@GradualStateMachine@dcc@vanetza@@PEAX@std@@@std@@@?$_Tree_val@U?$_Tree_simple_types@UState@GradualStateMachine@dcc@vanetza@@@std@@@std@@QEAAXAEAV?$allocator@U?$_Tree_node@UState@GradualStateMachine@dcc@vanetza@@PEAX@std@@@1@PEAU?$_Tree_node@UState@GradualStateMachine@dcc@vanetza@@PEAX@1@@Z
	??$_Fill_vbool@V?$_Vb_iterator@U?$_Wrap_alloc@V?$allocator@I@std@@@std@@@std@@@std@@YAXV?$_Vb_iterator@U?$_Wrap_alloc@V?$allocator@I@std@@@std@@@0@V10@_N@Z
	??$_Fill_zero_memset@PEAI@std@@YAXPEAI_K@Z
	??$_Find_hint@UState@GradualStateMachine@dcc@vanetza@@@?$_Tree@V?$_Tset_traits@UState@GradualStateMachine@dcc@vanetza@@U?$less@UState@GradualStateMachine@dcc@vanetza@@@std@@V?$allocator@UState@GradualStateMachine@dcc@vanetza@@@6@$0A@@std@@@std@@IEBA?AU?$_Tree_find_hint_result@PEAU?$_Tree_node@UState@GradualStateMachine@dcc@vanetza@@PEAX@std@@@1@QEAU?$_Tree_node@UState@GradualStateMachine@dcc@vanetza@@PEAX@1@AEBUState@GradualStateMachine@dcc@vanetza@@@Z
	??$_Find_lower_bound@UState@GradualStateMachine@dcc@vanetza@@@?$_Tree@V?$_Tset_traits@UState@GradualStateMachine@dcc@vanetza@@U?$less@UState@GradualStateMachine@dcc@vanetza@@@std@@V?$allocator@UState@GradualStateMachine@dcc@vanetza@@@6@$0A@@std@@@std@@IEBA?AU?$_Tree_find_result@PEAU?$_Tree_node@UState@GradualStateMachine@dcc@vanetza@@PEAX@std@@@1@AEBUState@GradualStateMachine@dcc@vanetza@@@Z
	??$_Find_lower_bound@W4AccessCategory@access@vanetza@@@?$_Tree@V?$_Tmap_traits@W4AccessCategory@access@vanetza@@V?$list@UPendingTransmission@FlowControl@dcc@vanetza@@V?$allocator@UPendingTransmission@FlowControl@dcc@vanetza@@@std@@@std@@U?$greater@W4AccessCategory@access@vanetza@@@5@V?$allocator@U?$pair@$$CBW4AccessCategory@access@vanetza@@V?$list@UPendingTransmission@FlowControl@dcc@vanetza@@V?$allocator@UPendingTransmission@FlowControl@dcc@vanetza@@@std@@@std@@@std@@@5@$0A@@std@@@std@@IEBA?AU?$_Tree_find_result@PEAU?$_Tree_node@U?$pair@$$CBW4AccessCategory@access@vanetza@@V?$list@UPendingTransmission@FlowControl@dcc@vanetza@@V?$allocator@UPendingTransmission@FlowControl@dcc@vanetza@@@std@@@std@@@std@@PEAX@std@@@1@AEBW4AccessCategory@access@vanetza@@@Z
	??$_Fix@V?$tuple@$$QEAV?$time_point@VClock@vanetza@@V?$duration@_JU?$ratio@$00$0PECEA@@std@@@chrono@std@@@chrono@std@@@std@@@?$_Select_fixer@PEAVFlowControl@dcc@vanetza@@$0A@$0A@$0A@@std@@SAAEAPEAVFlowControl@dcc@vanetza@@AEAPEAV234@$$QEAV?$tuple@$$QEAV?$time_point@VClock@vanetza@@V?$duration@_JU?$ratio@$00$0PECEA@@std@@@chrono@std@@@chrono@std@@@1@@Z
	??$_Fix_arg@PEAVFlowControl@dcc@vanetza@@V?$tuple@$$QEAV?$time_point@VClock@vanetza@@V?$duration@_JU?$ratio@$00$0PECEA@@std@@@chrono@std@@@chrono@std@@@std@@@std@@YAAEAPEAVFlowControl@dcc@vanetza@@AEAPEAV123@$$QEAV?$tuple@$$QEAV?$time_point@VClock@vanetza@@V?$duration@_JU?$ratio@$00$0PECEA@@std@@@chrono@std@@@chrono@std@@@0@@Z
	??$_Free_non_head@V?$allocator@U?$_List_node@UPendingTransmission@FlowControl@dcc@vanetza@@PEAX@std@@@std@@@?$_List_node@UPendingTransmission@FlowControl@dcc@vanetza@@PEAX@std@@SAXAEAV?$allocator@U?$_List_node@UPendingTransmission@FlowControl@dcc@vanetza@@PEAX@std@@@1@PEAU01@@Z
	??$_Freenode0@V?$allocator@U?$_List_node@UPendingTransmission@FlowControl@dcc@vanetza@@PEAX@std@@@std@@@?$_List_node@UPendingTransmission@FlowControl@dcc@vanetza@@PEAX@std@@SAXAEAV?$allocator@U?$_List_node@UPendingTransmission@FlowControl@dcc@vanetza@@PEAX@std@@@1@PEAU01@@Z
	??$_Freenode0@V?$allocator@U?$_Tree_node@U?$pair@$$CBW4AccessCategory@access@vanetza@@V?$list@UPendingTransmission@FlowControl@dcc@vanetza@@V?$allocator@UPendingTransmission@FlowControl@dcc@vanetza@@@std@@@std@@@std@@PEAX@std@@@std@@@?$_Tree_node@U?$pair@$$CBW4AccessCategory@access@vanetza@@V?$list@UPendingTransmission@FlowControl@dcc@vanetza@@V?$allocator@UPendingTransmission@FlowControl@dcc@vanetza@@@std@@@std@@@std@@PEAX@std@@SAXAEAV?$allocator@U?$_Tree_node@U?$pair@$$CBW4AccessCategory@access@vanetza@@V?$list@UPendingTransmission@FlowControl@dcc@vanetza@@V?$allocator@UPendingTransmission@FlowControl@dcc@vanetza@@@std@@@std@@@std@@PEAX@std@@@1@PEAU01@@Z
	??$_Freenode0@V?$allocator@U?$_Tree_node@U?$pair@$$CBW4OsiLayer@vanetza@@VByteBufferConvertible@2@@std@@PEAX@std@@@std@@@?$_Tree_node@U?$pair@$$CBW4OsiLayer@vanetza@@VByteBufferConvertible@2@@std@@PEAX@std@@SAXAEAV?$allocator@U?$_Tree_node@U?$pair@$$CBW4OsiLayer@vanetza@@VByteBufferConvertible@2@@std@@PEAX@std@@@1@PEAU01@@Z
	??$_Freenode0@V?$allocator@U?$_Tree_node@UState@GradualStateMachine@dcc@vanetza@@PEAX@std@@@std@@@?$_Tree_node@UState@GradualStateMachine@dcc@vanetza@@PEAX@std@@SAXAEAV?$allocator@U?$_Tree_node@UState@GradualStateMachine@dcc@vanetza@@PEAX@std@@@1@PEAU01@@Z
	??$_Freenode@V?$allocator@U?$_List_node@UPendingTransmission@FlowControl@dcc@vanetza@@PEAX@std@@@std@@@?$_List_node@UPendingTransmission@FlowControl@dcc@vanetza@@PEAX@std@@SAXAEAV?$allocator@U?$_List_node@UPendingTransmission@FlowControl@dcc@vanetza@@PEAX@std@@@1@PEAU01@@Z
	??$_Freenode@V?$allocator@U?$_Tree_node@U?$pair@$$CBW4AccessCategory@access@vanetza@@V?$list@UPendingTransmission@FlowControl@dcc@vanetza@@V?$allocator@UPendingTransmission@FlowControl@dcc@vanetza@@@std@@@std@@@std@@PEAX@std@@@std@@@?$_Tree_node@U?$pair@$$CBW4AccessCategory@access@vanetza@@V?$list@UPendingTransmission@FlowControl@dcc@vanetza@@V?$allocator@UPendingTransmission@FlowControl@dcc@vanetza@@@std@@@std@@@std@@PEAX@std@@SAXAEAV?$allocator@U?$_Tree_node@U?$pair@$$CBW4AccessCategory@access@vanetza@@V?$list@UPendingTransmission@FlowControl@dcc@vanetza@@V?$allocator@UPendingTransmission@FlowControl@dcc@vanetza@@@std@@@std@@@std@@PEAX@std@@@1@PEAU01@@Z
	??$_Freenode@V?$allocator@U?$_Tree_node@U?$pair@$$CBW4OsiLayer@vanetza@@VByteBufferConvertible@2@@std@@PEAX@std@@@std@@@?$_Tree_node@U?$pair@$$CBW4OsiLayer@vanetza@@VByteBufferConvertible@2@@std@@PEAX@std@@SAXAEAV?$allocator@U?$_Tree_node@U?$pair@$$CBW4OsiLayer@vanetza@@VByteBufferConvertible@2@@std@@PEAX@std@@@1@PEAU01@@Z
	??$_Freenode@V?$allocator@U?$_Tree_node@UState@GradualStateMachine@dcc@vanetza@@PEAX@std@@@std@@@?$_Tree_node@UState@GradualStateMachine@dcc@vanetza@@PEAX@std@@SAXAEAV?$allocator@U?$_Tree_node@UState@GradualStateMachine@dcc@vanetza@@PEAX@std@@@1@PEAU01@@Z
	??$_Get_size_of_n@$00@std@@YA_K_K@Z
	??$_Get_size_of_n@$03@std@@YA_K_K@Z
	??$_Get_size_of_n@$07@std@@YA_K_K@Z
	??$_Get_size_of_n@$0BA@@std@@YA_K_K@Z
	??$_Get_size_of_n@$0DI@@std@@YA_K_K@Z
	??$_Get_size_of_n@$0EA@@std@@YA_K_K@Z
	??$_Get_size_of_n@$0EI@@std@@YA_K_K@Z
	??$_Get_size_of_n@$0KA@@std@@YA_K_K@Z
	??$_Get_unwrapped@AEAPEBUState@GradualStateMachine@dcc@vanetza@@@std@@YA?A_TAEAPEBUState@GradualStateMachine@dcc@vanetza@@@Z
	??$_Get_unwrapped@AEAV?$_Array_const_iterator@N$04@std@@@std@@YA?A_TAEAV?$_Array_const_iterator@N$04@0@@Z
	??$_Get_unwrapped@AEAV?$_Tree_const_iterator@V?$_Tree_val@U?$_Tree_simple_types@U?$pair@$$CBW4AccessCategory@access@vanetza@@V?$list@UPendingTransmission@FlowControl@dcc@vanetza@@V?$allocator@UPendingTransmission@FlowControl@dcc@vanetza@@@std@@@std@@@std@@@std@@@std@@@std@@@std@@YA?A_TAEAV?$_Tree_const_iterator@V?$_Tree_val@U?$_Tree_simple_types@U?$pair@$$CBW4AccessCategory@access@vanetza@@V?$list@UPendingTransmission@FlowControl@dcc@vanetza@@V?$allocator@UPendingTransmission@FlowControl@dcc@vanetza@@@std@@@std@@@std@@@std@@@std@@@0@@Z
	??$_Get_unwrapped@AEAV?$_Tree_const_iterator@V?$_Tree_val@U?$_Tree_simple_types@UState@GradualStateMachine@dcc@vanetza@@@std@@@std@@@std@@@std@@YA?A_TAEAV?$_Tree_const_iterator@V?$_Tree_val@U?$_Tree_simple_types@UState@GradualStateMachine@dcc@vanetza@@@std@@@std@@@0@@Z
	??$_Get_unwrapped@AEAV?$_Vb_iterator@U?$_Wrap_alloc@V?$allocator@I@std@@@std@@@std@@@std@@YA?A_TAEAV?$_Vb_iterator@U?$_Wrap_alloc@V?$allocator@I@std@@@std@@@0@@Z
	??$_Get_unwrapped@AEBQEAI@std@@YA?A_TAEBQEAI@Z
	??$_Get_unwrapped@AEBQEAU?$format_item@DU?$char_traits@D@std@@V?$allocator@D@2@@detail@io@boost@@@std@@YA?A_TAEBQEAU?$format_item@DU?$char_traits@D@std@@V?$allocator@D@2@@detail@io@boost@@@Z
	??$_Get_unwrapped@AEBV?$_String_const_iterator@V?$_String_val@U?$_Simple_types@D@std@@@std@@@std@@@std@@YA?A_TAEBV?$_String_const_iterator@V?$_String_val@U?$_Simple_types@D@std@@@std@@@0@@Z
	??$_Get_unwrapped_n@AEAV?$_Vb_iterator@U?$_Wrap_alloc@V?$allocator@I@std@@@std@@@std@@_J@std@@YA?A_TAEAV?$_Vb_iterator@U?$_Wrap_alloc@V?$allocator@I@std@@@std@@@0@_J@Z
	??$_Get_unwrapped_n@V?$_Tree_const_iterator@V?$_Tree_val@U?$_Tree_simple_types@UState@GradualStateMachine@dcc@vanetza@@@std@@@std@@@std@@H@std@@YA?A_T$$QEAV?$_Tree_const_iterator@V?$_Tree_val@U?$_Tree_simple_types@UState@GradualStateMachine@dcc@vanetza@@@std@@@std@@@0@H@Z
	??$_Get_unwrapped_n@V?$_Tree_const_iterator@V?$_Tree_val@U?$_Tree_simple_types@UState@GradualStateMachine@dcc@vanetza@@@std@@@std@@@std@@_J@std@@YA?A_T$$QEAV?$_Tree_const_iterator@V?$_Tree_val@U?$_Tree_simple_types@UState@GradualStateMachine@dcc@vanetza@@@std@@@std@@@0@_J@Z
	??$_Getvals@_W@?$time_get@DV?$istreambuf_iterator@DU?$char_traits@D@std@@@std@@@std@@IEAAX_WAEBV_Locinfo@1@@Z
	??$_Getvals@_W@?$time_get@_WV?$istreambuf_iterator@_WU?$char_traits@_W@std@@@std@@@std@@IEAAX_WAEBV_Locinfo@1@@Z
	??$_Idl_distance@V?$_Vb_iterator@U?$_Wrap_alloc@V?$allocator@I@std@@@std@@@std@@V12@@std@@YA?A_PAEBV?$_Vb_iterator@U?$_Wrap_alloc@V?$allocator@I@std@@@std@@@0@0@Z
	??$_Is_all_bits_zero@I@std@@YA_NAEBI@Z
	??$_Kfn@$$CBW4AccessCategory@access@vanetza@@V?$list@UPendingTransmission@FlowControl@dcc@vanetza@@V?$allocator@UPendingTransmission@FlowControl@dcc@vanetza@@@std@@@std@@@?$_Tmap_traits@W4AccessCategory@access@vanetza@@V?$list@UPendingTransmission@FlowControl@dcc@vanetza@@V?$allocator@UPendingTransmission@FlowControl@dcc@vanetza@@@std@@@std@@U?$greater@W4AccessCategory@access@vanetza@@@5@V?$allocator@U?$pair@$$CBW4AccessCategory@access@vanetza@@V?$list@UPendingTransmission@FlowControl@dcc@vanetza@@V?$allocator@UPendingTransmission@FlowControl@dcc@vanetza@@@std@@@std@@@std@@@5@$0A@@std@@SAAEBW4AccessCategory@access@vanetza@@AEBU?$pair@$$CBW4AccessCategory@access@vanetza@@V?$list@UPendingTransmission@FlowControl@dcc@vanetza@@V?$allocator@UPendingTransmission@FlowControl@dcc@vanetza@@@std@@@std@@@1@@Z
	??$_Lower_bound_duplicate@UState@GradualStateMachine@dcc@vanetza@@@?$_Tree@V?$_Tset_traits@UState@GradualStateMachine@dcc@vanetza@@U?$less@UState@GradualStateMachine@dcc@vanetza@@@std@@V?$allocator@UState@GradualStateMachine@dcc@vanetza@@@6@$0A@@std@@@std@@IEBA_NQEAU?$_Tree_node@UState@GradualStateMachine@dcc@vanetza@@PEAX@1@AEBUState@GradualStateMachine@dcc@vanetza@@@Z
	??$_Lower_bound_duplicate@W4AccessCategory@access@vanetza@@@?$_Tree@V?$_Tmap_traits@W4AccessCategory@access@vanetza@@V?$list@UPendingTransmission@FlowControl@dcc@vanetza@@V?$allocator@UPendingTransmission@FlowControl@dcc@vanetza@@@std@@@std@@U?$greater@W4AccessCategory@access@vanetza@@@5@V?$allocator@U?$pair@$$CBW4AccessCategory@access@vanetza@@V?$list@UPendingTransmission@FlowControl@dcc@vanetza@@V?$allocator@UPendingTransmission@FlowControl@dcc@vanetza@@@std@@@std@@@std@@@5@$0A@@std@@@std@@IEBA_NQEAU?$_Tree_node@U?$pair@$$CBW4AccessCategory@access@vanetza@@V?$list@UPendingTransmission@FlowControl@dcc@vanetza@@V?$allocator@UPendingTransmission@FlowControl@dcc@vanetza@@@std@@@std@@@std@@PEAX@1@AEBW4AccessCategory@access@vanetza@@@Z
	??$_Maklocstr@D@std@@YAPEADPEBDPEADAEBU_Cvtvec@@@Z
	??$_Maklocstr@_W@std@@YAPEA_WPEBDPEA_WAEBU_Cvtvec@@@Z
	??$_Move_unchecked@PEAIPEAI@std@@YAPEAIPEAI00@Z
	??$_Next_iter@PEBN@std@@YAPEBNPEBN@Z
	??$_Pocca@V?$allocator@D@std@@@std@@YAXAEAV?$allocator@D@0@AEBV10@@Z
	??$_Reallocate_for@V<lambda_66f57f934f28d61049862f64df852ff0>@@PEBD@?$basic_string@DU?$char_traits@D@std@@V?$allocator@D@2@@std@@AEAAAEAV01@_KV<lambda_66f57f934f28d61049862f64df852ff0>@@PEBD@Z
	??$_Reallocate_grow_by@V<lambda_65e615be2a453ca0576c979606f46740>@@PEBD_K@?$basic_string@DU?$char_traits@D@std@@V?$allocator@D@2@@std@@AEAAAEAV01@_KV<lambda_65e615be2a453ca0576c979606f46740>@@PEBD_K@Z
	??$_Reallocate_grow_by@V<lambda_9013ee9e23efe4882b67eff5b0ecf103>@@$$V@?$basic_string@DU?$char_traits@D@std@@V?$allocator@D@2@@std@@AEAAAEAV01@_KV<lambda_9013ee9e23efe4882b67eff5b0ecf103>@@@Z
	??$_Reallocate_grow_by@V<lambda_e1befb086ad3257e3f042a63030725f7>@@_KD@?$basic_string@DU?$char_traits@D@std@@V?$allocator@D@2@@std@@AEAAAEAV01@_KV<lambda_e1befb086ad3257e3f042a63030725f7>@@_KD@Z
	??$_Refancy@PEBD$0A@@std@@YAPEBDPEBD@Z
	??$_Reset@V?$_Binder@U_Unforced@std@@P8FlowControl@dcc@vanetza@@EAAXXZPEAV345@@std@@@?$_Func_class@XV?$time_point@VClock@vanetza@@V?$duration@_JU?$ratio@$00$0PECEA@@std@@@chrono@std@@@chrono@std@@@std@@IEAAX$$QEAV?$_Binder@U_Unforced@std@@P8FlowControl@dcc@vanetza@@EAAXXZPEAV345@@1@@Z
	??$_Resize@I@?$vector@IV?$allocator@I@std@@@std@@AEAAX_KAEBI@Z
	??$_Resize@U?$format_item@DU?$char_traits@D@std@@V?$allocator@D@2@@detail@io@boost@@@?$vector@U?$format_item@DU?$char_traits@D@std@@V?$allocator@D@2@@detail@io@boost@@V?$allocator@U?$format_item@DU?$char_traits@D@std@@V?$allocator@D@2@@detail@io@boost@@@std@@@std@@AEAAX_KAEBU?$format_item@DU?$char_traits@D@std@@V?$allocator@D@2@@detail@io@boost@@@Z
	??$_Resize_reallocate@I@?$vector@IV?$allocator@I@std@@@std@@AEAAX_KAEBI@Z
	??$_Resize_reallocate@U?$format_item@DU?$char_traits@D@std@@V?$allocator@D@2@@detail@io@boost@@@?$vector@U?$format_item@DU?$char_traits@D@std@@V?$allocator@D@2@@detail@io@boost@@V?$allocator@U?$format_item@DU?$char_traits@D@std@@V?$allocator@D@2@@detail@io@boost@@@std@@@std@@AEAAX_KAEBU?$format_item@DU?$char_traits@D@std@@V?$allocator@D@2@@detail@io@boost@@@Z
	??$_Seek_wrapped@V?$_Array_const_iterator@N$04@std@@AEAPEBN@std@@YAXAEAV?$_Array_const_iterator@N$04@0@AEAPEBN@Z
	??$_Seek_wrapped@V?$_Vb_iterator@U?$_Wrap_alloc@V?$allocator@I@std@@@std@@@std@@V12@@std@@YAXAEAV?$_Vb_iterator@U?$_Wrap_alloc@V?$allocator@I@std@@@std@@@0@$$QEAV10@@Z
	??$_Swap_adl@PEAU?$_Tree_node@UState@GradualStateMachine@dcc@vanetza@@PEAX@std@@@std@@YAXAEAPEAU?$_Tree_node@UState@GradualStateMachine@dcc@vanetza@@PEAX@0@0@Z
	??$_Test_callable@V?$_Binder@U_Unforced@std@@P8FlowControl@dcc@vanetza@@EAAXXZPEAV345@@std@@@std@@YA_NAEBV?$_Binder@U_Unforced@std@@P8FlowControl@dcc@vanetza@@EAAXXZPEAV345@@0@@Z
	??$_To_address@PEAI@std@@YA?A_PAEBQEAI@Z
	??$_Traits_find_ch@U?$char_traits@D@std@@@std@@YA_KQEBD_K1D@Z
	??$_Try_emplace@AEBW4AccessCategory@access@vanetza@@$$V@?$map@W4AccessCategory@access@vanetza@@V?$list@UPendingTransmission@FlowControl@dcc@vanetza@@V?$allocator@UPendingTransmission@FlowControl@dcc@vanetza@@@std@@@std@@U?$greater@W4AccessCategory@access@vanetza@@@5@V?$allocator@U?$pair@$$CBW4AccessCategory@access@vanetza@@V?$list@UPendingTransmission@FlowControl@dcc@vanetza@@V?$allocator@UPendingTransmission@FlowControl@dcc@vanetza@@@std@@@std@@@std@@@5@@std@@AEAA?AU?$pair@PEAU?$_Tree_node@U?$pair@$$CBW4AccessCategory@access@vanetza@@V?$list@UPendingTransmission@FlowControl@dcc@vanetza@@V?$allocator@UPendingTransmission@FlowControl@dcc@vanetza@@@std@@@std@@@std@@PEAX@std@@_N@1@AEBW4AccessCategory@access@vanetza@@@Z
	??$_Tuple_get@$0A@AEBW4AccessCategory@access@vanetza@@@std@@YA$$QEA_P$$QEAV?$tuple@AEBW4AccessCategory@access@vanetza@@@0@@Z
	??$_Unfancy@$$CBD@std@@YAPEBDPEBD@Z
	??$_Unfancy@D@std@@YAPEADPEAD@Z
	??$_Unfancy@I@std@@YAPEAIPEAI@Z
	??$_Unfancy@U?$format_item@DU?$char_traits@D@std@@V?$allocator@D@2@@detail@io@boost@@@std@@YAPEAU?$format_item@DU?$char_traits@D@std@@V?$allocator@D@2@@detail@io@boost@@PEAU1234@@Z
	??$_Unfancy@U_Container_proxy@std@@@std@@YAPEAU_Container_proxy@0@PEAU10@@Z
	??$_Unfancy_maybe_null@I@std@@YAPEAIPEAI@Z
	??$_Uninitialized_copy@PEAIV?$allocator@I@std@@@std@@YAPEAIQEAI0PEAIAEAV?$allocator@I@0@@Z
	??$_Uninitialized_copy@PEAU?$format_item@DU?$char_traits@D@std@@V?$allocator@D@2@@detail@io@boost@@V?$allocator@U?$format_item@DU?$char_traits@D@std@@V?$allocator@D@2@@detail@io@boost@@@std@@@std@@YAPEAU?$format_item@DU?$char_traits@D@std@@V?$allocator@D@2@@detail@io@boost@@QEAU1234@0PEAU1234@AEAV?$allocator@U?$format_item@DU?$char_traits@D@std@@V?$allocator@D@2@@detail@io@boost@@@0@@Z
	??$_Uninitialized_fill_n@V?$allocator@I@std@@@std@@YAPEAIPEAI_KAEBIAEAV?$allocator@I@0@@Z
	??$_Uninitialized_fill_n@V?$allocator@U?$format_item@DU?$char_traits@D@std@@V?$allocator@D@2@@detail@io@boost@@@std@@@std@@YAPEAU?$format_item@DU?$char_traits@D@std@@V?$allocator@D@2@@detail@io@boost@@PEAU1234@_KAEBU1234@AEAV?$allocator@U?$format_item@DU?$char_traits@D@std@@V?$allocator@D@2@@detail@io@boost@@@0@@Z
	??$_Uninitialized_move@PEAIV?$allocator@I@std@@@std@@YAPEAIQEAI0PEAIAEAV?$allocator@I@0@@Z
	??$_Uninitialized_move@PEAU?$format_item@DU?$char_traits@D@std@@V?$allocator@D@2@@detail@io@boost@@V?$allocator@U?$format_item@DU?$char_traits@D@std@@V?$allocator@D@2@@detail@io@boost@@@std@@@std@@YAPEAU?$format_item@DU?$char_traits@D@std@@V?$allocator@D@2@@detail@io@boost@@QEAU1234@0PEAU1234@AEAV?$allocator@U?$format_item@DU?$char_traits@D@std@@V?$allocator@D@2@@detail@io@boost@@@0@@Z
	??$_Verify_range@N$04@std@@YAXAEBV?$_Array_const_iterator@N$04@0@0@Z
	??$_Verify_range@U?$format_item@DU?$char_traits@D@std@@V?$allocator@D@2@@detail@io@boost@@@std@@YAXQEBU?$format_item@DU?$char_traits@D@std@@V?$allocator@D@2@@detail@io@boost@@0@Z
	??$_Verify_range@UState@GradualStateMachine@dcc@vanetza@@@std@@YAXQEBUState@GradualStateMachine@dcc@vanetza@@0@Z
	??$_Voidify_iter@PEAI@std@@YAPEAXPEAI@Z
	??$_Voidify_iter@PEAPEAD@std@@YAPEAXPEAPEAD@Z
	??$_Voidify_iter@PEAPEAU?$_List_node@UPendingTransmission@FlowControl@dcc@vanetza@@PEAX@std@@@std@@YAPEAXPEAPEAU?$_List_node@UPendingTransmission@FlowControl@dcc@vanetza@@PEAX@0@@Z
	??$_Voidify_iter@PEAPEAU?$_Tree_node@U?$pair@$$CBW4AccessCategory@access@vanetza@@V?$list@UPendingTransmission@FlowControl@dcc@vanetza@@V?$allocator@UPendingTransmission@FlowControl@dcc@vanetza@@@std@@@std@@@std@@PEAX@std@@@std@@YAPEAXPEAPEAU?$_Tree_node@U?$pair@$$CBW4AccessCategory@access@vanetza@@V?$list@UPendingTransmission@FlowControl@dcc@vanetza@@V?$allocator@UPendingTransmission@FlowControl@dcc@vanetza@@@std@@@std@@@std@@PEAX@0@@Z
	??$_Voidify_iter@PEAPEAU?$_Tree_node@UState@GradualStateMachine@dcc@vanetza@@PEAX@std@@@std@@YAPEAXPEAPEAU?$_Tree_node@UState@GradualStateMachine@dcc@vanetza@@PEAX@0@@Z
	??$_Voidify_iter@PEAU?$format_item@DU?$char_traits@D@std@@V?$allocator@D@2@@detail@io@boost@@@std@@YAPEAXPEAU?$format_item@DU?$char_traits@D@std@@V?$allocator@D@2@@detail@io@boost@@@Z
	??$_Voidify_iter@PEAU?$pair@$$CBW4AccessCategory@access@vanetza@@V?$list@UPendingTransmission@FlowControl@dcc@vanetza@@V?$allocator@UPendingTransmission@FlowControl@dcc@vanetza@@@std@@@std@@@std@@@std@@YAPEAXPEAU?$pair@$$CBW4AccessCategory@access@vanetza@@V?$list@UPendingTransmission@FlowControl@dcc@vanetza@@V?$allocator@UPendingTransmission@FlowControl@dcc@vanetza@@@std@@@std@@@0@@Z
	??$_Voidify_iter@PEAUPendingTransmission@FlowControl@dcc@vanetza@@@std@@YAPEAXPEAUPendingTransmission@FlowControl@dcc@vanetza@@@Z
	??$_Voidify_iter@PEAUState@GradualStateMachine@dcc@vanetza@@@std@@YAPEAXPEAUState@GradualStateMachine@dcc@vanetza@@@Z
	??$_Voidify_iter@PEAU_Container_proxy@std@@@std@@YAPEAXPEAU_Container_proxy@0@@Z
	??$_Voidify_iter@PEAV?$time_point@VClock@vanetza@@V?$duration@_JU?$ratio@$00$0PECEA@@std@@@chrono@std@@@chrono@std@@@std@@YAPEAXPEAV?$time_point@VClock@vanetza@@V?$duration@_JU?$ratio@$00$0PECEA@@std@@@chrono@std@@@chrono@0@@Z
	??$_Voidify_iter@PEAVChannelLoad@dcc@vanetza@@@std@@YAPEAXPEAVChannelLoad@dcc@vanetza@@@Z
	??$add@PEAV?$time_point@VClock@vanetza@@V?$duration@_JU?$ratio@$00$0PECEA@@std@@@chrono@std@@@chrono@std@@@?$circular_buffer@V?$time_point@VClock@vanetza@@V?$duration@_JU?$ratio@$00$0PECEA@@std@@@chrono@std@@@chrono@std@@V?$allocator@V?$time_point@VClock@vanetza@@V?$duration@_JU?$ratio@$00$0PECEA@@std@@@chrono@std@@@chrono@std@@@3@@boost@@AEBAPEAV?$time_point@VClock@vanetza@@V?$duration@_JU?$ratio@$00$0PECEA@@std@@@chrono@std@@@chrono@std@@PEAV234@_J@Z
	??$addressof@$$CBU?$pair@$$CBW4AccessCategory@access@vanetza@@V?$list@UPendingTransmission@FlowControl@dcc@vanetza@@V?$allocator@UPendingTransmission@FlowControl@dcc@vanetza@@@std@@@std@@@std@@@std@@YAPEBU?$pair@$$CBW4AccessCategory@access@vanetza@@V?$list@UPendingTransmission@FlowControl@dcc@vanetza@@V?$allocator@UPendingTransmission@FlowControl@dcc@vanetza@@@std@@@std@@@0@AEBU10@@Z
	??$addressof@$$CBUState@GradualStateMachine@dcc@vanetza@@@std@@YAPEBUState@GradualStateMachine@dcc@vanetza@@AEBU1234@@Z
	??$addressof@$$CBV?$_Binder@U_Unforced@std@@P8FlowControl@dcc@vanetza@@EAAXXZPEAV345@@std@@@std@@YAPEBV?$_Binder@U_Unforced@std@@P8FlowControl@dcc@vanetza@@EAAXXZPEAV345@@0@AEBV10@@Z
	??$addressof@$$CBV?$_String_val@U?$_Simple_types@D@std@@@std@@@std@@YAPEBV?$_String_val@U?$_Simple_types@D@std@@@0@AEBV10@@Z
	??$addressof@$$CBV?$_Tree_val@U?$_Tree_simple_types@U?$pair@$$CBW4AccessCategory@access@vanetza@@V?$list@UPendingTransmission@FlowControl@dcc@vanetza@@V?$allocator@UPendingTransmission@FlowControl@dcc@vanetza@@@std@@@std@@@std@@@std@@@std@@@std@@YAPEBV?$_Tree_val@U?$_Tree_simple_types@U?$pair@$$CBW4AccessCategory@access@vanetza@@V?$list@UPendingTransmission@FlowControl@dcc@vanetza@@V?$allocator@UPendingTransmission@FlowControl@dcc@vanetza@@@std@@@std@@@std@@@std@@@0@AEBV10@@Z
	??$addressof@$$CBV?$_Tree_val@U?$_Tree_simple_types@UState@GradualStateMachine@dcc@vanetza@@@std@@@std@@@std@@YAPEBV?$_Tree_val@U?$_Tree_simple_types@UState@GradualStateMachine@dcc@vanetza@@@std@@@0@AEBV10@@Z
	??$addressof@$$CBV?$basic_string@DU?$char_traits@D@std@@V?$allocator@D@2@@std@@@std@@YAPEBV?$basic_string@DU?$char_traits@D@std@@V?$allocator@D@2@@0@AEBV10@@Z
	??$addressof@PEAD@std@@YAPEAPEADAEAPEAD@Z
	??$addressof@PEAU?$_List_node@UPendingTransmission@FlowControl@dcc@vanetza@@PEAX@std@@@std@@YAPEAPEAU?$_List_node@UPendingTransmission@FlowControl@dcc@vanetza@@PEAX@0@AEAPEAU10@@Z
	??$addressof@PEAU?$_Tree_node@U?$pair@$$CBW4AccessCategory@access@vanetza@@V?$list@UPendingTransmission@FlowControl@dcc@vanetza@@V?$allocator@UPendingTransmission@FlowControl@dcc@vanetza@@@std@@@std@@@std@@PEAX@std@@@std@@YAPEAPEAU?$_Tree_node@U?$pair@$$CBW4AccessCategory@access@vanetza@@V?$list@UPendingTransmission@FlowControl@dcc@vanetza@@V?$allocator@UPendingTransmission@FlowControl@dcc@vanetza@@@std@@@std@@@std@@PEAX@0@AEAPEAU10@@Z
	??$addressof@PEAU?$_Tree_node@UState@GradualStateMachine@dcc@vanetza@@PEAX@std@@@std@@YAPEAPEAU?$_Tree_node@UState@GradualStateMachine@dcc@vanetza@@PEAX@0@AEAPEAU10@@Z
	??$addressof@U?$pair@$$CBW4AccessCategory@access@vanetza@@V?$list@UPendingTransmission@FlowControl@dcc@vanetza@@V?$allocator@UPendingTransmission@FlowControl@dcc@vanetza@@@std@@@std@@@std@@@std@@YAPEAU?$pair@$$CBW4AccessCategory@access@vanetza@@V?$list@UPendingTransmission@FlowControl@dcc@vanetza@@V?$allocator@UPendingTransmission@FlowControl@dcc@vanetza@@@std@@@std@@@0@AEAU10@@Z
	??$addressof@U?$pair@$$CBW4OsiLayer@vanetza@@VByteBufferConvertible@2@@std@@@std@@YAPEAU?$pair@$$CBW4OsiLayer@vanetza@@VByteBufferConvertible@2@@0@AEAU10@@Z
	??$addressof@UPendingTransmission@FlowControl@dcc@vanetza@@@std@@YAPEAUPendingTransmission@FlowControl@dcc@vanetza@@AEAU1234@@Z
	??$addressof@UState@GradualStateMachine@dcc@vanetza@@@std@@YAPEAUState@GradualStateMachine@dcc@vanetza@@AEAU1234@@Z
	??$addressof@U_Container_base12@std@@@std@@YAPEAU_Container_base12@0@AEAU10@@Z
	??$addressof@U_Container_proxy@std@@@std@@YAPEAU_Container_proxy@0@AEAU10@@Z
	??$addressof@V?$_String_val@U?$_Simple_types@D@std@@@std@@@std@@YAPEAV?$_String_val@U?$_Simple_types@D@std@@@0@AEAV10@@Z
	??$addressof@V?$_Tree_val@U?$_Tree_simple_types@U?$pair@$$CBW4AccessCategory@access@vanetza@@V?$list@UPendingTransmission@FlowControl@dcc@vanetza@@V?$allocator@UPendingTransmission@FlowControl@dcc@vanetza@@@std@@@std@@@std@@@std@@@std@@@std@@YAPEAV?$_Tree_val@U?$_Tree_simple_types@U?$pair@$$CBW4AccessCategory@access@vanetza@@V?$list@UPendingTransmission@FlowControl@dcc@vanetza@@V?$allocator@UPendingTransmission@FlowControl@dcc@vanetza@@@std@@@std@@@std@@@std@@@0@AEAV10@@Z
	??$addressof@V?$_Tree_val@U?$_Tree_simple_types@U?$pair@$$CBW4OsiLayer@vanetza@@VByteBufferConvertible@2@@std@@@std@@@std@@@std@@YAPEAV?$_Tree_val@U?$_Tree_simple_types@U?$pair@$$CBW4OsiLayer@vanetza@@VByteBufferConvertible@2@@std@@@std@@@0@AEAV10@@Z
	??$addressof@V?$_Tree_val@U?$_Tree_simple_types@UState@GradualStateMachine@dcc@vanetza@@@std@@@std@@@std@@YAPEAV?$_Tree_val@U?$_Tree_simple_types@UState@GradualStateMachine@dcc@vanetza@@@std@@@0@AEAV10@@Z
	??$addressof@V?$_Vector_val@U?$_Simple_types@I@std@@@std@@@std@@YAPEAV?$_Vector_val@U?$_Simple_types@I@std@@@0@AEAV10@@Z
	??$addressof@V?$function@$$A6AXW4AccessCategory@access@vanetza@@PEBVChunkPacket@3@@Z@std@@@std@@YAPEAV?$function@$$A6AXW4AccessCategory@access@vanetza@@PEBVChunkPacket@3@@Z@0@AEAV10@@Z
	??$addressof@V?$unique_ptr@VChunkPacket@vanetza@@U?$default_delete@VChunkPacket@vanetza@@@std@@@std@@@std@@YAPEAV?$unique_ptr@VChunkPacket@vanetza@@U?$default_delete@VChunkPacket@vanetza@@@std@@@0@AEAV10@@Z
	??$addressof@VNo_Op@?$basic_oaltstringstream@DU?$char_traits@D@std@@V?$allocator@D@2@@io@boost@@@boost@@YAPEAVNo_Op@?$basic_oaltstringstream@DU?$char_traits@D@std@@V?$allocator@D@2@@io@0@AEAV1230@@Z
	??$advance@PEBN_J@std@@YAXAEAPEBN_J@Z
	??$advance@V?$_Tree_const_iterator@V?$_Tree_val@U?$_Tree_simple_types@UState@GradualStateMachine@dcc@vanetza@@@std@@@std@@@std@@H@std@@YAXAEAV?$_Tree_const_iterator@V?$_Tree_val@U?$_Tree_simple_types@UState@GradualStateMachine@dcc@vanetza@@@std@@@std@@@0@H@Z
	??$advance@V?$_Tree_const_iterator@V?$_Tree_val@U?$_Tree_simple_types@UState@GradualStateMachine@dcc@vanetza@@@std@@@std@@@std@@_J@std@@YAXAEAV?$_Tree_const_iterator@V?$_Tree_val@U?$_Tree_simple_types@UState@GradualStateMachine@dcc@vanetza@@@std@@@std@@@0@_J@Z
	??$allocator_allocate@V?$allocator@D@std@@@boost@@YAPEADAEAV?$allocator@D@std@@_KPEBX@Z
	??$allocator_construct@V?$allocator@V?$time_point@VClock@vanetza@@V?$duration@_JU?$ratio@$00$0PECEA@@std@@@chrono@std@@@chrono@std@@@std@@V?$time_point@VClock@vanetza@@V?$duration@_JU?$ratio@$00$0PECEA@@std@@@chrono@std@@@chrono@2@AEBV342@@boost@@YAXAEAV?$allocator@V?$time_point@VClock@vanetza@@V?$duration@_JU?$ratio@$00$0PECEA@@std@@@chrono@std@@@chrono@std@@@std@@PEAV?$time_point@VClock@vanetza@@V?$duration@_JU?$ratio@$00$0PECEA@@std@@@chrono@std@@@chrono@2@AEBV342@@Z
	??$allocator_construct@V?$allocator@V?$time_point@VClock@vanetza@@V?$duration@_JU?$ratio@$00$0PECEA@@std@@@chrono@std@@@chrono@std@@@std@@V?$time_point@VClock@vanetza@@V?$duration@_JU?$ratio@$00$0PECEA@@std@@@chrono@std@@@chrono@2@V342@@boost@@YAXAEAV?$allocator@V?$time_point@VClock@vanetza@@V?$duration@_JU?$ratio@$00$0PECEA@@std@@@chrono@std@@@chrono@std@@@std@@PEAV?$time_point@VClock@vanetza@@V?$duration@_JU?$ratio@$00$0PECEA@@std@@@chrono@std@@@chrono@2@$$QEAV342@@Z
	??$allocator_construct@V?$allocator@VChannelLoad@dcc@vanetza@@@std@@VChannelLoad@dcc@vanetza@@AEBV345@@boost@@YAXAEAV?$allocator@VChannelLoad@dcc@vanetza@@@std@@PEAVChannelLoad@dcc@vanetza@@AEBV345@@Z
	??$allocator_destroy@V?$allocator@V?$time_point@VClock@vanetza@@V?$duration@_JU?$ratio@$00$0PECEA@@std@@@chrono@std@@@chrono@std@@@std@@V?$time_point@VClock@vanetza@@V?$duration@_JU?$ratio@$00$0PECEA@@std@@@chrono@std@@@chrono@2@@boost@@YAXAEAV?$allocator@V?$time_point@VClock@vanetza@@V?$duration@_JU?$ratio@$00$0PECEA@@std@@@chrono@std@@@chrono@std@@@std@@PEAV?$time_point@VClock@vanetza@@V?$duration@_JU?$ratio@$00$0PECEA@@std@@@chrono@std@@@chrono@2@@Z
	??$allocator_destroy@V?$allocator@VChannelLoad@dcc@vanetza@@@std@@VChannelLoad@dcc@vanetza@@@boost@@YAXAEAV?$allocator@VChannelLoad@dcc@vanetza@@@std@@PEAVChannelLoad@dcc@vanetza@@@Z
	??$allocator_max_size@V?$allocator@V?$time_point@VClock@vanetza@@V?$duration@_JU?$ratio@$00$0PECEA@@std@@@chrono@std@@@chrono@std@@@std@@@boost@@YA_KAEBV?$allocator@V?$time_point@VClock@vanetza@@V?$duration@_JU?$ratio@$00$0PECEA@@std@@@chrono@std@@@chrono@std@@@std@@@Z
	??$allocator_max_size@V?$allocator@VChannelLoad@dcc@vanetza@@@std@@@boost@@YA_KAEBV?$allocator@VChannelLoad@dcc@vanetza@@@std@@@Z
	??$append@V?$_String_const_iterator@V?$_String_val@U?$_Simple_types@D@std@@@std@@@std@@$0A@@?$basic_string@DU?$char_traits@D@std@@V?$allocator@D@2@@std@@QEAAAEAV01@V?$_String_const_iterator@V?$_String_val@U?$_Simple_types@D@std@@@std@@@1@0@Z
	??$append_string@V?$basic_string@DU?$char_traits@D@std@@V?$allocator@D@2@@std@@@detail@io@boost@@YAXAEAV?$basic_string@DU?$char_traits@D@std@@V?$allocator@D@2@@std@@AEBV34@_K2@Z
	??$bind@P8FlowControl@dcc@vanetza@@EAAXXZPEAV123@@std@@YA?AV?$_Binder@U_Unforced@std@@P8FlowControl@dcc@vanetza@@EAAXXZPEAV345@@0@$$QEAP8FlowControl@dcc@vanetza@@EAAXXZ$$QEAPEAV234@@Z
	??$call_put_head@DU?$char_traits@D@std@@$$CB_J@detail@io@boost@@YAXAEAV?$basic_ostream@DU?$char_traits@D@std@@@std@@PEBX@Z
	??$call_put_last@DU?$char_traits@D@std@@$$CB_J@detail@io@boost@@YAXAEAV?$basic_ostream@DU?$char_traits@D@std@@@std@@PEBX@Z
	??$const_or_not@V?$ctype@D@std@@@detail@io@boost@@YAAEBV?$ctype@D@std@@AEBV34@@Z
	??$construct@IAEAI@?$_Default_allocator_traits@V?$allocator@I@std@@@std@@SAXAEAV?$allocator@I@1@QEAIAEAI@Z
	??$construct@IAEBI@?$_Default_allocator_traits@V?$allocator@I@std@@@std@@SAXAEAV?$allocator@I@1@QEAIAEBI@Z
	??$construct@II@?$_Default_allocator_traits@V?$allocator@I@std@@@std@@SAXAEAV?$allocator@I@1@QEAI$$QEAI@Z
	??$construct@U?$format_item@DU?$char_traits@D@std@@V?$allocator@D@2@@detail@io@boost@@AEAU1234@@?$_Default_allocator_traits@V?$allocator@U?$format_item@DU?$char_traits@D@std@@V?$allocator@D@2@@detail@io@boost@@@std@@@std@@SAXAEAV?$allocator@U?$format_item@DU?$char_traits@D@std@@V?$allocator@D@2@@detail@io@boost@@@1@QEAU?$format_item@DU?$char_traits@D@std@@V?$allocator@D@2@@detail@io@boost@@AEAU3456@@Z
	??$construct@U?$format_item@DU?$char_traits@D@std@@V?$allocator@D@2@@detail@io@boost@@AEBU1234@@?$_Default_allocator_traits@V?$allocator@U?$format_item@DU?$char_traits@D@std@@V?$allocator@D@2@@detail@io@boost@@@std@@@std@@SAXAEAV?$allocator@U?$format_item@DU?$char_traits@D@std@@V?$allocator@D@2@@detail@io@boost@@@1@QEAU?$format_item@DU?$char_traits@D@std@@V?$allocator@D@2@@detail@io@boost@@AEBU3456@@Z
	??$construct@U?$format_item@DU?$char_traits@D@std@@V?$allocator@D@2@@detail@io@boost@@U1234@@?$_Default_allocator_traits@V?$allocator@U?$format_item@DU?$char_traits@D@std@@V?$allocator@D@2@@detail@io@boost@@@std@@@std@@SAXAEAV?$allocator@U?$format_item@DU?$char_traits@D@std@@V?$allocator@D@2@@detail@io@boost@@@1@QEAU?$format_item@DU?$char_traits@D@std@@V?$allocator@D@2@@detail@io@boost@@$$QEAU3456@@Z
	??$construct@U?$pair@$$CBW4AccessCategory@access@vanetza@@V?$list@UPendingTransmission@FlowControl@dcc@vanetza@@V?$allocator@UPendingTransmission@FlowControl@dcc@vanetza@@@std@@@std@@@std@@AEBUpiecewise_construct_t@2@V?$tuple@AEBW4AccessCategory@access@vanetza@@@2@V?$tuple@$$V@2@@?$_Default_allocator_traits@V?$allocator@U?$_Tree_node@U?$pair@$$CBW4AccessCategory@access@vanetza@@V?$list@UPendingTransmission@FlowControl@dcc@vanetza@@V?$allocator@UPendingTransmission@FlowControl@dcc@vanetza@@@std@@@std@@@std@@PEAX@std@@@std@@@std@@SAXAEAV?$allocator@U?$_Tree_node@U?$pair@$$CBW4AccessCategory@access@vanetza@@V?$list@UPendingTransmission@FlowControl@dcc@vanetza@@V?$allocator@UPendingTransmission@FlowControl@dcc@vanetza@@@std@@@std@@@std@@PEAX@std@@@1@QEAU?$pair@$$CBW4AccessCategory@access@vanetza@@V?$list@UPendingTransmission@FlowControl@dcc@vanetza@@V?$allocator@UPendingTransmission@FlowControl@dcc@vanetza@@@std@@@std@@@1@AEBUpiecewise_construct_t@1@$$QEAV?$tuple@AEBW4AccessCategory@access@vanetza@@@1@$$QEAV?$tuple@$$V@1@@Z
	??$construct@UPendingTransmission@FlowControl@dcc@vanetza@@AEAV?$time_point@VClock@vanetza@@V?$duration@_JU?$ratio@$00$0PECEA@@std@@@chrono@std@@@chrono@std@@AEBUDataRequest@34@V?$unique_ptr@VChunkPacket@vanetza@@U?$default_delete@VChunkPacket@vanetza@@@std@@@7@@?$_Default_allocator_traits@V?$allocator@U?$_List_node@UPendingTransmission@FlowControl@dcc@vanetza@@PEAX@std@@@std@@@std@@SAXAEAV?$allocator@U?$_List_node@UPendingTransmission@FlowControl@dcc@vanetza@@PEAX@std@@@1@QEAUPendingTransmission@FlowControl@dcc@vanetza@@AEAV?$time_point@VClock@vanetza@@V?$duration@_JU?$ratio@$00$0PECEA@@std@@@chrono@std@@@chrono@1@AEBUDataRequest@56@$$QEAV?$unique_ptr@VChunkPacket@vanetza@@U?$default_delete@VChunkPacket@vanetza@@@std@@@1@@Z
	??$construct@UState@GradualStateMachine@dcc@vanetza@@AEAU1234@@?$_Default_allocator_traits@V?$allocator@U?$_Tree_node@UState@GradualStateMachine@dcc@vanetza@@PEAX@std@@@std@@@std@@SAXAEAV?$allocator@U?$_Tree_node@UState@GradualStateMachine@dcc@vanetza@@PEAX@std@@@1@QEAUState@GradualStateMachine@dcc@vanetza@@AEAU3456@@Z
	??$construct@UState@GradualStateMachine@dcc@vanetza@@AEBU1234@@?$_Default_allocator_traits@V?$allocator@U?$_Tree_node@UState@GradualStateMachine@dcc@vanetza@@PEAX@std@@@std@@@std@@SAXAEAV?$allocator@U?$_Tree_node@UState@GradualStateMachine@dcc@vanetza@@PEAX@std@@@1@QEAUState@GradualStateMachine@dcc@vanetza@@AEBU3456@@Z
	??$construct@UState@GradualStateMachine@dcc@vanetza@@VChannelLoad@34@V?$duration@_JU?$ratio@$00$0PECEA@@std@@@chrono@std@@@?$_Default_allocator_traits@V?$allocator@U?$_Tree_node@UState@GradualStateMachine@dcc@vanetza@@PEAX@std@@@std@@@std@@SAXAEAV?$allocator@U?$_Tree_node@UState@GradualStateMachine@dcc@vanetza@@PEAX@std@@@1@QEAUState@GradualStateMachine@dcc@vanetza@@$$QEAVChannelLoad@56@$$QEAV?$duration@_JU?$ratio@$00$0PECEA@@std@@@chrono@1@@Z
	??$construct@V?$time_point@VClock@vanetza@@V?$duration@_JU?$ratio@$00$0PECEA@@std@@@chrono@std@@@chrono@std@@AEBV123@@?$allocator@V?$time_point@VClock@vanetza@@V?$duration@_JU?$ratio@$00$0PECEA@@std@@@chrono@std@@@chrono@std@@@std@@QEAAXQEAV?$time_point@VClock@vanetza@@V?$duration@_JU?$ratio@$00$0PECEA@@std@@@chrono@std@@@chrono@1@AEBV231@@Z
	??$construct@V?$time_point@VClock@vanetza@@V?$duration@_JU?$ratio@$00$0PECEA@@std@@@chrono@std@@@chrono@std@@V123@@?$allocator@V?$time_point@VClock@vanetza@@V?$duration@_JU?$ratio@$00$0PECEA@@std@@@chrono@std@@@chrono@std@@@std@@QEAAXQEAV?$time_point@VClock@vanetza@@V?$duration@_JU?$ratio@$00$0PECEA@@std@@@chrono@std@@@chrono@1@$$QEAV231@@Z
	??$construct@VChannelLoad@dcc@vanetza@@AEBV123@@?$allocator@VChannelLoad@dcc@vanetza@@@std@@QEAAXQEAVChannelLoad@dcc@vanetza@@AEBV234@@Z
	??$copy@V?$_Vb_iterator@U?$_Wrap_alloc@V?$allocator@I@std@@@std@@@std@@V12@@std@@YA?AV?$_Vb_iterator@U?$_Wrap_alloc@V?$allocator@I@std@@@std@@@0@V10@00@Z
	??$copy_backward@V?$_Vb_iterator@U?$_Wrap_alloc@V?$allocator@I@std@@@std@@@std@@V12@@std@@YA?AV?$_Vb_iterator@U?$_Wrap_alloc@V?$allocator@I@std@@@std@@@0@V10@00@Z
	??$decrement@PEAV?$time_point@VClock@vanetza@@V?$duration@_JU?$ratio@$00$0PECEA@@std@@@chrono@std@@@chrono@std@@@?$circular_buffer@V?$time_point@VClock@vanetza@@V?$duration@_JU?$ratio@$00$0PECEA@@std@@@chrono@std@@@chrono@std@@V?$allocator@V?$time_point@VClock@vanetza@@V?$duration@_JU?$ratio@$00$0PECEA@@std@@@chrono@std@@@chrono@std@@@3@@boost@@AEBAXAEAPEAV?$time_point@VClock@vanetza@@V?$duration@_JU?$ratio@$00$0PECEA@@std@@@chrono@std@@@chrono@std@@@Z
	??$decrement@PEAVChannelLoad@dcc@vanetza@@@?$circular_buffer@VChannelLoad@dcc@vanetza@@V?$allocator@VChannelLoad@dcc@vanetza@@@std@@@boost@@AEBAXAEAPEAVChannelLoad@dcc@vanetza@@@Z
	??$destroy@PEAU?$_List_node@UPendingTransmission@FlowControl@dcc@vanetza@@PEAX@std@@@?$_Default_allocator_traits@V?$allocator@U?$_List_node@UPendingTransmission@FlowControl@dcc@vanetza@@PEAX@std@@@std@@@std@@SAXAEAV?$allocator@U?$_List_node@UPendingTransmission@FlowControl@dcc@vanetza@@PEAX@std@@@1@QEAPEAU?$_List_node@UPendingTransmission@FlowControl@dcc@vanetza@@PEAX@1@@Z
	??$destroy@U?$format_item@DU?$char_traits@D@std@@V?$allocator@D@2@@detail@io@boost@@@?$_Default_allocator_traits@V?$allocator@U?$format_item@DU?$char_traits@D@std@@V?$allocator@D@2@@detail@io@boost@@@std@@@std@@SAXAEAV?$allocator@U?$format_item@DU?$char_traits@D@std@@V?$allocator@D@2@@detail@io@boost@@@1@QEAU?$format_item@DU?$char_traits@D@std@@V?$allocator@D@2@@detail@io@boost@@@Z
	??$destroy@U?$pair@$$CBW4AccessCategory@access@vanetza@@V?$list@UPendingTransmission@FlowControl@dcc@vanetza@@V?$allocator@UPendingTransmission@FlowControl@dcc@vanetza@@@std@@@std@@@std@@@?$_Default_allocator_traits@V?$allocator@U?$_Tree_node@U?$pair@$$CBW4AccessCategory@access@vanetza@@V?$list@UPendingTransmission@FlowControl@dcc@vanetza@@V?$allocator@UPendingTransmission@FlowControl@dcc@vanetza@@@std@@@std@@@std@@PEAX@std@@@std@@@std@@SAXAEAV?$allocator@U?$_Tree_node@U?$pair@$$CBW4AccessCategory@access@vanetza@@V?$list@UPendingTransmission@FlowControl@dcc@vanetza@@V?$allocator@UPendingTransmission@FlowControl@dcc@vanetza@@@std@@@std@@@std@@PEAX@std@@@1@QEAU?$pair@$$CBW4AccessCategory@access@vanetza@@V?$list@UPendingTransmission@FlowControl@dcc@vanetza@@V?$allocator@UPendingTransmission@FlowControl@dcc@vanetza@@@std@@@std@@@1@@Z
	??$destroy@U?$pair@$$CBW4OsiLayer@vanetza@@VByteBufferConvertible@2@@std@@@?$_Default_allocator_traits@V?$allocator@U?$_Tree_node@U?$pair@$$CBW4OsiLayer@vanetza@@VByteBufferConvertible@2@@std@@PEAX@std@@@std@@@std@@SAXAEAV?$allocator@U?$_Tree_node@U?$pair@$$CBW4OsiLayer@vanetza@@VByteBufferConvertible@2@@std@@PEAX@std@@@1@QEAU?$pair@$$CBW4OsiLayer@vanetza@@VByteBufferConvertible@2@@1@@Z
	??$destroy@UPendingTransmission@FlowControl@dcc@vanetza@@@?$_Default_allocator_traits@V?$allocator@U?$_List_node@UPendingTransmission@FlowControl@dcc@vanetza@@PEAX@std@@@std@@@std@@SAXAEAV?$allocator@U?$_List_node@UPendingTransmission@FlowControl@dcc@vanetza@@PEAX@std@@@1@QEAUPendingTransmission@FlowControl@dcc@vanetza@@@Z
	??$destroy@UState@GradualStateMachine@dcc@vanetza@@@?$_Default_allocator_traits@V?$allocator@U?$_Tree_node@UState@GradualStateMachine@dcc@vanetza@@PEAX@std@@@std@@@std@@SAXAEAV?$allocator@U?$_Tree_node@UState@GradualStateMachine@dcc@vanetza@@PEAX@std@@@1@QEAUState@GradualStateMachine@dcc@vanetza@@@Z
	??$destroy@V?$time_point@VClock@vanetza@@V?$duration@_JU?$ratio@$00$0PECEA@@std@@@chrono@std@@@chrono@std@@@?$allocator@V?$time_point@VClock@vanetza@@V?$duration@_JU?$ratio@$00$0PECEA@@std@@@chrono@std@@@chrono@std@@@std@@QEAAXQEAV?$time_point@VClock@vanetza@@V?$duration@_JU?$ratio@$00$0PECEA@@std@@@chrono@std@@@chrono@1@@Z
	??$destroy@VChannelLoad@dcc@vanetza@@@?$allocator@VChannelLoad@dcc@vanetza@@@std@@QEAAXQEAVChannelLoad@dcc@vanetza@@@Z
	??$distance@PEBN@std@@YA_JPEBN0@Z
	??$distance@V?$_Array_const_iterator@N$04@std@@@std@@YA_JV?$_Array_const_iterator@N$04@0@0@Z
	??$distance@V?$_Tree_const_iterator@V?$_Tree_val@U?$_Tree_simple_types@UState@GradualStateMachine@dcc@vanetza@@@std@@@std@@@std@@@std@@YA_JV?$_Tree_const_iterator@V?$_Tree_val@U?$_Tree_simple_types@UState@GradualStateMachine@dcc@vanetza@@@std@@@std@@@0@0@Z
	??$distribute@DU?$char_traits@D@std@@V?$allocator@D@2@AEBU?$put_holder@DU?$char_traits@D@std@@@detail@io@boost@@@detail@io@boost@@YAXAEAV?$basic_format@DU?$char_traits@D@std@@V?$allocator@D@2@@2@AEBU?$put_holder@DU?$char_traits@D@std@@@012@@Z
	??$duration_cast@V?$duration@NU?$ratio@$00$00@std@@@chrono@std@@_JU?$ratio@$00$00@3@$0A@@chrono@std@@YA?AV?$duration@NU?$ratio@$00$00@std@@@01@AEBV?$duration@_JU?$ratio@$00$00@std@@@01@@Z
	??$duration_cast@V?$duration@NU?$ratio@$00$0PECEA@@std@@@chrono@std@@NU?$ratio@$00$00@3@$0A@@chrono@std@@YA?AV?$duration@NU?$ratio@$00$0PECEA@@std@@@01@AEBV?$duration@NU?$ratio@$00$00@std@@@01@@Z
	??$duration_cast@V?$duration@NU?$ratio@$00$0PECEA@@std@@@chrono@std@@_JU?$ratio@$00$0PECEA@@3@$0A@@chrono@std@@YA?AV?$duration@NU?$ratio@$00$0PECEA@@std@@@01@AEBV?$duration@_JU?$ratio@$00$0PECEA@@std@@@01@@Z
	??$duration_cast@V?$duration@_JU?$ratio@$00$0PECEA@@std@@@chrono@std@@NU?$ratio@$00$00@3@$0A@@chrono@std@@YA?AV?$duration@_JU?$ratio@$00$0PECEA@@std@@@01@AEBV?$duration@NU?$ratio@$00$00@std@@@01@@Z
	??$duration_cast@V?$duration@_JU?$ratio@$00$0PECEA@@std@@@chrono@std@@NU?$ratio@$00$0PECEA@@3@$0A@@chrono@std@@YA?AV?$duration@_JU?$ratio@$00$0PECEA@@std@@@01@AEBV?$duration@NU?$ratio@$00$0PECEA@@std@@@01@@Z
	??$duration_cast@V?$duration@_JU?$ratio@$00$0PECEA@@std@@@chrono@std@@_JU?$ratio@$00$0DOI@@3@$0A@@chrono@std@@YA?AV?$duration@_JU?$ratio@$00$0PECEA@@std@@@01@AEBV?$duration@_JU?$ratio@$00$0DOI@@std@@@01@@Z
	??$emplace@VChannelLoad@dcc@vanetza@@V?$duration@_JU?$ratio@$00$0PECEA@@std@@@chrono@std@@@?$_Tree@V?$_Tset_traits@UState@GradualStateMachine@dcc@vanetza@@U?$less@UState@GradualStateMachine@dcc@vanetza@@@std@@V?$allocator@UState@GradualStateMachine@dcc@vanetza@@@6@$0A@@std@@@std@@QEAA?AU?$pair@V?$_Tree_const_iterator@V?$_Tree_val@U?$_Tree_simple_types@UState@GradualStateMachine@dcc@vanetza@@@std@@@std@@@std@@_N@1@$$QEAVChannelLoad@dcc@vanetza@@$$QEAV?$duration@_JU?$ratio@$00$0PECEA@@std@@@chrono@1@@Z
	??$emplace_back@AEAV?$time_point@VClock@vanetza@@V?$duration@_JU?$ratio@$00$0PECEA@@std@@@chrono@std@@@chrono@std@@AEBUDataRequest@dcc@vanetza@@V?$unique_ptr@VChunkPacket@vanetza@@U?$default_delete@VChunkPacket@vanetza@@@std@@@3@@?$list@UPendingTransmission@FlowControl@dcc@vanetza@@V?$allocator@UPendingTransmission@FlowControl@dcc@vanetza@@@std@@@std@@QEAA?A_TAEAV?$time_point@VClock@vanetza@@V?$duration@_JU?$ratio@$00$0PECEA@@std@@@chrono@std@@@chrono@1@AEBUDataRequest@dcc@vanetza@@$$QEAV?$unique_ptr@VChunkPacket@vanetza@@U?$default_delete@VChunkPacket@vanetza@@@std@@@1@@Z
	??$exchange@PEAU?$_List_node@UPendingTransmission@FlowControl@dcc@vanetza@@PEAX@std@@PEAU12@@std@@YAPEAU?$_List_node@UPendingTransmission@FlowControl@dcc@vanetza@@PEAX@0@AEAPEAU10@$$QEAPEAU10@@Z
	??$exchange@PEAU?$_Tree_node@U?$pair@$$CBW4AccessCategory@access@vanetza@@V?$list@UPendingTransmission@FlowControl@dcc@vanetza@@V?$allocator@UPendingTransmission@FlowControl@dcc@vanetza@@@std@@@std@@@std@@PEAX@std@@$$T@std@@YAPEAU?$_Tree_node@U?$pair@$$CBW4AccessCategory@access@vanetza@@V?$list@UPendingTransmission@FlowControl@dcc@vanetza@@V?$allocator@UPendingTransmission@FlowControl@dcc@vanetza@@@std@@@std@@@std@@PEAX@0@AEAPEAU10@$$QEA$$T@Z
	??$exchange@PEAU?$_Tree_node@U?$pair@$$CBW4AccessCategory@access@vanetza@@V?$list@UPendingTransmission@FlowControl@dcc@vanetza@@V?$allocator@UPendingTransmission@FlowControl@dcc@vanetza@@@std@@@std@@@std@@PEAX@std@@AEAPEAU12@@std@@YAPEAU?$_Tree_node@U?$pair@$$CBW4AccessCategory@access@vanetza@@V?$list@UPendingTransmission@FlowControl@dcc@vanetza@@V?$allocator@UPendingTransmission@FlowControl@dcc@vanetza@@@std@@@std@@@std@@PEAX@0@AEAPEAU10@0@Z
	??$exchange@PEAU?$_Tree_node@U?$pair@$$CBW4OsiLayer@vanetza@@VByteBufferConvertible@2@@std@@PEAX@std@@AEAPEAU12@@std@@YAPEAU?$_Tree_node@U?$pair@$$CBW4OsiLayer@vanetza@@VByteBufferConvertible@2@@std@@PEAX@0@AEAPEAU10@0@Z
	??$exchange@PEAU?$_Tree_node@UState@GradualStateMachine@dcc@vanetza@@PEAX@std@@$$T@std@@YAPEAU?$_Tree_node@UState@GradualStateMachine@dcc@vanetza@@PEAX@0@AEAPEAU10@$$QEA$$T@Z
	??$exchange@PEAU?$_Tree_node@UState@GradualStateMachine@dcc@vanetza@@PEAX@std@@AEAPEAU12@@std@@YAPEAU?$_Tree_node@UState@GradualStateMachine@dcc@vanetza@@PEAX@0@AEAPEAU10@0@Z
	??$exchange@PEAU_Container_proxy@std@@$$T@std@@YAPEAU_Container_proxy@0@AEAPEAU10@$$QEA$$T@Z
	??$exchange@PEAVChunkPacket@vanetza@@$$T@std@@YAPEAVChunkPacket@vanetza@@AEAPEAV12@$$QEA$$T@Z
	??$exchange@PEAVChunkPacket@vanetza@@AEAPEAV12@@std@@YAPEAVChunkPacket@vanetza@@AEAPEAV12@0@Z
	??$exchange@PEAV_Facet_base@std@@$$T@std@@YAPEAV_Facet_base@0@AEAPEAV10@$$QEA$$T@Z
	??$feed@DU?$char_traits@D@std@@V?$allocator@D@2@AEB_J@detail@io@boost@@YAAEAV?$basic_format@DU?$char_traits@D@std@@V?$allocator@D@2@@2@AEAV32@AEB_J@Z
	??$feed_impl@DU?$char_traits@D@std@@V?$allocator@D@2@AEBU?$put_holder@DU?$char_traits@D@std@@@detail@io@boost@@@detail@io@boost@@YAAEAV?$basic_format@DU?$char_traits@D@std@@V?$allocator@D@2@@2@AEAV32@AEBU?$put_holder@DU?$char_traits@D@std@@@012@@Z
	??$fill@PEAU?$format_item@DU?$char_traits@D@std@@V?$allocator@D@2@@detail@io@boost@@U1234@@std@@YAXQEAU?$format_item@DU?$char_traits@D@std@@V?$allocator@D@2@@detail@io@boost@@0AEBU1234@@Z
	??$fill@V?$_Vb_iterator@U?$_Wrap_alloc@V?$allocator@I@std@@@std@@@std@@_N@std@@YAXV?$_Vb_iterator@U?$_Wrap_alloc@V?$allocator@I@std@@@std@@@0@0AEB_N@Z
	??$forward@AEAI@std@@YAAEAIAEAI@Z
	??$forward@AEAPEAD@std@@YAAEAPEADAEAPEAD@Z
	??$forward@AEAPEAU?$_List_node@UPendingTransmission@FlowControl@dcc@vanetza@@PEAX@std@@@std@@YAAEAPEAU?$_List_node@UPendingTransmission@FlowControl@dcc@vanetza@@PEAX@0@AEAPEAU10@@Z
	??$forward@AEAPEAU?$_Tree_node@U?$pair@$$CBW4AccessCategory@access@vanetza@@V?$list@UPendingTransmission@FlowControl@dcc@vanetza@@V?$allocator@UPendingTransmission@FlowControl@dcc@vanetza@@@std@@@std@@@std@@PEAX@std@@@std@@YAAEAPEAU?$_Tree_node@U?$pair@$$CBW4AccessCategory@access@vanetza@@V?$list@UPendingTransmission@FlowControl@dcc@vanetza@@V?$allocator@UPendingTransmission@FlowControl@dcc@vanetza@@@std@@@std@@@std@@PEAX@0@AEAPEAU10@@Z
	??$forward@AEAPEAU?$_Tree_node@UState@GradualStateMachine@dcc@vanetza@@PEAX@std@@@std@@YAAEAPEAU?$_Tree_node@UState@GradualStateMachine@dcc@vanetza@@PEAX@0@AEAPEAU10@@Z
	??$forward@AEAPEAV_Facet_base@std@@@std@@YAAEAPEAV_Facet_base@0@AEAPEAV10@@Z
	??$forward@AEAPEBN@std@@YAAEAPEBNAEAPEBN@Z
	??$forward@AEAU?$format_item@DU?$char_traits@D@std@@V?$allocator@D@2@@detail@io@boost@@@std@@YAAEAU?$format_item@DU?$char_traits@D@std@@V?$allocator@D@2@@detail@io@boost@@AEAU1234@@Z
	??$forward@AEAUState@GradualStateMachine@dcc@vanetza@@@std@@YAAEAUState@GradualStateMachine@dcc@vanetza@@AEAU1234@@Z
	??$forward@AEAV?$time_point@VClock@vanetza@@V?$duration@_JU?$ratio@$00$0PECEA@@std@@@chrono@std@@@chrono@std@@@std@@YAAEAV?$time_point@VClock@vanetza@@V?$duration@_JU?$ratio@$00$0PECEA@@std@@@chrono@std@@@chrono@0@AEAV120@@Z
	??$forward@AEBI@std@@YAAEBIAEBI@Z
	??$forward@AEBQEAD@std@@YAAEBQEADAEBQEAD@Z
	??$forward@AEBQEAI@std@@YAAEBQEAIAEBQEAI@Z
	??$forward@AEBQEAU?$_List_node@UPendingTransmission@FlowControl@dcc@vanetza@@PEAX@std@@@std@@YAAEBQEAU?$_List_node@UPendingTransmission@FlowControl@dcc@vanetza@@PEAX@0@AEBQEAU10@@Z
	??$forward@AEBQEAU?$_Tree_node@U?$pair@$$CBW4AccessCategory@access@vanetza@@V?$list@UPendingTransmission@FlowControl@dcc@vanetza@@V?$allocator@UPendingTransmission@FlowControl@dcc@vanetza@@@std@@@std@@@std@@PEAX@std@@@std@@YAAEBQEAU?$_Tree_node@U?$pair@$$CBW4AccessCategory@access@vanetza@@V?$list@UPendingTransmission@FlowControl@dcc@vanetza@@V?$allocator@UPendingTransmission@FlowControl@dcc@vanetza@@@std@@@std@@@std@@PEAX@0@AEBQEAU10@@Z
	??$forward@AEBQEAU?$_Tree_node@UState@GradualStateMachine@dcc@vanetza@@PEAX@std@@@std@@YAAEBQEAU?$_Tree_node@UState@GradualStateMachine@dcc@vanetza@@PEAX@0@AEBQEAU10@@Z
	??$forward@AEBQEAU?$format_item@DU?$char_traits@D@std@@V?$allocator@D@2@@detail@io@boost@@@std@@YAAEBQEAU?$format_item@DU?$char_traits@D@std@@V?$allocator@D@2@@detail@io@boost@@AEBQEAU1234@@Z
	??$forward@AEBU?$format_item@DU?$char_traits@D@std@@V?$allocator@D@2@@detail@io@boost@@@std@@YAAEBU?$format_item@DU?$char_traits@D@std@@V?$allocator@D@2@@detail@io@boost@@AEBU1234@@Z
	??$forward@AEBU?$greater@W4AccessCategory@access@vanetza@@@std@@@std@@YAAEBU?$greater@W4AccessCategory@access@vanetza@@@0@AEBU10@@Z
	??$forward@AEBU?$less@UState@GradualStateMachine@dcc@vanetza@@@std@@@std@@YAAEBU?$less@UState@GradualStateMachine@dcc@vanetza@@@0@AEBU10@@Z
	??$forward@AEBUDataRequest@dcc@vanetza@@@std@@YAAEBUDataRequest@dcc@vanetza@@AEBU123@@Z
	??$forward@AEBUState@GradualStateMachine@dcc@vanetza@@@std@@YAAEBUState@GradualStateMachine@dcc@vanetza@@AEBU1234@@Z
	??$forward@AEBUpiecewise_construct_t@std@@@std@@YAAEBUpiecewise_construct_t@0@AEBU10@@Z
	??$forward@AEBV?$_Binder@U_Unforced@std@@P8FlowControl@dcc@vanetza@@EAAXXZPEAV345@@std@@@std@@YAAEBV?$_Binder@U_Unforced@std@@P8FlowControl@dcc@vanetza@@EAAXXZPEAV345@@0@AEBV10@@Z
	??$forward@AEBV?$allocator@V?$time_point@VClock@vanetza@@V?$duration@_JU?$ratio@$00$0PECEA@@std@@@chrono@std@@@chrono@std@@@std@@@std@@YAAEBV?$allocator@V?$time_point@VClock@vanetza@@V?$duration@_JU?$ratio@$00$0PECEA@@std@@@chrono@std@@@chrono@std@@@0@AEBV10@@Z
	??$forward@AEBV?$allocator@VChannelLoad@dcc@vanetza@@@std@@@std@@YAAEBV?$allocator@VChannelLoad@dcc@vanetza@@@0@AEBV10@@Z
	??$forward@AEBV?$time_point@VClock@vanetza@@V?$duration@_JU?$ratio@$00$0PECEA@@std@@@chrono@std@@@chrono@std@@@std@@YAAEBV?$time_point@VClock@vanetza@@V?$duration@_JU?$ratio@$00$0PECEA@@std@@@chrono@std@@@chrono@0@AEBV120@@Z
	??$forward@AEBVChannelLoad@dcc@vanetza@@@std@@YAAEBVChannelLoad@dcc@vanetza@@AEBV123@@Z
	??$forward@AEBW4AccessCategory@access@vanetza@@@std@@YAAEBW4AccessCategory@access@vanetza@@AEBW4123@@Z
	??$forward@AEB_N@std@@YAAEB_NAEB_N@Z
	??$forward@I@std@@YA$$QEAIAEAI@Z
	??$forward@P8FlowControl@dcc@vanetza@@EAAXXZ@std@@YA$$QEAP8FlowControl@dcc@vanetza@@EAAXXZAEAP8123@EAAXXZ@Z
	??$forward@PEAU?$_Tree_node@U?$pair@$$CBW4AccessCategory@access@vanetza@@V?$list@UPendingTransmission@FlowControl@dcc@vanetza@@V?$allocator@UPendingTransmission@FlowControl@dcc@vanetza@@@std@@@std@@@std@@PEAX@std@@@std@@YA$$QEAPEAU?$_Tree_node@U?$pair@$$CBW4AccessCategory@access@vanetza@@V?$list@UPendingTransmission@FlowControl@dcc@vanetza@@V?$allocator@UPendingTransmission@FlowControl@dcc@vanetza@@@std@@@std@@@std@@PEAX@0@AEAPEAU10@@Z
	??$forward@PEAU?$_Tree_node@UState@GradualStateMachine@dcc@vanetza@@PEAX@std@@@std@@YA$$QEAPEAU?$_Tree_node@UState@GradualStateMachine@dcc@vanetza@@PEAX@0@AEAPEAU10@@Z
	??$forward@PEAU_Container_base12@std@@@std@@YA$$QEAPEAU_Container_base12@0@AEAPEAU10@@Z
	??$forward@PEAVChunkPacket@vanetza@@@std@@YA$$QEAPEAVChunkPacket@vanetza@@AEAPEAV12@@Z
	??$forward@PEAVFlowControl@dcc@vanetza@@@std@@YA$$QEAPEAVFlowControl@dcc@vanetza@@AEAPEAV123@@Z
	??$forward@PEBVChunkPacket@vanetza@@@std@@YA$$QEAPEBVChunkPacket@vanetza@@AEAPEBV12@@Z
	??$forward@PEBVLimeric@dcc@vanetza@@@std@@YA$$QEAPEBVLimeric@dcc@vanetza@@AEAPEBV123@@Z
	??$forward@U?$default_delete@VChunkPacket@vanetza@@@std@@@std@@YA$$QEAU?$default_delete@VChunkPacket@vanetza@@@0@AEAU10@@Z
	??$forward@U?$format_item@DU?$char_traits@D@std@@V?$allocator@D@2@@detail@io@boost@@@std@@YA$$QEAU?$format_item@DU?$char_traits@D@std@@V?$allocator@D@2@@detail@io@boost@@AEAU1234@@Z
	??$forward@U?$less@UState@GradualStateMachine@dcc@vanetza@@@std@@@std@@YA$$QEAU?$less@UState@GradualStateMachine@dcc@vanetza@@@0@AEAU10@@Z
	??$forward@UPendingTransmission@FlowControl@dcc@vanetza@@@boost@@YA$$QEAUPendingTransmission@FlowControl@dcc@vanetza@@AEAU1234@@Z
	??$forward@U_One_then_variadic_args_t@std@@@std@@YA$$QEAU_One_then_variadic_args_t@0@AEAU10@@Z
	??$forward@U_Zero_then_variadic_args_t@std@@@std@@YA$$QEAU_Zero_then_variadic_args_t@0@AEAU10@@Z
	??$forward@V?$_Binder@U_Unforced@std@@P8FlowControl@dcc@vanetza@@EAAXXZPEAV345@@std@@@std@@YA$$QEAV?$_Binder@U_Unforced@std@@P8FlowControl@dcc@vanetza@@EAAXXZPEAV345@@0@AEAV10@@Z
	??$forward@V?$_Tree_const_iterator@V?$_Tree_val@U?$_Tree_simple_types@UState@GradualStateMachine@dcc@vanetza@@@std@@@std@@@std@@@std@@YA$$QEAV?$_Tree_const_iterator@V?$_Tree_val@U?$_Tree_simple_types@UState@GradualStateMachine@dcc@vanetza@@@std@@@std@@@0@AEAV10@@Z
	??$forward@V?$_Vb_iterator@U?$_Wrap_alloc@V?$allocator@I@std@@@std@@@std@@@std@@YA$$QEAV?$_Vb_iterator@U?$_Wrap_alloc@V?$allocator@I@std@@@std@@@0@AEAV10@@Z
	??$forward@V?$allocator@D@std@@@std@@YA$$QEAV?$allocator@D@0@AEAV10@@Z
	??$forward@V?$allocator@I@std@@@std@@YA$$QEAV?$allocator@I@0@AEAV10@@Z
	??$forward@V?$allocator@U?$_Tree_node@UState@GradualStateMachine@dcc@vanetza@@PEAX@std@@@std@@@std@@YA$$QEAV?$allocator@U?$_Tree_node@UState@GradualStateMachine@dcc@vanetza@@PEAX@std@@@0@AEAV10@@Z
	??$forward@V?$allocator@U?$format_item@DU?$char_traits@D@std@@V?$allocator@D@2@@detail@io@boost@@@std@@@std@@YA$$QEAV?$allocator@U?$format_item@DU?$char_traits@D@std@@V?$allocator@D@2@@detail@io@boost@@@0@AEAV10@@Z
	??$forward@V?$duration@_JU?$ratio@$00$0PECEA@@std@@@chrono@std@@@std@@YA$$QEAV?$duration@_JU?$ratio@$00$0PECEA@@std@@@chrono@0@AEAV120@@Z
	??$forward@V?$time_point@VClock@vanetza@@V?$duration@_JU?$ratio@$00$0PECEA@@std@@@chrono@std@@@chrono@std@@@boost@@YA$$QEAV?$time_point@VClock@vanetza@@V?$duration@_JU?$ratio@$00$0PECEA@@std@@@chrono@std@@@chrono@std@@AEAV123@@Z
	??$forward@V?$time_point@VClock@vanetza@@V?$duration@_JU?$ratio@$00$0PECEA@@std@@@chrono@std@@@chrono@std@@@std@@YA$$QEAV?$time_point@VClock@vanetza@@V?$duration@_JU?$ratio@$00$0PECEA@@std@@@chrono@std@@@chrono@0@AEAV120@@Z
	??$forward@V?$tuple@$$V@std@@@std@@YA$$QEAV?$tuple@$$V@0@AEAV10@@Z
	??$forward@V?$tuple@AEBW4AccessCategory@access@vanetza@@@std@@@std@@YA$$QEAV?$tuple@AEBW4AccessCategory@access@vanetza@@@0@AEAV10@@Z
	??$forward@V?$unique_ptr@VChunkPacket@vanetza@@U?$default_delete@VChunkPacket@vanetza@@@std@@@std@@@std@@YA$$QEAV?$unique_ptr@VChunkPacket@vanetza@@U?$default_delete@VChunkPacket@vanetza@@@std@@@0@AEAV10@@Z
	??$forward@VChannelLoad@dcc@vanetza@@@std@@YA$$QEAVChannelLoad@dcc@vanetza@@AEAV123@@Z
	??$forward@W4AccessCategory@access@vanetza@@@std@@YA$$QEAW4AccessCategory@access@vanetza@@AEAW4123@@Z
	??$forward@_N@std@@YA$$QEA_NAEA_N@Z
	??$forward_as_tuple@$$V@std@@YA?AV?$tuple@$$V@0@XZ
	??$forward_as_tuple@AEBW4AccessCategory@access@vanetza@@@std@@YA?AV?$tuple@AEBW4AccessCategory@access@vanetza@@@0@AEBW4AccessCategory@access@vanetza@@@Z
	??$forward_as_tuple@V?$time_point@VClock@vanetza@@V?$duration@_JU?$ratio@$00$0PECEA@@std@@@chrono@std@@@chrono@std@@@std@@YA?AV?$tuple@$$QEAV?$time_point@VClock@vanetza@@V?$duration@_JU?$ratio@$00$0PECEA@@std@@@chrono@std@@@chrono@std@@@0@$$QEAV?$time_point@VClock@vanetza@@V?$duration@_JU?$ratio@$00$0PECEA@@std@@@chrono@std@@@chrono@0@@Z
	??$get@$0A@PEAVFlowControl@dcc@vanetza@@@std@@YAAEAPEAVFlowControl@dcc@vanetza@@AEAV?$tuple@PEAVFlowControl@dcc@vanetza@@@0@@Z
	??$get_local_deleter@VNo_Op@?$basic_oaltstringstream@DU?$char_traits@D@std@@V?$allocator@D@2@@io@boost@@@detail@boost@@YAPEAVNo_Op@?$basic_oaltstringstream@DU?$char_traits@D@std@@V?$allocator@D@2@@io@1@PEAV2341@@Z
	??$get_pointer@Vlocale@std@@@boost@@YAPEAVlocale@std@@AEAV?$optional@Vlocale@std@@@0@@Z
	??$increment@PEAV?$time_point@VClock@vanetza@@V?$duration@_JU?$ratio@$00$0PECEA@@std@@@chrono@std@@@chrono@std@@@?$circular_buffer@V?$time_point@VClock@vanetza@@V?$duration@_JU?$ratio@$00$0PECEA@@std@@@chrono@std@@@chrono@std@@V?$allocator@V?$time_point@VClock@vanetza@@V?$duration@_JU?$ratio@$00$0PECEA@@std@@@chrono@std@@@chrono@std@@@3@@boost@@AEBAXAEAPEAV?$time_point@VClock@vanetza@@V?$duration@_JU?$ratio@$00$0PECEA@@std@@@chrono@std@@@chrono@std@@@Z
	??$increment@PEAVChannelLoad@dcc@vanetza@@@?$circular_buffer@VChannelLoad@dcc@vanetza@@V?$allocator@VChannelLoad@dcc@vanetza@@@std@@@boost@@AEBAXAEAPEAVChannelLoad@dcc@vanetza@@@Z
	??$increment@PEBVChannelLoad@dcc@vanetza@@@?$circular_buffer@VChannelLoad@dcc@vanetza@@V?$allocator@VChannelLoad@dcc@vanetza@@@std@@@boost@@AEBAXAEAPEBVChannelLoad@dcc@vanetza@@@Z
	??$insert@PEBUState@GradualStateMachine@dcc@vanetza@@@?$_Tree@V?$_Tset_traits@UState@GradualStateMachine@dcc@vanetza@@U?$less@UState@GradualStateMachine@dcc@vanetza@@@std@@V?$allocator@UState@GradualStateMachine@dcc@vanetza@@@6@$0A@@std@@@std@@QEAAXPEBUState@GradualStateMachine@dcc@vanetza@@0@Z
	??$insert_n@U?$item_wrapper@PEBV?$time_point@VClock@vanetza@@V?$duration@_JU?$ratio@$00$0PECEA@@std@@@chrono@std@@@chrono@std@@AEBV123@@cb_details@boost@@@?$circular_buffer@V?$time_point@VClock@vanetza@@V?$duration@_JU?$ratio@$00$0PECEA@@std@@@chrono@std@@@chrono@std@@V?$allocator@V?$time_point@VClock@vanetza@@V?$duration@_JU?$ratio@$00$0PECEA@@std@@@chrono@std@@@chrono@std@@@3@@boost@@AEAAXAEBU?$iterator@V?$circular_buffer@V?$time_point@VClock@vanetza@@V?$duration@_JU?$ratio@$00$0PECEA@@std@@@chrono@std@@@chrono@std@@V?$allocator@V?$time_point@VClock@vanetza@@V?$duration@_JU?$ratio@$00$0PECEA@@std@@@chrono@std@@@chrono@std@@@3@@boost@@U?$nonconst_traits@V?$allocator@V?$time_point@VClock@vanetza@@V?$duration@_JU?$ratio@$00$0PECEA@@std@@@chrono@std@@@chrono@std@@@std@@@cb_details@2@@cb_details@1@_KAEBU?$item_wrapper@PEBV?$time_point@VClock@vanetza@@V?$duration@_JU?$ratio@$00$0PECEA@@std@@@chrono@std@@@chrono@std@@AEBV123@@31@@Z
	??$invoke@AEAP8FlowControl@dcc@vanetza@@EAAXXZAEAPEAV123@$$V@std@@YAXAEAP8FlowControl@dcc@vanetza@@EAAXXZAEAPEAV123@@Z
	??$invoke@AEAV?$_Binder@U_Unforced@std@@P8FlowControl@dcc@vanetza@@EAAXXZPEAV345@@std@@V?$time_point@VClock@vanetza@@V?$duration@_JU?$ratio@$00$0PECEA@@std@@@chrono@std@@@chrono@2@$$V@std@@YAXAEAV?$_Binder@U_Unforced@std@@P8FlowControl@dcc@vanetza@@EAAXXZPEAV345@@0@$$QEAV?$time_point@VClock@vanetza@@V?$duration@_JU?$ratio@$00$0PECEA@@std@@@chrono@std@@@chrono@0@@Z
	??$isinf@N@@YA_NN@Z
	??$linearize_pointer@U?$nonconst_traits@V?$allocator@V?$time_point@VClock@vanetza@@V?$duration@_JU?$ratio@$00$0PECEA@@std@@@chrono@std@@@chrono@std@@@std@@@cb_details@boost@@@?$iterator@V?$circular_buffer@V?$time_point@VClock@vanetza@@V?$duration@_JU?$ratio@$00$0PECEA@@std@@@chrono@std@@@chrono@std@@V?$allocator@V?$time_point@VClock@vanetza@@V?$duration@_JU?$ratio@$00$0PECEA@@std@@@chrono@std@@@chrono@std@@@3@@boost@@U?$nonconst_traits@V?$allocator@V?$time_point@VClock@vanetza@@V?$duration@_JU?$ratio@$00$0PECEA@@std@@@chrono@std@@@chrono@std@@@std@@@cb_details@2@@cb_details@boost@@QEBAPEAV?$time_point@VClock@vanetza@@V?$duration@_JU?$ratio@$00$0PECEA@@std@@@chrono@std@@@chrono@std@@AEBU012@@Z
	??$max@N@std@@YAAEBNAEBN0@Z
	??$max@V?$duration@_JU?$ratio@$00$0PECEA@@std@@@chrono@std@@@std@@YAAEBV?$duration@_JU?$ratio@$00$0PECEA@@std@@@chrono@0@AEBV120@0@Z
	??$max@VUnitInterval@vanetza@@@std@@YAAEBVUnitInterval@vanetza@@AEBV12@0@Z
	??$max@_J@std@@YAAEB_JAEB_J0@Z
	??$max@_K@std@@YAAEB_KAEB_K0@Z
	??$mean@U?$iterator@V?$circular_buffer@VChannelLoad@dcc@vanetza@@V?$allocator@VChannelLoad@dcc@vanetza@@@std@@@boost@@U?$const_traits@V?$allocator@VChannelLoad@dcc@vanetza@@@std@@@cb_details@2@@cb_details@boost@@$0A@@vanetza@@YA?AVUnitInterval@0@U?$iterator@V?$circular_buffer@VChannelLoad@dcc@vanetza@@V?$allocator@VChannelLoad@dcc@vanetza@@@std@@@boost@@U?$const_traits@V?$allocator@VChannelLoad@dcc@vanetza@@@std@@@cb_details@2@@cb_details@boost@@0@Z
	??$mean@U?$iterator@V?$circular_buffer@VChannelLoad@dcc@vanetza@@V?$allocator@VChannelLoad@dcc@vanetza@@@std@@@boost@@U?$nonconst_traits@V?$allocator@VChannelLoad@dcc@vanetza@@@std@@@cb_details@2@@cb_details@boost@@$0A@@vanetza@@YA?AVUnitInterval@0@U?$iterator@V?$circular_buffer@VChannelLoad@dcc@vanetza@@V?$allocator@VChannelLoad@dcc@vanetza@@@std@@@boost@@U?$nonconst_traits@V?$allocator@VChannelLoad@dcc@vanetza@@@std@@@cb_details@2@@cb_details@boost@@0@Z
	??$min@N@std@@YAAEBNAEBN0@Z
	??$min@V?$duration@_JU?$ratio@$00$0PECEA@@std@@@chrono@std@@@std@@YAAEBV?$duration@_JU?$ratio@$00$0PECEA@@std@@@chrono@0@AEBV120@0@Z
	??$min@VUnitInterval@vanetza@@@std@@YAAEBVUnitInterval@vanetza@@AEBV12@0@Z
	??$min@_K@std@@YAAEB_KAEB_K0@Z
	??$mk_str@DU?$char_traits@D@std@@V?$allocator@D@2@@detail@io@boost@@YAXAEAV?$basic_string@DU?$char_traits@D@std@@V?$allocator@D@2@@std@@PEBD_K_JDHD_N@Z
	??$move@AEAI@std@@YA$$QEAIAEAI@Z
	??$move@AEAPEAU?$_Tree_node@UState@GradualStateMachine@dcc@vanetza@@PEAX@std@@@std@@YA$$QEAPEAU?$_Tree_node@UState@GradualStateMachine@dcc@vanetza@@PEAX@0@AEAPEAU10@@Z
	??$move@AEAU?$format_item@DU?$char_traits@D@std@@V?$allocator@D@2@@detail@io@boost@@@std@@YA$$QEAU?$format_item@DU?$char_traits@D@std@@V?$allocator@D@2@@detail@io@boost@@AEAU1234@@Z
	??$move@AEAUPendingTransmission@FlowControl@dcc@vanetza@@@boost@@YA$$QEAUPendingTransmission@FlowControl@dcc@vanetza@@AEAU1234@@Z
	??$move@AEAUPendingTransmission@FlowControl@dcc@vanetza@@@std@@YA$$QEAUPendingTransmission@FlowControl@dcc@vanetza@@AEAU1234@@Z
	??$move@AEAV?$_Binder@U_Unforced@std@@P8FlowControl@dcc@vanetza@@EAAXXZPEAV345@@std@@@std@@YA$$QEAV?$_Binder@U_Unforced@std@@P8FlowControl@dcc@vanetza@@EAAXXZPEAV345@@0@AEAV10@@Z
	??$move@AEAV?$_Tree_const_iterator@V?$_Tree_val@U?$_Tree_simple_types@UState@GradualStateMachine@dcc@vanetza@@@std@@@std@@@std@@@std@@YA$$QEAV?$_Tree_const_iterator@V?$_Tree_val@U?$_Tree_simple_types@UState@GradualStateMachine@dcc@vanetza@@@std@@@std@@@0@AEAV10@@Z
	??$move@AEAV?$allocator@D@std@@@std@@YA$$QEAV?$allocator@D@0@AEAV10@@Z
	??$move@AEAV?$allocator@U?$_Tree_node@UState@GradualStateMachine@dcc@vanetza@@PEAX@std@@@std@@@std@@YA$$QEAV?$allocator@U?$_Tree_node@UState@GradualStateMachine@dcc@vanetza@@PEAX@std@@@0@AEAV10@@Z
	??$move@AEAV?$function@$$A6AXW4AccessCategory@access@vanetza@@PEBVChunkPacket@3@@Z@std@@@std@@YA$$QEAV?$function@$$A6AXW4AccessCategory@access@vanetza@@PEBVChunkPacket@3@@Z@0@AEAV10@@Z
	??$move@AEAV?$set@UState@GradualStateMachine@dcc@vanetza@@U?$less@UState@GradualStateMachine@dcc@vanetza@@@std@@V?$allocator@UState@GradualStateMachine@dcc@vanetza@@@6@@std@@@std@@YA$$QEAV?$set@UState@GradualStateMachine@dcc@vanetza@@U?$less@UState@GradualStateMachine@dcc@vanetza@@@std@@V?$allocator@UState@GradualStateMachine@dcc@vanetza@@@6@@0@AEAV10@@Z
	??$move@AEAV?$time_point@VClock@vanetza@@V?$duration@_JU?$ratio@$00$0PECEA@@std@@@chrono@std@@@chrono@std@@@boost@@YA$$QEAV?$time_point@VClock@vanetza@@V?$duration@_JU?$ratio@$00$0PECEA@@std@@@chrono@std@@@chrono@std@@AEAV123@@Z
	??$move@AEAV?$tuple@$$QEAV?$time_point@VClock@vanetza@@V?$duration@_JU?$ratio@$00$0PECEA@@std@@@chrono@std@@@chrono@std@@@std@@@std@@YA$$QEAV?$tuple@$$QEAV?$time_point@VClock@vanetza@@V?$duration@_JU?$ratio@$00$0PECEA@@std@@@chrono@std@@@chrono@std@@@0@AEAV10@@Z
	??$move@AEAV?$tuple@AEBW4AccessCategory@access@vanetza@@@std@@@std@@YA$$QEAV?$tuple@AEBW4AccessCategory@access@vanetza@@@0@AEAV10@@Z
	??$move@AEAV?$unique_ptr@VChunkPacket@vanetza@@U?$default_delete@VChunkPacket@vanetza@@@std@@@std@@@std@@YA$$QEAV?$unique_ptr@VChunkPacket@vanetza@@U?$default_delete@VChunkPacket@vanetza@@@std@@@0@AEAV10@@Z
	??$move@AEAVlocale@std@@@boost@@YA$$QEAVlocale@std@@AEAV12@@Z
	??$move@AEA_K@std@@YA$$QEA_KAEA_K@Z
	??$move_if_noexcept@V?$time_point@VClock@vanetza@@V?$duration@_JU?$ratio@$00$0PECEA@@std@@@chrono@std@@@chrono@std@@@boost@@YA$$QEAV?$time_point@VClock@vanetza@@V?$duration@_JU?$ratio@$00$0PECEA@@std@@@chrono@std@@@chrono@std@@AEAV123@@Z
	??$next@PEBN@std@@YAPEBNPEBN_J@Z
	??$next@V?$_Tree_const_iterator@V?$_Tree_val@U?$_Tree_simple_types@UState@GradualStateMachine@dcc@vanetza@@@std@@@std@@@std@@@std@@YA?AV?$_Tree_const_iterator@V?$_Tree_val@U?$_Tree_simple_types@UState@GradualStateMachine@dcc@vanetza@@@std@@@std@@@0@V10@_J@Z
	??$parse_printf_directive@DU?$char_traits@D@std@@V?$allocator@D@2@V?$_String_const_iterator@V?$_String_val@U?$_Simple_types@D@std@@@std@@@2@V?$ctype@D@2@@detail@io@boost@@YA_NAEAV?$_String_const_iterator@V?$_String_val@U?$_Simple_types@D@std@@@std@@@std@@AEBV34@PEAU?$format_item@DU?$char_traits@D@std@@V?$allocator@D@2@@012@AEBV?$ctype@D@4@_KE@Z
	??$prev@V?$_Tree_const_iterator@V?$_Tree_val@U?$_Tree_simple_types@UState@GradualStateMachine@dcc@vanetza@@@std@@@std@@@std@@@std@@YA?AV?$_Tree_const_iterator@V?$_Tree_val@U?$_Tree_simple_types@UState@GradualStateMachine@dcc@vanetza@@@std@@@std@@@0@V10@_J@Z
	??$push_back_impl@$$QEAV?$time_point@VClock@vanetza@@V?$duration@_JU?$ratio@$00$0PECEA@@std@@@chrono@std@@@chrono@std@@@?$circular_buffer@V?$time_point@VClock@vanetza@@V?$duration@_JU?$ratio@$00$0PECEA@@std@@@chrono@std@@@chrono@std@@V?$allocator@V?$time_point@VClock@vanetza@@V?$duration@_JU?$ratio@$00$0PECEA@@std@@@chrono@std@@@chrono@std@@@3@@boost@@AEAAX$$QEAV?$time_point@VClock@vanetza@@V?$duration@_JU?$ratio@$00$0PECEA@@std@@@chrono@std@@@chrono@std@@@Z
	??$push_back_impl@AEBVChannelLoad@dcc@vanetza@@@?$circular_buffer@VChannelLoad@dcc@vanetza@@V?$allocator@VChannelLoad@dcc@vanetza@@@std@@@boost@@AEAAXAEBVChannelLoad@dcc@vanetza@@@Z
	??$push_front_impl@AEBVChannelLoad@dcc@vanetza@@@?$circular_buffer@VChannelLoad@dcc@vanetza@@V?$allocator@VChannelLoad@dcc@vanetza@@@std@@@boost@@AEAAXAEBVChannelLoad@dcc@vanetza@@@Z
	??$put@DU?$char_traits@D@std@@V?$allocator@D@2@AEBU?$put_holder@DU?$char_traits@D@std@@@detail@io@boost@@@detail@io@boost@@YAXAEBU?$put_holder@DU?$char_traits@D@std@@@012@AEBU?$format_item@DU?$char_traits@D@std@@V?$allocator@D@2@@012@AEAV?$basic_string@DU?$char_traits@D@std@@V?$allocator@D@2@@std@@AEAV?$basic_altstringbuf@DU?$char_traits@D@std@@V?$allocator@D@2@@12@PEAVlocale@6@@Z
	??$put_head@DU?$char_traits@D@std@@@detail@io@boost@@YAXAEAV?$basic_ostream@DU?$char_traits@D@std@@@std@@AEBU?$put_holder@DU?$char_traits@D@std@@@012@@Z
	??$put_head@DU?$char_traits@D@std@@_J@detail@io@boost@@YAXAEAV?$basic_ostream@DU?$char_traits@D@std@@@std@@AEB_J@Z
	??$put_last@DU?$char_traits@D@std@@@detail@io@boost@@YAXAEAV?$basic_ostream@DU?$char_traits@D@std@@@std@@AEBU?$put_holder@DU?$char_traits@D@std@@@012@@Z
	??$put_last@DU?$char_traits@D@std@@_J@detail@io@boost@@YAXAEAV?$basic_ostream@DU?$char_traits@D@std@@@std@@AEB_J@Z
	??$sp_deleter_construct@V?$basic_altstringbuf@DU?$char_traits@D@std@@V?$allocator@D@2@@io@boost@@V123@@detail@boost@@YAXPEAV?$shared_ptr@V?$basic_altstringbuf@DU?$char_traits@D@std@@V?$allocator@D@2@@io@boost@@@1@PEAV?$basic_altstringbuf@DU?$char_traits@D@std@@V?$allocator@D@2@@io@1@@Z
	??$str2int@HV?$_String_const_iterator@V?$_String_val@U?$_Simple_types@D@std@@@std@@@std@@V?$ctype@D@2@@detail@io@boost@@YA?AV?$_String_const_iterator@V?$_String_val@U?$_Simple_types@D@std@@@std@@@std@@AEBV34@0AEAHAEBV?$ctype@D@4@@Z
	??$str2int@_JV?$_String_const_iterator@V?$_String_val@U?$_Simple_types@D@std@@@std@@@std@@V?$ctype@D@2@@detail@io@boost@@YA?AV?$_String_const_iterator@V?$_String_val@U?$_Simple_types@D@std@@@std@@@std@@AEBV34@0AEA_JAEBV?$ctype@D@4@@Z
	??$sub@PEAV?$time_point@VClock@vanetza@@V?$duration@_JU?$ratio@$00$0PECEA@@std@@@chrono@std@@@chrono@std@@@?$circular_buffer@V?$time_point@VClock@vanetza@@V?$duration@_JU?$ratio@$00$0PECEA@@std@@@chrono@std@@@chrono@std@@V?$allocator@V?$time_point@VClock@vanetza@@V?$duration@_JU?$ratio@$00$0PECEA@@std@@@chrono@std@@@chrono@std@@@3@@boost@@AEBAPEAV?$time_point@VClock@vanetza@@V?$duration@_JU?$ratio@$00$0PECEA@@std@@@chrono@std@@@chrono@std@@PEAV234@_J@Z
	??$swap@PEAU?$_Tree_node@UState@GradualStateMachine@dcc@vanetza@@PEAX@std@@$0A@@std@@YAXAEAPEAU?$_Tree_node@UState@GradualStateMachine@dcc@vanetza@@PEAX@0@0@Z
	??$swap@_K$0A@@std@@YAXAEA_K0@Z
	??$throw_exception@Vbad_format_string@io@boost@@@boost@@YAXAEBVbad_format_string@io@0@@Z
	??$throw_exception@Vlength_error@std@@@boost@@YAXAEBVlength_error@std@@@Z
	??$throw_exception@Vtoo_few_args@io@boost@@@boost@@YAXAEBVtoo_few_args@io@0@@Z
	??$throw_exception@Vtoo_many_args@io@boost@@@boost@@YAXAEBVtoo_many_args@io@0@@Z
	??$to_address@V?$time_point@VClock@vanetza@@V?$duration@_JU?$ratio@$00$0PECEA@@std@@@chrono@std@@@chrono@std@@@boost@@YAPEAV?$time_point@VClock@vanetza@@V?$duration@_JU?$ratio@$00$0PECEA@@std@@@chrono@std@@@chrono@std@@PEAV123@@Z
	??$to_address@VChannelLoad@dcc@vanetza@@@boost@@YAPEAVChannelLoad@dcc@vanetza@@PEAV123@@Z
	??$uninitialized_move_if_noexcept@U?$iterator@V?$circular_buffer@V?$time_point@VClock@vanetza@@V?$duration@_JU?$ratio@$00$0PECEA@@std@@@chrono@std@@@chrono@std@@V?$allocator@V?$time_point@VClock@vanetza@@V?$duration@_JU?$ratio@$00$0PECEA@@std@@@chrono@std@@@chrono@std@@@3@@boost@@U?$nonconst_traits@V?$allocator@V?$time_point@VClock@vanetza@@V?$duration@_JU?$ratio@$00$0PECEA@@std@@@chrono@std@@@chrono@std@@@std@@@cb_details@2@@cb_details@boost@@PEAV?$time_point@VClock@vanetza@@V?$duration@_JU?$ratio@$00$0PECEA@@std@@@chrono@std@@@chrono@std@@V?$allocator@V?$time_point@VClock@vanetza@@V?$duration@_JU?$ratio@$00$0PECEA@@std@@@chrono@std@@@chrono@std@@@6@@cb_details@boost@@YAPEAV?$time_point@VClock@vanetza@@V?$duration@_JU?$ratio@$00$0PECEA@@std@@@chrono@std@@@chrono@std@@U?$iterator@V?$circular_buffer@V?$time_point@VClock@vanetza@@V?$duration@_JU?$ratio@$00$0PECEA@@std@@@chrono@std@@@chrono@std@@V?$allocator@V?$time_point@VClock@vanetza@@V?$duration@_JU?$ratio@$00$0PECEA@@std@@@chrono@std@@@chrono@std@@@3@@boost@@U?$nonconst_traits@V?$allocator@V?$time_point@VClock@vanetza@@V?$duration@_JU?$ratio@$00$0PECEA@@std@@@chrono@std@@@chrono@std@@@std@@@cb_details@2@@01@0PEAV234@AEAV?$allocator@V?$time_point@VClock@vanetza@@V?$duration@_JU?$ratio@$00$0PECEA@@std@@@chrono@std@@@chrono@std@@@4@@Z
	??$uninitialized_move_if_noexcept_impl@U?$iterator@V?$circular_buffer@V?$time_point@VClock@vanetza@@V?$duration@_JU?$ratio@$00$0PECEA@@std@@@chrono@std@@@chrono@std@@V?$allocator@V?$time_point@VClock@vanetza@@V?$duration@_JU?$ratio@$00$0PECEA@@std@@@chrono@std@@@chrono@std@@@3@@boost@@U?$nonconst_traits@V?$allocator@V?$time_point@VClock@vanetza@@V?$duration@_JU?$ratio@$00$0PECEA@@std@@@chrono@std@@@chrono@std@@@std@@@cb_details@2@@cb_details@boost@@PEAV?$time_point@VClock@vanetza@@V?$duration@_JU?$ratio@$00$0PECEA@@std@@@chrono@std@@@chrono@std@@V?$allocator@V?$time_point@VClock@vanetza@@V?$duration@_JU?$ratio@$00$0PECEA@@std@@@chrono@std@@@chrono@std@@@6@@cb_details@boost@@YAPEAV?$time_point@VClock@vanetza@@V?$duration@_JU?$ratio@$00$0PECEA@@std@@@chrono@std@@@chrono@std@@U?$iterator@V?$circular_buffer@V?$time_point@VClock@vanetza@@V?$duration@_JU?$ratio@$00$0PECEA@@std@@@chrono@std@@@chrono@std@@V?$allocator@V?$time_point@VClock@vanetza@@V?$duration@_JU?$ratio@$00$0PECEA@@std@@@chrono@std@@@chrono@std@@@3@@boost@@U?$nonconst_traits@V?$allocator@V?$time_point@VClock@vanetza@@V?$duration@_JU?$ratio@$00$0PECEA@@std@@@chrono@std@@@chrono@std@@@std@@@cb_details@2@@01@0PEAV234@AEAV?$allocator@V?$time_point@VClock@vanetza@@V?$duration@_JU?$ratio@$00$0PECEA@@std@@@chrono@std@@@chrono@std@@@4@U?$integral_constant@_N$00@1@@Z
	??$upper_bound@V?$_Array_const_iterator@N$04@std@@N@std@@YA?AV?$_Array_const_iterator@N$04@0@V10@0AEBN@Z
	??$upper_bound@V?$_Array_const_iterator@N$04@std@@NU?$less@X@2@@std@@YA?AV?$_Array_const_iterator@N$04@0@V10@0AEBNU?$less@X@0@@Z
	??$upper_bound_from_fstring@V?$basic_string@DU?$char_traits@D@std@@V?$allocator@D@2@@std@@V?$ctype@D@2@@detail@io@boost@@YAHAEBV?$basic_string@DU?$char_traits@D@std@@V?$allocator@D@2@@std@@DAEBV?$ctype@D@4@E@Z
	??$use_facet@V?$ctype@D@std@@@std@@YAAEBV?$ctype@D@0@AEBVlocale@0@@Z
	??$wrap_isdigit@DV?$ctype@D@std@@@detail@io@boost@@YA_NAEBV?$ctype@D@std@@D@Z
	??$wrap_narrow@DV?$ctype@D@std@@@detail@io@boost@@YADAEBV?$ctype@D@std@@DD@Z
	??$wrap_scan_notdigit@V?$_String_const_iterator@V?$_String_val@U?$_Simple_types@D@std@@@std@@@std@@V?$ctype@D@2@@detail@io@boost@@YA?AV?$_String_const_iterator@V?$_String_val@U?$_Simple_types@D@std@@@std@@@std@@AEBV?$ctype@D@4@V34@1@Z
	??0?$Hook@PEBVLimeric@dcc@vanetza@@V?$time_point@VClock@vanetza@@V?$duration@_JU?$ratio@$00$0PECEA@@std@@@chrono@std@@@chrono@std@@@vanetza@@QEAA@XZ
	??0?$Hook@VChannelLoad@dcc@vanetza@@@vanetza@@QEAA@XZ
	??0?$Hook@W4AccessCategory@access@vanetza@@PEBVChunkPacket@3@@vanetza@@QEAA@XZ
	??0?$HookRegistry@PEBVLimeric@dcc@vanetza@@V?$time_point@VClock@vanetza@@V?$duration@_JU?$ratio@$00$0PECEA@@std@@@chrono@std@@@chrono@std@@@vanetza@@QEAA@AEAV?$Hook@PEBVLimeric@dcc@vanetza@@V?$time_point@VClock@vanetza@@V?$duration@_JU?$ratio@$00$0PECEA@@std@@@chrono@std@@@chrono@std@@@1@@Z
	??0?$HookRegistry@VChannelLoad@dcc@vanetza@@@vanetza@@QEAA@AEAV?$Hook@VChannelLoad@dcc@vanetza@@@1@@Z
	??0?$_Alloc_construct_ptr@V?$allocator@U?$_List_node@UPendingTransmission@FlowControl@dcc@vanetza@@PEAX@std@@@std@@@std@@QEAA@AEAV?$allocator@U?$_List_node@UPendingTransmission@FlowControl@dcc@vanetza@@PEAX@std@@@1@@Z
	??0?$_Alloc_construct_ptr@V?$allocator@U?$_Tree_node@U?$pair@$$CBW4AccessCategory@access@vanetza@@V?$list@UPendingTransmission@FlowControl@dcc@vanetza@@V?$allocator@UPendingTransmission@FlowControl@dcc@vanetza@@@std@@@std@@@std@@PEAX@std@@@std@@@std@@QEAA@AEAV?$allocator@U?$_Tree_node@U?$pair@$$CBW4AccessCategory@access@vanetza@@V?$list@UPendingTransmission@FlowControl@dcc@vanetza@@V?$allocator@UPendingTransmission@FlowControl@dcc@vanetza@@@std@@@std@@@std@@PEAX@std@@@1@@Z
	??0?$_Alloc_construct_ptr@V?$allocator@U?$_Tree_node@UState@GradualStateMachine@dcc@vanetza@@PEAX@std@@@std@@@std@@QEAA@AEAV?$allocator@U?$_Tree_node@UState@GradualStateMachine@dcc@vanetza@@PEAX@std@@@1@@Z
	??0?$_Array_const_iterator@N$04@std@@QEAA@PEBN_K@Z
	??0?$_Atomic_integral@H$03@std@@QEAA@H@Z
	??0?$_Atomic_integral_facade@H@std@@QEAA@H@Z
	??0?$_Atomic_storage@H$03@std@@QEAA@H@Z
	??0?$_Binder@U_Unforced@std@@P8FlowControl@dcc@vanetza@@EAAXXZPEAV345@@std@@QEAA@$$QEAP8FlowControl@dcc@vanetza@@EAAXXZ$$QEAPEAV234@@Z
	??0?$_Binder@U_Unforced@std@@P8FlowControl@dcc@vanetza@@EAAXXZPEAV345@@std@@QEAA@$$QEAV01@@Z
	??0?$_Binder@U_Unforced@std@@P8FlowControl@dcc@vanetza@@EAAXXZPEAV345@@std@@QEAA@AEBV01@@Z
	??0?$_Compressed_pair@P8FlowControl@dcc@vanetza@@EAAXXZV?$tuple@PEAVFlowControl@dcc@vanetza@@@std@@$0A@@std@@QEAA@$$QEAV01@@Z
	??0?$_Compressed_pair@P8FlowControl@dcc@vanetza@@EAAXXZV?$tuple@PEAVFlowControl@dcc@vanetza@@@std@@$0A@@std@@QEAA@AEBV01@@Z
	??0?$_Container_proxy_ptr12@V?$allocator@U_Container_proxy@std@@@std@@@std@@QEAA@AEAV?$allocator@U_Container_proxy@std@@@1@AEAU_Container_base12@1@@Z
	??0?$_Func_base@XV?$time_point@VClock@vanetza@@V?$duration@_JU?$ratio@$00$0PECEA@@std@@@chrono@std@@@chrono@std@@@std@@QEAA@XZ
	??0?$_Func_class@XPEBVLimeric@dcc@vanetza@@V?$time_point@VClock@vanetza@@V?$duration@_JU?$ratio@$00$0PECEA@@std@@@chrono@std@@@chrono@std@@@std@@QEAA@XZ
	??0?$_Func_class@XV?$time_point@VClock@vanetza@@V?$duration@_JU?$ratio@$00$0PECEA@@std@@@chrono@std@@@chrono@std@@@std@@QEAA@XZ
	??0?$_Func_class@XVChannelLoad@dcc@vanetza@@@std@@QEAA@XZ
	??0?$_Func_class@XW4AccessCategory@access@vanetza@@PEBVChunkPacket@3@@std@@QEAA@XZ
	??0?$_List_val@U?$_List_simple_types@UPendingTransmission@FlowControl@dcc@vanetza@@@std@@@std@@QEAA@XZ
	??0?$_String_const_iterator@V?$_String_val@U?$_Simple_types@D@std@@@std@@@std@@QEAA@$$QEAV01@@Z
	??0?$_String_const_iterator@V?$_String_val@U?$_Simple_types@D@std@@@std@@@std@@QEAA@AEBV01@@Z
	??0?$_String_const_iterator@V?$_String_val@U?$_Simple_types@D@std@@@std@@@std@@QEAA@PEBDPEBU_Container_base12@1@@Z
	??0?$_String_const_iterator@V?$_String_val@U?$_Simple_types@D@std@@@std@@@std@@QEAA@XZ
	??0?$_String_val@U?$_Simple_types@D@std@@@std@@QEAA@XZ
	??0?$_Tree@V?$_Tmap_traits@W4AccessCategory@access@vanetza@@V?$list@UPendingTransmission@FlowControl@dcc@vanetza@@V?$allocator@UPendingTransmission@FlowControl@dcc@vanetza@@@std@@@std@@U?$greater@W4AccessCategory@access@vanetza@@@5@V?$allocator@U?$pair@$$CBW4AccessCategory@access@vanetza@@V?$list@UPendingTransmission@FlowControl@dcc@vanetza@@V?$allocator@UPendingTransmission@FlowControl@dcc@vanetza@@@std@@@std@@@std@@@5@$0A@@std@@@std@@QEAA@AEBU?$greater@W4AccessCategory@access@vanetza@@@1@@Z
	??0?$_Tree@V?$_Tset_traits@UState@GradualStateMachine@dcc@vanetza@@U?$less@UState@GradualStateMachine@dcc@vanetza@@@std@@V?$allocator@UState@GradualStateMachine@dcc@vanetza@@@6@$0A@@std@@@std@@QEAA@$$QEAV01@@Z
	??0?$_Tree@V?$_Tset_traits@UState@GradualStateMachine@dcc@vanetza@@U?$less@UState@GradualStateMachine@dcc@vanetza@@@std@@V?$allocator@UState@GradualStateMachine@dcc@vanetza@@@6@$0A@@std@@@std@@QEAA@AEBU?$less@UState@GradualStateMachine@dcc@vanetza@@@1@@Z
	??0?$_Tree_const_iterator@V?$_Tree_val@U?$_Tree_simple_types@U?$pair@$$CBW4AccessCategory@access@vanetza@@V?$list@UPendingTransmission@FlowControl@dcc@vanetza@@V?$allocator@UPendingTransmission@FlowControl@dcc@vanetza@@@std@@@std@@@std@@@std@@@std@@@std@@QEAA@PEAU?$_Tree_node@U?$pair@$$CBW4AccessCategory@access@vanetza@@V?$list@UPendingTransmission@FlowControl@dcc@vanetza@@V?$allocator@UPendingTransmission@FlowControl@dcc@vanetza@@@std@@@std@@@std@@PEAX@1@PEBV?$_Tree_val@U?$_Tree_simple_types@U?$pair@$$CBW4AccessCategory@access@vanetza@@V?$list@UPendingTransmission@FlowControl@dcc@vanetza@@V?$allocator@UPendingTransmission@FlowControl@dcc@vanetza@@@std@@@std@@@std@@@std@@@1@@Z
	??0?$_Tree_const_iterator@V?$_Tree_val@U?$_Tree_simple_types@UState@GradualStateMachine@dcc@vanetza@@@std@@@std@@@std@@QEAA@$$QEAV01@@Z
	??0?$_Tree_const_iterator@V?$_Tree_val@U?$_Tree_simple_types@UState@GradualStateMachine@dcc@vanetza@@@std@@@std@@@std@@QEAA@AEBV01@@Z
	??0?$_Tree_const_iterator@V?$_Tree_val@U?$_Tree_simple_types@UState@GradualStateMachine@dcc@vanetza@@@std@@@std@@@std@@QEAA@PEAU?$_Tree_node@UState@GradualStateMachine@dcc@vanetza@@PEAX@1@PEBV?$_Tree_val@U?$_Tree_simple_types@UState@GradualStateMachine@dcc@vanetza@@@std@@@1@@Z
	??0?$_Tree_head_scoped_ptr@V?$allocator@U?$_Tree_node@UState@GradualStateMachine@dcc@vanetza@@PEAX@std@@@std@@V?$_Tree_val@U?$_Tree_simple_types@UState@GradualStateMachine@dcc@vanetza@@@std@@@2@@std@@QEAA@AEAV?$allocator@U?$_Tree_node@UState@GradualStateMachine@dcc@vanetza@@PEAX@std@@@1@AEAV?$_Tree_val@U?$_Tree_simple_types@UState@GradualStateMachine@dcc@vanetza@@@std@@@1@@Z
	??0?$_Tree_temp_node_alloc@V?$allocator@U?$_Tree_node@U?$pair@$$CBW4AccessCategory@access@vanetza@@V?$list@UPendingTransmission@FlowControl@dcc@vanetza@@V?$allocator@UPendingTransmission@FlowControl@dcc@vanetza@@@std@@@std@@@std@@PEAX@std@@@std@@@std@@QEAA@AEAV?$allocator@U?$_Tree_node@U?$pair@$$CBW4AccessCategory@access@vanetza@@V?$list@UPendingTransmission@FlowControl@dcc@vanetza@@V?$allocator@UPendingTransmission@FlowControl@dcc@vanetza@@@std@@@std@@@std@@PEAX@std@@@1@@Z
	??0?$_Tree_temp_node_alloc@V?$allocator@U?$_Tree_node@UState@GradualStateMachine@dcc@vanetza@@PEAX@std@@@std@@@std@@QEAA@AEAV?$allocator@U?$_Tree_node@UState@GradualStateMachine@dcc@vanetza@@PEAX@std@@@1@@Z
	??0?$_Tree_unchecked_const_iterator@V?$_Tree_val@U?$_Tree_simple_types@U?$pair@$$CBW4AccessCategory@access@vanetza@@V?$list@UPendingTransmission@FlowControl@dcc@vanetza@@V?$allocator@UPendingTransmission@FlowControl@dcc@vanetza@@@std@@@std@@@std@@@std@@@std@@U_Iterator_base0@2@@std@@QEAA@PEAU?$_Tree_node@U?$pair@$$CBW4AccessCategory@access@vanetza@@V?$list@UPendingTransmission@FlowControl@dcc@vanetza@@V?$allocator@UPendingTransmission@FlowControl@dcc@vanetza@@@std@@@std@@@std@@PEAX@1@PEBV?$_Tree_val@U?$_Tree_simple_types@U?$pair@$$CBW4AccessCategory@access@vanetza@@V?$list@UPendingTransmission@FlowControl@dcc@vanetza@@V?$allocator@UPendingTransmission@FlowControl@dcc@vanetza@@@std@@@std@@@std@@@std@@@1@@Z
	??0?$_Tree_unchecked_const_iterator@V?$_Tree_val@U?$_Tree_simple_types@U?$pair@$$CBW4AccessCategory@access@vanetza@@V?$list@UPendingTransmission@FlowControl@dcc@vanetza@@V?$allocator@UPendingTransmission@FlowControl@dcc@vanetza@@@std@@@std@@@std@@@std@@@std@@U_Iterator_base12@2@@std@@QEAA@PEAU?$_Tree_node@U?$pair@$$CBW4AccessCategory@access@vanetza@@V?$list@UPendingTransmission@FlowControl@dcc@vanetza@@V?$allocator@UPendingTransmission@FlowControl@dcc@vanetza@@@std@@@std@@@std@@PEAX@1@PEBV?$_Tree_val@U?$_Tree_simple_types@U?$pair@$$CBW4AccessCategory@access@vanetza@@V?$list@UPendingTransmission@FlowControl@dcc@vanetza@@V?$allocator@UPendingTransmission@FlowControl@dcc@vanetza@@@std@@@std@@@std@@@std@@@1@@Z
	??0?$_Tree_unchecked_const_iterator@V?$_Tree_val@U?$_Tree_simple_types@UState@GradualStateMachine@dcc@vanetza@@@std@@@std@@U_Iterator_base0@2@@std@@QEAA@PEAU?$_Tree_node@UState@GradualStateMachine@dcc@vanetza@@PEAX@1@PEBV?$_Tree_val@U?$_Tree_simple_types@UState@GradualStateMachine@dcc@vanetza@@@std@@@1@@Z
	??0?$_Tree_unchecked_const_iterator@V?$_Tree_val@U?$_Tree_simple_types@UState@GradualStateMachine@dcc@vanetza@@@std@@@std@@U_Iterator_base12@2@@std@@QEAA@$$QEAV01@@Z
	??0?$_Tree_unchecked_const_iterator@V?$_Tree_val@U?$_Tree_simple_types@UState@GradualStateMachine@dcc@vanetza@@@std@@@std@@U_Iterator_base12@2@@std@@QEAA@AEBV01@@Z
	??0?$_Tree_unchecked_const_iterator@V?$_Tree_val@U?$_Tree_simple_types@UState@GradualStateMachine@dcc@vanetza@@@std@@@std@@U_Iterator_base12@2@@std@@QEAA@PEAU?$_Tree_node@UState@GradualStateMachine@dcc@vanetza@@PEAX@1@PEBV?$_Tree_val@U?$_Tree_simple_types@UState@GradualStateMachine@dcc@vanetza@@@std@@@1@@Z
	??0?$_Tree_unchecked_iterator@V?$_Tree_val@U?$_Tree_simple_types@U?$pair@$$CBW4AccessCategory@access@vanetza@@V?$list@UPendingTransmission@FlowControl@dcc@vanetza@@V?$allocator@UPendingTransmission@FlowControl@dcc@vanetza@@@std@@@std@@@std@@@std@@@std@@@std@@QEAA@PEAU?$_Tree_node@U?$pair@$$CBW4AccessCategory@access@vanetza@@V?$list@UPendingTransmission@FlowControl@dcc@vanetza@@V?$allocator@UPendingTransmission@FlowControl@dcc@vanetza@@@std@@@std@@@std@@PEAX@1@PEBV?$_Tree_val@U?$_Tree_simple_types@U?$pair@$$CBW4AccessCategory@access@vanetza@@V?$list@UPendingTransmission@FlowControl@dcc@vanetza@@V?$allocator@UPendingTransmission@FlowControl@dcc@vanetza@@@std@@@std@@@std@@@std@@@1@@Z
	??0?$_Tree_val@U?$_Tree_simple_types@U?$pair@$$CBW4AccessCategory@access@vanetza@@V?$list@UPendingTransmission@FlowControl@dcc@vanetza@@V?$allocator@UPendingTransmission@FlowControl@dcc@vanetza@@@std@@@std@@@std@@@std@@@std@@QEAA@XZ
	??0?$_Tree_val@U?$_Tree_simple_types@UState@GradualStateMachine@dcc@vanetza@@@std@@@std@@QEAA@XZ
	??0?$_Uninitialized_backout_al@V?$allocator@I@std@@@std@@QEAA@PEAIAEAV?$allocator@I@1@@Z
	??0?$_Uninitialized_backout_al@V?$allocator@U?$format_item@DU?$char_traits@D@std@@V?$allocator@D@2@@detail@io@boost@@@std@@@std@@QEAA@PEAU?$format_item@DU?$char_traits@D@std@@V?$allocator@D@2@@detail@io@boost@@AEAV?$allocator@U?$format_item@DU?$char_traits@D@std@@V?$allocator@D@2@@detail@io@boost@@@1@@Z
	??0?$_Vb_const_iterator@U?$_Wrap_alloc@V?$allocator@I@std@@@std@@@std@@QEAA@$$QEAV01@@Z
	??0?$_Vb_const_iterator@U?$_Wrap_alloc@V?$allocator@I@std@@@std@@@std@@QEAA@AEBV01@@Z
	??0?$_Vb_const_iterator@U?$_Wrap_alloc@V?$allocator@I@std@@@std@@@std@@QEAA@PEBIPEBU_Container_base12@1@@Z
	??0?$_Vb_iter_base@U?$_Wrap_alloc@V?$allocator@I@std@@@std@@@std@@QEAA@$$QEAV01@@Z
	??0?$_Vb_iter_base@U?$_Wrap_alloc@V?$allocator@I@std@@@std@@@std@@QEAA@AEBV01@@Z
	??0?$_Vb_iter_base@U?$_Wrap_alloc@V?$allocator@I@std@@@std@@@std@@QEAA@PEBI_KPEBU_Container_base12@1@@Z
	??0?$_Vb_iterator@U?$_Wrap_alloc@V?$allocator@I@std@@@std@@@std@@QEAA@$$QEAV01@@Z
	??0?$_Vb_iterator@U?$_Wrap_alloc@V?$allocator@I@std@@@std@@@std@@QEAA@AEBV01@@Z
	??0?$_Vb_iterator@U?$_Wrap_alloc@V?$allocator@I@std@@@std@@@std@@QEAA@PEBIPEBU_Container_base12@1@@Z
	??0?$_Vb_reference@U?$_Wrap_alloc@V?$allocator@I@std@@@std@@@std@@QEAA@AEBV?$_Vb_iter_base@U?$_Wrap_alloc@V?$allocator@I@std@@@std@@@1@@Z
	??0?$_Vb_val@V?$allocator@_N@std@@@std@@QEAA@AEBV01@@Z
	??0?$_Vb_val@V?$allocator@_N@std@@@std@@QEAA@XZ
	??0?$_Vector_const_iterator@V?$_Vector_val@U?$_Simple_types@I@std@@@std@@@std@@QEAA@$$QEAV01@@Z
	??0?$_Vector_const_iterator@V?$_Vector_val@U?$_Simple_types@I@std@@@std@@@std@@QEAA@AEBV01@@Z
	??0?$_Vector_const_iterator@V?$_Vector_val@U?$_Simple_types@I@std@@@std@@@std@@QEAA@PEAIPEBU_Container_base12@1@@Z
	??0?$_Vector_iterator@V?$_Vector_val@U?$_Simple_types@I@std@@@std@@@std@@QEAA@$$QEAV01@@Z
	??0?$_Vector_iterator@V?$_Vector_val@U?$_Simple_types@I@std@@@std@@@std@@QEAA@AEBV01@@Z
	??0?$_Vector_iterator@V?$_Vector_val@U?$_Simple_types@I@std@@@std@@@std@@QEAA@PEAIPEBU_Container_base12@1@@Z
	??0?$_Vector_val@U?$_Simple_types@I@std@@@std@@QEAA@XZ
	??0?$_Vector_val@U?$_Simple_types@U?$format_item@DU?$char_traits@D@std@@V?$allocator@D@2@@detail@io@boost@@@std@@@std@@QEAA@XZ
	??0?$allocator@D@std@@QEAA@XZ
	??0?$allocator@I@std@@QEAA@XZ
	??0?$allocator@U?$_List_node@UPendingTransmission@FlowControl@dcc@vanetza@@PEAX@std@@@std@@QEAA@XZ
	??0?$allocator@U?$_Tree_node@U?$pair@$$CBW4AccessCategory@access@vanetza@@V?$list@UPendingTransmission@FlowControl@dcc@vanetza@@V?$allocator@UPendingTransmission@FlowControl@dcc@vanetza@@@std@@@std@@@std@@PEAX@std@@@std@@QEAA@XZ
	??0?$allocator@U?$_Tree_node@UState@GradualStateMachine@dcc@vanetza@@PEAX@std@@@std@@QEAA@XZ
	??0?$allocator@U?$format_item@DU?$char_traits@D@std@@V?$allocator@D@2@@detail@io@boost@@@std@@QEAA@XZ
	??0?$allocator@V?$time_point@VClock@vanetza@@V?$duration@_JU?$ratio@$00$0PECEA@@std@@@chrono@std@@@chrono@std@@@std@@QEAA@XZ
	??0?$allocator@VChannelLoad@dcc@vanetza@@@std@@QEAA@XZ
	??0?$atomic@H@std@@QEAA@H@Z
	??0?$basic_altstringbuf@DU?$char_traits@D@std@@V?$allocator@D@2@@io@boost@@QEAA@H@Z
	??0?$basic_format@DU?$char_traits@D@std@@V?$allocator@D@2@@boost@@QEAA@AEBV01@@Z
	??0?$basic_format@DU?$char_traits@D@std@@V?$allocator@D@2@@boost@@QEAA@PEBD@Z
	??0?$basic_oaltstringstream@DU?$char_traits@D@std@@V?$allocator@D@2@@io@boost@@QEAA@PEAV?$basic_altstringbuf@DU?$char_traits@D@std@@V?$allocator@D@2@@12@@Z
	??0?$basic_string@DU?$char_traits@D@std@@V?$allocator@D@2@@std@@QEAA@$$QEAV01@@Z
	??0?$basic_string@DU?$char_traits@D@std@@V?$allocator@D@2@@std@@QEAA@AEBV01@@Z
	??0?$basic_string@DU?$char_traits@D@std@@V?$allocator@D@2@@std@@QEAA@QEBD@Z
	??0?$basic_string@DU?$char_traits@D@std@@V?$allocator@D@2@@std@@QEAA@XZ
	??0?$circular_buffer@V?$time_point@VClock@vanetza@@V?$duration@_JU?$ratio@$00$0PECEA@@std@@@chrono@std@@@chrono@std@@V?$allocator@V?$time_point@VClock@vanetza@@V?$duration@_JU?$ratio@$00$0PECEA@@std@@@chrono@std@@@chrono@std@@@3@@boost@@QEAA@_KAEBV?$allocator@V?$time_point@VClock@vanetza@@V?$duration@_JU?$ratio@$00$0PECEA@@std@@@chrono@std@@@chrono@std@@@std@@@Z
	??0?$circular_buffer@VChannelLoad@dcc@vanetza@@V?$allocator@VChannelLoad@dcc@vanetza@@@std@@@boost@@QEAA@_KAEBV?$allocator@VChannelLoad@dcc@vanetza@@@std@@@Z
	??0?$format_item@DU?$char_traits@D@std@@V?$allocator@D@2@@detail@io@boost@@QEAA@$$QEAU0123@@Z
	??0?$format_item@DU?$char_traits@D@std@@V?$allocator@D@2@@detail@io@boost@@QEAA@AEBU0123@@Z
	??0?$format_item@DU?$char_traits@D@std@@V?$allocator@D@2@@detail@io@boost@@QEAA@D@Z
	??0?$fpos@U_Mbstatet@@@std@@QEAA@_J@Z
	??0?$function@$$A6AXPEBVLimeric@dcc@vanetza@@V?$time_point@VClock@vanetza@@V?$duration@_JU?$ratio@$00$0PECEA@@std@@@chrono@std@@@chrono@std@@@Z@std@@QEAA@XZ
	??0?$function@$$A6AXVChannelLoad@dcc@vanetza@@@Z@std@@QEAA@XZ
	??0?$function@$$A6AXW4AccessCategory@access@vanetza@@PEBVChunkPacket@3@@Z@std@@QEAA@XZ
	??0?$initializer_list@UState@GradualStateMachine@dcc@vanetza@@@std@@QEAA@PEBUState@GradualStateMachine@dcc@vanetza@@0@Z
	??0?$item_wrapper@PEBV?$time_point@VClock@vanetza@@V?$duration@_JU?$ratio@$00$0PECEA@@std@@@chrono@std@@@chrono@std@@AEBV123@@cb_details@boost@@QEAA@AEBV?$time_point@VClock@vanetza@@V?$duration@_JU?$ratio@$00$0PECEA@@std@@@chrono@std@@@chrono@std@@@Z
	??0?$iterator@V?$circular_buffer@V?$time_point@VClock@vanetza@@V?$duration@_JU?$ratio@$00$0PECEA@@std@@@chrono@std@@@chrono@std@@V?$allocator@V?$time_point@VClock@vanetza@@V?$duration@_JU?$ratio@$00$0PECEA@@std@@@chrono@std@@@chrono@std@@@3@@boost@@U?$nonconst_traits@V?$allocator@V?$time_point@VClock@vanetza@@V?$duration@_JU?$ratio@$00$0PECEA@@std@@@chrono@std@@@chrono@std@@@std@@@cb_details@2@@cb_details@boost@@QEAA@AEBU012@@Z
	??0?$iterator@V?$circular_buffer@V?$time_point@VClock@vanetza@@V?$duration@_JU?$ratio@$00$0PECEA@@std@@@chrono@std@@@chrono@std@@V?$allocator@V?$time_point@VClock@vanetza@@V?$duration@_JU?$ratio@$00$0PECEA@@std@@@chrono@std@@@chrono@std@@@3@@boost@@U?$nonconst_traits@V?$allocator@V?$time_point@VClock@vanetza@@V?$duration@_JU?$ratio@$00$0PECEA@@std@@@chrono@std@@@chrono@std@@@std@@@cb_details@2@@cb_details@boost@@QEAA@PEBV?$circular_buffer@V?$time_point@VClock@vanetza@@V?$duration@_JU?$ratio@$00$0PECEA@@std@@@chrono@std@@@chrono@std@@V?$allocator@V?$time_point@VClock@vanetza@@V?$duration@_JU?$ratio@$00$0PECEA@@std@@@chrono@std@@@chrono@std@@@3@@2@QEAV?$time_point@VClock@vanetza@@V?$duration@_JU?$ratio@$00$0PECEA@@std@@@chrono@std@@@chrono@std@@@Z
	??0?$iterator@V?$circular_buffer@VChannelLoad@dcc@vanetza@@V?$allocator@VChannelLoad@dcc@vanetza@@@std@@@boost@@U?$const_traits@V?$allocator@VChannelLoad@dcc@vanetza@@@std@@@cb_details@2@@cb_details@boost@@QEAA@PEBV?$circular_buffer@VChannelLoad@dcc@vanetza@@V?$allocator@VChannelLoad@dcc@vanetza@@@std@@@2@QEBVChannelLoad@dcc@vanetza@@@Z
	??0?$iterator@V?$circular_buffer@VChannelLoad@dcc@vanetza@@V?$allocator@VChannelLoad@dcc@vanetza@@@std@@@boost@@U?$nonconst_traits@V?$allocator@VChannelLoad@dcc@vanetza@@@std@@@cb_details@2@@cb_details@boost@@QEAA@AEBU012@@Z
	??0?$iterator@V?$circular_buffer@VChannelLoad@dcc@vanetza@@V?$allocator@VChannelLoad@dcc@vanetza@@@std@@@boost@@U?$nonconst_traits@V?$allocator@VChannelLoad@dcc@vanetza@@@std@@@cb_details@2@@cb_details@boost@@QEAA@PEBV?$circular_buffer@VChannelLoad@dcc@vanetza@@V?$allocator@VChannelLoad@dcc@vanetza@@@std@@@2@QEAVChannelLoad@dcc@vanetza@@@Z
	??0?$list@UPendingTransmission@FlowControl@dcc@vanetza@@V?$allocator@UPendingTransmission@FlowControl@dcc@vanetza@@@std@@@std@@QEAA@XZ
	??0?$map@W4AccessCategory@access@vanetza@@V?$list@UPendingTransmission@FlowControl@dcc@vanetza@@V?$allocator@UPendingTransmission@FlowControl@dcc@vanetza@@@std@@@std@@U?$greater@W4AccessCategory@access@vanetza@@@5@V?$allocator@U?$pair@$$CBW4AccessCategory@access@vanetza@@V?$list@UPendingTransmission@FlowControl@dcc@vanetza@@V?$allocator@UPendingTransmission@FlowControl@dcc@vanetza@@@std@@@std@@@std@@@5@@std@@QEAA@XZ
	??0?$optional@UDualAlphaParameters@Limeric@dcc@vanetza@@@boost@@QEAA@XZ
	??0?$optional@UPendingTransmission@FlowControl@dcc@vanetza@@@boost@@QEAA@$$QEAV01@@Z
	??0?$optional@UPendingTransmission@FlowControl@dcc@vanetza@@@boost@@QEAA@XZ
	??0?$optional@V?$time_point@VClock@vanetza@@V?$duration@_JU?$ratio@$00$0PECEA@@std@@@chrono@std@@@chrono@std@@@boost@@QEAA@XZ
	??0?$optional@Vlocale@std@@@boost@@QEAA@$$QEAV01@@Z
	??0?$optional@Vlocale@std@@@boost@@QEAA@AEBV01@@Z
	??0?$optional@Vlocale@std@@@boost@@QEAA@XZ
	??0?$optional_base@UDualAlphaParameters@Limeric@dcc@vanetza@@@optional_detail@boost@@IEAA@XZ
	??0?$optional_base@UPendingTransmission@FlowControl@dcc@vanetza@@@optional_detail@boost@@IEAA@$$QEAV012@@Z
	??0?$optional_base@UPendingTransmission@FlowControl@dcc@vanetza@@@optional_detail@boost@@IEAA@XZ
	??0?$optional_base@V?$time_point@VClock@vanetza@@V?$duration@_JU?$ratio@$00$0PECEA@@std@@@chrono@std@@@chrono@std@@@optional_detail@boost@@IEAA@XZ
	??0?$optional_base@Vlocale@std@@@optional_detail@boost@@IEAA@$$QEAV012@@Z
	??0?$optional_base@Vlocale@std@@@optional_detail@boost@@IEAA@AEBV012@@Z
	??0?$optional_base@Vlocale@std@@@optional_detail@boost@@IEAA@XZ
	??0?$refcount_ptr@Uerror_info_container@exception_detail@boost@@@exception_detail@boost@@QEAA@AEBV012@@Z
	??0?$refcount_ptr@Uerror_info_container@exception_detail@boost@@@exception_detail@boost@@QEAA@XZ
	??0?$set@UState@GradualStateMachine@dcc@vanetza@@U?$less@UState@GradualStateMachine@dcc@vanetza@@@std@@V?$allocator@UState@GradualStateMachine@dcc@vanetza@@@6@@std@@QEAA@$$QEAV01@@Z
	??0?$set@UState@GradualStateMachine@dcc@vanetza@@U?$less@UState@GradualStateMachine@dcc@vanetza@@@std@@V?$allocator@UState@GradualStateMachine@dcc@vanetza@@@6@@std@@QEAA@AEBV01@@Z
	??0?$set@UState@GradualStateMachine@dcc@vanetza@@U?$less@UState@GradualStateMachine@dcc@vanetza@@@std@@V?$allocator@UState@GradualStateMachine@dcc@vanetza@@@6@@std@@QEAA@V?$initializer_list@UState@GradualStateMachine@dcc@vanetza@@@1@@Z
	??0?$sp_counted_impl_pd@PEAV?$basic_altstringbuf@DU?$char_traits@D@std@@V?$allocator@D@2@@io@boost@@VNo_Op@?$basic_oaltstringstream@DU?$char_traits@D@std@@V?$allocator@D@2@@23@@detail@boost@@QEAA@PEAV?$basic_altstringbuf@DU?$char_traits@D@std@@V?$allocator@D@2@@io@2@AEAVNo_Op@?$basic_oaltstringstream@DU?$char_traits@D@std@@V?$allocator@D@2@@42@@Z
	??0?$stream_format_state@DU?$char_traits@D@std@@@detail@io@boost@@QEAA@$$QEAU0123@@Z
	??0?$stream_format_state@DU?$char_traits@D@std@@@detail@io@boost@@QEAA@AEBU0123@@Z
	??0?$stream_format_state@DU?$char_traits@D@std@@@detail@io@boost@@QEAA@D@Z
	??0?$time_point@VClock@vanetza@@V?$duration@_JU?$ratio@$00$0PECEA@@std@@@chrono@std@@@chrono@std@@QEAA@AEBV?$duration@_JU?$ratio@$00$0PECEA@@std@@@12@@Z
	??0?$time_point@VClock@vanetza@@V?$duration@_JU?$ratio@$00$0PECEA@@std@@@chrono@std@@@chrono@std@@QEAA@XZ
	??0?$tuple@$$V@std@@QEAA@AEBV01@@Z
	??0?$tuple@AEBW4AccessCategory@access@vanetza@@@std@@QEAA@$$QEAV01@@Z
	??0?$tuple@PEAVFlowControl@dcc@vanetza@@@std@@QEAA@$$QEAV01@@Z
	??0?$tuple@PEAVFlowControl@dcc@vanetza@@@std@@QEAA@AEBV01@@Z
	??0?$vector@IV?$allocator@I@std@@@std@@QEAA@AEBV01@@Z
	??0?$vector@IV?$allocator@I@std@@@std@@QEAA@XZ
	??0?$vector@U?$format_item@DU?$char_traits@D@std@@V?$allocator@D@2@@detail@io@boost@@V?$allocator@U?$format_item@DU?$char_traits@D@std@@V?$allocator@D@2@@detail@io@boost@@@std@@@std@@QEAA@AEBV01@@Z
	??0?$vector@U?$format_item@DU?$char_traits@D@std@@V?$allocator@D@2@@detail@io@boost@@V?$allocator@U?$format_item@DU?$char_traits@D@std@@V?$allocator@D@2@@detail@io@boost@@@std@@@std@@QEAA@XZ
	??0?$vector@_NV?$allocator@_N@std@@@std@@QEAA@AEBV01@@Z
	??0?$vector@_NV?$allocator@_N@std@@@std@@QEAA@XZ
	??0?$wrapexcept@Vbad_format_string@io@boost@@@boost@@QEAA@AEBU01@@Z
	??0?$wrapexcept@Vbad_format_string@io@boost@@@boost@@QEAA@AEBVbad_format_string@io@1@@Z
	??0?$wrapexcept@Vlength_error@std@@@boost@@QEAA@AEBU01@@Z
	??0?$wrapexcept@Vlength_error@std@@@boost@@QEAA@AEBVlength_error@std@@@Z
	??0?$wrapexcept@Vtoo_few_args@io@boost@@@boost@@QEAA@AEBU01@@Z
	??0?$wrapexcept@Vtoo_few_args@io@boost@@@boost@@QEAA@AEBVtoo_few_args@io@1@@Z
	??0?$wrapexcept@Vtoo_many_args@io@boost@@@boost@@QEAA@AEBU01@@Z
	??0?$wrapexcept@Vtoo_many_args@io@boost@@@boost@@QEAA@AEBVtoo_many_args@io@1@@Z
	??0Active@dcc@vanetza@@QEAA@XZ
	??0BurstBudget@dcc@vanetza@@QEAA@AEBVRuntime@2@@Z
	??0BurstyTransmitRateControl@dcc@vanetza@@QEAA@AEBVStateMachine@12@AEBVRuntime@2@@Z
	??0ChannelLoad@dcc@vanetza@@QEAA@AEBVUnitInterval@2@@Z
	??0ChannelLoad@dcc@vanetza@@QEAA@II@Z
	??0ChannelLoad@dcc@vanetza@@QEAA@N@Z
	??0ChannelLoad@dcc@vanetza@@QEAA@XZ
	??0ChannelProbeProcessor@dcc@vanetza@@QEAA@XZ
	??0DataRequest@access@vanetza@@QEAA@XZ
	??0DutyCyclePermit@dcc@vanetza@@QEAA@XZ
	??0FlowControl@dcc@vanetza@@QEAA@AEAVRuntime@2@AEAVTransmitRateControl@12@AEAVInterface@access@2@@Z
	??0FullyMeshedStateMachine@dcc@vanetza@@QEAA@XZ
	??0GradualStateMachine@dcc@vanetza@@QEAA@$$QEAV?$set@UState@GradualStateMachine@dcc@vanetza@@U?$less@UState@GradualStateMachine@dcc@vanetza@@@std@@V?$allocator@UState@GradualStateMachine@dcc@vanetza@@@6@@std@@@Z
	??0GradualStateMachine@dcc@vanetza@@QEAA@AEBV?$set@UState@GradualStateMachine@dcc@vanetza@@U?$less@UState@GradualStateMachine@dcc@vanetza@@@std@@V?$allocator@UState@GradualStateMachine@dcc@vanetza@@@6@@std@@@Z
	??0HookedChannelProbeProcessor@dcc@vanetza@@QEAA@XZ
	??0Limeric@dcc@vanetza@@QEAA@AEAVRuntime@2@@Z
	??0Limeric@dcc@vanetza@@QEAA@AEAVRuntime@2@AEBUParameters@012@@Z
	??0LimericBudget@dcc@vanetza@@QEAA@AEBVDutyCyclePermit@12@AEBVRuntime@2@@Z
	??0LimericTransmitRateControl@dcc@vanetza@@QEAA@AEBVRuntime@2@AEBVLimeric@12@@Z
	??0PendingTransmission@FlowControl@dcc@vanetza@@QEAA@$$QEAU0123@@Z
	??0PendingTransmission@FlowControl@dcc@vanetza@@QEAA@V?$time_point@VClock@vanetza@@V?$duration@_JU?$ratio@$00$0PECEA@@std@@@chrono@std@@@chrono@std@@AEBUDataRequest@23@V?$unique_ptr@VChunkPacket@vanetza@@U?$default_delete@VChunkPacket@vanetza@@@std@@@6@@Z
	??0Relaxed@dcc@vanetza@@QEAA@XZ
	??0RequestInterface@dcc@vanetza@@QEAA@XZ
	??0Restrictive@dcc@vanetza@@QEAA@XZ
	??0SingleReactiveTransmitRateControl@dcc@vanetza@@QEAA@AEBVStateMachine@12@AEBVRuntime@2@@Z
	??0SmoothingChannelProbeProcessor@dcc@vanetza@@QEAA@VUnitInterval@2@@Z
	??0State@GradualStateMachine@dcc@vanetza@@QEAA@VChannelLoad@23@V?$duration@_JU?$ratio@$00$0PECEA@@std@@@chrono@std@@@Z
	??0State@dcc@vanetza@@QEAA@XZ
	??0StateMachine@dcc@vanetza@@QEAA@XZ
	??0StateMachineBudget@dcc@vanetza@@QEAA@AEBVStateMachine@12@AEBVRuntime@2@@Z
	??0Transmission@dcc@vanetza@@QEAA@AEBV012@@Z
	??0Transmission@dcc@vanetza@@QEAA@XZ
	??0TransmissionLite@dcc@vanetza@@QEAA@W4Profile@12@_K@Z
	??0TransmitRateControl@dcc@vanetza@@QEAA@XZ
	??0TransmitRateFeedback@dcc@vanetza@@QEAA@XZ
	??0TransmitRateThrottle@dcc@vanetza@@QEAA@XZ
	??0UnitInterval@vanetza@@QEAA@N@Z
	??0UnitInterval@vanetza@@QEAA@XZ
	??0_Basic_container_proxy_ptr12@std@@IEAA@XZ
	??0_Bxty@?$_String_val@U?$_Simple_types@D@std@@@std@@QEAA@XZ
	??0_Container_base12@std@@QEAA@XZ
	??0_Container_proxy@std@@QEAA@PEAU_Container_base12@1@@Z
	??0_Iterator_base12@std@@QEAA@AEBU01@@Z
	??0_Iterator_base12@std@@QEAA@XZ
	??0_Iterator_base12_compatible@std@@QEAA@XZ
	??0_List_node_remove_op@?$list@UPendingTransmission@FlowControl@dcc@vanetza@@V?$allocator@UPendingTransmission@FlowControl@dcc@vanetza@@@std@@@std@@QEAA@AEAV12@@Z
	??0_Sentry_base@?$basic_ostream@DU?$char_traits@D@std@@@std@@QEAA@AEAV12@@Z
	??0bad_alloc@std@@AEAA@QEBD@Z
	??0bad_alloc@std@@QEAA@AEBV01@@Z
	??0bad_array_new_length@std@@QEAA@AEBV01@@Z
	??0bad_array_new_length@std@@QEAA@XZ
	??0bad_cast@std@@QEAA@AEBV01@@Z
	??0bad_cast@std@@QEAA@XZ
	??0bad_format_string@io@boost@@QEAA@AEBV012@@Z
	??0bad_format_string@io@boost@@QEAA@_K0@Z
	??0clone_base@exception_detail@boost@@QEAA@AEBV012@@Z
	??0clone_base@exception_detail@boost@@QEAA@XZ
	??0exception@boost@@IEAA@XZ
	??0exception@boost@@QEAA@AEBV01@@Z
	??0exception@std@@QEAA@AEBV01@@Z
	??0exception@std@@QEAA@QEBD@Z
	??0exception@std@@QEAA@QEBDH@Z
	??0exception@std@@QEAA@XZ
	??0format_error@io@boost@@QEAA@AEBV012@@Z
	??0format_error@io@boost@@QEAA@XZ
	??0in_place_init_if_t@optional_ns@boost@@QEAA@Uinit_tag@012@@Z
	??0in_place_init_t@optional_ns@boost@@QEAA@Uinit_tag@012@@Z
	??0invalid_argument@std@@QEAA@AEBV01@@Z
	??0invalid_argument@std@@QEAA@PEBD@Z
	??0length_error@std@@QEAA@AEBV01@@Z
	??0length_error@std@@QEAA@PEBD@Z
	??0locale@std@@QEAA@AEBV01@@Z
	??0locale@std@@QEAA@XZ
	??0logic_error@std@@QEAA@AEBV01@@Z
	??0logic_error@std@@QEAA@PEBD@Z
	??0sentry@?$basic_ostream@DU?$char_traits@D@std@@@std@@QEAA@AEAV12@@Z
	??0sp_counted_base@detail@boost@@QEAA@XZ
	??0too_few_args@io@boost@@QEAA@AEBV012@@Z
	??0too_few_args@io@boost@@QEAA@_K0@Z
	??0too_many_args@io@boost@@QEAA@AEBV012@@Z
	??0too_many_args@io@boost@@QEAA@_K0@Z
	??1?$Hook@PEBVLimeric@dcc@vanetza@@V?$time_point@VClock@vanetza@@V?$duration@_JU?$ratio@$00$0PECEA@@std@@@chrono@std@@@chrono@std@@@vanetza@@QEAA@XZ
	??1?$Hook@VChannelLoad@dcc@vanetza@@@vanetza@@QEAA@XZ
	??1?$Hook@W4AccessCategory@access@vanetza@@PEBVChunkPacket@3@@vanetza@@QEAA@XZ
	??1?$_Alloc_construct_ptr@V?$allocator@U?$_List_node@UPendingTransmission@FlowControl@dcc@vanetza@@PEAX@std@@@std@@@std@@QEAA@XZ
	??1?$_Alloc_construct_ptr@V?$allocator@U?$_Tree_node@U?$pair@$$CBW4AccessCategory@access@vanetza@@V?$list@UPendingTransmission@FlowControl@dcc@vanetza@@V?$allocator@UPendingTransmission@FlowControl@dcc@vanetza@@@std@@@std@@@std@@PEAX@std@@@std@@@std@@QEAA@XZ
	??1?$_Alloc_construct_ptr@V?$allocator@U?$_Tree_node@UState@GradualStateMachine@dcc@vanetza@@PEAX@std@@@std@@@std@@QEAA@XZ
	??1?$_Compressed_pair@V?$allocator@D@std@@V?$_String_val@U?$_Simple_types@D@std@@@2@$00@std@@QEAA@XZ
	??1?$_Container_proxy_ptr12@V?$allocator@U_Container_proxy@std@@@std@@@std@@QEAA@XZ
	??1?$_Func_class@XPEBVLimeric@dcc@vanetza@@V?$time_point@VClock@vanetza@@V?$duration@_JU?$ratio@$00$0PECEA@@std@@@chrono@std@@@chrono@std@@@std@@QEAA@XZ
	??1?$_Func_class@XV?$time_point@VClock@vanetza@@V?$duration@_JU?$ratio@$00$0PECEA@@std@@@chrono@std@@@chrono@std@@@std@@QEAA@XZ
	??1?$_Func_class@XVChannelLoad@dcc@vanetza@@@std@@QEAA@XZ
	??1?$_Func_class@XW4AccessCategory@access@vanetza@@PEBVChunkPacket@3@@std@@QEAA@XZ
	??1?$_List_node_emplace_op2@V?$allocator@U?$_List_node@UPendingTransmission@FlowControl@dcc@vanetza@@PEAX@std@@@std@@@std@@QEAA@XZ
	??1?$_String_const_iterator@V?$_String_val@U?$_Simple_types@D@std@@@std@@@std@@QEAA@XZ
	??1?$_String_val@U?$_Simple_types@D@std@@@std@@QEAA@XZ
	??1?$_Tidy_guard@V?$vector@IV?$allocator@I@std@@@std@@@std@@QEAA@XZ
	??1?$_Tidy_guard@V?$vector@U?$format_item@DU?$char_traits@D@std@@V?$allocator@D@2@@detail@io@boost@@V?$allocator@U?$format_item@DU?$char_traits@D@std@@V?$allocator@D@2@@detail@io@boost@@@std@@@std@@@std@@QEAA@XZ
	??1?$_Tree@V?$_Tmap_traits@W4AccessCategory@access@vanetza@@V?$list@UPendingTransmission@FlowControl@dcc@vanetza@@V?$allocator@UPendingTransmission@FlowControl@dcc@vanetza@@@std@@@std@@U?$greater@W4AccessCategory@access@vanetza@@@5@V?$allocator@U?$pair@$$CBW4AccessCategory@access@vanetza@@V?$list@UPendingTransmission@FlowControl@dcc@vanetza@@V?$allocator@UPendingTransmission@FlowControl@dcc@vanetza@@@std@@@std@@@std@@@5@$0A@@std@@@std@@QEAA@XZ
	??1?$_Tree@V?$_Tmap_traits@W4OsiLayer@vanetza@@VByteBufferConvertible@2@U?$less@W4OsiLayer@vanetza@@@std@@V?$allocator@U?$pair@$$CBW4OsiLayer@vanetza@@VByteBufferConvertible@2@@std@@@5@$0A@@std@@@std@@QEAA@XZ
	??1?$_Tree@V?$_Tset_traits@UState@GradualStateMachine@dcc@vanetza@@U?$less@UState@GradualStateMachine@dcc@vanetza@@@std@@V?$allocator@UState@GradualStateMachine@dcc@vanetza@@@6@$0A@@std@@@std@@QEAA@XZ
	??1?$_Tree_const_iterator@V?$_Tree_val@U?$_Tree_simple_types@U?$pair@$$CBW4AccessCategory@access@vanetza@@V?$list@UPendingTransmission@FlowControl@dcc@vanetza@@V?$allocator@UPendingTransmission@FlowControl@dcc@vanetza@@@std@@@std@@@std@@@std@@@std@@@std@@QEAA@XZ
	??1?$_Tree_const_iterator@V?$_Tree_val@U?$_Tree_simple_types@UState@GradualStateMachine@dcc@vanetza@@@std@@@std@@@std@@QEAA@XZ
	??1?$_Tree_head_scoped_ptr@V?$allocator@U?$_Tree_node@UState@GradualStateMachine@dcc@vanetza@@PEAX@std@@@std@@V?$_Tree_val@U?$_Tree_simple_types@UState@GradualStateMachine@dcc@vanetza@@@std@@@2@@std@@QEAA@XZ
	??1?$_Tree_temp_node@V?$allocator@U?$_Tree_node@U?$pair@$$CBW4AccessCategory@access@vanetza@@V?$list@UPendingTransmission@FlowControl@dcc@vanetza@@V?$allocator@UPendingTransmission@FlowControl@dcc@vanetza@@@std@@@std@@@std@@PEAX@std@@@std@@@std@@QEAA@XZ
	??1?$_Tree_temp_node@V?$allocator@U?$_Tree_node@UState@GradualStateMachine@dcc@vanetza@@PEAX@std@@@std@@@std@@QEAA@XZ
	??1?$_Tree_temp_node_alloc@V?$allocator@U?$_Tree_node@U?$pair@$$CBW4AccessCategory@access@vanetza@@V?$list@UPendingTransmission@FlowControl@dcc@vanetza@@V?$allocator@UPendingTransmission@FlowControl@dcc@vanetza@@@std@@@std@@@std@@PEAX@std@@@std@@@std@@QEAA@XZ
	??1?$_Tree_temp_node_alloc@V?$allocator@U?$_Tree_node@UState@GradualStateMachine@dcc@vanetza@@PEAX@std@@@std@@@std@@QEAA@XZ
	??1?$_Tree_unchecked_const_iterator@V?$_Tree_val@U?$_Tree_simple_types@U?$pair@$$CBW4AccessCategory@access@vanetza@@V?$list@UPendingTransmission@FlowControl@dcc@vanetza@@V?$allocator@UPendingTransmission@FlowControl@dcc@vanetza@@@std@@@std@@@std@@@std@@@std@@U_Iterator_base12@2@@std@@QEAA@XZ
	??1?$_Tree_unchecked_const_iterator@V?$_Tree_val@U?$_Tree_simple_types@UState@GradualStateMachine@dcc@vanetza@@@std@@@std@@U_Iterator_base12@2@@std@@QEAA@XZ
	??1?$_Uninitialized_backout_al@V?$allocator@I@std@@@std@@QEAA@XZ
	??1?$_Uninitialized_backout_al@V?$allocator@U?$format_item@DU?$char_traits@D@std@@V?$allocator@D@2@@detail@io@boost@@@std@@@std@@QEAA@XZ
	??1?$_Vb_const_iterator@U?$_Wrap_alloc@V?$allocator@I@std@@@std@@@std@@QEAA@XZ
	??1?$_Vb_iter_base@U?$_Wrap_alloc@V?$allocator@I@std@@@std@@@std@@QEAA@XZ
	??1?$_Vb_iterator@U?$_Wrap_alloc@V?$allocator@I@std@@@std@@@std@@QEAA@XZ
	??1?$_Vb_reference@U?$_Wrap_alloc@V?$allocator@I@std@@@std@@@std@@QEAA@XZ
	??1?$_Vb_val@V?$allocator@_N@std@@@std@@QEAA@XZ
	??1?$_Vector_const_iterator@V?$_Vector_val@U?$_Simple_types@I@std@@@std@@@std@@QEAA@XZ
	??1?$_Vector_iterator@V?$_Vector_val@U?$_Simple_types@I@std@@@std@@@std@@QEAA@XZ
	??1?$base_from_member@V?$shared_ptr@V?$basic_altstringbuf@DU?$char_traits@D@std@@V?$allocator@D@2@@io@boost@@@boost@@$0A@@boost@@QEAA@XZ
	??1?$basic_altstringbuf@DU?$char_traits@D@std@@V?$allocator@D@2@@io@boost@@UEAA@XZ
	??1?$basic_format@DU?$char_traits@D@std@@V?$allocator@D@2@@boost@@QEAA@XZ
	??1?$basic_oaltstringstream@DU?$char_traits@D@std@@V?$allocator@D@2@@io@boost@@UEAA@XZ
	??1?$basic_string@DU?$char_traits@D@std@@V?$allocator@D@2@@std@@QEAA@XZ
	??1?$circular_buffer@V?$time_point@VClock@vanetza@@V?$duration@_JU?$ratio@$00$0PECEA@@std@@@chrono@std@@@chrono@std@@V?$allocator@V?$time_point@VClock@vanetza@@V?$duration@_JU?$ratio@$00$0PECEA@@std@@@chrono@std@@@chrono@std@@@3@@boost@@QEAA@XZ
	??1?$circular_buffer@VChannelLoad@dcc@vanetza@@V?$allocator@VChannelLoad@dcc@vanetza@@@std@@@boost@@QEAA@XZ
	??1?$format_item@DU?$char_traits@D@std@@V?$allocator@D@2@@detail@io@boost@@QEAA@XZ
	??1?$function@$$A6AXPEBVLimeric@dcc@vanetza@@V?$time_point@VClock@vanetza@@V?$duration@_JU?$ratio@$00$0PECEA@@std@@@chrono@std@@@chrono@std@@@Z@std@@QEAA@XZ
	??1?$function@$$A6AXV?$time_point@VClock@vanetza@@V?$duration@_JU?$ratio@$00$0PECEA@@std@@@chrono@std@@@chrono@std@@@Z@std@@QEAA@XZ
	??1?$function@$$A6AXVChannelLoad@dcc@vanetza@@@Z@std@@QEAA@XZ
	??1?$function@$$A6AXW4AccessCategory@access@vanetza@@PEBVChunkPacket@3@@Z@std@@QEAA@XZ
	??1?$list@UPendingTransmission@FlowControl@dcc@vanetza@@V?$allocator@UPendingTransmission@FlowControl@dcc@vanetza@@@std@@@std@@QEAA@XZ
	??1?$map@W4AccessCategory@access@vanetza@@V?$list@UPendingTransmission@FlowControl@dcc@vanetza@@V?$allocator@UPendingTransmission@FlowControl@dcc@vanetza@@@std@@@std@@U?$greater@W4AccessCategory@access@vanetza@@@5@V?$allocator@U?$pair@$$CBW4AccessCategory@access@vanetza@@V?$list@UPendingTransmission@FlowControl@dcc@vanetza@@V?$allocator@UPendingTransmission@FlowControl@dcc@vanetza@@@std@@@std@@@std@@@5@@std@@QEAA@XZ
	??1?$map@W4OsiLayer@vanetza@@VByteBufferConvertible@2@U?$less@W4OsiLayer@vanetza@@@std@@V?$allocator@U?$pair@$$CBW4OsiLayer@vanetza@@VByteBufferConvertible@2@@std@@@5@@std@@QEAA@XZ
	??1?$optional@UDualAlphaParameters@Limeric@dcc@vanetza@@@boost@@QEAA@XZ
	??1?$optional@UPendingTransmission@FlowControl@dcc@vanetza@@@boost@@QEAA@XZ
	??1?$optional@V?$time_point@VClock@vanetza@@V?$duration@_JU?$ratio@$00$0PECEA@@std@@@chrono@std@@@chrono@std@@@boost@@QEAA@XZ
	??1?$optional@Vlocale@std@@@boost@@QEAA@XZ
	??1?$optional_base@UDualAlphaParameters@Limeric@dcc@vanetza@@@optional_detail@boost@@IEAA@XZ
	??1?$optional_base@UPendingTransmission@FlowControl@dcc@vanetza@@@optional_detail@boost@@IEAA@XZ
	??1?$optional_base@V?$time_point@VClock@vanetza@@V?$duration@_JU?$ratio@$00$0PECEA@@std@@@chrono@std@@@chrono@std@@@optional_detail@boost@@IEAA@XZ
	??1?$optional_base@Vlocale@std@@@optional_detail@boost@@IEAA@XZ
	??1?$pair@$$CBW4AccessCategory@access@vanetza@@V?$list@UPendingTransmission@FlowControl@dcc@vanetza@@V?$allocator@UPendingTransmission@FlowControl@dcc@vanetza@@@std@@@std@@@std@@QEAA@XZ
	??1?$pair@$$CBW4OsiLayer@vanetza@@VByteBufferConvertible@2@@std@@QEAA@XZ
	??1?$pair@V?$_Tree_const_iterator@V?$_Tree_val@U?$_Tree_simple_types@UState@GradualStateMachine@dcc@vanetza@@@std@@@std@@@std@@_N@std@@QEAA@XZ
	??1?$refcount_ptr@Uerror_info_container@exception_detail@boost@@@exception_detail@boost@@QEAA@XZ
	??1?$set@UState@GradualStateMachine@dcc@vanetza@@U?$less@UState@GradualStateMachine@dcc@vanetza@@@std@@V?$allocator@UState@GradualStateMachine@dcc@vanetza@@@6@@std@@QEAA@XZ
	??1?$shared_ptr@V?$basic_altstringbuf@DU?$char_traits@D@std@@V?$allocator@D@2@@io@boost@@@boost@@QEAA@XZ
	??1?$sp_counted_impl_pd@PEAV?$basic_altstringbuf@DU?$char_traits@D@std@@V?$allocator@D@2@@io@boost@@VNo_Op@?$basic_oaltstringstream@DU?$char_traits@D@std@@V?$allocator@D@2@@23@@detail@boost@@UEAA@XZ
	??1?$stream_format_state@DU?$char_traits@D@std@@@detail@io@boost@@QEAA@XZ
	??1?$unique_ptr@Ubyte_buffer@convertible@vanetza@@U?$default_delete@Ubyte_buffer@convertible@vanetza@@@std@@@std@@QEAA@XZ
	??1?$unique_ptr@VChunkPacket@vanetza@@U?$default_delete@VChunkPacket@vanetza@@@std@@@std@@QEAA@XZ
	??1?$unique_ptr@V_Facet_base@std@@U?$default_delete@V_Facet_base@std@@@2@@std@@QEAA@XZ
	??1?$vector@IV?$allocator@I@std@@@std@@QEAA@XZ
	??1?$vector@U?$format_item@DU?$char_traits@D@std@@V?$allocator@D@2@@detail@io@boost@@V?$allocator@U?$format_item@DU?$char_traits@D@std@@V?$allocator@D@2@@detail@io@boost@@@std@@@std@@QEAA@XZ
	??1?$vector@_NV?$allocator@_N@std@@@std@@QEAA@XZ
	??1?$wrapexcept@Vbad_format_string@io@boost@@@boost@@UEAA@XZ
	??1?$wrapexcept@Vlength_error@std@@@boost@@UEAA@XZ
	??1?$wrapexcept@Vtoo_few_args@io@boost@@@boost@@UEAA@XZ
	??1?$wrapexcept@Vtoo_many_args@io@boost@@@boost@@UEAA@XZ
	??1Active@dcc@vanetza@@UEAA@XZ
	??1BurstBudget@dcc@vanetza@@QEAA@XZ
	??1BurstyTransmitRateControl@dcc@vanetza@@UEAA@XZ
	??1ByteBufferConvertible@vanetza@@QEAA@XZ
	??1ChannelProbeProcessor@dcc@vanetza@@UEAA@XZ
	??1ChunkPacket@vanetza@@QEAA@XZ
	??1DutyCyclePermit@dcc@vanetza@@UEAA@XZ
	??1FlowControl@dcc@vanetza@@UEAA@XZ
	??1FullyMeshedStateMachine@dcc@vanetza@@UEAA@XZ
	??1GradualStateMachine@dcc@vanetza@@UEAA@XZ
	??1HookedChannelProbeProcessor@dcc@vanetza@@UEAA@XZ
	??1Limeric@dcc@vanetza@@UEAA@XZ
	??1LimericTransmitRateControl@dcc@vanetza@@UEAA@XZ
	??1PendingTransmission@FlowControl@dcc@vanetza@@UEAA@XZ
	??1Relaxed@dcc@vanetza@@UEAA@XZ
	??1RequestInterface@dcc@vanetza@@UEAA@XZ
	??1Restrictive@dcc@vanetza@@UEAA@XZ
	??1SingleReactiveTransmitRateControl@dcc@vanetza@@UEAA@XZ
	??1SmoothingChannelProbeProcessor@dcc@vanetza@@UEAA@XZ
	??1State@dcc@vanetza@@UEAA@XZ
	??1StateMachine@dcc@vanetza@@UEAA@XZ
	??1StateMachineBudget@dcc@vanetza@@QEAA@XZ
	??1Transmission@dcc@vanetza@@UEAA@XZ
	??1TransmissionLite@dcc@vanetza@@UEAA@XZ
	??1TransmitRateControl@dcc@vanetza@@UEAA@XZ
	??1TransmitRateFeedback@dcc@vanetza@@UEAA@XZ
	??1TransmitRateThrottle@dcc@vanetza@@UEAA@XZ
	??1_Bxty@?$_String_val@U?$_Simple_types@D@std@@@std@@QEAA@XZ
	??1_Iterator_base12@std@@QEAA@XZ
	??1_List_node_remove_op@?$list@UPendingTransmission@FlowControl@dcc@vanetza@@V?$allocator@UPendingTransmission@FlowControl@dcc@vanetza@@@std@@@std@@QEAA@XZ
	??1_Sentry_base@?$basic_ostream@DU?$char_traits@D@std@@@std@@QEAA@XZ
	??1bad_alloc@std@@UEAA@XZ
	??1bad_array_new_length@std@@UEAA@XZ
	??1bad_cast@std@@UEAA@XZ
	??1bad_format_string@io@boost@@UEAA@XZ
	??1clone_base@exception_detail@boost@@UEAA@XZ
	??1deleter@?$wrapexcept@Vbad_format_string@io@boost@@@boost@@QEAA@XZ
	??1deleter@?$wrapexcept@Vlength_error@std@@@boost@@QEAA@XZ
	??1deleter@?$wrapexcept@Vtoo_few_args@io@boost@@@boost@@QEAA@XZ
	??1deleter@?$wrapexcept@Vtoo_many_args@io@boost@@@boost@@QEAA@XZ
	??1exception@boost@@MEAA@XZ
	??1exception@std@@UEAA@XZ
	??1format_error@io@boost@@UEAA@XZ
	??1invalid_argument@std@@UEAA@XZ
	??1length_error@std@@UEAA@XZ
	??1locale@std@@QEAA@XZ
	??1logic_error@std@@UEAA@XZ
	??1sentry@?$basic_ostream@DU?$char_traits@D@std@@@std@@QEAA@XZ
	??1shared_count@detail@boost@@QEAA@XZ
	??1sp_counted_base@detail@boost@@UEAA@XZ
	??1too_few_args@io@boost@@UEAA@XZ
	??1too_many_args@io@boost@@UEAA@XZ
	??2@YAPEAX_KPEAX@Z
	??4?$Hook@W4AccessCategory@access@vanetza@@PEBVChunkPacket@3@@vanetza@@QEAAX$$QEAV?$function@$$A6AXW4AccessCategory@access@vanetza@@PEBVChunkPacket@3@@Z@std@@@Z
	??4?$_String_const_iterator@V?$_String_val@U?$_Simple_types@D@std@@@std@@@std@@QEAAAEAV01@$$QEAV01@@Z
	??4?$_String_const_iterator@V?$_String_val@U?$_Simple_types@D@std@@@std@@@std@@QEAAAEAV01@AEBV01@@Z
	??4?$_Tree_const_iterator@V?$_Tree_val@U?$_Tree_simple_types@UState@GradualStateMachine@dcc@vanetza@@@std@@@std@@@std@@QEAAAEAV01@$$QEAV01@@Z
	??4?$_Tree_const_iterator@V?$_Tree_val@U?$_Tree_simple_types@UState@GradualStateMachine@dcc@vanetza@@@std@@@std@@@std@@QEAAAEAV01@AEBV01@@Z
	??4?$_Tree_unchecked_const_iterator@V?$_Tree_val@U?$_Tree_simple_types@UState@GradualStateMachine@dcc@vanetza@@@std@@@std@@U_Iterator_base12@2@@std@@QEAAAEAV01@$$QEAV01@@Z
	??4?$_Tree_unchecked_const_iterator@V?$_Tree_val@U?$_Tree_simple_types@UState@GradualStateMachine@dcc@vanetza@@@std@@@std@@U_Iterator_base12@2@@std@@QEAAAEAV01@AEBV01@@Z
	??4?$_Vb_const_iterator@U?$_Wrap_alloc@V?$allocator@I@std@@@std@@@std@@QEAAAEAV01@$$QEAV01@@Z
	??4?$_Vb_iter_base@U?$_Wrap_alloc@V?$allocator@I@std@@@std@@@std@@QEAAAEAV01@$$QEAV01@@Z
	??4?$_Vb_iterator@U?$_Wrap_alloc@V?$allocator@I@std@@@std@@@std@@QEAAAEAV01@$$QEAV01@@Z
	??4?$_Vb_reference@U?$_Wrap_alloc@V?$allocator@I@std@@@std@@@std@@QEAAAEAV01@AEBV01@@Z
	??4?$_Vb_reference@U?$_Wrap_alloc@V?$allocator@I@std@@@std@@@std@@QEAAAEAV01@_N@Z
	??4?$basic_string@DU?$char_traits@D@std@@V?$allocator@D@2@@std@@QEAAAEAV01@AEBV01@@Z
	??4?$format_item@DU?$char_traits@D@std@@V?$allocator@D@2@@detail@io@boost@@QEAAAEAU0123@AEBU0123@@Z
	??4?$function@$$A6AXW4AccessCategory@access@vanetza@@PEBVChunkPacket@3@@Z@std@@QEAAAEAV01@$$QEAV01@@Z
	??4?$optional@UDualAlphaParameters@Limeric@dcc@vanetza@@@boost@@QEAAAEAV01@AEBV01@@Z
	??4?$optional@Vlocale@std@@@boost@@QEAAAEAV01@AEBV01@@Z
	??4?$optional_base@UDualAlphaParameters@Limeric@dcc@vanetza@@@optional_detail@boost@@IEAAAEAV012@AEBV012@@Z
	??4?$optional_base@Vlocale@std@@@optional_detail@boost@@IEAAAEAV012@AEBV012@@Z
	??4?$refcount_ptr@Uerror_info_container@exception_detail@boost@@@exception_detail@boost@@QEAAAEAV012@AEBV012@@Z
	??4?$stream_format_state@DU?$char_traits@D@std@@@detail@io@boost@@QEAAAEAU0123@AEBU0123@@Z
	??4PendingTransmission@FlowControl@dcc@vanetza@@QEAAAEAU0123@$$QEAU0123@@Z
	??4Transmission@dcc@vanetza@@QEAAAEAV012@AEBV012@@Z
	??4_Iterator_base12@std@@QEAAAEAU01@AEBU01@@Z
	??4locale@std@@QEAAAEBV01@AEBV01@@Z
	??7?$optional@UDualAlphaParameters@Limeric@dcc@vanetza@@@boost@@QEBA_NXZ
	??7?$optional@UPendingTransmission@FlowControl@dcc@vanetza@@@boost@@QEBA_NXZ
	??7?$optional@V?$time_point@VClock@vanetza@@V?$duration@_JU?$ratio@$00$0PECEA@@std@@@chrono@std@@@chrono@std@@@boost@@QEBA_NXZ
	??7?$optional@Vlocale@std@@@boost@@QEBA_NXZ
	??8?$_String_const_iterator@V?$_String_val@U?$_Simple_types@D@std@@@std@@@std@@QEBA_NAEBV01@@Z
	??8?$_Tree_const_iterator@V?$_Tree_val@U?$_Tree_simple_types@U?$pair@$$CBW4AccessCategory@access@vanetza@@V?$list@UPendingTransmission@FlowControl@dcc@vanetza@@V?$allocator@UPendingTransmission@FlowControl@dcc@vanetza@@@std@@@std@@@std@@@std@@@std@@@std@@QEBA_NAEBV01@@Z
	??8?$_Tree_const_iterator@V?$_Tree_val@U?$_Tree_simple_types@UState@GradualStateMachine@dcc@vanetza@@@std@@@std@@@std@@QEBA_NAEBV01@@Z
	??8?$_Tree_unchecked_const_iterator@V?$_Tree_val@U?$_Tree_simple_types@U?$pair@$$CBW4AccessCategory@access@vanetza@@V?$list@UPendingTransmission@FlowControl@dcc@vanetza@@V?$allocator@UPendingTransmission@FlowControl@dcc@vanetza@@@std@@@std@@@std@@@std@@@std@@U_Iterator_base0@2@@std@@QEBA_NAEBV01@@Z
	??8?$_Tree_unchecked_const_iterator@V?$_Tree_val@U?$_Tree_simple_types@UState@GradualStateMachine@dcc@vanetza@@@std@@@std@@U_Iterator_base0@2@@std@@QEBA_NAEBV01@@Z
	??8?$_Vb_const_iterator@U?$_Wrap_alloc@V?$allocator@I@std@@@std@@@std@@QEBA_NAEBV01@@Z
	??8type_info@@QEBA_NAEBV0@@Z
	??9?$_String_const_iterator@V?$_String_val@U?$_Simple_types@D@std@@@std@@@std@@QEBA_NAEBV01@@Z
	??9?$_Tree_const_iterator@V?$_Tree_val@U?$_Tree_simple_types@U?$pair@$$CBW4AccessCategory@access@vanetza@@V?$list@UPendingTransmission@FlowControl@dcc@vanetza@@V?$allocator@UPendingTransmission@FlowControl@dcc@vanetza@@@std@@@std@@@std@@@std@@@std@@@std@@QEBA_NAEBV01@@Z
	??9?$_Tree_const_iterator@V?$_Tree_val@U?$_Tree_simple_types@UState@GradualStateMachine@dcc@vanetza@@@std@@@std@@@std@@QEBA_NAEBV01@@Z
	??9?$_Tree_unchecked_const_iterator@V?$_Tree_val@U?$_Tree_simple_types@U?$pair@$$CBW4AccessCategory@access@vanetza@@V?$list@UPendingTransmission@FlowControl@dcc@vanetza@@V?$allocator@UPendingTransmission@FlowControl@dcc@vanetza@@@std@@@std@@@std@@@std@@@std@@U_Iterator_base0@2@@std@@QEBA_NAEBV01@@Z
	??9?$_Tree_unchecked_const_iterator@V?$_Tree_val@U?$_Tree_simple_types@U?$pair@$$CBW4AccessCategory@access@vanetza@@V?$list@UPendingTransmission@FlowControl@dcc@vanetza@@V?$allocator@UPendingTransmission@FlowControl@dcc@vanetza@@@std@@@std@@@std@@@std@@@std@@U_Iterator_base0@2@@std@@QEBA_NU_Default_sentinel@1@@Z
	??9?$_Tree_unchecked_const_iterator@V?$_Tree_val@U?$_Tree_simple_types@UState@GradualStateMachine@dcc@vanetza@@@std@@@std@@U_Iterator_base0@2@@std@@QEBA_NAEBV01@@Z
	??9?$_Vb_const_iterator@U?$_Wrap_alloc@V?$allocator@I@std@@@std@@@std@@QEBA_NAEBV01@@Z
	??A?$array@PEBD$04@std@@QEBAAEBQEBD_K@Z
	??A?$array@V?$duration@_JU?$ratio@$00$0PECEA@@std@@@chrono@std@@$04@std@@QEBAAEBV?$duration@_JU?$ratio@$00$0PECEA@@std@@@chrono@1@_K@Z
	??A?$basic_string@DU?$char_traits@D@std@@V?$allocator@D@2@@std@@QEAAAEAD_K@Z
	??A?$basic_string@DU?$char_traits@D@std@@V?$allocator@D@2@@std@@QEBAAEBD_K@Z
	??A?$map@W4AccessCategory@access@vanetza@@V?$list@UPendingTransmission@FlowControl@dcc@vanetza@@V?$allocator@UPendingTransmission@FlowControl@dcc@vanetza@@@std@@@std@@U?$greater@W4AccessCategory@access@vanetza@@@5@V?$allocator@U?$pair@$$CBW4AccessCategory@access@vanetza@@V?$list@UPendingTransmission@FlowControl@dcc@vanetza@@V?$allocator@UPendingTransmission@FlowControl@dcc@vanetza@@@std@@@std@@@std@@@5@@std@@QEAAAEAV?$list@UPendingTransmission@FlowControl@dcc@vanetza@@V?$allocator@UPendingTransmission@FlowControl@dcc@vanetza@@@std@@@1@AEBW4AccessCategory@access@vanetza@@@Z
	??A?$vector@IV?$allocator@I@std@@@std@@QEAAAEAI_K@Z
	??A?$vector@U?$format_item@DU?$char_traits@D@std@@V?$allocator@D@2@@detail@io@boost@@V?$allocator@U?$format_item@DU?$char_traits@D@std@@V?$allocator@D@2@@detail@io@boost@@@std@@@std@@QEAAAEAU?$format_item@DU?$char_traits@D@std@@V?$allocator@D@2@@detail@io@boost@@_K@Z
	??A?$vector@U?$format_item@DU?$char_traits@D@std@@V?$allocator@D@2@@detail@io@boost@@V?$allocator@U?$format_item@DU?$char_traits@D@std@@V?$allocator@D@2@@detail@io@boost@@@std@@@std@@QEBAAEBU?$format_item@DU?$char_traits@D@std@@V?$allocator@D@2@@detail@io@boost@@_K@Z
	??A?$vector@_NV?$allocator@_N@std@@@std@@QEAA?AV?$_Vb_reference@U?$_Wrap_alloc@V?$allocator@I@std@@@std@@@1@_K@Z
	??B?$_Vb_reference@U?$_Wrap_alloc@V?$allocator@I@std@@@std@@@std@@QEBA_NXZ
	??B?$fpos@U_Mbstatet@@@std@@QEBA_JXZ
	??B?$function@$$A6AXPEBVLimeric@dcc@vanetza@@V?$time_point@VClock@vanetza@@V?$duration@_JU?$ratio@$00$0PECEA@@std@@@chrono@std@@@chrono@std@@@Z@std@@QEBA_NXZ
	??B?$function@$$A6AXVChannelLoad@dcc@vanetza@@@Z@std@@QEBA_NXZ
	??B?$function@$$A6AXW4AccessCategory@access@vanetza@@PEBVChunkPacket@3@@Z@std@@QEBA_NXZ
	??B?$optional@UDualAlphaParameters@Limeric@dcc@vanetza@@@boost@@QEBA_NXZ
	??B?$optional@UPendingTransmission@FlowControl@dcc@vanetza@@@boost@@QEBA_NXZ
	??B?$optional@V?$time_point@VClock@vanetza@@V?$duration@_JU?$ratio@$00$0PECEA@@std@@@chrono@std@@@chrono@std@@@boost@@QEBA_NXZ
	??B?$optional@Vlocale@std@@@boost@@QEBA_NXZ
	??B?$unique_ptr@VChunkPacket@vanetza@@U?$default_delete@VChunkPacket@vanetza@@@std@@@std@@QEBA_NXZ
	??Bsentry@?$basic_ostream@DU?$char_traits@D@std@@@std@@QEBA_NXZ
	??C?$_Tree_const_iterator@V?$_Tree_val@U?$_Tree_simple_types@U?$pair@$$CBW4AccessCategory@access@vanetza@@V?$list@UPendingTransmission@FlowControl@dcc@vanetza@@V?$allocator@UPendingTransmission@FlowControl@dcc@vanetza@@@std@@@std@@@std@@@std@@@std@@@std@@QEBAPEBU?$pair@$$CBW4AccessCategory@access@vanetza@@V?$list@UPendingTransmission@FlowControl@dcc@vanetza@@V?$allocator@UPendingTransmission@FlowControl@dcc@vanetza@@@std@@@std@@@1@XZ
	??C?$_Tree_const_iterator@V?$_Tree_val@U?$_Tree_simple_types@UState@GradualStateMachine@dcc@vanetza@@@std@@@std@@@std@@QEBAPEBUState@GradualStateMachine@dcc@vanetza@@XZ
	??C?$iterator@V?$circular_buffer@VChannelLoad@dcc@vanetza@@V?$allocator@VChannelLoad@dcc@vanetza@@@std@@@boost@@U?$const_traits@V?$allocator@VChannelLoad@dcc@vanetza@@@std@@@cb_details@2@@cb_details@boost@@QEBAPEBVChannelLoad@dcc@vanetza@@XZ
	??C?$iterator@V?$circular_buffer@VChannelLoad@dcc@vanetza@@V?$allocator@VChannelLoad@dcc@vanetza@@@std@@@boost@@U?$nonconst_traits@V?$allocator@VChannelLoad@dcc@vanetza@@@std@@@cb_details@2@@cb_details@boost@@QEBAPEAVChannelLoad@dcc@vanetza@@XZ
	??C?$optional@UDualAlphaParameters@Limeric@dcc@vanetza@@@boost@@QEBAPEBUDualAlphaParameters@Limeric@dcc@vanetza@@XZ
	??C?$optional@UPendingTransmission@FlowControl@dcc@vanetza@@@boost@@QEAAPEAUPendingTransmission@FlowControl@dcc@vanetza@@XZ
	??C?$unique_ptr@VChunkPacket@vanetza@@U?$default_delete@VChunkPacket@vanetza@@@std@@@std@@QEBAPEAVChunkPacket@vanetza@@XZ
	??D?$_String_const_iterator@V?$_String_val@U?$_Simple_types@D@std@@@std@@@std@@QEBAAEBDXZ
	??D?$_Tree_const_iterator@V?$_Tree_val@U?$_Tree_simple_types@U?$pair@$$CBW4AccessCategory@access@vanetza@@V?$list@UPendingTransmission@FlowControl@dcc@vanetza@@V?$allocator@UPendingTransmission@FlowControl@dcc@vanetza@@@std@@@std@@@std@@@std@@@std@@@std@@QEBAAEBU?$pair@$$CBW4AccessCategory@access@vanetza@@V?$list@UPendingTransmission@FlowControl@dcc@vanetza@@V?$allocator@UPendingTransmission@FlowControl@dcc@vanetza@@@std@@@std@@@1@XZ
	??D?$_Tree_const_iterator@V?$_Tree_val@U?$_Tree_simple_types@UState@GradualStateMachine@dcc@vanetza@@@std@@@std@@@std@@QEBAAEBUState@GradualStateMachine@dcc@vanetza@@XZ
	??D?$_Tree_unchecked_const_iterator@V?$_Tree_val@U?$_Tree_simple_types@U?$pair@$$CBW4AccessCategory@access@vanetza@@V?$list@UPendingTransmission@FlowControl@dcc@vanetza@@V?$allocator@UPendingTransmission@FlowControl@dcc@vanetza@@@std@@@std@@@std@@@std@@@std@@U_Iterator_base0@2@@std@@QEBAAEBU?$pair@$$CBW4AccessCategory@access@vanetza@@V?$list@UPendingTransmission@FlowControl@dcc@vanetza@@V?$allocator@UPendingTransmission@FlowControl@dcc@vanetza@@@std@@@std@@@1@XZ
	??D?$_Tree_unchecked_iterator@V?$_Tree_val@U?$_Tree_simple_types@U?$pair@$$CBW4AccessCategory@access@vanetza@@V?$list@UPendingTransmission@FlowControl@dcc@vanetza@@V?$allocator@UPendingTransmission@FlowControl@dcc@vanetza@@@std@@@std@@@std@@@std@@@std@@@std@@QEBAAEAU?$pair@$$CBW4AccessCategory@access@vanetza@@V?$list@UPendingTransmission@FlowControl@dcc@vanetza@@V?$allocator@UPendingTransmission@FlowControl@dcc@vanetza@@@std@@@std@@@1@XZ
	??D?$_Vb_iterator@U?$_Wrap_alloc@V?$allocator@I@std@@@std@@@std@@QEBA?AV?$_Vb_reference@U?$_Wrap_alloc@V?$allocator@I@std@@@std@@@1@XZ
	??D?$iterator@V?$circular_buffer@V?$time_point@VClock@vanetza@@V?$duration@_JU?$ratio@$00$0PECEA@@std@@@chrono@std@@@chrono@std@@V?$allocator@V?$time_point@VClock@vanetza@@V?$duration@_JU?$ratio@$00$0PECEA@@std@@@chrono@std@@@chrono@std@@@3@@boost@@U?$nonconst_traits@V?$allocator@V?$time_point@VClock@vanetza@@V?$duration@_JU?$ratio@$00$0PECEA@@std@@@chrono@std@@@chrono@std@@@std@@@cb_details@2@@cb_details@boost@@QEBAAEAV?$time_point@VClock@vanetza@@V?$duration@_JU?$ratio@$00$0PECEA@@std@@@chrono@std@@@chrono@std@@XZ
	??D?$iterator@V?$circular_buffer@VChannelLoad@dcc@vanetza@@V?$allocator@VChannelLoad@dcc@vanetza@@@std@@@boost@@U?$const_traits@V?$allocator@VChannelLoad@dcc@vanetza@@@std@@@cb_details@2@@cb_details@boost@@QEBAAEBVChannelLoad@dcc@vanetza@@XZ
	??D?$iterator@V?$circular_buffer@VChannelLoad@dcc@vanetza@@V?$allocator@VChannelLoad@dcc@vanetza@@@std@@@boost@@U?$nonconst_traits@V?$allocator@VChannelLoad@dcc@vanetza@@@std@@@cb_details@2@@cb_details@boost@@QEBAAEAVChannelLoad@dcc@vanetza@@XZ
	??D?$optional@UPendingTransmission@FlowControl@dcc@vanetza@@@boost@@QEGAAAEAUPendingTransmission@FlowControl@dcc@vanetza@@XZ
	??Doperators_impl@boost@@YA?AVUnitInterval@vanetza@@AEBNV23@@Z
	??Doperators_impl@boost@@YA?AVUnitInterval@vanetza@@V23@AEBV23@@Z
	??E?$_String_const_iterator@V?$_String_val@U?$_Simple_types@D@std@@@std@@@std@@QEAAAEAV01@XZ
	??E?$_Tree_const_iterator@V?$_Tree_val@U?$_Tree_simple_types@U?$pair@$$CBW4AccessCategory@access@vanetza@@V?$list@UPendingTransmission@FlowControl@dcc@vanetza@@V?$allocator@UPendingTransmission@FlowControl@dcc@vanetza@@@std@@@std@@@std@@@std@@@std@@@std@@QEAAAEAV01@XZ
	??E?$_Tree_const_iterator@V?$_Tree_val@U?$_Tree_simple_types@UState@GradualStateMachine@dcc@vanetza@@@std@@@std@@@std@@QEAAAEAV01@XZ
	??E?$_Tree_unchecked_const_iterator@V?$_Tree_val@U?$_Tree_simple_types@U?$pair@$$CBW4AccessCategory@access@vanetza@@V?$list@UPendingTransmission@FlowControl@dcc@vanetza@@V?$allocator@UPendingTransmission@FlowControl@dcc@vanetza@@@std@@@std@@@std@@@std@@@std@@U_Iterator_base0@2@@std@@QEAAAEAV01@XZ
	??E?$_Tree_unchecked_const_iterator@V?$_Tree_val@U?$_Tree_simple_types@U?$pair@$$CBW4AccessCategory@access@vanetza@@V?$list@UPendingTransmission@FlowControl@dcc@vanetza@@V?$allocator@UPendingTransmission@FlowControl@dcc@vanetza@@@std@@@std@@@std@@@std@@@std@@U_Iterator_base12@2@@std@@QEAAAEAV01@XZ
	??E?$_Tree_unchecked_const_iterator@V?$_Tree_val@U?$_Tree_simple_types@UState@GradualStateMachine@dcc@vanetza@@@std@@@std@@U_Iterator_base0@2@@std@@QEAAAEAV01@XZ
	??E?$_Tree_unchecked_const_iterator@V?$_Tree_val@U?$_Tree_simple_types@UState@GradualStateMachine@dcc@vanetza@@@std@@@std@@U_Iterator_base12@2@@std@@QEAAAEAV01@XZ
	??E?$_Tree_unchecked_iterator@V?$_Tree_val@U?$_Tree_simple_types@U?$pair@$$CBW4AccessCategory@access@vanetza@@V?$list@UPendingTransmission@FlowControl@dcc@vanetza@@V?$allocator@UPendingTransmission@FlowControl@dcc@vanetza@@@std@@@std@@@std@@@std@@@std@@@std@@QEAAAEAV01@XZ
	??E?$_Vb_const_iterator@U?$_Wrap_alloc@V?$allocator@I@std@@@std@@@std@@QEAAAEAV01@XZ
	??E?$_Vb_iterator@U?$_Wrap_alloc@V?$allocator@I@std@@@std@@@std@@QEAAAEAV01@XZ
	??E?$iterator@V?$circular_buffer@V?$time_point@VClock@vanetza@@V?$duration@_JU?$ratio@$00$0PECEA@@std@@@chrono@std@@@chrono@std@@V?$allocator@V?$time_point@VClock@vanetza@@V?$duration@_JU?$ratio@$00$0PECEA@@std@@@chrono@std@@@chrono@std@@@3@@boost@@U?$nonconst_traits@V?$allocator@V?$time_point@VClock@vanetza@@V?$duration@_JU?$ratio@$00$0PECEA@@std@@@chrono@std@@@chrono@std@@@std@@@cb_details@2@@cb_details@boost@@QEAA?AU012@H@Z
	??E?$iterator@V?$circular_buffer@V?$time_point@VClock@vanetza@@V?$duration@_JU?$ratio@$00$0PECEA@@std@@@chrono@std@@@chrono@std@@V?$allocator@V?$time_point@VClock@vanetza@@V?$duration@_JU?$ratio@$00$0PECEA@@std@@@chrono@std@@@chrono@std@@@3@@boost@@U?$nonconst_traits@V?$allocator@V?$time_point@VClock@vanetza@@V?$duration@_JU?$ratio@$00$0PECEA@@std@@@chrono@std@@@chrono@std@@@std@@@cb_details@2@@cb_details@boost@@QEAAAEAU012@XZ
	??E?$iterator@V?$circular_buffer@VChannelLoad@dcc@vanetza@@V?$allocator@VChannelLoad@dcc@vanetza@@@std@@@boost@@U?$const_traits@V?$allocator@VChannelLoad@dcc@vanetza@@@std@@@cb_details@2@@cb_details@boost@@QEAAAEAU012@XZ
	??E?$iterator@V?$circular_buffer@VChannelLoad@dcc@vanetza@@V?$allocator@VChannelLoad@dcc@vanetza@@@std@@@boost@@U?$nonconst_traits@V?$allocator@VChannelLoad@dcc@vanetza@@@std@@@cb_details@2@@cb_details@boost@@QEAAAEAU012@XZ
	??F?$_Tree_const_iterator@V?$_Tree_val@U?$_Tree_simple_types@UState@GradualStateMachine@dcc@vanetza@@@std@@@std@@@std@@QEAAAEAV01@XZ
	??F?$_Tree_unchecked_const_iterator@V?$_Tree_val@U?$_Tree_simple_types@UState@GradualStateMachine@dcc@vanetza@@@std@@@std@@U_Iterator_base0@2@@std@@QEAAAEAV01@XZ
	??F?$_Tree_unchecked_const_iterator@V?$_Tree_val@U?$_Tree_simple_types@UState@GradualStateMachine@dcc@vanetza@@@std@@@std@@U_Iterator_base12@2@@std@@QEAAAEAV01@XZ
	??F?$_Vb_const_iterator@U?$_Wrap_alloc@V?$allocator@I@std@@@std@@@std@@QEAAAEAV01@XZ
	??F?$_Vb_iterator@U?$_Wrap_alloc@V?$allocator@I@std@@@std@@@std@@QEAAAEAV01@XZ
	??G?$_Array_const_iterator@N$04@std@@QEBA_JAEBV01@@Z
	??G?$_String_const_iterator@V?$_String_val@U?$_Simple_types@D@std@@@std@@@std@@QEBA_JAEBV01@@Z
	??G?$_Vb_const_iterator@U?$_Wrap_alloc@V?$allocator@I@std@@@std@@@std@@QEBA_JAEBV01@@Z
	??G?$iterator@V?$circular_buffer@V?$time_point@VClock@vanetza@@V?$duration@_JU?$ratio@$00$0PECEA@@std@@@chrono@std@@@chrono@std@@V?$allocator@V?$time_point@VClock@vanetza@@V?$duration@_JU?$ratio@$00$0PECEA@@std@@@chrono@std@@@chrono@std@@@3@@boost@@U?$nonconst_traits@V?$allocator@V?$time_point@VClock@vanetza@@V?$duration@_JU?$ratio@$00$0PECEA@@std@@@chrono@std@@@chrono@std@@@std@@@cb_details@2@@cb_details@boost@@QEBA?AU012@_J@Z
	??Goperators_impl@boost@@YA?AVUnitInterval@vanetza@@V23@AEBV23@@Z
	??H?$_String_const_iterator@V?$_String_val@U?$_Simple_types@D@std@@@std@@@std@@QEBA?AV01@_J@Z
	??H?$_Vb_iterator@U?$_Wrap_alloc@V?$allocator@I@std@@@std@@@std@@QEBA?AV01@_J@Z
	??H?$_Vector_iterator@V?$_Vector_val@U?$_Simple_types@I@std@@@std@@@std@@QEBA?AV01@_J@Z
	??H?$iterator@V?$circular_buffer@V?$time_point@VClock@vanetza@@V?$duration@_JU?$ratio@$00$0PECEA@@std@@@chrono@std@@@chrono@std@@V?$allocator@V?$time_point@VClock@vanetza@@V?$duration@_JU?$ratio@$00$0PECEA@@std@@@chrono@std@@@chrono@std@@@3@@boost@@U?$nonconst_traits@V?$allocator@V?$time_point@VClock@vanetza@@V?$duration@_JU?$ratio@$00$0PECEA@@std@@@chrono@std@@@chrono@std@@@std@@@cb_details@2@@cb_details@boost@@QEBA?AU012@_J@Z
	??Hoperators_impl@boost@@YA?AVUnitInterval@vanetza@@V23@AEBN@Z
	??Hoperators_impl@boost@@YA?AVUnitInterval@vanetza@@V23@AEBV23@@Z
	??M?$_Array_const_iterator@N$04@std@@QEBA_NAEBV01@@Z
	??M?$_String_const_iterator@V?$_String_val@U?$_Simple_types@D@std@@@std@@@std@@QEBA_NAEBV01@@Z
	??M?$_Vb_const_iterator@U?$_Wrap_alloc@V?$allocator@I@std@@@std@@@std@@QEBA_NAEBV01@@Z
	??MState@GradualStateMachine@dcc@vanetza@@QEBA_NAEBU0123@@Z
	??N?$_Array_const_iterator@N$04@std@@QEBA_NAEBV01@@Z
	??N?$_Vb_const_iterator@U?$_Wrap_alloc@V?$allocator@I@std@@@std@@@std@@QEBA_NAEBV01@@Z
	??Ooperators_impl@boost@@YA_NAEBVUnitInterval@vanetza@@0@Z
	??P?$_String_const_iterator@V?$_String_val@U?$_Simple_types@D@std@@@std@@@std@@QEBA_NAEBV01@@Z
	??P?$_Vb_const_iterator@U?$_Wrap_alloc@V?$allocator@I@std@@@std@@@std@@QEBA_NAEBV01@@Z
	??Poperators_impl@boost@@YA_NAEBVUnitInterval@vanetza@@0@Z
	??R<lambda_65e615be2a453ca0576c979606f46740>@@QEBA@QEADQEBD_K12@Z
	??R<lambda_66f57f934f28d61049862f64df852ff0>@@QEBA@QEAD_KQEBD@Z
	??R<lambda_9013ee9e23efe4882b67eff5b0ecf103>@@QEBA@QEADQEBD_K@Z
	??R<lambda_e1befb086ad3257e3f042a63030725f7>@@QEBA@QEADQEBD_K2D@Z
	??R?$Hook@PEBVLimeric@dcc@vanetza@@V?$time_point@VClock@vanetza@@V?$duration@_JU?$ratio@$00$0PECEA@@std@@@chrono@std@@@chrono@std@@@vanetza@@QEAAXPEBVLimeric@dcc@1@V?$time_point@VClock@vanetza@@V?$duration@_JU?$ratio@$00$0PECEA@@std@@@chrono@std@@@chrono@std@@@Z
	??R?$Hook@VChannelLoad@dcc@vanetza@@@vanetza@@QEAAXVChannelLoad@dcc@1@@Z
	??R?$Hook@W4AccessCategory@access@vanetza@@PEBVChunkPacket@3@@vanetza@@QEAAXW4AccessCategory@access@1@PEBVChunkPacket@1@@Z
	??R?$_Func_class@XPEBVLimeric@dcc@vanetza@@V?$time_point@VClock@vanetza@@V?$duration@_JU?$ratio@$00$0PECEA@@std@@@chrono@std@@@chrono@std@@@std@@QEBAXPEBVLimeric@dcc@vanetza@@V?$time_point@VClock@vanetza@@V?$duration@_JU?$ratio@$00$0PECEA@@std@@@chrono@std@@@chrono@1@@Z
	??R?$_Func_class@XVChannelLoad@dcc@vanetza@@@std@@QEBAXVChannelLoad@dcc@vanetza@@@Z
	??R?$_Func_class@XW4AccessCategory@access@vanetza@@PEBVChunkPacket@3@@std@@QEBAXW4AccessCategory@access@vanetza@@PEBVChunkPacket@4@@Z
	??R?$default_delete@Ubyte_buffer@convertible@vanetza@@@std@@QEBAXPEAUbyte_buffer@convertible@vanetza@@@Z
	??R?$default_delete@VChunkPacket@vanetza@@@std@@QEBAXPEAVChunkPacket@vanetza@@@Z
	??R?$default_delete@V_Facet_base@std@@@std@@QEBAXPEAV_Facet_base@1@@Z
	??R?$greater@W4AccessCategory@access@vanetza@@@std@@QEBA_NAEBW4AccessCategory@access@vanetza@@0@Z
	??R?$item_wrapper@PEBV?$time_point@VClock@vanetza@@V?$duration@_JU?$ratio@$00$0PECEA@@std@@@chrono@std@@@chrono@std@@AEBV123@@cb_details@boost@@QEBAPEBV?$time_point@VClock@vanetza@@V?$duration@_JU?$ratio@$00$0PECEA@@std@@@chrono@std@@@chrono@std@@XZ
	??R?$less@UState@GradualStateMachine@dcc@vanetza@@@std@@QEBA_NAEBUState@GradualStateMachine@dcc@vanetza@@0@Z
	??Y?$_String_const_iterator@V?$_String_val@U?$_Simple_types@D@std@@@std@@@std@@QEAAAEAV01@_J@Z
	??Y?$_Vb_const_iterator@U?$_Wrap_alloc@V?$allocator@I@std@@@std@@@std@@QEAAAEAV01@_J@Z
	??Y?$_Vb_iterator@U?$_Wrap_alloc@V?$allocator@I@std@@@std@@@std@@QEAAAEAV01@_J@Z
	??Y?$_Vector_const_iterator@V?$_Vector_val@U?$_Simple_types@I@std@@@std@@@std@@QEAAAEAV01@_J@Z
	??Y?$_Vector_iterator@V?$_Vector_val@U?$_Simple_types@I@std@@@std@@@std@@QEAAAEAV01@_J@Z
	??Y?$basic_string@DU?$char_traits@D@std@@V?$allocator@D@2@@std@@QEAAAEAV01@AEBV01@@Z
	??Y?$duration@_JU?$ratio@$00$0PECEA@@std@@@chrono@std@@QEAAAEAV012@AEBV012@@Z
	??Y?$iterator@V?$circular_buffer@V?$time_point@VClock@vanetza@@V?$duration@_JU?$ratio@$00$0PECEA@@std@@@chrono@std@@@chrono@std@@V?$allocator@V?$time_point@VClock@vanetza@@V?$duration@_JU?$ratio@$00$0PECEA@@std@@@chrono@std@@@chrono@std@@@3@@boost@@U?$nonconst_traits@V?$allocator@V?$time_point@VClock@vanetza@@V?$duration@_JU?$ratio@$00$0PECEA@@std@@@chrono@std@@@chrono@std@@@std@@@cb_details@2@@cb_details@boost@@QEAAAEAU012@_J@Z
	??Y?$time_point@VClock@vanetza@@V?$duration@_JU?$ratio@$00$0PECEA@@std@@@chrono@std@@@chrono@std@@QEAAAEAV012@AEBV?$duration@_JU?$ratio@$00$0PECEA@@std@@@12@@Z
	??Z?$duration@_JU?$ratio@$00$0PECEA@@std@@@chrono@std@@QEAAAEAV012@AEBV012@@Z
	??Z?$iterator@V?$circular_buffer@V?$time_point@VClock@vanetza@@V?$duration@_JU?$ratio@$00$0PECEA@@std@@@chrono@std@@@chrono@std@@V?$allocator@V?$time_point@VClock@vanetza@@V?$duration@_JU?$ratio@$00$0PECEA@@std@@@chrono@std@@@chrono@std@@@3@@boost@@U?$nonconst_traits@V?$allocator@V?$time_point@VClock@vanetza@@V?$duration@_JU?$ratio@$00$0PECEA@@std@@@chrono@std@@@chrono@std@@@std@@@cb_details@2@@cb_details@boost@@QEAAAEAU012@_J@Z
	??Z?$time_point@VClock@vanetza@@V?$duration@_JU?$ratio@$00$0PECEA@@std@@@chrono@std@@@chrono@std@@QEAAAEAV012@AEBV?$duration@_JU?$ratio@$00$0PECEA@@std@@@12@@Z
	??_D?$basic_oaltstringstream@DU?$char_traits@D@std@@V?$allocator@D@2@@io@boost@@QEAAXXZ
	?_Adjust_manually_vector_aligned@std@@YAXAEAPEAXAEA_K@Z
	?_Adopt@_Iterator_base0@std@@QEAAXPEBX@Z
	?_Adopt@_Iterator_base12@std@@QEAAXPEBU_Container_base12@2@@Z
	?_Adopt_locked@_Iterator_base12@std@@AEAAXPEBU_Container_base12@2@@Z
	?_Adopt_unlocked@_Iterator_base12@std@@AEAAXPEBU_Container_base12@2@@Z
	?_Advance@?$_Vb_iter_base@U?$_Wrap_alloc@V?$allocator@I@std@@@std@@@std@@QEAAX_K@Z
	?_Alloc_sentinel_and_proxy@?$_Tree@V?$_Tmap_traits@W4AccessCategory@access@vanetza@@V?$list@UPendingTransmission@FlowControl@dcc@vanetza@@V?$allocator@UPendingTransmission@FlowControl@dcc@vanetza@@@std@@@std@@U?$greater@W4AccessCategory@access@vanetza@@@5@V?$allocator@U?$pair@$$CBW4AccessCategory@access@vanetza@@V?$list@UPendingTransmission@FlowControl@dcc@vanetza@@V?$allocator@UPendingTransmission@FlowControl@dcc@vanetza@@@std@@@std@@@std@@@5@$0A@@std@@@std@@IEAAXXZ
	?_Alloc_sentinel_and_proxy@?$_Tree@V?$_Tset_traits@UState@GradualStateMachine@dcc@vanetza@@U?$less@UState@GradualStateMachine@dcc@vanetza@@@std@@V?$allocator@UState@GradualStateMachine@dcc@vanetza@@@6@$0A@@std@@@std@@IEAAXXZ
	?_Alloc_sentinel_and_proxy@?$list@UPendingTransmission@FlowControl@dcc@vanetza@@V?$allocator@UPendingTransmission@FlowControl@dcc@vanetza@@@std@@@std@@AEAAXXZ
	?_Allocate@?$_Alloc_construct_ptr@V?$allocator@U?$_List_node@UPendingTransmission@FlowControl@dcc@vanetza@@PEAX@std@@@std@@@std@@QEAAXXZ
	?_Allocate@?$_Alloc_construct_ptr@V?$allocator@U?$_Tree_node@U?$pair@$$CBW4AccessCategory@access@vanetza@@V?$list@UPendingTransmission@FlowControl@dcc@vanetza@@V?$allocator@UPendingTransmission@FlowControl@dcc@vanetza@@@std@@@std@@@std@@PEAX@std@@@std@@@std@@QEAAXXZ
	?_Allocate@?$_Alloc_construct_ptr@V?$allocator@U?$_Tree_node@UState@GradualStateMachine@dcc@vanetza@@PEAX@std@@@std@@@std@@QEAAXXZ
	?_Allocate@_Default_allocate_traits@std@@SAPEAX_K@Z
	?_Assign_locked@_Iterator_base12@std@@AEAAXAEBU12@@Z
	?_Assign_unlocked@_Iterator_base12@std@@AEAAXAEBU12@@Z
	?_Become_small@?$basic_string@DU?$char_traits@D@std@@V?$allocator@D@2@@std@@AEAAXXZ
	?_Buy_nonzero@?$vector@IV?$allocator@I@std@@@std@@AEAAX_K@Z
	?_Buy_nonzero@?$vector@U?$format_item@DU?$char_traits@D@std@@V?$allocator@D@2@@detail@io@boost@@V?$allocator@U?$format_item@DU?$char_traits@D@std@@V?$allocator@D@2@@detail@io@boost@@@std@@@std@@AEAAX_K@Z
	?_Buy_raw@?$vector@IV?$allocator@I@std@@@std@@AEAAX_K@Z
	?_Buy_raw@?$vector@U?$format_item@DU?$char_traits@D@std@@V?$allocator@D@2@@detail@io@boost@@V?$allocator@U?$format_item@DU?$char_traits@D@std@@V?$allocator@D@2@@detail@io@boost@@@std@@@std@@AEAAX_K@Z
	?_Calculate_growth@?$basic_string@DU?$char_traits@D@std@@V?$allocator@D@2@@std@@AEBA_K_K@Z
	?_Calculate_growth@?$basic_string@DU?$char_traits@D@std@@V?$allocator@D@2@@std@@CA_K_K00@Z
	?_Calculate_growth@?$vector@IV?$allocator@I@std@@@std@@AEBA_K_K@Z
	?_Calculate_growth@?$vector@U?$format_item@DU?$char_traits@D@std@@V?$allocator@D@2@@detail@io@boost@@V?$allocator@U?$format_item@DU?$char_traits@D@std@@V?$allocator@D@2@@detail@io@boost@@@std@@@std@@AEBA_K_K@Z
	?_Change_array@?$vector@IV?$allocator@I@std@@@std@@AEAAXQEAI_K1@Z
	?_Change_array@?$vector@U?$format_item@DU?$char_traits@D@std@@V?$allocator@D@2@@detail@io@boost@@V?$allocator@U?$format_item@DU?$char_traits@D@std@@V?$allocator@D@2@@detail@io@boost@@@std@@@std@@AEAAXQEAU?$format_item@DU?$char_traits@D@std@@V?$allocator@D@2@@detail@io@boost@@_K1@Z
	?_Check_grow_by_1@?$_Tree@V?$_Tmap_traits@W4AccessCategory@access@vanetza@@V?$list@UPendingTransmission@FlowControl@dcc@vanetza@@V?$allocator@UPendingTransmission@FlowControl@dcc@vanetza@@@std@@@std@@U?$greater@W4AccessCategory@access@vanetza@@@5@V?$allocator@U?$pair@$$CBW4AccessCategory@access@vanetza@@V?$list@UPendingTransmission@FlowControl@dcc@vanetza@@V?$allocator@UPendingTransmission@FlowControl@dcc@vanetza@@@std@@@std@@@std@@@5@$0A@@std@@@std@@IEAAXXZ
	?_Check_grow_by_1@?$_Tree@V?$_Tset_traits@UState@GradualStateMachine@dcc@vanetza@@U?$less@UState@GradualStateMachine@dcc@vanetza@@@std@@V?$allocator@UState@GradualStateMachine@dcc@vanetza@@@6@$0A@@std@@@std@@IEAAXXZ
	?_Check_memory_order@std@@YAXW4memory_order@1@@Z
	?_Clear_and_reserve_geometric@?$vector@U?$format_item@DU?$char_traits@D@std@@V?$allocator@D@2@@detail@io@boost@@V?$allocator@U?$format_item@DU?$char_traits@D@std@@V?$allocator@D@2@@detail@io@boost@@@std@@@std@@AEAAX_K@Z
	?_Compat@?$_Array_const_iterator@N$04@std@@QEBAXAEBV12@@Z
	?_Compat@?$_String_const_iterator@V?$_String_val@U?$_Simple_types@D@std@@@std@@@std@@QEBAXAEBV12@@Z
	?_Compat@?$_Vb_const_iterator@U?$_Wrap_alloc@V?$allocator@I@std@@@std@@@std@@QEBAXAEBV12@@Z
	?_Copy@?$_Func_impl_no_alloc@V?$_Binder@U_Unforced@std@@P8FlowControl@dcc@vanetza@@EAAXXZPEAV345@@std@@XV?$time_point@VClock@vanetza@@V?$duration@_JU?$ratio@$00$0PECEA@@std@@@chrono@std@@@chrono@2@@std@@EEBAPEAV?$_Func_base@XV?$time_point@VClock@vanetza@@V?$duration@_JU?$ratio@$00$0PECEA@@std@@@chrono@std@@@chrono@std@@@2@PEAX@Z
	?_Dec@?$_Vb_const_iterator@U?$_Wrap_alloc@V?$allocator@I@std@@@std@@@std@@QEAAXXZ
	?_Delete_this@?$_Func_impl_no_alloc@V?$_Binder@U_Unforced@std@@P8FlowControl@dcc@vanetza@@EAAXXZPEAV345@@std@@XV?$time_point@VClock@vanetza@@V?$duration@_JU?$ratio@$00$0PECEA@@std@@@chrono@std@@@chrono@2@@std@@EEAAX_N@Z
	?_Do_call@?$_Func_impl_no_alloc@V?$_Binder@U_Unforced@std@@P8FlowControl@dcc@vanetza@@EAAXXZPEAV345@@std@@XV?$time_point@VClock@vanetza@@V?$duration@_JU?$ratio@$00$0PECEA@@std@@@chrono@std@@@chrono@2@@std@@EEAAX$$QEAV?$time_point@VClock@vanetza@@V?$duration@_JU?$ratio@$00$0PECEA@@std@@@chrono@std@@@chrono@2@@Z
	?_Empty@?$_Func_class@XPEBVLimeric@dcc@vanetza@@V?$time_point@VClock@vanetza@@V?$duration@_JU?$ratio@$00$0PECEA@@std@@@chrono@std@@@chrono@std@@@std@@IEBA_NXZ
	?_Empty@?$_Func_class@XV?$time_point@VClock@vanetza@@V?$duration@_JU?$ratio@$00$0PECEA@@std@@@chrono@std@@@chrono@std@@@std@@IEBA_NXZ
	?_Empty@?$_Func_class@XVChannelLoad@dcc@vanetza@@@std@@IEBA_NXZ
	?_Empty@?$_Func_class@XW4AccessCategory@access@vanetza@@PEBVChunkPacket@3@@std@@IEBA_NXZ
	?_Eos@?$basic_string@DU?$char_traits@D@std@@V?$allocator@D@2@@std@@AEAAX_K@Z
	?_Extract@?$_In_place_key_extract_set@UState@GradualStateMachine@dcc@vanetza@@U1234@@std@@SAAEBUState@GradualStateMachine@dcc@vanetza@@AEBU3456@@Z
	?_Get@?$_Func_impl_no_alloc@V?$_Binder@U_Unforced@std@@P8FlowControl@dcc@vanetza@@EAAXXZPEAV345@@std@@XV?$time_point@VClock@vanetza@@V?$duration@_JU?$ratio@$00$0PECEA@@std@@@chrono@std@@@chrono@2@@std@@EEBAPEBXXZ
	?_Get_first@?$_Compressed_pair@P8FlowControl@dcc@vanetza@@EAAXXZV?$tuple@PEAVFlowControl@dcc@vanetza@@@std@@$0A@@std@@QEAAAEAP8FlowControl@dcc@vanetza@@EAAXXZXZ
	?_Get_first@?$_Compressed_pair@U?$default_delete@Ubyte_buffer@convertible@vanetza@@@std@@PEAUbyte_buffer@convertible@vanetza@@$00@std@@QEAAAEAU?$default_delete@Ubyte_buffer@convertible@vanetza@@@2@XZ
	?_Get_first@?$_Compressed_pair@U?$default_delete@VChunkPacket@vanetza@@@std@@PEAVChunkPacket@vanetza@@$00@std@@QEAAAEAU?$default_delete@VChunkPacket@vanetza@@@2@XZ
	?_Get_first@?$_Compressed_pair@U?$default_delete@V_Facet_base@std@@@std@@PEAV_Facet_base@2@$00@std@@QEAAAEAU?$default_delete@V_Facet_base@std@@@2@XZ
	?_Get_first@?$_Compressed_pair@U?$greater@W4AccessCategory@access@vanetza@@@std@@V?$_Compressed_pair@V?$allocator@U?$_Tree_node@U?$pair@$$CBW4AccessCategory@access@vanetza@@V?$list@UPendingTransmission@FlowControl@dcc@vanetza@@V?$allocator@UPendingTransmission@FlowControl@dcc@vanetza@@@std@@@std@@@std@@PEAX@std@@@std@@V?$_Tree_val@U?$_Tree_simple_types@U?$pair@$$CBW4AccessCategory@access@vanetza@@V?$list@UPendingTransmission@FlowControl@dcc@vanetza@@V?$allocator@UPendingTransmission@FlowControl@dcc@vanetza@@@std@@@std@@@std@@@std@@@2@$00@2@$00@std@@QEBAAEBU?$greater@W4AccessCategory@access@vanetza@@@2@XZ
	?_Get_first@?$_Compressed_pair@U?$less@UState@GradualStateMachine@dcc@vanetza@@@std@@V?$_Compressed_pair@V?$allocator@U?$_Tree_node@UState@GradualStateMachine@dcc@vanetza@@PEAX@std@@@std@@V?$_Tree_val@U?$_Tree_simple_types@UState@GradualStateMachine@dcc@vanetza@@@std@@@2@$00@2@$00@std@@QEBAAEBU?$less@UState@GradualStateMachine@dcc@vanetza@@@2@XZ
	?_Get_first@?$_Compressed_pair@V?$allocator@D@std@@V?$_String_val@U?$_Simple_types@D@std@@@2@$00@std@@QEAAAEAV?$allocator@D@2@XZ
	?_Get_first@?$_Compressed_pair@V?$allocator@D@std@@V?$_String_val@U?$_Simple_types@D@std@@@2@$00@std@@QEBAAEBV?$allocator@D@2@XZ
	?_Get_first@?$_Compressed_pair@V?$allocator@I@std@@V?$_Vector_val@U?$_Simple_types@I@std@@@2@$00@std@@QEAAAEAV?$allocator@I@2@XZ
	?_Get_first@?$_Compressed_pair@V?$allocator@I@std@@V?$_Vector_val@U?$_Simple_types@I@std@@@2@$00@std@@QEBAAEBV?$allocator@I@2@XZ
	?_Get_first@?$_Compressed_pair@V?$allocator@U?$_List_node@UPendingTransmission@FlowControl@dcc@vanetza@@PEAX@std@@@std@@V?$_List_val@U?$_List_simple_types@UPendingTransmission@FlowControl@dcc@vanetza@@@std@@@2@$00@std@@QEAAAEAV?$allocator@U?$_List_node@UPendingTransmission@FlowControl@dcc@vanetza@@PEAX@std@@@2@XZ
	?_Get_first@?$_Compressed_pair@V?$allocator@U?$_List_node@UPendingTransmission@FlowControl@dcc@vanetza@@PEAX@std@@@std@@V?$_List_val@U?$_List_simple_types@UPendingTransmission@FlowControl@dcc@vanetza@@@std@@@2@$00@std@@QEBAAEBV?$allocator@U?$_List_node@UPendingTransmission@FlowControl@dcc@vanetza@@PEAX@std@@@2@XZ
	?_Get_first@?$_Compressed_pair@V?$allocator@U?$_Tree_node@U?$pair@$$CBW4AccessCategory@access@vanetza@@V?$list@UPendingTransmission@FlowControl@dcc@vanetza@@V?$allocator@UPendingTransmission@FlowControl@dcc@vanetza@@@std@@@std@@@std@@PEAX@std@@@std@@V?$_Tree_val@U?$_Tree_simple_types@U?$pair@$$CBW4AccessCategory@access@vanetza@@V?$list@UPendingTransmission@FlowControl@dcc@vanetza@@V?$allocator@UPendingTransmission@FlowControl@dcc@vanetza@@@std@@@std@@@std@@@std@@@2@$00@std@@QEAAAEAV?$allocator@U?$_Tree_node@U?$pair@$$CBW4AccessCategory@access@vanetza@@V?$list@UPendingTransmission@FlowControl@dcc@vanetza@@V?$allocator@UPendingTransmission@FlowControl@dcc@vanetza@@@std@@@std@@@std@@PEAX@std@@@2@XZ
	?_Get_first@?$_Compressed_pair@V?$allocator@U?$_Tree_node@U?$pair@$$CBW4AccessCategory@access@vanetza@@V?$list@UPendingTransmission@FlowControl@dcc@vanetza@@V?$allocator@UPendingTransmission@FlowControl@dcc@vanetza@@@std@@@std@@@std@@PEAX@std@@@std@@V?$_Tree_val@U?$_Tree_simple_types@U?$pair@$$CBW4AccessCategory@access@vanetza@@V?$list@UPendingTransmission@FlowControl@dcc@vanetza@@V?$allocator@UPendingTransmission@FlowControl@dcc@vanetza@@@std@@@std@@@std@@@std@@@2@$00@std@@QEBAAEBV?$allocator@U?$_Tree_node@U?$pair@$$CBW4AccessCategory@access@vanetza@@V?$list@UPendingTransmission@FlowControl@dcc@vanetza@@V?$allocator@UPendingTransmission@FlowControl@dcc@vanetza@@@std@@@std@@@std@@PEAX@std@@@2@XZ
	?_Get_first@?$_Compressed_pair@V?$allocator@U?$_Tree_node@U?$pair@$$CBW4OsiLayer@vanetza@@VByteBufferConvertible@2@@std@@PEAX@std@@@std@@V?$_Tree_val@U?$_Tree_simple_types@U?$pair@$$CBW4OsiLayer@vanetza@@VByteBufferConvertible@2@@std@@@std@@@2@$00@std@@QEAAAEAV?$allocator@U?$_Tree_node@U?$pair@$$CBW4OsiLayer@vanetza@@VByteBufferConvertible@2@@std@@PEAX@std@@@2@XZ
	?_Get_first@?$_Compressed_pair@V?$allocator@U?$_Tree_node@UState@GradualStateMachine@dcc@vanetza@@PEAX@std@@@std@@V?$_Tree_val@U?$_Tree_simple_types@UState@GradualStateMachine@dcc@vanetza@@@std@@@2@$00@std@@QEAAAEAV?$allocator@U?$_Tree_node@UState@GradualStateMachine@dcc@vanetza@@PEAX@std@@@2@XZ
	?_Get_first@?$_Compressed_pair@V?$allocator@U?$_Tree_node@UState@GradualStateMachine@dcc@vanetza@@PEAX@std@@@std@@V?$_Tree_val@U?$_Tree_simple_types@UState@GradualStateMachine@dcc@vanetza@@@std@@@2@$00@std@@QEBAAEBV?$allocator@U?$_Tree_node@UState@GradualStateMachine@dcc@vanetza@@PEAX@std@@@2@XZ
	?_Get_first@?$_Compressed_pair@V?$allocator@U?$format_item@DU?$char_traits@D@std@@V?$allocator@D@2@@detail@io@boost@@@std@@V?$_Vector_val@U?$_Simple_types@U?$format_item@DU?$char_traits@D@std@@V?$allocator@D@2@@detail@io@boost@@@std@@@2@$00@std@@QEAAAEAV?$allocator@U?$format_item@DU?$char_traits@D@std@@V?$allocator@D@2@@detail@io@boost@@@2@XZ
	?_Get_first@?$_Compressed_pair@V?$allocator@U?$format_item@DU?$char_traits@D@std@@V?$allocator@D@2@@detail@io@boost@@@std@@V?$_Vector_val@U?$_Simple_types@U?$format_item@DU?$char_traits@D@std@@V?$allocator@D@2@@detail@io@boost@@@std@@@2@$00@std@@QEBAAEBV?$allocator@U?$format_item@DU?$char_traits@D@std@@V?$allocator@D@2@@detail@io@boost@@@2@XZ
	?_Get_scary@?$_Tree@V?$_Tmap_traits@W4AccessCategory@access@vanetza@@V?$list@UPendingTransmission@FlowControl@dcc@vanetza@@V?$allocator@UPendingTransmission@FlowControl@dcc@vanetza@@@std@@@std@@U?$greater@W4AccessCategory@access@vanetza@@@5@V?$allocator@U?$pair@$$CBW4AccessCategory@access@vanetza@@V?$list@UPendingTransmission@FlowControl@dcc@vanetza@@V?$allocator@UPendingTransmission@FlowControl@dcc@vanetza@@@std@@@std@@@std@@@5@$0A@@std@@@std@@IEAAPEAV?$_Tree_val@U?$_Tree_simple_types@U?$pair@$$CBW4AccessCategory@access@vanetza@@V?$list@UPendingTransmission@FlowControl@dcc@vanetza@@V?$allocator@UPendingTransmission@FlowControl@dcc@vanetza@@@std@@@std@@@std@@@std@@@2@XZ
	?_Get_scary@?$_Tree@V?$_Tmap_traits@W4AccessCategory@access@vanetza@@V?$list@UPendingTransmission@FlowControl@dcc@vanetza@@V?$allocator@UPendingTransmission@FlowControl@dcc@vanetza@@@std@@@std@@U?$greater@W4AccessCategory@access@vanetza@@@5@V?$allocator@U?$pair@$$CBW4AccessCategory@access@vanetza@@V?$list@UPendingTransmission@FlowControl@dcc@vanetza@@V?$allocator@UPendingTransmission@FlowControl@dcc@vanetza@@@std@@@std@@@std@@@5@$0A@@std@@@std@@IEBAPEBV?$_Tree_val@U?$_Tree_simple_types@U?$pair@$$CBW4AccessCategory@access@vanetza@@V?$list@UPendingTransmission@FlowControl@dcc@vanetza@@V?$allocator@UPendingTransmission@FlowControl@dcc@vanetza@@@std@@@std@@@std@@@std@@@2@XZ
	?_Get_scary@?$_Tree@V?$_Tmap_traits@W4OsiLayer@vanetza@@VByteBufferConvertible@2@U?$less@W4OsiLayer@vanetza@@@std@@V?$allocator@U?$pair@$$CBW4OsiLayer@vanetza@@VByteBufferConvertible@2@@std@@@5@$0A@@std@@@std@@IEAAPEAV?$_Tree_val@U?$_Tree_simple_types@U?$pair@$$CBW4OsiLayer@vanetza@@VByteBufferConvertible@2@@std@@@std@@@2@XZ
	?_Get_scary@?$_Tree@V?$_Tset_traits@UState@GradualStateMachine@dcc@vanetza@@U?$less@UState@GradualStateMachine@dcc@vanetza@@@std@@V?$allocator@UState@GradualStateMachine@dcc@vanetza@@@6@$0A@@std@@@std@@IEAAPEAV?$_Tree_val@U?$_Tree_simple_types@UState@GradualStateMachine@dcc@vanetza@@@std@@@2@XZ
	?_Get_scary@?$_Tree@V?$_Tset_traits@UState@GradualStateMachine@dcc@vanetza@@U?$less@UState@GradualStateMachine@dcc@vanetza@@@std@@V?$allocator@UState@GradualStateMachine@dcc@vanetza@@@6@$0A@@std@@@std@@IEBAPEBV?$_Tree_val@U?$_Tree_simple_types@UState@GradualStateMachine@dcc@vanetza@@@std@@@2@XZ
	?_Getal@?$_Tree@V?$_Tmap_traits@W4AccessCategory@access@vanetza@@V?$list@UPendingTransmission@FlowControl@dcc@vanetza@@V?$allocator@UPendingTransmission@FlowControl@dcc@vanetza@@@std@@@std@@U?$greater@W4AccessCategory@access@vanetza@@@5@V?$allocator@U?$pair@$$CBW4AccessCategory@access@vanetza@@V?$list@UPendingTransmission@FlowControl@dcc@vanetza@@V?$allocator@UPendingTransmission@FlowControl@dcc@vanetza@@@std@@@std@@@std@@@5@$0A@@std@@@std@@IEAAAEAV?$allocator@U?$_Tree_node@U?$pair@$$CBW4AccessCategory@access@vanetza@@V?$list@UPendingTransmission@FlowControl@dcc@vanetza@@V?$allocator@UPendingTransmission@FlowControl@dcc@vanetza@@@std@@@std@@@std@@PEAX@std@@@2@XZ
	?_Getal@?$_Tree@V?$_Tmap_traits@W4AccessCategory@access@vanetza@@V?$list@UPendingTransmission@FlowControl@dcc@vanetza@@V?$allocator@UPendingTransmission@FlowControl@dcc@vanetza@@@std@@@std@@U?$greater@W4AccessCategory@access@vanetza@@@5@V?$allocator@U?$pair@$$CBW4AccessCategory@access@vanetza@@V?$list@UPendingTransmission@FlowControl@dcc@vanetza@@V?$allocator@UPendingTransmission@FlowControl@dcc@vanetza@@@std@@@std@@@std@@@5@$0A@@std@@@std@@IEBAAEBV?$allocator@U?$_Tree_node@U?$pair@$$CBW4AccessCategory@access@vanetza@@V?$list@UPendingTransmission@FlowControl@dcc@vanetza@@V?$allocator@UPendingTransmission@FlowControl@dcc@vanetza@@@std@@@std@@@std@@PEAX@std@@@2@XZ
	?_Getal@?$_Tree@V?$_Tmap_traits@W4OsiLayer@vanetza@@VByteBufferConvertible@2@U?$less@W4OsiLayer@vanetza@@@std@@V?$allocator@U?$pair@$$CBW4OsiLayer@vanetza@@VByteBufferConvertible@2@@std@@@5@$0A@@std@@@std@@IEAAAEAV?$allocator@U?$_Tree_node@U?$pair@$$CBW4OsiLayer@vanetza@@VByteBufferConvertible@2@@std@@PEAX@std@@@2@XZ
	?_Getal@?$_Tree@V?$_Tset_traits@UState@GradualStateMachine@dcc@vanetza@@U?$less@UState@GradualStateMachine@dcc@vanetza@@@std@@V?$allocator@UState@GradualStateMachine@dcc@vanetza@@@6@$0A@@std@@@std@@IEAAAEAV?$allocator@U?$_Tree_node@UState@GradualStateMachine@dcc@vanetza@@PEAX@std@@@2@XZ
	?_Getal@?$_Tree@V?$_Tset_traits@UState@GradualStateMachine@dcc@vanetza@@U?$less@UState@GradualStateMachine@dcc@vanetza@@@std@@V?$allocator@UState@GradualStateMachine@dcc@vanetza@@@6@$0A@@std@@@std@@IEBAAEBV?$allocator@U?$_Tree_node@UState@GradualStateMachine@dcc@vanetza@@PEAX@std@@@2@XZ
	?_Getal@?$_Vb_val@V?$allocator@_N@std@@@std@@QEAAAEAV?$allocator@I@2@XZ
	?_Getal@?$basic_string@DU?$char_traits@D@std@@V?$allocator@D@2@@std@@AEAAAEAV?$allocator@D@2@XZ
	?_Getal@?$basic_string@DU?$char_traits@D@std@@V?$allocator@D@2@@std@@AEBAAEBV?$allocator@D@2@XZ
	?_Getal@?$list@UPendingTransmission@FlowControl@dcc@vanetza@@V?$allocator@UPendingTransmission@FlowControl@dcc@vanetza@@@std@@@std@@AEAAAEAV?$allocator@U?$_List_node@UPendingTransmission@FlowControl@dcc@vanetza@@PEAX@std@@@2@XZ
	?_Getal@?$list@UPendingTransmission@FlowControl@dcc@vanetza@@V?$allocator@UPendingTransmission@FlowControl@dcc@vanetza@@@std@@@std@@AEBAAEBV?$allocator@U?$_List_node@UPendingTransmission@FlowControl@dcc@vanetza@@PEAX@std@@@2@XZ
	?_Getal@?$vector@IV?$allocator@I@std@@@std@@AEAAAEAV?$allocator@I@2@XZ
	?_Getal@?$vector@IV?$allocator@I@std@@@std@@AEBAAEBV?$allocator@I@2@XZ
	?_Getal@?$vector@U?$format_item@DU?$char_traits@D@std@@V?$allocator@D@2@@detail@io@boost@@V?$allocator@U?$format_item@DU?$char_traits@D@std@@V?$allocator@D@2@@detail@io@boost@@@std@@@std@@AEAAAEAV?$allocator@U?$format_item@DU?$char_traits@D@std@@V?$allocator@D@2@@detail@io@boost@@@2@XZ
	?_Getal@?$vector@U?$format_item@DU?$char_traits@D@std@@V?$allocator@D@2@@detail@io@boost@@V?$allocator@U?$format_item@DU?$char_traits@D@std@@V?$allocator@D@2@@detail@io@boost@@@std@@@std@@AEBAAEBV?$allocator@U?$format_item@DU?$char_traits@D@std@@V?$allocator@D@2@@detail@io@boost@@@2@XZ
	?_Getcomp@?$_Tree@V?$_Tmap_traits@W4AccessCategory@access@vanetza@@V?$list@UPendingTransmission@FlowControl@dcc@vanetza@@V?$allocator@UPendingTransmission@FlowControl@dcc@vanetza@@@std@@@std@@U?$greater@W4AccessCategory@access@vanetza@@@5@V?$allocator@U?$pair@$$CBW4AccessCategory@access@vanetza@@V?$list@UPendingTransmission@FlowControl@dcc@vanetza@@V?$allocator@UPendingTransmission@FlowControl@dcc@vanetza@@@std@@@std@@@std@@@5@$0A@@std@@@std@@IEBAAEBU?$greater@W4AccessCategory@access@vanetza@@@2@XZ
	?_Getcomp@?$_Tree@V?$_Tset_traits@UState@GradualStateMachine@dcc@vanetza@@U?$less@UState@GradualStateMachine@dcc@vanetza@@@std@@V?$allocator@UState@GradualStateMachine@dcc@vanetza@@@6@$0A@@std@@@std@@IEBAAEBU?$less@UState@GradualStateMachine@dcc@vanetza@@@2@XZ
	?_Getcont@_Iterator_base12@std@@QEBAPEBU_Container_base12@2@XZ
	?_Getfacet@locale@std@@QEBAPEBVfacet@12@_K@Z
	?_Getimpl@?$_Func_class@XPEBVLimeric@dcc@vanetza@@V?$time_point@VClock@vanetza@@V?$duration@_JU?$ratio@$00$0PECEA@@std@@@chrono@std@@@chrono@std@@@std@@AEBAPEAV?$_Func_base@XPEBVLimeric@dcc@vanetza@@V?$time_point@VClock@vanetza@@V?$duration@_JU?$ratio@$00$0PECEA@@std@@@chrono@std@@@chrono@std@@@2@XZ
	?_Getimpl@?$_Func_class@XV?$time_point@VClock@vanetza@@V?$duration@_JU?$ratio@$00$0PECEA@@std@@@chrono@std@@@chrono@std@@@std@@AEBAPEAV?$_Func_base@XV?$time_point@VClock@vanetza@@V?$duration@_JU?$ratio@$00$0PECEA@@std@@@chrono@std@@@chrono@std@@@2@XZ
	?_Getimpl@?$_Func_class@XVChannelLoad@dcc@vanetza@@@std@@AEBAPEAV?$_Func_base@XVChannelLoad@dcc@vanetza@@@2@XZ
	?_Getimpl@?$_Func_class@XW4AccessCategory@access@vanetza@@PEBVChunkPacket@3@@std@@AEBAPEAV?$_Func_base@XW4AccessCategory@access@vanetza@@PEBVChunkPacket@3@@2@XZ
	?_Getptr@?$_Vb_reference@U?$_Wrap_alloc@V?$allocator@I@std@@@std@@@std@@QEBAPEBIXZ
	?_Inc@?$_Vb_const_iterator@U?$_Wrap_alloc@V?$allocator@I@std@@@std@@@std@@QEAAXXZ
	?_Insert_n@?$vector@_NV?$allocator@_N@std@@@std@@QEAA?AV?$_Vb_iterator@U?$_Wrap_alloc@V?$allocator@I@std@@@std@@@2@V?$_Vb_const_iterator@U?$_Wrap_alloc@V?$allocator@I@std@@@std@@@2@_KAEB_N@Z
	?_Insert_node@?$_Tree_val@U?$_Tree_simple_types@U?$pair@$$CBW4AccessCategory@access@vanetza@@V?$list@UPendingTransmission@FlowControl@dcc@vanetza@@V?$allocator@UPendingTransmission@FlowControl@dcc@vanetza@@@std@@@std@@@std@@@std@@@std@@QEAAPEAU?$_Tree_node@U?$pair@$$CBW4AccessCategory@access@vanetza@@V?$list@UPendingTransmission@FlowControl@dcc@vanetza@@V?$allocator@UPendingTransmission@FlowControl@dcc@vanetza@@@std@@@std@@@std@@PEAX@2@U?$_Tree_id@PEAU?$_Tree_node@U?$pair@$$CBW4AccessCategory@access@vanetza@@V?$list@UPendingTransmission@FlowControl@dcc@vanetza@@V?$allocator@UPendingTransmission@FlowControl@dcc@vanetza@@@std@@@std@@@std@@PEAX@std@@@2@QEAU32@@Z
	?_Insert_node@?$_Tree_val@U?$_Tree_simple_types@UState@GradualStateMachine@dcc@vanetza@@@std@@@std@@QEAAPEAU?$_Tree_node@UState@GradualStateMachine@dcc@vanetza@@PEAX@2@U?$_Tree_id@PEAU?$_Tree_node@UState@GradualStateMachine@dcc@vanetza@@PEAX@std@@@2@QEAU32@@Z
	?_Insert_x@?$vector@_NV?$allocator@_N@std@@@std@@QEAA_KV?$_Vb_const_iterator@U?$_Wrap_alloc@V?$allocator@I@std@@@std@@@2@_K@Z
	?_Kfn@?$_Tset_traits@UState@GradualStateMachine@dcc@vanetza@@U?$less@UState@GradualStateMachine@dcc@vanetza@@@std@@V?$allocator@UState@GradualStateMachine@dcc@vanetza@@@6@$0A@@std@@SAAEBUState@GradualStateMachine@dcc@vanetza@@AEBU3456@@Z
	?_Large_string_engaged@?$_String_val@U?$_Simple_types@D@std@@@std@@QEBA_NXZ
	?_Local@?$_Func_class@XPEBVLimeric@dcc@vanetza@@V?$time_point@VClock@vanetza@@V?$duration@_JU?$ratio@$00$0PECEA@@std@@@chrono@std@@@chrono@std@@@std@@AEBA_NXZ
	?_Local@?$_Func_class@XV?$time_point@VClock@vanetza@@V?$duration@_JU?$ratio@$00$0PECEA@@std@@@chrono@std@@@chrono@std@@@std@@AEBA_NXZ
	?_Local@?$_Func_class@XVChannelLoad@dcc@vanetza@@@std@@AEBA_NXZ
	?_Local@?$_Func_class@XW4AccessCategory@access@vanetza@@PEBVChunkPacket@3@@std@@AEBA_NXZ
	?_Lrotate@?$_Tree_val@U?$_Tree_simple_types@U?$pair@$$CBW4AccessCategory@access@vanetza@@V?$list@UPendingTransmission@FlowControl@dcc@vanetza@@V?$allocator@UPendingTransmission@FlowControl@dcc@vanetza@@@std@@@std@@@std@@@std@@@std@@QEAAXPEAU?$_Tree_node@U?$pair@$$CBW4AccessCategory@access@vanetza@@V?$list@UPendingTransmission@FlowControl@dcc@vanetza@@V?$allocator@UPendingTransmission@FlowControl@dcc@vanetza@@@std@@@std@@@std@@PEAX@2@@Z
	?_Lrotate@?$_Tree_val@U?$_Tree_simple_types@UState@GradualStateMachine@dcc@vanetza@@@std@@@std@@QEAAXPEAU?$_Tree_node@UState@GradualStateMachine@dcc@vanetza@@PEAX@2@@Z
	?_Make_iter@?$vector@_NV?$allocator@_N@std@@@std@@QEAA?AV?$_Vb_iterator@U?$_Wrap_alloc@V?$allocator@I@std@@@std@@@2@V?$_Vb_const_iterator@U?$_Wrap_alloc@V?$allocator@I@std@@@std@@@2@@Z
	?_Maklocwcs@std@@YAPEA_WPEB_W@Z
	?_Mask@?$_Vb_reference@U?$_Wrap_alloc@V?$allocator@I@std@@@std@@@std@@IEBAIXZ
	?_Max@?$_Tree_val@U?$_Tree_simple_types@UState@GradualStateMachine@dcc@vanetza@@@std@@@std@@SAPEAU?$_Tree_node@UState@GradualStateMachine@dcc@vanetza@@PEAX@2@PEAU32@@Z
	?_Memcpy_val_from@?$basic_string@DU?$char_traits@D@std@@V?$allocator@D@2@@std@@AEAAXAEBV12@@Z
	?_Min@?$_Tree_val@U?$_Tree_simple_types@U?$pair@$$CBW4AccessCategory@access@vanetza@@V?$list@UPendingTransmission@FlowControl@dcc@vanetza@@V?$allocator@UPendingTransmission@FlowControl@dcc@vanetza@@@std@@@std@@@std@@@std@@@std@@SAPEAU?$_Tree_node@U?$pair@$$CBW4AccessCategory@access@vanetza@@V?$list@UPendingTransmission@FlowControl@dcc@vanetza@@V?$allocator@UPendingTransmission@FlowControl@dcc@vanetza@@@std@@@std@@@std@@PEAX@2@PEAU32@@Z
	?_Min@?$_Tree_val@U?$_Tree_simple_types@UState@GradualStateMachine@dcc@vanetza@@@std@@@std@@SAPEAU?$_Tree_node@UState@GradualStateMachine@dcc@vanetza@@PEAX@2@PEAU32@@Z
	?_Move@?$_Func_impl_no_alloc@V?$_Binder@U_Unforced@std@@P8FlowControl@dcc@vanetza@@EAAXXZPEAV345@@std@@XV?$time_point@VClock@vanetza@@V?$duration@_JU?$ratio@$00$0PECEA@@std@@@chrono@std@@@chrono@2@@std@@EEAAPEAV?$_Func_base@XV?$time_point@VClock@vanetza@@V?$duration@_JU?$ratio@$00$0PECEA@@std@@@chrono@std@@@chrono@std@@@2@PEAX@Z
	?_Myptr@?$_String_val@U?$_Simple_types@D@std@@@std@@QEAAPEADXZ
	?_Myptr@?$_String_val@U?$_Simple_types@D@std@@@std@@QEBAPEBDXZ
	?_Negate@?$_Atomic_integral_facade@H@std@@SAHH@Z
	?_Nw@?$_Vb_val@V?$allocator@_N@std@@@std@@SA_K_K@Z
	?_Orphan_all@_Container_base12@std@@QEAAXXZ
	?_Orphan_all_locked_v3@_Container_base12@std@@AEAAXXZ
	?_Orphan_all_unlocked_v3@_Container_base12@std@@AEAAXXZ
	?_Orphan_me_locked_v3@_Iterator_base12@std@@AEAAXXZ
	?_Orphan_me_unlocked_v3@_Iterator_base12@std@@AEAAXXZ
	?_Orphan_ptr2@?$_List_val@U?$_List_simple_types@UPendingTransmission@FlowControl@dcc@vanetza@@@std@@@std@@QEAAXPEAU?$_List_node@UPendingTransmission@FlowControl@dcc@vanetza@@PEAX@2@@Z
	?_Orphan_ptr@?$_Tree_val@U?$_Tree_simple_types@UState@GradualStateMachine@dcc@vanetza@@@std@@@std@@QEAAXQEAU?$_Tree_node@UState@GradualStateMachine@dcc@vanetza@@PEAX@2@@Z
	?_Orphan_range@?$vector@IV?$allocator@I@std@@@std@@AEBAXPEAI0@Z
	?_Orphan_range@?$vector@U?$format_item@DU?$char_traits@D@std@@V?$allocator@D@2@@detail@io@boost@@V?$allocator@U?$format_item@DU?$char_traits@D@std@@V?$allocator@D@2@@detail@io@boost@@@std@@@std@@AEBAXPEAU?$format_item@DU?$char_traits@D@std@@V?$allocator@D@2@@detail@io@boost@@0@Z
	?_Orphan_range@?$vector@_NV?$allocator@_N@std@@@std@@QEBAX_K0@Z
	?_Orphan_range_locked@?$vector@IV?$allocator@I@std@@@std@@AEBAXPEAI0@Z
	?_Orphan_range_locked@?$vector@U?$format_item@DU?$char_traits@D@std@@V?$allocator@D@2@@detail@io@boost@@V?$allocator@U?$format_item@DU?$char_traits@D@std@@V?$allocator@D@2@@detail@io@boost@@@std@@@std@@AEBAXPEAU?$format_item@DU?$char_traits@D@std@@V?$allocator@D@2@@detail@io@boost@@0@Z
	?_Orphan_range_locked@?$vector@_NV?$allocator@_N@std@@@std@@QEBAX_K0@Z
	?_Orphan_range_unlocked@?$vector@IV?$allocator@I@std@@@std@@AEBAXPEAI0@Z
	?_Orphan_range_unlocked@?$vector@U?$format_item@DU?$char_traits@D@std@@V?$allocator@D@2@@detail@io@boost@@V?$allocator@U?$format_item@DU?$char_traits@D@std@@V?$allocator@D@2@@detail@io@boost@@@std@@@std@@AEBAXPEAU?$format_item@DU?$char_traits@D@std@@V?$allocator@D@2@@detail@io@boost@@0@Z
	?_Orphan_range_unlocked@?$vector@_NV?$allocator@_N@std@@@std@@QEBAX_K0@Z
	?_Release@?$_Alloc_construct_ptr@V?$allocator@U?$_Tree_node@U?$pair@$$CBW4AccessCategory@access@vanetza@@V?$list@UPendingTransmission@FlowControl@dcc@vanetza@@V?$allocator@UPendingTransmission@FlowControl@dcc@vanetza@@@std@@@std@@@std@@PEAX@std@@@std@@@std@@QEAAPEAU?$_Tree_node@U?$pair@$$CBW4AccessCategory@access@vanetza@@V?$list@UPendingTransmission@FlowControl@dcc@vanetza@@V?$allocator@UPendingTransmission@FlowControl@dcc@vanetza@@@std@@@std@@@std@@PEAX@2@XZ
	?_Release@?$_Alloc_construct_ptr@V?$allocator@U?$_Tree_node@UState@GradualStateMachine@dcc@vanetza@@PEAX@std@@@std@@@std@@QEAAPEAU?$_Tree_node@UState@GradualStateMachine@dcc@vanetza@@PEAX@2@XZ
	?_Release@?$_Tree_head_scoped_ptr@V?$allocator@U?$_Tree_node@UState@GradualStateMachine@dcc@vanetza@@PEAX@std@@@std@@V?$_Tree_val@U?$_Tree_simple_types@UState@GradualStateMachine@dcc@vanetza@@@std@@@2@@std@@QEAAXXZ
	?_Release@?$_Uninitialized_backout_al@V?$allocator@I@std@@@std@@QEAAPEAIXZ
	?_Release@?$_Uninitialized_backout_al@V?$allocator@U?$format_item@DU?$char_traits@D@std@@V?$allocator@D@2@@detail@io@boost@@@std@@@std@@QEAAPEAU?$format_item@DU?$char_traits@D@std@@V?$allocator@D@2@@detail@io@boost@@XZ
	?_Release@_Basic_container_proxy_ptr12@std@@QEAAXXZ
	?_Reset_move@?$_Func_class@XW4AccessCategory@access@vanetza@@PEBVChunkPacket@3@@std@@IEAAX$$QEAV12@@Z
	?_Rrotate@?$_Tree_val@U?$_Tree_simple_types@U?$pair@$$CBW4AccessCategory@access@vanetza@@V?$list@UPendingTransmission@FlowControl@dcc@vanetza@@V?$allocator@UPendingTransmission@FlowControl@dcc@vanetza@@@std@@@std@@@std@@@std@@@std@@QEAAXPEAU?$_Tree_node@U?$pair@$$CBW4AccessCategory@access@vanetza@@V?$list@UPendingTransmission@FlowControl@dcc@vanetza@@V?$allocator@UPendingTransmission@FlowControl@dcc@vanetza@@@std@@@std@@@std@@PEAX@2@@Z
	?_Rrotate@?$_Tree_val@U?$_Tree_simple_types@UState@GradualStateMachine@dcc@vanetza@@@std@@@std@@QEAAXPEAU?$_Tree_node@UState@GradualStateMachine@dcc@vanetza@@PEAX@2@@Z
	?_Seek_to@?$_Array_const_iterator@N$04@std@@QEAAXPEBN@Z
	?_Set@?$_Func_class@XPEBVLimeric@dcc@vanetza@@V?$time_point@VClock@vanetza@@V?$duration@_JU?$ratio@$00$0PECEA@@std@@@chrono@std@@@chrono@std@@@std@@AEAAXPEAV?$_Func_base@XPEBVLimeric@dcc@vanetza@@V?$time_point@VClock@vanetza@@V?$duration@_JU?$ratio@$00$0PECEA@@std@@@chrono@std@@@chrono@std@@@2@@Z
	?_Set@?$_Func_class@XV?$time_point@VClock@vanetza@@V?$duration@_JU?$ratio@$00$0PECEA@@std@@@chrono@std@@@chrono@std@@@std@@AEAAXPEAV?$_Func_base@XV?$time_point@VClock@vanetza@@V?$duration@_JU?$ratio@$00$0PECEA@@std@@@chrono@std@@@chrono@std@@@2@@Z
	?_Set@?$_Func_class@XVChannelLoad@dcc@vanetza@@@std@@AEAAXPEAV?$_Func_base@XVChannelLoad@dcc@vanetza@@@2@@Z
	?_Set@?$_Func_class@XW4AccessCategory@access@vanetza@@PEBVChunkPacket@3@@std@@AEAAXPEAV?$_Func_base@XW4AccessCategory@access@vanetza@@PEBVChunkPacket@3@@2@@Z
	?_Swap_proxy_and_iterators@?$basic_string@DU?$char_traits@D@std@@V?$allocator@D@2@@std@@AEAAXAEAV12@@Z
	?_Swap_proxy_and_iterators@_Container_base12@std@@QEAAXAEAU12@@Z
	?_Swap_proxy_and_iterators_locked@_Container_base12@std@@AEAAXAEAU12@@Z
	?_Swap_proxy_and_iterators_unlocked@_Container_base12@std@@AEAAXAEAU12@@Z
	?_Swap_val_excluding_comp@?$_Tree@V?$_Tset_traits@UState@GradualStateMachine@dcc@vanetza@@U?$less@UState@GradualStateMachine@dcc@vanetza@@@std@@V?$allocator@UState@GradualStateMachine@dcc@vanetza@@@6@$0A@@std@@@std@@AEAAXAEAV12@@Z
	?_Take_contents@?$basic_string@DU?$char_traits@D@std@@V?$allocator@D@2@@std@@AEAAXAEAV12@@Z
	?_Target_type@?$_Func_impl_no_alloc@V?$_Binder@U_Unforced@std@@P8FlowControl@dcc@vanetza@@EAAXXZPEAV345@@std@@XV?$time_point@VClock@vanetza@@V?$duration@_JU?$ratio@$00$0PECEA@@std@@@chrono@std@@@chrono@2@@std@@EEBAAEBVtype_info@@XZ
	?_Throw_bad_array_new_length@std@@YAXXZ
	?_Throw_bad_cast@std@@YAXXZ
	?_Throw_tree_length_error@std@@YAXXZ
	?_Tidy@?$_Func_class@XPEBVLimeric@dcc@vanetza@@V?$time_point@VClock@vanetza@@V?$duration@_JU?$ratio@$00$0PECEA@@std@@@chrono@std@@@chrono@std@@@std@@IEAAXXZ
	?_Tidy@?$_Func_class@XV?$time_point@VClock@vanetza@@V?$duration@_JU?$ratio@$00$0PECEA@@std@@@chrono@std@@@chrono@std@@@std@@IEAAXXZ
	?_Tidy@?$_Func_class@XVChannelLoad@dcc@vanetza@@@std@@IEAAXXZ
	?_Tidy@?$_Func_class@XW4AccessCategory@access@vanetza@@PEBVChunkPacket@3@@std@@IEAAXXZ
	?_Tidy@?$list@UPendingTransmission@FlowControl@dcc@vanetza@@V?$allocator@UPendingTransmission@FlowControl@dcc@vanetza@@@std@@@std@@AEAAXXZ
	?_Tidy@?$vector@IV?$allocator@I@std@@@std@@AEAAXXZ
	?_Tidy@?$vector@U?$format_item@DU?$char_traits@D@std@@V?$allocator@D@2@@detail@io@boost@@V?$allocator@U?$format_item@DU?$char_traits@D@std@@V?$allocator@D@2@@detail@io@boost@@@std@@@std@@AEAAXXZ
	?_Tidy_deallocate@?$basic_string@DU?$char_traits@D@std@@V?$allocator@D@2@@std@@AEAAXXZ
	?_Tidy_init@?$basic_string@DU?$char_traits@D@std@@V?$allocator@D@2@@std@@AEAAXXZ
	?_Total_off@?$_Vb_iter_base@U?$_Wrap_alloc@V?$allocator@I@std@@@std@@@std@@QEBA_JPEBV?$vector@_NV?$allocator@_N@std@@@2@@Z
	?_Transfer_back@_List_node_remove_op@?$list@UPendingTransmission@FlowControl@dcc@vanetza@@V?$allocator@UPendingTransmission@FlowControl@dcc@vanetza@@@std@@@std@@QEAAPEAU?$_List_node@UPendingTransmission@FlowControl@dcc@vanetza@@PEAX@3@QEAU43@@Z
	?_Transfer_before@?$_List_node_emplace_op2@V?$allocator@U?$_List_node@UPendingTransmission@FlowControl@dcc@vanetza@@PEAX@std@@@std@@@std@@QEAAPEAU?$_List_node@UPendingTransmission@FlowControl@dcc@vanetza@@PEAX@2@QEAU32@@Z
	?_Trim@?$vector@_NV?$allocator@_N@std@@@std@@QEAAX_K@Z
	?_Unchecked_begin@?$_Tree@V?$_Tmap_traits@W4AccessCategory@access@vanetza@@V?$list@UPendingTransmission@FlowControl@dcc@vanetza@@V?$allocator@UPendingTransmission@FlowControl@dcc@vanetza@@@std@@@std@@U?$greater@W4AccessCategory@access@vanetza@@@5@V?$allocator@U?$pair@$$CBW4AccessCategory@access@vanetza@@V?$list@UPendingTransmission@FlowControl@dcc@vanetza@@V?$allocator@UPendingTransmission@FlowControl@dcc@vanetza@@@std@@@std@@@std@@@5@$0A@@std@@@std@@QEAA?AV?$_Tree_unchecked_iterator@V?$_Tree_val@U?$_Tree_simple_types@U?$pair@$$CBW4AccessCategory@access@vanetza@@V?$list@UPendingTransmission@FlowControl@dcc@vanetza@@V?$allocator@UPendingTransmission@FlowControl@dcc@vanetza@@@std@@@std@@@std@@@std@@@std@@@2@XZ
	?_Unchecked_end@?$_Tree@V?$_Tmap_traits@W4AccessCategory@access@vanetza@@V?$list@UPendingTransmission@FlowControl@dcc@vanetza@@V?$allocator@UPendingTransmission@FlowControl@dcc@vanetza@@@std@@@std@@U?$greater@W4AccessCategory@access@vanetza@@@5@V?$allocator@U?$pair@$$CBW4AccessCategory@access@vanetza@@V?$list@UPendingTransmission@FlowControl@dcc@vanetza@@V?$allocator@UPendingTransmission@FlowControl@dcc@vanetza@@@std@@@std@@@std@@@5@$0A@@std@@@std@@QEBA?AU_Default_sentinel@2@XZ
	?_Unchecked_erase@?$list@UPendingTransmission@FlowControl@dcc@vanetza@@V?$allocator@UPendingTransmission@FlowControl@dcc@vanetza@@@std@@@std@@AEAAPEAU?$_List_node@UPendingTransmission@FlowControl@dcc@vanetza@@PEAX@2@QEAU32@@Z
	?_Unwrapped@?$_Array_const_iterator@N$04@std@@QEBAPEBNXZ
	?_Unwrapped@?$_String_const_iterator@V?$_String_val@U?$_Simple_types@D@std@@@std@@@std@@QEBAPEBDXZ
	?_Unwrapped@?$_Tree_const_iterator@V?$_Tree_val@U?$_Tree_simple_types@U?$pair@$$CBW4AccessCategory@access@vanetza@@V?$list@UPendingTransmission@FlowControl@dcc@vanetza@@V?$allocator@UPendingTransmission@FlowControl@dcc@vanetza@@@std@@@std@@@std@@@std@@@std@@@std@@QEBA?AV?$_Tree_unchecked_const_iterator@V?$_Tree_val@U?$_Tree_simple_types@U?$pair@$$CBW4AccessCategory@access@vanetza@@V?$list@UPendingTransmission@FlowControl@dcc@vanetza@@V?$allocator@UPendingTransmission@FlowControl@dcc@vanetza@@@std@@@std@@@std@@@std@@@std@@U_Iterator_base0@2@@2@XZ
	?_Unwrapped@?$_Tree_const_iterator@V?$_Tree_val@U?$_Tree_simple_types@UState@GradualStateMachine@dcc@vanetza@@@std@@@std@@@std@@QEBA?AV?$_Tree_unchecked_const_iterator@V?$_Tree_val@U?$_Tree_simple_types@UState@GradualStateMachine@dcc@vanetza@@@std@@@std@@U_Iterator_base0@2@@2@XZ
	?_Verify_offset@?$_String_const_iterator@V?$_String_val@U?$_Simple_types@D@std@@@std@@@std@@QEBAX_J@Z
	?_Verify_offset@?$_Vector_const_iterator@V?$_Vector_val@U?$_Simple_types@I@std@@@std@@@std@@QEBAX_J@Z
	?_Verify_range@std@@YAXAEBV?$_String_const_iterator@V?$_String_val@U?$_Simple_types@D@std@@@std@@@1@0@Z
	?_Verify_range@std@@YAXAEBV?$_Tree_const_iterator@V?$_Tree_val@U?$_Tree_simple_types@U?$pair@$$CBW4AccessCategory@access@vanetza@@V?$list@UPendingTransmission@FlowControl@dcc@vanetza@@V?$allocator@UPendingTransmission@FlowControl@dcc@vanetza@@@std@@@std@@@std@@@std@@@std@@@1@0@Z
	?_Verify_range@std@@YAXAEBV?$_Tree_const_iterator@V?$_Tree_val@U?$_Tree_simple_types@UState@GradualStateMachine@dcc@vanetza@@@std@@@std@@@1@0@Z
	?_Verify_range@std@@YAXAEBV?$_Vb_const_iterator@U?$_Wrap_alloc@V?$allocator@I@std@@@std@@@1@0@Z
	?_Verify_with@?$_Array_const_iterator@N$04@std@@QEBAXAEBV12@@Z
	?_Xlen@?$vector@_NV?$allocator@_N@std@@@std@@QEBAXXZ
	?_Xlen_string@std@@YAXXZ
	?_Xlength@?$vector@IV?$allocator@I@std@@@std@@CAXXZ
	?_Xlength@?$vector@U?$format_item@DU?$char_traits@D@std@@V?$allocator@D@2@@detail@io@boost@@V?$allocator@U?$format_item@DU?$char_traits@D@std@@V?$allocator@D@2@@detail@io@boost@@@std@@@std@@CAXXZ
	?__empty_global_delete@@YAXPEAX@Z
	?__empty_global_delete@@YAXPEAXW4align_val_t@std@@@Z
	?__empty_global_delete@@YAXPEAX_K@Z
	?__empty_global_delete@@YAXPEAX_KW4align_val_t@std@@@Z
	?add_ref@?$refcount_ptr@Uerror_info_container@exception_detail@boost@@@exception_detail@boost@@AEAAXXZ
	?address@?$aligned_storage@UDualAlphaParameters@Limeric@dcc@vanetza@@@optional_detail@boost@@QEAAPEAXXZ
	?address@?$aligned_storage@UDualAlphaParameters@Limeric@dcc@vanetza@@@optional_detail@boost@@QEBAPEBXXZ
	?address@?$aligned_storage@UPendingTransmission@FlowControl@dcc@vanetza@@@optional_detail@boost@@QEAAPEAXXZ
	?address@?$aligned_storage@V?$time_point@VClock@vanetza@@V?$duration@_JU?$ratio@$00$0PECEA@@std@@@chrono@std@@@chrono@std@@@optional_detail@boost@@QEAAPEAXXZ
	?address@?$aligned_storage@Vlocale@std@@@optional_detail@boost@@QEAAPEAXXZ
	?address@?$aligned_storage@Vlocale@std@@@optional_detail@boost@@QEBAPEBXXZ
	?adopt@?$refcount_ptr@Uerror_info_container@exception_detail@boost@@@exception_detail@boost@@QEAAXPEAUerror_info_container@23@@Z
	?alloc@?$circular_buffer@V?$time_point@VClock@vanetza@@V?$duration@_JU?$ratio@$00$0PECEA@@std@@@chrono@std@@@chrono@std@@V?$allocator@V?$time_point@VClock@vanetza@@V?$duration@_JU?$ratio@$00$0PECEA@@std@@@chrono@std@@@chrono@std@@@3@@boost@@AEAAAEAV?$allocator@V?$time_point@VClock@vanetza@@V?$duration@_JU?$ratio@$00$0PECEA@@std@@@chrono@std@@@chrono@std@@@std@@XZ
	?alloc@?$circular_buffer@V?$time_point@VClock@vanetza@@V?$duration@_JU?$ratio@$00$0PECEA@@std@@@chrono@std@@@chrono@std@@V?$allocator@V?$time_point@VClock@vanetza@@V?$duration@_JU?$ratio@$00$0PECEA@@std@@@chrono@std@@@chrono@std@@@3@@boost@@AEBAAEBV?$allocator@V?$time_point@VClock@vanetza@@V?$duration@_JU?$ratio@$00$0PECEA@@std@@@chrono@std@@@chrono@std@@@std@@XZ
	?alloc@?$circular_buffer@VChannelLoad@dcc@vanetza@@V?$allocator@VChannelLoad@dcc@vanetza@@@std@@@boost@@AEAAAEAV?$allocator@VChannelLoad@dcc@vanetza@@@std@@XZ
	?alloc@?$circular_buffer@VChannelLoad@dcc@vanetza@@V?$allocator@VChannelLoad@dcc@vanetza@@@std@@@boost@@AEBAAEBV?$allocator@VChannelLoad@dcc@vanetza@@@std@@XZ
	?allocate@?$allocator@D@std@@QEAAPEAD_K@Z
	?allocate@?$allocator@D@std@@QEAAPEAD_KPEBX@Z
	?allocate@?$allocator@I@std@@QEAAPEAI_K@Z
	?allocate@?$allocator@U?$_List_node@UPendingTransmission@FlowControl@dcc@vanetza@@PEAX@std@@@std@@QEAAPEAU?$_List_node@UPendingTransmission@FlowControl@dcc@vanetza@@PEAX@2@_K@Z
	?allocate@?$allocator@U?$_Tree_node@U?$pair@$$CBW4AccessCategory@access@vanetza@@V?$list@UPendingTransmission@FlowControl@dcc@vanetza@@V?$allocator@UPendingTransmission@FlowControl@dcc@vanetza@@@std@@@std@@@std@@PEAX@std@@@std@@QEAAPEAU?$_Tree_node@U?$pair@$$CBW4AccessCategory@access@vanetza@@V?$list@UPendingTransmission@FlowControl@dcc@vanetza@@V?$allocator@UPendingTransmission@FlowControl@dcc@vanetza@@@std@@@std@@@std@@PEAX@2@_K@Z
	?allocate@?$allocator@U?$_Tree_node@UState@GradualStateMachine@dcc@vanetza@@PEAX@std@@@std@@QEAAPEAU?$_Tree_node@UState@GradualStateMachine@dcc@vanetza@@PEAX@2@_K@Z
	?allocate@?$allocator@U?$format_item@DU?$char_traits@D@std@@V?$allocator@D@2@@detail@io@boost@@@std@@QEAAPEAU?$format_item@DU?$char_traits@D@std@@V?$allocator@D@2@@detail@io@boost@@_K@Z
	?allocate@?$allocator@U_Container_proxy@std@@@std@@QEAAPEAU_Container_proxy@2@_K@Z
	?allocate@?$allocator@V?$time_point@VClock@vanetza@@V?$duration@_JU?$ratio@$00$0PECEA@@std@@@chrono@std@@@chrono@std@@@std@@QEAAPEAV?$time_point@VClock@vanetza@@V?$duration@_JU?$ratio@$00$0PECEA@@std@@@chrono@std@@@chrono@2@_K@Z
	?allocate@?$allocator@VChannelLoad@dcc@vanetza@@@std@@QEAAPEAVChannelLoad@dcc@vanetza@@_K@Z
	?allocate@?$circular_buffer@V?$time_point@VClock@vanetza@@V?$duration@_JU?$ratio@$00$0PECEA@@std@@@chrono@std@@@chrono@std@@V?$allocator@V?$time_point@VClock@vanetza@@V?$duration@_JU?$ratio@$00$0PECEA@@std@@@chrono@std@@@chrono@std@@@3@@boost@@AEAAPEAV?$time_point@VClock@vanetza@@V?$duration@_JU?$ratio@$00$0PECEA@@std@@@chrono@std@@@chrono@std@@_K@Z
	?allocate@?$circular_buffer@VChannelLoad@dcc@vanetza@@V?$allocator@VChannelLoad@dcc@vanetza@@@std@@@boost@@AEAAPEAVChannelLoad@dcc@vanetza@@_K@Z
	?append@?$basic_string@DU?$char_traits@D@std@@V?$allocator@D@2@@std@@QEAAAEAV12@AEBV12@@Z
	?append@?$basic_string@DU?$char_traits@D@std@@V?$allocator@D@2@@std@@QEAAAEAV12@QEBD_K@Z
	?append@?$basic_string@DU?$char_traits@D@std@@V?$allocator@D@2@@std@@QEAAAEAV12@_KD@Z
	?apply_on@?$stream_format_state@DU?$char_traits@D@std@@@detail@io@boost@@QEBAXAEAV?$basic_ios@DU?$char_traits@D@std@@@std@@PEAVlocale@6@@Z
	?assign@?$_Narrow_char_traits@DH@std@@SAPEADQEAD_KD@Z
	?assign@?$_Narrow_char_traits@DH@std@@SAXAEADAEBD@Z
	?assign@?$basic_string@DU?$char_traits@D@std@@V?$allocator@D@2@@std@@QEAAAEAV12@QEBD_K@Z
	?assign@?$optional_base@UDualAlphaParameters@Limeric@dcc@vanetza@@@optional_detail@boost@@IEAAXAEBV123@@Z
	?assign@?$optional_base@UPendingTransmission@FlowControl@dcc@vanetza@@@optional_detail@boost@@IEAAX$$QEAUPendingTransmission@FlowControl@dcc@vanetza@@@Z
	?assign@?$optional_base@V?$time_point@VClock@vanetza@@V?$duration@_JU?$ratio@$00$0PECEA@@std@@@chrono@std@@@chrono@std@@@optional_detail@boost@@IEAAX$$QEAV?$time_point@VClock@vanetza@@V?$duration@_JU?$ratio@$00$0PECEA@@std@@@chrono@std@@@chrono@std@@@Z
	?assign@?$optional_base@Vlocale@std@@@optional_detail@boost@@IEAAXAEBV123@@Z
	?assign@?$vector@U?$format_item@DU?$char_traits@D@std@@V?$allocator@D@2@@detail@io@boost@@V?$allocator@U?$format_item@DU?$char_traits@D@std@@V?$allocator@D@2@@detail@io@boost@@@std@@@std@@QEAAX_KAEBU?$format_item@DU?$char_traits@D@std@@V?$allocator@D@2@@detail@io@boost@@@Z
	?assign_value@?$optional_base@UDualAlphaParameters@Limeric@dcc@vanetza@@@optional_detail@boost@@IEAAXAEBUDualAlphaParameters@Limeric@dcc@vanetza@@@Z
	?assign_value@?$optional_base@UPendingTransmission@FlowControl@dcc@vanetza@@@optional_detail@boost@@IEAAX$$QEAUPendingTransmission@FlowControl@dcc@vanetza@@@Z
	?assign_value@?$optional_base@V?$time_point@VClock@vanetza@@V?$duration@_JU?$ratio@$00$0PECEA@@std@@@chrono@std@@@chrono@std@@@optional_detail@boost@@IEAAX$$QEAV?$time_point@VClock@vanetza@@V?$duration@_JU?$ratio@$00$0PECEA@@std@@@chrono@std@@@chrono@std@@@Z
	?assign_value@?$optional_base@Vlocale@std@@@optional_detail@boost@@IEAAXAEBVlocale@std@@@Z
	?atomic_decrement@detail@boost@@YAHPEAU?$atomic@H@std@@@Z
	?average_cbr@Limeric@dcc@vanetza@@QEBA?AVChannelLoad@23@XZ
	?back@?$list@UPendingTransmission@FlowControl@dcc@vanetza@@V?$allocator@UPendingTransmission@FlowControl@dcc@vanetza@@@std@@@std@@QEAAAEAUPendingTransmission@FlowControl@dcc@vanetza@@XZ
	?begin@?$_Tree@V?$_Tmap_traits@W4AccessCategory@access@vanetza@@V?$list@UPendingTransmission@FlowControl@dcc@vanetza@@V?$allocator@UPendingTransmission@FlowControl@dcc@vanetza@@@std@@@std@@U?$greater@W4AccessCategory@access@vanetza@@@5@V?$allocator@U?$pair@$$CBW4AccessCategory@access@vanetza@@V?$list@UPendingTransmission@FlowControl@dcc@vanetza@@V?$allocator@UPendingTransmission@FlowControl@dcc@vanetza@@@std@@@std@@@std@@@5@$0A@@std@@@std@@QEBA?AV?$_Tree_const_iterator@V?$_Tree_val@U?$_Tree_simple_types@U?$pair@$$CBW4AccessCategory@access@vanetza@@V?$list@UPendingTransmission@FlowControl@dcc@vanetza@@V?$allocator@UPendingTransmission@FlowControl@dcc@vanetza@@@std@@@std@@@std@@@std@@@std@@@2@XZ
	?begin@?$_Tree@V?$_Tset_traits@UState@GradualStateMachine@dcc@vanetza@@U?$less@UState@GradualStateMachine@dcc@vanetza@@@std@@V?$allocator@UState@GradualStateMachine@dcc@vanetza@@@6@$0A@@std@@@std@@QEAA?AV?$_Tree_const_iterator@V?$_Tree_val@U?$_Tree_simple_types@UState@GradualStateMachine@dcc@vanetza@@@std@@@std@@@2@XZ
	?begin@?$_Tree@V?$_Tset_traits@UState@GradualStateMachine@dcc@vanetza@@U?$less@UState@GradualStateMachine@dcc@vanetza@@@std@@V?$allocator@UState@GradualStateMachine@dcc@vanetza@@@6@$0A@@std@@@std@@QEBA?AV?$_Tree_const_iterator@V?$_Tree_val@U?$_Tree_simple_types@UState@GradualStateMachine@dcc@vanetza@@@std@@@std@@@2@XZ
	?begin@?$array@N$04@std@@QEBA?AV?$_Array_const_iterator@N$04@2@XZ
	?begin@?$basic_string@DU?$char_traits@D@std@@V?$allocator@D@2@@std@@QEBA?AV?$_String_const_iterator@V?$_String_val@U?$_Simple_types@D@std@@@std@@@2@XZ
	?begin@?$circular_buffer@V?$time_point@VClock@vanetza@@V?$duration@_JU?$ratio@$00$0PECEA@@std@@@chrono@std@@@chrono@std@@V?$allocator@V?$time_point@VClock@vanetza@@V?$duration@_JU?$ratio@$00$0PECEA@@std@@@chrono@std@@@chrono@std@@@3@@boost@@QEAA?AU?$iterator@V?$circular_buffer@V?$time_point@VClock@vanetza@@V?$duration@_JU?$ratio@$00$0PECEA@@std@@@chrono@std@@@chrono@std@@V?$allocator@V?$time_point@VClock@vanetza@@V?$duration@_JU?$ratio@$00$0PECEA@@std@@@chrono@std@@@chrono@std@@@3@@boost@@U?$nonconst_traits@V?$allocator@V?$time_point@VClock@vanetza@@V?$duration@_JU?$ratio@$00$0PECEA@@std@@@chrono@std@@@chrono@std@@@std@@@cb_details@2@@cb_details@2@XZ
	?begin@?$circular_buffer@VChannelLoad@dcc@vanetza@@V?$allocator@VChannelLoad@dcc@vanetza@@@std@@@boost@@QEAA?AU?$iterator@V?$circular_buffer@VChannelLoad@dcc@vanetza@@V?$allocator@VChannelLoad@dcc@vanetza@@@std@@@boost@@U?$nonconst_traits@V?$allocator@VChannelLoad@dcc@vanetza@@@std@@@cb_details@2@@cb_details@2@XZ
	?begin@?$circular_buffer@VChannelLoad@dcc@vanetza@@V?$allocator@VChannelLoad@dcc@vanetza@@@std@@@boost@@QEBA?AU?$iterator@V?$circular_buffer@VChannelLoad@dcc@vanetza@@V?$allocator@VChannelLoad@dcc@vanetza@@@std@@@boost@@U?$const_traits@V?$allocator@VChannelLoad@dcc@vanetza@@@std@@@cb_details@2@@cb_details@2@XZ
	?begin@?$initializer_list@UState@GradualStateMachine@dcc@vanetza@@@std@@QEBAPEBUState@GradualStateMachine@dcc@vanetza@@XZ
	?begin@?$vector@IV?$allocator@I@std@@@std@@QEAA?AV?$_Vector_iterator@V?$_Vector_val@U?$_Simple_types@I@std@@@std@@@2@XZ
	?begin@?$vector@_NV?$allocator@_N@std@@@std@@QEAA?AV?$_Vb_iterator@U?$_Wrap_alloc@V?$allocator@I@std@@@std@@@2@XZ
	?body_length@PendingTransmission@FlowControl@dcc@vanetza@@UEBA_KXZ
	?body_length@TransmissionLite@dcc@vanetza@@UEBA_KXZ
	?burst_duration@BurstBudget@dcc@vanetza@@QEAAXV?$duration@_JU?$ratio@$00$0PECEA@@std@@@chrono@std@@@Z
	?burst_messages@BurstBudget@dcc@vanetza@@QEAAX_K@Z
	?burst_period@BurstBudget@dcc@vanetza@@QEAAXV?$duration@_JU?$ratio@$00$0PECEA@@std@@@chrono@std@@@Z
	?burst_period@BurstBudget@dcc@vanetza@@QEBA?AV?$duration@_JU?$ratio@$00$0PECEA@@std@@@chrono@std@@XZ
	?bytes_per_second@DataRateG5@access@vanetza@@QEBAIXZ
	?calculate@Limeric@dcc@vanetza@@AEAAXV?$time_point@VClock@vanetza@@V?$duration@_JU?$ratio@$00$0PECEA@@std@@@chrono@std@@@chrono@std@@@Z
	?calculate_duty_cycle@Limeric@dcc@vanetza@@AEBA?AVUnitInterval@3@XZ
	?capacity@?$circular_buffer@V?$time_point@VClock@vanetza@@V?$duration@_JU?$ratio@$00$0PECEA@@std@@@chrono@std@@@chrono@std@@V?$allocator@V?$time_point@VClock@vanetza@@V?$duration@_JU?$ratio@$00$0PECEA@@std@@@chrono@std@@@chrono@std@@@3@@boost@@QEBA_KXZ
	?capacity@?$circular_buffer@VChannelLoad@dcc@vanetza@@V?$allocator@VChannelLoad@dcc@vanetza@@@std@@@boost@@QEBA_KXZ
	?capacity@?$vector@IV?$allocator@I@std@@@std@@QEBA_KXZ
	?capacity@?$vector@U?$format_item@DU?$char_traits@D@std@@V?$allocator@D@2@@detail@io@boost@@V?$allocator@U?$format_item@DU?$char_traits@D@std@@V?$allocator@D@2@@detail@io@boost@@@std@@@std@@QEBA_KXZ
	?capacity@?$vector@_NV?$allocator@_N@std@@@std@@QEBA_KXZ
	?cbegin@?$_Tree@V?$_Tmap_traits@W4AccessCategory@access@vanetza@@V?$list@UPendingTransmission@FlowControl@dcc@vanetza@@V?$allocator@UPendingTransmission@FlowControl@dcc@vanetza@@@std@@@std@@U?$greater@W4AccessCategory@access@vanetza@@@5@V?$allocator@U?$pair@$$CBW4AccessCategory@access@vanetza@@V?$list@UPendingTransmission@FlowControl@dcc@vanetza@@V?$allocator@UPendingTransmission@FlowControl@dcc@vanetza@@@std@@@std@@@std@@@5@$0A@@std@@@std@@QEBA?AV?$_Tree_const_iterator@V?$_Tree_val@U?$_Tree_simple_types@U?$pair@$$CBW4AccessCategory@access@vanetza@@V?$list@UPendingTransmission@FlowControl@dcc@vanetza@@V?$allocator@UPendingTransmission@FlowControl@dcc@vanetza@@@std@@@std@@@std@@@std@@@std@@@2@XZ
	?cend@?$_Tree@V?$_Tmap_traits@W4AccessCategory@access@vanetza@@V?$list@UPendingTransmission@FlowControl@dcc@vanetza@@V?$allocator@UPendingTransmission@FlowControl@dcc@vanetza@@@std@@@std@@U?$greater@W4AccessCategory@access@vanetza@@@5@V?$allocator@U?$pair@$$CBW4AccessCategory@access@vanetza@@V?$list@UPendingTransmission@FlowControl@dcc@vanetza@@V?$allocator@UPendingTransmission@FlowControl@dcc@vanetza@@@std@@@std@@@std@@@5@$0A@@std@@@std@@QEBA?AV?$_Tree_const_iterator@V?$_Tree_val@U?$_Tree_simple_types@U?$pair@$$CBW4AccessCategory@access@vanetza@@V?$list@UPendingTransmission@FlowControl@dcc@vanetza@@V?$allocator@UPendingTransmission@FlowControl@dcc@vanetza@@@std@@@std@@@std@@@std@@@std@@@2@XZ
	?channel_load@SmoothingChannelProbeProcessor@dcc@vanetza@@QEBA?AVChannelLoad@23@XZ
	?channel_occupancy@Transmission@dcc@vanetza@@UEBA?AV?$duration@_JU?$ratio@$00$0PECEA@@std@@@chrono@std@@XZ
	?clamp@UnitInterval@vanetza@@CANN@Z
	?clamp_interval@LimericBudget@dcc@vanetza@@AEBA?AV?$duration@_JU?$ratio@$00$0PECEA@@std@@@chrono@std@@V456@@Z
	?clear@?$basic_format@DU?$char_traits@D@std@@V?$allocator@D@2@@boost@@QEAAAEAV12@XZ
	?clear@?$circular_buffer@V?$time_point@VClock@vanetza@@V?$duration@_JU?$ratio@$00$0PECEA@@std@@@chrono@std@@@chrono@std@@V?$allocator@V?$time_point@VClock@vanetza@@V?$duration@_JU?$ratio@$00$0PECEA@@std@@@chrono@std@@@chrono@std@@@3@@boost@@QEAAXXZ
	?clear_buffer@?$basic_altstringbuf@DU?$char_traits@D@std@@V?$allocator@D@2@@io@boost@@QEAAXXZ
	?clone@?$wrapexcept@Vbad_format_string@io@boost@@@boost@@UEBAPEBVclone_base@exception_detail@2@XZ
	?clone@?$wrapexcept@Vlength_error@std@@@boost@@UEBAPEBVclone_base@exception_detail@2@XZ
	?clone@?$wrapexcept@Vtoo_few_args@io@boost@@@boost@@UEBAPEBVclone_base@exception_detail@2@XZ
	?clone@?$wrapexcept@Vtoo_many_args@io@boost@@@boost@@UEBAPEBVclone_base@exception_detail@2@XZ
	?compute_states@?$format_item@DU?$char_traits@D@std@@V?$allocator@D@2@@detail@io@boost@@QEAAXXZ
	?configure_dual_alpha@Limeric@dcc@vanetza@@QEAAXAEBV?$optional@UDualAlphaParameters@Limeric@dcc@vanetza@@@boost@@@Z
	?construct@?$optional_base@UDualAlphaParameters@Limeric@dcc@vanetza@@@optional_detail@boost@@IEAAXAEBUDualAlphaParameters@Limeric@dcc@vanetza@@@Z
	?construct@?$optional_base@UPendingTransmission@FlowControl@dcc@vanetza@@@optional_detail@boost@@IEAAX$$QEAUPendingTransmission@FlowControl@dcc@vanetza@@@Z
	?construct@?$optional_base@V?$time_point@VClock@vanetza@@V?$duration@_JU?$ratio@$00$0PECEA@@std@@@chrono@std@@@chrono@std@@@optional_detail@boost@@IEAAX$$QEAV?$time_point@VClock@vanetza@@V?$duration@_JU?$ratio@$00$0PECEA@@std@@@chrono@std@@@chrono@std@@@Z
	?construct@?$optional_base@Vlocale@std@@@optional_detail@boost@@IEAAX$$QEAVlocale@std@@@Z
	?construct@?$optional_base@Vlocale@std@@@optional_detail@boost@@IEAAXAEBVlocale@std@@@Z
	?construct_or_replace@?$circular_buffer@V?$time_point@VClock@vanetza@@V?$duration@_JU?$ratio@$00$0PECEA@@std@@@chrono@std@@@chrono@std@@V?$allocator@V?$time_point@VClock@vanetza@@V?$duration@_JU?$ratio@$00$0PECEA@@std@@@chrono@std@@@chrono@std@@@3@@boost@@AEAAX_NPEAV?$time_point@VClock@vanetza@@V?$duration@_JU?$ratio@$00$0PECEA@@std@@@chrono@std@@@chrono@std@@AEBV345@@Z
	?copy@?$_Char_traits@DH@std@@SAPEADQEADQEBD_K@Z
	?copy_boost_exception@exception_detail@boost@@YAXPEAVexception@2@PEBV32@@Z
	?copy_from@?$wrapexcept@Vbad_format_string@io@boost@@@boost@@AEAAXPEBX@Z
	?copy_from@?$wrapexcept@Vlength_error@std@@@boost@@AEAAXPEBX@Z
	?copy_from@?$wrapexcept@Vtoo_few_args@io@boost@@@boost@@AEAAXPEBX@Z
	?copy_from@?$wrapexcept@Vtoo_many_args@io@boost@@@boost@@AEAAXPEBX@Z
	?count@?$duration@NU?$ratio@$00$00@std@@@chrono@std@@QEBANXZ
	?count@?$duration@NU?$ratio@$00$0PECEA@@std@@@chrono@std@@QEBANXZ
	?count@?$duration@_JU?$ratio@$00$00@std@@@chrono@std@@QEBA_JXZ
	?count@?$duration@_JU?$ratio@$00$0DOI@@std@@@chrono@std@@QEBA_JXZ
	?count@?$duration@_JU?$ratio@$00$0PECEA@@std@@@chrono@std@@QEBA_JXZ
	?create_from_probes@ChannelLoad@dcc@vanetza@@SA?AVUnitInterval@3@II@Z
	?data@?$vector@IV?$allocator@I@std@@@std@@QEAAPEAIXZ
	?data@?$vector@IV?$allocator@I@std@@@std@@QEBAPEBIXZ
	?data_rate@PendingTransmission@FlowControl@dcc@vanetza@@UEBAPEBVDataRateG5@access@4@XZ
	?data_rate@TransmissionLite@dcc@vanetza@@UEBAPEBVDataRateG5@access@3@XZ
	?dealloc@?$basic_altstringbuf@DU?$char_traits@D@std@@V?$allocator@D@2@@io@boost@@IEAAXXZ
	?deallocate@?$_Default_allocator_traits@V?$allocator@U?$_List_node@UPendingTransmission@FlowControl@dcc@vanetza@@PEAX@std@@@std@@@std@@SAXAEAV?$allocator@U?$_List_node@UPendingTransmission@FlowControl@dcc@vanetza@@PEAX@std@@@2@QEAU?$_List_node@UPendingTransmission@FlowControl@dcc@vanetza@@PEAX@2@_K@Z
	?deallocate@?$_Default_allocator_traits@V?$allocator@U?$_Tree_node@U?$pair@$$CBW4AccessCategory@access@vanetza@@V?$list@UPendingTransmission@FlowControl@dcc@vanetza@@V?$allocator@UPendingTransmission@FlowControl@dcc@vanetza@@@std@@@std@@@std@@PEAX@std@@@std@@@std@@SAXAEAV?$allocator@U?$_Tree_node@U?$pair@$$CBW4AccessCategory@access@vanetza@@V?$list@UPendingTransmission@FlowControl@dcc@vanetza@@V?$allocator@UPendingTransmission@FlowControl@dcc@vanetza@@@std@@@std@@@std@@PEAX@std@@@2@QEAU?$_Tree_node@U?$pair@$$CBW4AccessCategory@access@vanetza@@V?$list@UPendingTransmission@FlowControl@dcc@vanetza@@V?$allocator@UPendingTransmission@FlowControl@dcc@vanetza@@@std@@@std@@@std@@PEAX@2@_K@Z
	?deallocate@?$_Default_allocator_traits@V?$allocator@U?$_Tree_node@U?$pair@$$CBW4OsiLayer@vanetza@@VByteBufferConvertible@2@@std@@PEAX@std@@@std@@@std@@SAXAEAV?$allocator@U?$_Tree_node@U?$pair@$$CBW4OsiLayer@vanetza@@VByteBufferConvertible@2@@std@@PEAX@std@@@2@QEAU?$_Tree_node@U?$pair@$$CBW4OsiLayer@vanetza@@VByteBufferConvertible@2@@std@@PEAX@2@_K@Z
	?deallocate@?$_Default_allocator_traits@V?$allocator@U?$_Tree_node@UState@GradualStateMachine@dcc@vanetza@@PEAX@std@@@std@@@std@@SAXAEAV?$allocator@U?$_Tree_node@UState@GradualStateMachine@dcc@vanetza@@PEAX@std@@@2@QEAU?$_Tree_node@UState@GradualStateMachine@dcc@vanetza@@PEAX@2@_K@Z
	?deallocate@?$_Default_allocator_traits@V?$allocator@U_Container_proxy@std@@@std@@@std@@SAXAEAV?$allocator@U_Container_proxy@std@@@2@QEAU_Container_proxy@2@_K@Z
	?deallocate@?$allocator@D@std@@QEAAXQEAD_K@Z
	?deallocate@?$allocator@I@std@@QEAAXQEAI_K@Z
	?deallocate@?$allocator@U?$_List_node@UPendingTransmission@FlowControl@dcc@vanetza@@PEAX@std@@@std@@QEAAXQEAU?$_List_node@UPendingTransmission@FlowControl@dcc@vanetza@@PEAX@2@_K@Z
	?deallocate@?$allocator@U?$_Tree_node@U?$pair@$$CBW4AccessCategory@access@vanetza@@V?$list@UPendingTransmission@FlowControl@dcc@vanetza@@V?$allocator@UPendingTransmission@FlowControl@dcc@vanetza@@@std@@@std@@@std@@PEAX@std@@@std@@QEAAXQEAU?$_Tree_node@U?$pair@$$CBW4AccessCategory@access@vanetza@@V?$list@UPendingTransmission@FlowControl@dcc@vanetza@@V?$allocator@UPendingTransmission@FlowControl@dcc@vanetza@@@std@@@std@@@std@@PEAX@2@_K@Z
	?deallocate@?$allocator@U?$_Tree_node@UState@GradualStateMachine@dcc@vanetza@@PEAX@std@@@std@@QEAAXQEAU?$_Tree_node@UState@GradualStateMachine@dcc@vanetza@@PEAX@2@_K@Z
	?deallocate@?$allocator@U?$format_item@DU?$char_traits@D@std@@V?$allocator@D@2@@detail@io@boost@@@std@@QEAAXQEAU?$format_item@DU?$char_traits@D@std@@V?$allocator@D@2@@detail@io@boost@@_K@Z
	?deallocate@?$allocator@V?$time_point@VClock@vanetza@@V?$duration@_JU?$ratio@$00$0PECEA@@std@@@chrono@std@@@chrono@std@@@std@@QEAAXQEAV?$time_point@VClock@vanetza@@V?$duration@_JU?$ratio@$00$0PECEA@@std@@@chrono@std@@@chrono@2@_K@Z
	?deallocate@?$allocator@VChannelLoad@dcc@vanetza@@@std@@QEAAXQEAVChannelLoad@dcc@vanetza@@_K@Z
	?deallocate@?$circular_buffer@V?$time_point@VClock@vanetza@@V?$duration@_JU?$ratio@$00$0PECEA@@std@@@chrono@std@@@chrono@std@@V?$allocator@V?$time_point@VClock@vanetza@@V?$duration@_JU?$ratio@$00$0PECEA@@std@@@chrono@std@@@chrono@std@@@3@@boost@@AEAAXPEAV?$time_point@VClock@vanetza@@V?$duration@_JU?$ratio@$00$0PECEA@@std@@@chrono@std@@@chrono@std@@_K@Z
	?deallocate@?$circular_buffer@VChannelLoad@dcc@vanetza@@V?$allocator@VChannelLoad@dcc@vanetza@@@std@@@boost@@AEAAXPEAVChannelLoad@dcc@vanetza@@_K@Z
	?delay@BurstBudget@dcc@vanetza@@QEAA?AV?$duration@_JU?$ratio@$00$0PECEA@@std@@@chrono@std@@XZ
	?delay@BurstyTransmitRateControl@dcc@vanetza@@UEAA?AV?$duration@_JU?$ratio@$00$0PECEA@@std@@@chrono@std@@AEBVTransmission@23@@Z
	?delay@LimericBudget@dcc@vanetza@@QEAA?AV?$duration@_JU?$ratio@$00$0PECEA@@std@@@chrono@std@@XZ
	?delay@LimericTransmitRateControl@dcc@vanetza@@UEAA?AV?$duration@_JU?$ratio@$00$0PECEA@@std@@@chrono@std@@AEBVTransmission@23@@Z
	?delay@SingleReactiveTransmitRateControl@dcc@vanetza@@UEAA?AV?$duration@_JU?$ratio@$00$0PECEA@@std@@@chrono@std@@AEBVTransmission@23@@Z
	?delay@StateMachineBudget@dcc@vanetza@@QEAA?AV?$duration@_JU?$ratio@$00$0PECEA@@std@@@chrono@std@@XZ
	?dequeue@FlowControl@dcc@vanetza@@AEAA?AV?$optional@UPendingTransmission@FlowControl@dcc@vanetza@@@boost@@XZ
	?destroy@?$circular_buffer@V?$time_point@VClock@vanetza@@V?$duration@_JU?$ratio@$00$0PECEA@@std@@@chrono@std@@@chrono@std@@V?$allocator@V?$time_point@VClock@vanetza@@V?$duration@_JU?$ratio@$00$0PECEA@@std@@@chrono@std@@@chrono@std@@@3@@boost@@AEAAXXZ
	?destroy@?$circular_buffer@VChannelLoad@dcc@vanetza@@V?$allocator@VChannelLoad@dcc@vanetza@@@std@@@boost@@AEAAXXZ
	?destroy@?$optional_base@UDualAlphaParameters@Limeric@dcc@vanetza@@@optional_detail@boost@@IEAAXXZ
	?destroy@?$optional_base@UPendingTransmission@FlowControl@dcc@vanetza@@@optional_detail@boost@@IEAAXXZ
	?destroy@?$optional_base@V?$time_point@VClock@vanetza@@V?$duration@_JU?$ratio@$00$0PECEA@@std@@@chrono@std@@@chrono@std@@@optional_detail@boost@@IEAAXXZ
	?destroy@?$optional_base@Vlocale@std@@@optional_detail@boost@@IEAAXXZ
	?destroy@sp_counted_base@detail@boost@@UEAAXXZ
	?destroy_content@?$circular_buffer@V?$time_point@VClock@vanetza@@V?$duration@_JU?$ratio@$00$0PECEA@@std@@@chrono@std@@@chrono@std@@V?$allocator@V?$time_point@VClock@vanetza@@V?$duration@_JU?$ratio@$00$0PECEA@@std@@@chrono@std@@@chrono@std@@@3@@boost@@AEAAXAEBU?$integral_constant@_N$0A@@2@@Z
	?destroy_content@?$circular_buffer@V?$time_point@VClock@vanetza@@V?$duration@_JU?$ratio@$00$0PECEA@@std@@@chrono@std@@@chrono@std@@V?$allocator@V?$time_point@VClock@vanetza@@V?$duration@_JU?$ratio@$00$0PECEA@@std@@@chrono@std@@@chrono@std@@@3@@boost@@AEAAXXZ
	?destroy_content@?$circular_buffer@VChannelLoad@dcc@vanetza@@V?$allocator@VChannelLoad@dcc@vanetza@@@std@@@boost@@AEAAXAEBU?$integral_constant@_N$0A@@2@@Z
	?destroy_content@?$circular_buffer@VChannelLoad@dcc@vanetza@@V?$allocator@VChannelLoad@dcc@vanetza@@@std@@@boost@@AEAAXXZ
	?destroy_if_constructed@?$circular_buffer@V?$time_point@VClock@vanetza@@V?$duration@_JU?$ratio@$00$0PECEA@@std@@@chrono@std@@@chrono@std@@V?$allocator@V?$time_point@VClock@vanetza@@V?$duration@_JU?$ratio@$00$0PECEA@@std@@@chrono@std@@@chrono@std@@@3@@boost@@AEAAXPEAV?$time_point@VClock@vanetza@@V?$duration@_JU?$ratio@$00$0PECEA@@std@@@chrono@std@@@chrono@std@@@Z
	?destroy_impl@?$optional_base@UDualAlphaParameters@Limeric@dcc@vanetza@@@optional_detail@boost@@AEAAXXZ
	?destroy_impl@?$optional_base@UPendingTransmission@FlowControl@dcc@vanetza@@@optional_detail@boost@@AEAAXXZ
	?destroy_impl@?$optional_base@V?$time_point@VClock@vanetza@@V?$duration@_JU?$ratio@$00$0PECEA@@std@@@chrono@std@@@chrono@std@@@optional_detail@boost@@AEAAXXZ
	?destroy_impl@?$optional_base@Vlocale@std@@@optional_detail@boost@@AEAAXXZ
	?destroy_item@?$circular_buffer@V?$time_point@VClock@vanetza@@V?$duration@_JU?$ratio@$00$0PECEA@@std@@@chrono@std@@@chrono@std@@V?$allocator@V?$time_point@VClock@vanetza@@V?$duration@_JU?$ratio@$00$0PECEA@@std@@@chrono@std@@@chrono@std@@@3@@boost@@AEAAXPEAV?$time_point@VClock@vanetza@@V?$duration@_JU?$ratio@$00$0PECEA@@std@@@chrono@std@@@chrono@std@@@Z
	?destroy_item@?$circular_buffer@VChannelLoad@dcc@vanetza@@V?$allocator@VChannelLoad@dcc@vanetza@@@std@@@boost@@AEAAXPEAVChannelLoad@dcc@vanetza@@@Z
	?dispose@?$sp_counted_impl_pd@PEAV?$basic_altstringbuf@DU?$char_traits@D@std@@V?$allocator@D@2@@io@boost@@VNo_Op@?$basic_oaltstringstream@DU?$char_traits@D@std@@V?$allocator@D@2@@23@@detail@boost@@UEAAXXZ
	?drop_expired@FlowControl@dcc@vanetza@@AEAAXXZ
	?empty@?$_Tree@V?$_Tset_traits@UState@GradualStateMachine@dcc@vanetza@@U?$less@UState@GradualStateMachine@dcc@vanetza@@@std@@V?$allocator@UState@GradualStateMachine@dcc@vanetza@@@6@$0A@@std@@@std@@QEBA_NXZ
	?empty@?$circular_buffer@V?$time_point@VClock@vanetza@@V?$duration@_JU?$ratio@$00$0PECEA@@std@@@chrono@std@@@chrono@std@@V?$allocator@V?$time_point@VClock@vanetza@@V?$duration@_JU?$ratio@$00$0PECEA@@std@@@chrono@std@@@chrono@std@@@3@@boost@@QEBA_NXZ
	?empty@?$circular_buffer@VChannelLoad@dcc@vanetza@@V?$allocator@VChannelLoad@dcc@vanetza@@@std@@@boost@@QEBA_NXZ
	?empty@?$list@UPendingTransmission@FlowControl@dcc@vanetza@@V?$allocator@UPendingTransmission@FlowControl@dcc@vanetza@@@std@@@std@@QEBA_NXZ
	?empty@?$vector@_NV?$allocator@_N@std@@@std@@QEBA_NXZ
	?empty@FlowControl@dcc@vanetza@@AEBA_NXZ
	?end@?$_Tree@V?$_Tmap_traits@W4AccessCategory@access@vanetza@@V?$list@UPendingTransmission@FlowControl@dcc@vanetza@@V?$allocator@UPendingTransmission@FlowControl@dcc@vanetza@@@std@@@std@@U?$greater@W4AccessCategory@access@vanetza@@@5@V?$allocator@U?$pair@$$CBW4AccessCategory@access@vanetza@@V?$list@UPendingTransmission@FlowControl@dcc@vanetza@@V?$allocator@UPendingTransmission@FlowControl@dcc@vanetza@@@std@@@std@@@std@@@5@$0A@@std@@@std@@QEBA?AV?$_Tree_const_iterator@V?$_Tree_val@U?$_Tree_simple_types@U?$pair@$$CBW4AccessCategory@access@vanetza@@V?$list@UPendingTransmission@FlowControl@dcc@vanetza@@V?$allocator@UPendingTransmission@FlowControl@dcc@vanetza@@@std@@@std@@@std@@@std@@@std@@@2@XZ
	?end@?$_Tree@V?$_Tset_traits@UState@GradualStateMachine@dcc@vanetza@@U?$less@UState@GradualStateMachine@dcc@vanetza@@@std@@V?$allocator@UState@GradualStateMachine@dcc@vanetza@@@6@$0A@@std@@@std@@QEAA?AV?$_Tree_const_iterator@V?$_Tree_val@U?$_Tree_simple_types@UState@GradualStateMachine@dcc@vanetza@@@std@@@std@@@2@XZ
	?end@?$_Tree@V?$_Tset_traits@UState@GradualStateMachine@dcc@vanetza@@U?$less@UState@GradualStateMachine@dcc@vanetza@@@std@@V?$allocator@UState@GradualStateMachine@dcc@vanetza@@@6@$0A@@std@@@std@@QEBA?AV?$_Tree_const_iterator@V?$_Tree_val@U?$_Tree_simple_types@UState@GradualStateMachine@dcc@vanetza@@@std@@@std@@@2@XZ
	?end@?$array@N$04@std@@QEBA?AV?$_Array_const_iterator@N$04@2@XZ
	?end@?$basic_string@DU?$char_traits@D@std@@V?$allocator@D@2@@std@@QEBA?AV?$_String_const_iterator@V?$_String_val@U?$_Simple_types@D@std@@@std@@@2@XZ
	?end@?$circular_buffer@V?$time_point@VClock@vanetza@@V?$duration@_JU?$ratio@$00$0PECEA@@std@@@chrono@std@@@chrono@std@@V?$allocator@V?$time_point@VClock@vanetza@@V?$duration@_JU?$ratio@$00$0PECEA@@std@@@chrono@std@@@chrono@std@@@3@@boost@@QEAA?AU?$iterator@V?$circular_buffer@V?$time_point@VClock@vanetza@@V?$duration@_JU?$ratio@$00$0PECEA@@std@@@chrono@std@@@chrono@std@@V?$allocator@V?$time_point@VClock@vanetza@@V?$duration@_JU?$ratio@$00$0PECEA@@std@@@chrono@std@@@chrono@std@@@3@@boost@@U?$nonconst_traits@V?$allocator@V?$time_point@VClock@vanetza@@V?$duration@_JU?$ratio@$00$0PECEA@@std@@@chrono@std@@@chrono@std@@@std@@@cb_details@2@@cb_details@2@XZ
	?end@?$circular_buffer@VChannelLoad@dcc@vanetza@@V?$allocator@VChannelLoad@dcc@vanetza@@@std@@@boost@@QEAA?AU?$iterator@V?$circular_buffer@VChannelLoad@dcc@vanetza@@V?$allocator@VChannelLoad@dcc@vanetza@@@std@@@boost@@U?$nonconst_traits@V?$allocator@VChannelLoad@dcc@vanetza@@@std@@@cb_details@2@@cb_details@2@XZ
	?end@?$circular_buffer@VChannelLoad@dcc@vanetza@@V?$allocator@VChannelLoad@dcc@vanetza@@@std@@@boost@@QEBA?AU?$iterator@V?$circular_buffer@VChannelLoad@dcc@vanetza@@V?$allocator@VChannelLoad@dcc@vanetza@@@std@@@boost@@U?$const_traits@V?$allocator@VChannelLoad@dcc@vanetza@@@std@@@cb_details@2@@cb_details@2@XZ
	?end@?$initializer_list@UState@GradualStateMachine@dcc@vanetza@@@std@@QEBAPEBUState@GradualStateMachine@dcc@vanetza@@XZ
	?end@?$vector@IV?$allocator@I@std@@@std@@QEAA?AV?$_Vector_iterator@V?$_Vector_val@U?$_Simple_types@I@std@@@std@@@2@XZ
	?end@?$vector@_NV?$allocator@_N@std@@@std@@QEAA?AV?$_Vb_iterator@U?$_Wrap_alloc@V?$allocator@I@std@@@std@@@2@XZ
	?enqueue@FlowControl@dcc@vanetza@@AEAAXAEBUDataRequest@23@V?$unique_ptr@VChunkPacket@vanetza@@U?$default_delete@VChunkPacket@vanetza@@@std@@@std@@@Z
	?eof@?$_Narrow_char_traits@DH@std@@SAHXZ
	?eq@?$_Narrow_char_traits@DH@std@@SA_NAEBD0@Z
	?eq_int_type@?$_Narrow_char_traits@DH@std@@SA_NAEBH0@Z
	?erase@?$circular_buffer@V?$time_point@VClock@vanetza@@V?$duration@_JU?$ratio@$00$0PECEA@@std@@@chrono@std@@@chrono@std@@V?$allocator@V?$time_point@VClock@vanetza@@V?$duration@_JU?$ratio@$00$0PECEA@@std@@@chrono@std@@@chrono@std@@@3@@boost@@QEAA?AU?$iterator@V?$circular_buffer@V?$time_point@VClock@vanetza@@V?$duration@_JU?$ratio@$00$0PECEA@@std@@@chrono@std@@@chrono@std@@V?$allocator@V?$time_point@VClock@vanetza@@V?$duration@_JU?$ratio@$00$0PECEA@@std@@@chrono@std@@@chrono@std@@@3@@boost@@U?$nonconst_traits@V?$allocator@V?$time_point@VClock@vanetza@@V?$duration@_JU?$ratio@$00$0PECEA@@std@@@chrono@std@@@chrono@std@@@std@@@cb_details@2@@cb_details@2@U342@0@Z
	?erase@?$vector@IV?$allocator@I@std@@@std@@QEAA?AV?$_Vector_iterator@V?$_Vector_val@U?$_Simple_types@I@std@@@std@@@2@V?$_Vector_const_iterator@V?$_Vector_val@U?$_Simple_types@I@std@@@std@@@2@0@Z
	?erase@?$vector@_NV?$allocator@_N@std@@@std@@QEAA?AV?$_Vb_iterator@U?$_Wrap_alloc@V?$allocator@I@std@@@std@@@2@V?$_Vb_const_iterator@U?$_Wrap_alloc@V?$allocator@I@std@@@std@@@2@0@Z
	?exceptions@?$basic_format@DU?$char_traits@D@std@@V?$allocator@D@2@@boost@@QEBAEXZ
	?fetch_add@?$_Atomic_integral@H$03@std@@QEAAHHW4memory_order@2@@Z
	?fetch_sub@?$_Atomic_integral_facade@H@std@@QEAAHHW4memory_order@2@@Z
	?find@?$_Narrow_char_traits@DH@std@@SAPEBDQEBD_KAEBD@Z
	?find@?$basic_string@DU?$char_traits@D@std@@V?$allocator@D@2@@std@@QEBA_KD_K@Z
	?fpclassify@@YAHN@Z
	?front@?$circular_buffer@V?$time_point@VClock@vanetza@@V?$duration@_JU?$ratio@$00$0PECEA@@std@@@chrono@std@@@chrono@std@@V?$allocator@V?$time_point@VClock@vanetza@@V?$duration@_JU?$ratio@$00$0PECEA@@std@@@chrono@std@@@chrono@std@@@3@@boost@@QEAAAEAV?$time_point@VClock@vanetza@@V?$duration@_JU?$ratio@$00$0PECEA@@std@@@chrono@std@@@chrono@std@@XZ
	?front@?$list@UPendingTransmission@FlowControl@dcc@vanetza@@V?$allocator@UPendingTransmission@FlowControl@dcc@vanetza@@@std@@@std@@QEAAAEAUPendingTransmission@FlowControl@dcc@vanetza@@XZ
	?full@?$circular_buffer@V?$time_point@VClock@vanetza@@V?$duration@_JU?$ratio@$00$0PECEA@@std@@@chrono@std@@@chrono@std@@V?$allocator@V?$time_point@VClock@vanetza@@V?$duration@_JU?$ratio@$00$0PECEA@@std@@@chrono@std@@@chrono@std@@@3@@boost@@QEBA_NXZ
	?full@?$circular_buffer@VChannelLoad@dcc@vanetza@@V?$allocator@VChannelLoad@dcc@vanetza@@@std@@@boost@@QEBA_NXZ
	?get@?$empty_value@V?$allocator@V?$time_point@VClock@vanetza@@V?$duration@_JU?$ratio@$00$0PECEA@@std@@@chrono@std@@@chrono@std@@@std@@$0A@$00@empty_@boost@@QEAAAEAV?$allocator@V?$time_point@VClock@vanetza@@V?$duration@_JU?$ratio@$00$0PECEA@@std@@@chrono@std@@@chrono@std@@@std@@XZ
	?get@?$empty_value@V?$allocator@V?$time_point@VClock@vanetza@@V?$duration@_JU?$ratio@$00$0PECEA@@std@@@chrono@std@@@chrono@std@@@std@@$0A@$00@empty_@boost@@QEBAAEBV?$allocator@V?$time_point@VClock@vanetza@@V?$duration@_JU?$ratio@$00$0PECEA@@std@@@chrono@std@@@chrono@std@@@std@@XZ
	?get@?$empty_value@V?$allocator@VChannelLoad@dcc@vanetza@@@std@@$0A@$00@empty_@boost@@QEAAAEAV?$allocator@VChannelLoad@dcc@vanetza@@@std@@XZ
	?get@?$empty_value@V?$allocator@VChannelLoad@dcc@vanetza@@@std@@$0A@$00@empty_@boost@@QEBAAEBV?$allocator@VChannelLoad@dcc@vanetza@@@std@@XZ
	?get@?$optional@UPendingTransmission@FlowControl@dcc@vanetza@@@boost@@QEAAAEAUPendingTransmission@FlowControl@dcc@vanetza@@XZ
	?get@?$optional@V?$time_point@VClock@vanetza@@V?$duration@_JU?$ratio@$00$0PECEA@@std@@@chrono@std@@@chrono@std@@@boost@@QEAAAEAV?$time_point@VClock@vanetza@@V?$duration@_JU?$ratio@$00$0PECEA@@std@@@chrono@std@@@chrono@std@@XZ
	?get@?$optional@Vlocale@std@@@boost@@QEBAAEBVlocale@std@@XZ
	?get@?$refcount_ptr@Uerror_info_container@exception_detail@boost@@@exception_detail@boost@@QEBAPEAUerror_info_container@23@XZ
	?get@?$shared_ptr@V?$basic_altstringbuf@DU?$char_traits@D@std@@V?$allocator@D@2@@io@boost@@@boost@@QEBAPEAV?$basic_altstringbuf@DU?$char_traits@D@std@@V?$allocator@D@2@@io@2@XZ
	?get@?$unique_ptr@VChunkPacket@vanetza@@U?$default_delete@VChunkPacket@vanetza@@@std@@@std@@QEBAPEAVChunkPacket@vanetza@@XZ
	?get_deleter@?$sp_counted_impl_pd@PEAV?$basic_altstringbuf@DU?$char_traits@D@std@@V?$allocator@D@2@@io@boost@@VNo_Op@?$basic_oaltstringstream@DU?$char_traits@D@std@@V?$allocator@D@2@@23@@detail@boost@@UEAAPEAXAEBVtype_info@@@Z
	?get_deleter@?$unique_ptr@VChunkPacket@vanetza@@U?$default_delete@VChunkPacket@vanetza@@@std@@@std@@QEAAAEAU?$default_delete@VChunkPacket@vanetza@@@2@XZ
	?get_impl@?$optional_base@UDualAlphaParameters@Limeric@dcc@vanetza@@@optional_detail@boost@@IEAAAEAUDualAlphaParameters@Limeric@dcc@vanetza@@XZ
	?get_impl@?$optional_base@UDualAlphaParameters@Limeric@dcc@vanetza@@@optional_detail@boost@@IEBAAEBUDualAlphaParameters@Limeric@dcc@vanetza@@XZ
	?get_impl@?$optional_base@UPendingTransmission@FlowControl@dcc@vanetza@@@optional_detail@boost@@IEAAAEAUPendingTransmission@FlowControl@dcc@vanetza@@XZ
	?get_impl@?$optional_base@V?$time_point@VClock@vanetza@@V?$duration@_JU?$ratio@$00$0PECEA@@std@@@chrono@std@@@chrono@std@@@optional_detail@boost@@IEAAAEAV?$time_point@VClock@vanetza@@V?$duration@_JU?$ratio@$00$0PECEA@@std@@@chrono@std@@@chrono@std@@XZ
	?get_impl@?$optional_base@Vlocale@std@@@optional_detail@boost@@IEAAAEAVlocale@std@@XZ
	?get_impl@?$optional_base@Vlocale@std@@@optional_detail@boost@@IEBAAEBVlocale@std@@XZ
	?get_local_deleter@?$sp_counted_impl_pd@PEAV?$basic_altstringbuf@DU?$char_traits@D@std@@V?$allocator@D@2@@io@boost@@VNo_Op@?$basic_oaltstringstream@DU?$char_traits@D@std@@V?$allocator@D@2@@23@@detail@boost@@UEAAPEAXAEBVtype_info@@@Z
	?get_ptr@?$optional_base@Vlocale@std@@@optional_detail@boost@@QEAAPEAVlocale@std@@XZ
	?get_ptr_impl@?$optional_base@UDualAlphaParameters@Limeric@dcc@vanetza@@@optional_detail@boost@@IEBAPEBUDualAlphaParameters@Limeric@dcc@vanetza@@XZ
	?get_ptr_impl@?$optional_base@UPendingTransmission@FlowControl@dcc@vanetza@@@optional_detail@boost@@IEAAPEAUPendingTransmission@FlowControl@dcc@vanetza@@XZ
	?get_ptr_impl@?$optional_base@Vlocale@std@@@optional_detail@boost@@IEAAPEAVlocale@std@@XZ
	?get_untyped_deleter@?$sp_counted_impl_pd@PEAV?$basic_altstringbuf@DU?$char_traits@D@std@@V?$allocator@D@2@@io@boost@@VNo_Op@?$basic_oaltstringstream@DU?$char_traits@D@std@@V?$allocator@D@2@@23@@detail@boost@@UEAAPEAXXZ
	?getloc@?$basic_format@DU?$char_traits@D@std@@V?$allocator@D@2@@boost@@QEBA?AVlocale@std@@XZ
	?indicate@HookedChannelProbeProcessor@dcc@vanetza@@UEAAXVChannelLoad@23@@Z
	?indicate@SmoothingChannelProbeProcessor@dcc@vanetza@@UEAAXVChannelLoad@23@@Z
	?infinity@?$numeric_limits@N@std@@SANXZ
	?initialize_buffer@?$circular_buffer@V?$time_point@VClock@vanetza@@V?$duration@_JU?$ratio@$00$0PECEA@@std@@@chrono@std@@@chrono@std@@V?$allocator@V?$time_point@VClock@vanetza@@V?$duration@_JU?$ratio@$00$0PECEA@@std@@@chrono@std@@@chrono@std@@@3@@boost@@AEAAX_K@Z
	?initialize_buffer@?$circular_buffer@VChannelLoad@dcc@vanetza@@V?$allocator@VChannelLoad@dcc@vanetza@@@std@@@boost@@AEAAX_K@Z
	?insert@?$_Tree@V?$_Tset_traits@UState@GradualStateMachine@dcc@vanetza@@U?$less@UState@GradualStateMachine@dcc@vanetza@@@std@@V?$allocator@UState@GradualStateMachine@dcc@vanetza@@@6@$0A@@std@@@std@@QEAAXV?$initializer_list@UState@GradualStateMachine@dcc@vanetza@@@2@@Z
	?insert@?$circular_buffer@V?$time_point@VClock@vanetza@@V?$duration@_JU?$ratio@$00$0PECEA@@std@@@chrono@std@@@chrono@std@@V?$allocator@V?$time_point@VClock@vanetza@@V?$duration@_JU?$ratio@$00$0PECEA@@std@@@chrono@std@@@chrono@std@@@3@@boost@@QEAAXU?$iterator@V?$circular_buffer@V?$time_point@VClock@vanetza@@V?$duration@_JU?$ratio@$00$0PECEA@@std@@@chrono@std@@@chrono@std@@V?$allocator@V?$time_point@VClock@vanetza@@V?$duration@_JU?$ratio@$00$0PECEA@@std@@@chrono@std@@@chrono@std@@@3@@boost@@U?$nonconst_traits@V?$allocator@V?$time_point@VClock@vanetza@@V?$duration@_JU?$ratio@$00$0PECEA@@std@@@chrono@std@@@chrono@std@@@std@@@cb_details@2@@cb_details@2@_KAEBV?$time_point@VClock@vanetza@@V?$duration@_JU?$ratio@$00$0PECEA@@std@@@chrono@std@@@chrono@std@@@Z
	?interval@BurstyTransmitRateControl@dcc@vanetza@@UEAA?AV?$duration@_JU?$ratio@$00$0PECEA@@std@@@chrono@std@@AEBVTransmission@23@@Z
	?interval@LimericBudget@dcc@vanetza@@QEAA?AV?$duration@_JU?$ratio@$00$0PECEA@@std@@@chrono@std@@XZ
	?interval@LimericTransmitRateControl@dcc@vanetza@@UEAA?AV?$duration@_JU?$ratio@$00$0PECEA@@std@@@chrono@std@@AEBVTransmission@23@@Z
	?interval@SingleReactiveTransmitRateControl@dcc@vanetza@@UEAA?AV?$duration@_JU?$ratio@$00$0PECEA@@std@@@chrono@std@@AEBVTransmission@23@@Z
	?is_initialized@?$optional_base@UDualAlphaParameters@Limeric@dcc@vanetza@@@optional_detail@boost@@QEBA_NXZ
	?is_initialized@?$optional_base@UPendingTransmission@FlowControl@dcc@vanetza@@@optional_detail@boost@@QEBA_NXZ
	?is_initialized@?$optional_base@V?$time_point@VClock@vanetza@@V?$duration@_JU?$ratio@$00$0PECEA@@std@@@chrono@std@@@chrono@std@@@optional_detail@boost@@QEBA_NXZ
	?is_initialized@?$optional_base@Vlocale@std@@@optional_detail@boost@@QEBA_NXZ
	?is_uninitialized@?$circular_buffer@V?$time_point@VClock@vanetza@@V?$duration@_JU?$ratio@$00$0PECEA@@std@@@chrono@std@@@chrono@std@@V?$allocator@V?$time_point@VClock@vanetza@@V?$duration@_JU?$ratio@$00$0PECEA@@std@@@chrono@std@@@chrono@std@@@3@@boost@@AEBA_NPEBV?$time_point@VClock@vanetza@@V?$duration@_JU?$ratio@$00$0PECEA@@std@@@chrono@std@@@chrono@std@@@Z
	?key_comp@?$_Tree@V?$_Tset_traits@UState@GradualStateMachine@dcc@vanetza@@U?$less@UState@GradualStateMachine@dcc@vanetza@@@std@@V?$allocator@UState@GradualStateMachine@dcc@vanetza@@@6@$0A@@std@@@std@@QEBA?AU?$less@UState@GradualStateMachine@dcc@vanetza@@@2@XZ
	?length@?$_Narrow_char_traits@DH@std@@SA_KQEBD@Z
	?lowest@?$numeric_limits@_J@std@@SA_JXZ
	?make_or_reuse_data@?$basic_format@DU?$char_traits@D@std@@V?$allocator@D@2@@boost@@AEAAX_K@Z
	?map_profile_onto_ac@dcc@vanetza@@YA?AW4AccessCategory@access@2@W4Profile@12@@Z
	?max@?$duration@_JU?$ratio@$00$0PECEA@@std@@@chrono@std@@SA?AV123@XZ
	?max@?$duration_values@_J@chrono@std@@SA_JXZ
	?max@?$numeric_limits@_J@std@@SA_JXZ
	?max@?$numeric_limits@_K@std@@SA_KXZ
	?max_channel_load@FullyMeshedStateMachine@dcc@vanetza@@AEBANXZ
	?max_size@?$_Default_allocator_traits@V?$allocator@D@std@@@std@@SA_KAEBV?$allocator@D@2@@Z
	?max_size@?$_Default_allocator_traits@V?$allocator@I@std@@@std@@SA_KAEBV?$allocator@I@2@@Z
	?max_size@?$_Default_allocator_traits@V?$allocator@U?$_List_node@UPendingTransmission@FlowControl@dcc@vanetza@@PEAX@std@@@std@@@std@@SA_KAEBV?$allocator@U?$_List_node@UPendingTransmission@FlowControl@dcc@vanetza@@PEAX@std@@@2@@Z
	?max_size@?$_Default_allocator_traits@V?$allocator@U?$_Tree_node@U?$pair@$$CBW4AccessCategory@access@vanetza@@V?$list@UPendingTransmission@FlowControl@dcc@vanetza@@V?$allocator@UPendingTransmission@FlowControl@dcc@vanetza@@@std@@@std@@@std@@PEAX@std@@@std@@@std@@SA_KAEBV?$allocator@U?$_Tree_node@U?$pair@$$CBW4AccessCategory@access@vanetza@@V?$list@UPendingTransmission@FlowControl@dcc@vanetza@@V?$allocator@UPendingTransmission@FlowControl@dcc@vanetza@@@std@@@std@@@std@@PEAX@std@@@2@@Z
	?max_size@?$_Default_allocator_traits@V?$allocator@U?$_Tree_node@UState@GradualStateMachine@dcc@vanetza@@PEAX@std@@@std@@@std@@SA_KAEBV?$allocator@U?$_Tree_node@UState@GradualStateMachine@dcc@vanetza@@PEAX@std@@@2@@Z
	?max_size@?$_Default_allocator_traits@V?$allocator@U?$format_item@DU?$char_traits@D@std@@V?$allocator@D@2@@detail@io@boost@@@std@@@std@@SA_KAEBV?$allocator@U?$format_item@DU?$char_traits@D@std@@V?$allocator@D@2@@detail@io@boost@@@2@@Z
	?max_size@?$_Tree@V?$_Tmap_traits@W4AccessCategory@access@vanetza@@V?$list@UPendingTransmission@FlowControl@dcc@vanetza@@V?$allocator@UPendingTransmission@FlowControl@dcc@vanetza@@@std@@@std@@U?$greater@W4AccessCategory@access@vanetza@@@5@V?$allocator@U?$pair@$$CBW4AccessCategory@access@vanetza@@V?$list@UPendingTransmission@FlowControl@dcc@vanetza@@V?$allocator@UPendingTransmission@FlowControl@dcc@vanetza@@@std@@@std@@@std@@@5@$0A@@std@@@std@@QEBA_KXZ
	?max_size@?$_Tree@V?$_Tset_traits@UState@GradualStateMachine@dcc@vanetza@@U?$less@UState@GradualStateMachine@dcc@vanetza@@@std@@V?$allocator@UState@GradualStateMachine@dcc@vanetza@@@6@$0A@@std@@@std@@QEBA_KXZ
	?max_size@?$allocator@V?$time_point@VClock@vanetza@@V?$duration@_JU?$ratio@$00$0PECEA@@std@@@chrono@std@@@chrono@std@@@std@@QEBA_KXZ
	?max_size@?$allocator@VChannelLoad@dcc@vanetza@@@std@@QEBA_KXZ
	?max_size@?$basic_string@DU?$char_traits@D@std@@V?$allocator@D@2@@std@@QEBA_KXZ
	?max_size@?$circular_buffer@V?$time_point@VClock@vanetza@@V?$duration@_JU?$ratio@$00$0PECEA@@std@@@chrono@std@@@chrono@std@@V?$allocator@V?$time_point@VClock@vanetza@@V?$duration@_JU?$ratio@$00$0PECEA@@std@@@chrono@std@@@chrono@std@@@3@@boost@@QEBA_KXZ
	?max_size@?$circular_buffer@VChannelLoad@dcc@vanetza@@V?$allocator@VChannelLoad@dcc@vanetza@@@std@@@boost@@QEBA_KXZ
	?max_size@?$list@UPendingTransmission@FlowControl@dcc@vanetza@@V?$allocator@UPendingTransmission@FlowControl@dcc@vanetza@@@std@@@std@@QEBA_KXZ
	?max_size@?$vector@IV?$allocator@I@std@@@std@@QEBA_KXZ
	?max_size@?$vector@U?$format_item@DU?$char_traits@D@std@@V?$allocator@D@2@@detail@io@boost@@V?$allocator@U?$format_item@DU?$char_traits@D@std@@V?$allocator@D@2@@detail@io@boost@@@std@@@std@@QEBA_KXZ
	?max_size@?$vector@_NV?$allocator@_N@std@@@std@@QEBA_KXZ
	?max_streamsize@?$format_item@DU?$char_traits@D@std@@V?$allocator@D@2@@detail@io@boost@@SA_JXZ
	?maybe_throw_exception@detail@io@boost@@YAXE_K0@Z
	?message_rate@FullyMeshedStateMachine@dcc@vanetza@@QEBANXZ
	?min@?$duration@_JU?$ratio@$00$0PECEA@@std@@@chrono@std@@SA?AV123@XZ
	?min@?$duration_values@_J@chrono@std@@SA_JXZ
	?min@?$numeric_limits@_J@std@@SA_JXZ
	?min@?$time_point@VClock@vanetza@@V?$duration@_JU?$ratio@$00$0PECEA@@std@@@chrono@std@@@chrono@std@@SA?AV123@XZ
	?min_channel_load@FullyMeshedStateMachine@dcc@vanetza@@AEBANXZ
	?move@?$_Char_traits@DH@std@@SAPEADQEADQEBD_K@Z
	?name@Active@dcc@vanetza@@UEBAPEBDXZ
	?name@Relaxed@dcc@vanetza@@UEBAPEBDXZ
	?name@Restrictive@dcc@vanetza@@UEBAPEBDXZ
	?next_queue@FlowControl@dcc@vanetza@@AEAAPEAV?$list@UPendingTransmission@FlowControl@dcc@vanetza@@V?$allocator@UPendingTransmission@FlowControl@dcc@vanetza@@@std@@@std@@XZ
	?next_transmission@FlowControl@dcc@vanetza@@AEAAPEAUPendingTransmission@123@XZ
	?not_eof@?$_Narrow_char_traits@DH@std@@SAHAEBH@Z
	?notify@BurstBudget@dcc@vanetza@@QEAAXXZ
	?notify@BurstyTransmitRateControl@dcc@vanetza@@UEAAXAEBVTransmission@23@@Z
	?notify@LimericBudget@dcc@vanetza@@QEAAXV?$duration@_JU?$ratio@$00$0PECEA@@std@@@chrono@std@@@Z
	?notify@LimericTransmitRateControl@dcc@vanetza@@UEAAXAEBVTransmission@23@@Z
	?notify@SingleReactiveTransmitRateControl@dcc@vanetza@@UEAAXAEBVTransmission@23@@Z
	?notify@StateMachineBudget@dcc@vanetza@@QEAAXXZ
	?overflow@?$basic_altstringbuf@DU?$char_traits@D@std@@V?$allocator@D@2@@io@boost@@MEAAHH@Z
	?parse@?$basic_format@DU?$char_traits@D@std@@V?$allocator@D@2@@boost@@QEAAAEAV12@AEBV?$basic_string@DU?$char_traits@D@std@@V?$allocator@D@2@@std@@@Z
	?pbackfail@?$basic_altstringbuf@DU?$char_traits@D@std@@V?$allocator@D@2@@io@boost@@MEAAHH@Z
	?pcount@?$basic_altstringbuf@DU?$char_traits@D@std@@V?$allocator@D@2@@io@boost@@QEBA_KXZ
	?permitted_duty_cycle@Limeric@dcc@vanetza@@UEBA?AVUnitInterval@3@XZ
	?pointer_to@?$pointer_traits@PEBU?$pair@$$CBW4AccessCategory@access@vanetza@@V?$list@UPendingTransmission@FlowControl@dcc@vanetza@@V?$allocator@UPendingTransmission@FlowControl@dcc@vanetza@@@std@@@std@@@std@@@std@@SAPEBU?$pair@$$CBW4AccessCategory@access@vanetza@@V?$list@UPendingTransmission@FlowControl@dcc@vanetza@@V?$allocator@UPendingTransmission@FlowControl@dcc@vanetza@@@std@@@std@@@2@AEBU32@@Z
	?pointer_to@?$pointer_traits@PEBUState@GradualStateMachine@dcc@vanetza@@@std@@SAPEBUState@GradualStateMachine@dcc@vanetza@@AEBU3456@@Z
	?pop_front@?$list@UPendingTransmission@FlowControl@dcc@vanetza@@V?$allocator@UPendingTransmission@FlowControl@dcc@vanetza@@@std@@@std@@QEAAXXZ
	?profile@PendingTransmission@FlowControl@dcc@vanetza@@UEBA?AW4Profile@34@XZ
	?profile@TransmissionLite@dcc@vanetza@@UEBA?AW4Profile@23@XZ
	?ptr_ref@?$aligned_storage@UDualAlphaParameters@Limeric@dcc@vanetza@@@optional_detail@boost@@QEAAPEAUDualAlphaParameters@Limeric@dcc@vanetza@@XZ
	?ptr_ref@?$aligned_storage@UDualAlphaParameters@Limeric@dcc@vanetza@@@optional_detail@boost@@QEBAPEBUDualAlphaParameters@Limeric@dcc@vanetza@@XZ
	?ptr_ref@?$aligned_storage@UPendingTransmission@FlowControl@dcc@vanetza@@@optional_detail@boost@@QEAAPEAUPendingTransmission@FlowControl@dcc@vanetza@@XZ
	?ptr_ref@?$aligned_storage@V?$time_point@VClock@vanetza@@V?$duration@_JU?$ratio@$00$0PECEA@@std@@@chrono@std@@@chrono@std@@@optional_detail@boost@@QEAAPEAV?$time_point@VClock@vanetza@@V?$duration@_JU?$ratio@$00$0PECEA@@std@@@chrono@std@@@chrono@std@@XZ
	?ptr_ref@?$aligned_storage@Vlocale@std@@@optional_detail@boost@@QEAAPEAVlocale@std@@XZ
	?ptr_ref@?$aligned_storage@Vlocale@std@@@optional_detail@boost@@QEBAPEBVlocale@std@@XZ
	?push_back@?$circular_buffer@V?$time_point@VClock@vanetza@@V?$duration@_JU?$ratio@$00$0PECEA@@std@@@chrono@std@@@chrono@std@@V?$allocator@V?$time_point@VClock@vanetza@@V?$duration@_JU?$ratio@$00$0PECEA@@std@@@chrono@std@@@chrono@std@@@3@@boost@@QEAAX$$QEAV?$time_point@VClock@vanetza@@V?$duration@_JU?$ratio@$00$0PECEA@@std@@@chrono@std@@@chrono@std@@@Z
	?push_back@?$circular_buffer@VChannelLoad@dcc@vanetza@@V?$allocator@VChannelLoad@dcc@vanetza@@@std@@@boost@@QEAAXAEBVChannelLoad@dcc@vanetza@@@Z
	?push_front@?$circular_buffer@VChannelLoad@dcc@vanetza@@V?$allocator@VChannelLoad@dcc@vanetza@@@std@@@boost@@QEAAXAEBVChannelLoad@dcc@vanetza@@@Z
	?queue_length@FlowControl@dcc@vanetza@@QEAAX_K@Z
	?ref@?$aligned_storage@UDualAlphaParameters@Limeric@dcc@vanetza@@@optional_detail@boost@@QEAAAEAUDualAlphaParameters@Limeric@dcc@vanetza@@XZ
	?ref@?$aligned_storage@UDualAlphaParameters@Limeric@dcc@vanetza@@@optional_detail@boost@@QEBAAEBUDualAlphaParameters@Limeric@dcc@vanetza@@XZ
	?ref@?$aligned_storage@UPendingTransmission@FlowControl@dcc@vanetza@@@optional_detail@boost@@QEAAAEAUPendingTransmission@FlowControl@dcc@vanetza@@XZ
	?ref@?$aligned_storage@V?$time_point@VClock@vanetza@@V?$duration@_JU?$ratio@$00$0PECEA@@std@@@chrono@std@@@chrono@std@@@optional_detail@boost@@QEAAAEAV?$time_point@VClock@vanetza@@V?$duration@_JU?$ratio@$00$0PECEA@@std@@@chrono@std@@@chrono@std@@XZ
	?ref@?$aligned_storage@Vlocale@std@@@optional_detail@boost@@QEAAAEAVlocale@std@@XZ
	?ref@?$aligned_storage@Vlocale@std@@@optional_detail@boost@@QEBAAEBVlocale@std@@XZ
	?release@?$refcount_ptr@Uerror_info_container@exception_detail@boost@@@exception_detail@boost@@AEAAXXZ
	?release@?$unique_ptr@VChunkPacket@vanetza@@U?$default_delete@VChunkPacket@vanetza@@@std@@@std@@QEAAPEAVChunkPacket@vanetza@@XZ
	?release@?$unique_ptr@V_Facet_base@std@@U?$default_delete@V_Facet_base@std@@@2@@std@@QEAAPEAV_Facet_base@2@XZ
	?release@sp_counted_base@detail@boost@@QEAAXXZ
	?repair@GradualStateMachine@dcc@vanetza@@AEAAXXZ
	?replace@?$circular_buffer@V?$time_point@VClock@vanetza@@V?$duration@_JU?$ratio@$00$0PECEA@@std@@@chrono@std@@@chrono@std@@V?$allocator@V?$time_point@VClock@vanetza@@V?$duration@_JU?$ratio@$00$0PECEA@@std@@@chrono@std@@@chrono@std@@@3@@boost@@AEAAXPEAV?$time_point@VClock@vanetza@@V?$duration@_JU?$ratio@$00$0PECEA@@std@@@chrono@std@@@chrono@std@@$$QEAV345@@Z
	?replace@?$circular_buffer@V?$time_point@VClock@vanetza@@V?$duration@_JU?$ratio@$00$0PECEA@@std@@@chrono@std@@@chrono@std@@V?$allocator@V?$time_point@VClock@vanetza@@V?$duration@_JU?$ratio@$00$0PECEA@@std@@@chrono@std@@@chrono@std@@@3@@boost@@AEAAXPEAV?$time_point@VClock@vanetza@@V?$duration@_JU?$ratio@$00$0PECEA@@std@@@chrono@std@@@chrono@std@@AEBV345@@Z
	?replace@?$circular_buffer@VChannelLoad@dcc@vanetza@@V?$allocator@VChannelLoad@dcc@vanetza@@@std@@@boost@@AEAAXPEAVChannelLoad@dcc@vanetza@@AEBV345@@Z
	?request@FlowControl@dcc@vanetza@@UEAAXAEBUDataRequest@23@V?$unique_ptr@VChunkPacket@vanetza@@U?$default_delete@VChunkPacket@vanetza@@@std@@@std@@@Z
	?reschedule@FlowControl@dcc@vanetza@@QEAAXXZ
	?reserve@?$basic_string@DU?$char_traits@D@std@@V?$allocator@D@2@@std@@QEAAX_K@Z
	?reserve@?$circular_buffer@V?$time_point@VClock@vanetza@@V?$duration@_JU?$ratio@$00$0PECEA@@std@@@chrono@std@@@chrono@std@@V?$allocator@V?$time_point@VClock@vanetza@@V?$duration@_JU?$ratio@$00$0PECEA@@std@@@chrono@std@@@chrono@std@@@3@@boost@@QEBA_KXZ
	?reset@?$circular_buffer@V?$time_point@VClock@vanetza@@V?$duration@_JU?$ratio@$00$0PECEA@@std@@@chrono@std@@@chrono@std@@V?$allocator@V?$time_point@VClock@vanetza@@V?$duration@_JU?$ratio@$00$0PECEA@@std@@@chrono@std@@@chrono@std@@@3@@boost@@AEAAXPEAV?$time_point@VClock@vanetza@@V?$duration@_JU?$ratio@$00$0PECEA@@std@@@chrono@std@@@chrono@std@@0_K@Z
	?reset@?$format_item@DU?$char_traits@D@std@@V?$allocator@D@2@@detail@io@boost@@QEAAXD@Z
	?reset@?$stream_format_state@DU?$char_traits@D@std@@@detail@io@boost@@QEAAXD@Z
	?reset@?$unique_ptr@VChunkPacket@vanetza@@U?$default_delete@VChunkPacket@vanetza@@@std@@@std@@QEAAXPEAVChunkPacket@vanetza@@@Z
	?resize@?$basic_string@DU?$char_traits@D@std@@V?$allocator@D@2@@std@@QEAAX_KD@Z
	?resize@?$circular_buffer@V?$time_point@VClock@vanetza@@V?$duration@_JU?$ratio@$00$0PECEA@@std@@@chrono@std@@@chrono@std@@V?$allocator@V?$time_point@VClock@vanetza@@V?$duration@_JU?$ratio@$00$0PECEA@@std@@@chrono@std@@@chrono@std@@@3@@boost@@QEAAX_KAEBV?$time_point@VClock@vanetza@@V?$duration@_JU?$ratio@$00$0PECEA@@std@@@chrono@std@@@chrono@std@@@Z
	?resize@?$vector@IV?$allocator@I@std@@@std@@QEAAX_KAEBI@Z
	?resize@?$vector@U?$format_item@DU?$char_traits@D@std@@V?$allocator@D@2@@detail@io@boost@@V?$allocator@U?$format_item@DU?$char_traits@D@std@@V?$allocator@D@2@@detail@io@boost@@@std@@@std@@QEAAX_KAEBU?$format_item@DU?$char_traits@D@std@@V?$allocator@D@2@@detail@io@boost@@@Z
	?resize@?$vector@_NV?$allocator@_N@std@@@std@@QEAAX_K_N@Z
	?rethrow@?$wrapexcept@Vbad_format_string@io@boost@@@boost@@UEBAXXZ
	?rethrow@?$wrapexcept@Vlength_error@std@@@boost@@UEBAXXZ
	?rethrow@?$wrapexcept@Vtoo_few_args@io@boost@@@boost@@UEBAXXZ
	?rethrow@?$wrapexcept@Vtoo_many_args@io@boost@@@boost@@UEBAXXZ
	?schedule@Limeric@dcc@vanetza@@AEAAXXZ
	?schedule_trigger@FlowControl@dcc@vanetza@@AEAAXAEBVTransmission@23@@Z
	?seekoff@?$basic_altstringbuf@DU?$char_traits@D@std@@V?$allocator@D@2@@io@boost@@MEAA?AV?$fpos@U_Mbstatet@@@std@@_JHH@Z
	?seekpos@?$basic_altstringbuf@DU?$char_traits@D@std@@V?$allocator@D@2@@io@boost@@MEAA?AV?$fpos@U_Mbstatet@@@std@@V45@H@Z
	?select_on_container_copy_construction@?$_Default_allocator_traits@V?$allocator@D@std@@@std@@SA?AV?$allocator@D@2@AEBV32@@Z
	?select_on_container_copy_construction@?$_Default_allocator_traits@V?$allocator@I@std@@@std@@SA?AV?$allocator@I@2@AEBV32@@Z
	?select_on_container_copy_construction@?$_Default_allocator_traits@V?$allocator@U?$_Tree_node@UState@GradualStateMachine@dcc@vanetza@@PEAX@std@@@std@@@std@@SA?AV?$allocator@U?$_Tree_node@UState@GradualStateMachine@dcc@vanetza@@PEAX@std@@@2@AEBV32@@Z
	?select_on_container_copy_construction@?$_Default_allocator_traits@V?$allocator@U?$format_item@DU?$char_traits@D@std@@V?$allocator@D@2@@detail@io@boost@@@std@@@std@@SA?AV?$allocator@U?$format_item@DU?$char_traits@D@std@@V?$allocator@D@2@@detail@io@boost@@@2@AEBV32@@Z
	?set_capacity@?$circular_buffer@V?$time_point@VClock@vanetza@@V?$duration@_JU?$ratio@$00$0PECEA@@std@@@chrono@std@@@chrono@std@@V?$allocator@V?$time_point@VClock@vanetza@@V?$duration@_JU?$ratio@$00$0PECEA@@std@@@chrono@std@@@chrono@std@@@3@@boost@@QEAAX_K@Z
	?set_packet_drop_hook@FlowControl@dcc@vanetza@@QEAAX$$QEAV?$function@$$A6AXW4AccessCategory@access@vanetza@@PEBVChunkPacket@3@@Z@std@@@Z
	?set_packet_transmit_hook@FlowControl@dcc@vanetza@@QEAAX$$QEAV?$function@$$A6AXW4AccessCategory@access@vanetza@@PEBVChunkPacket@3@@Z@std@@@Z
	?size@?$array@V?$duration@_JU?$ratio@$00$0PECEA@@std@@@chrono@std@@$04@std@@QEBA_KXZ
	?size@?$basic_format@DU?$char_traits@D@std@@V?$allocator@D@2@@boost@@QEBA_KXZ
	?size@?$basic_string@DU?$char_traits@D@std@@V?$allocator@D@2@@std@@QEBA_KXZ
	?size@?$circular_buffer@V?$time_point@VClock@vanetza@@V?$duration@_JU?$ratio@$00$0PECEA@@std@@@chrono@std@@@chrono@std@@V?$allocator@V?$time_point@VClock@vanetza@@V?$duration@_JU?$ratio@$00$0PECEA@@std@@@chrono@std@@@chrono@std@@@3@@boost@@QEBA_KXZ
	?size@?$circular_buffer@VChannelLoad@dcc@vanetza@@V?$allocator@VChannelLoad@dcc@vanetza@@@std@@@boost@@QEBA_KXZ
	?size@?$list@UPendingTransmission@FlowControl@dcc@vanetza@@V?$allocator@UPendingTransmission@FlowControl@dcc@vanetza@@@std@@@std@@QEBA_KXZ
	?size@?$vector@IV?$allocator@I@std@@@std@@QEBA_KXZ
	?size@?$vector@U?$format_item@DU?$char_traits@D@std@@V?$allocator@D@2@@detail@io@boost@@V?$allocator@U?$format_item@DU?$char_traits@D@std@@V?$allocator@D@2@@detail@io@boost@@@std@@@std@@QEBA_KXZ
	?size@?$vector@_NV?$allocator@_N@std@@@std@@QEBA_KXZ
	?sp_enable_shared_from_this@detail@boost@@YAXZZ
	?state@FullyMeshedStateMachine@dcc@vanetza@@QEBAAEBVState@23@XZ
	?state@GradualStateMachine@dcc@vanetza@@QEBA?AV?$basic_string@DU?$char_traits@D@std@@V?$allocator@D@2@@std@@XZ
	?str@?$basic_format@DU?$char_traits@D@std@@V?$allocator@D@2@@boost@@QEBA?AV?$basic_string@DU?$char_traits@D@std@@V?$allocator@D@2@@std@@XZ
	?throw_exception_assert_compatibility@boost@@YAXAEBVexception@std@@@Z
	?time_since_epoch@?$time_point@VClock@vanetza@@V?$duration@_JU?$ratio@$00$0PECEA@@std@@@chrono@std@@@chrono@std@@QEBA?AV?$duration@_JU?$ratio@$00$0PECEA@@std@@@23@XZ
	?to_char_type@?$_Narrow_char_traits@DH@std@@SADAEBH@Z
	?to_int_type@?$_Narrow_char_traits@DH@std@@SAHAEBD@Z
	?transmission_interval@Active@dcc@vanetza@@UEBA?AV?$duration@_JU?$ratio@$00$0PECEA@@std@@@chrono@std@@XZ
	?transmission_interval@FullyMeshedStateMachine@dcc@vanetza@@UEBA?AV?$duration@_JU?$ratio@$00$0PECEA@@std@@@chrono@std@@XZ
	?transmission_interval@GradualStateMachine@dcc@vanetza@@UEBA?AV?$duration@_JU?$ratio@$00$0PECEA@@std@@@chrono@std@@XZ
	?transmission_interval@Relaxed@dcc@vanetza@@UEBA?AV?$duration@_JU?$ratio@$00$0PECEA@@std@@@chrono@std@@XZ
	?transmission_interval@Restrictive@dcc@vanetza@@UEBA?AV?$duration@_JU?$ratio@$00$0PECEA@@std@@@chrono@std@@XZ
	?transmit@FlowControl@dcc@vanetza@@AEAAXAEBUDataRequest@23@V?$unique_ptr@VChunkPacket@vanetza@@U?$default_delete@VChunkPacket@vanetza@@@std@@@std@@@Z
	?transmit_immediately@FlowControl@dcc@vanetza@@AEBA_NAEBVTransmission@23@@Z
	?trigger@FlowControl@dcc@vanetza@@AEAAXXZ
	?underflow@?$basic_altstringbuf@DU?$char_traits@D@std@@V?$allocator@D@2@@io@boost@@MEAAHXZ
	?update@Active@dcc@vanetza@@QEAAXNN@Z
	?update@FullyMeshedStateMachine@dcc@vanetza@@UEAAXVChannelLoad@23@@Z
	?update@GradualStateMachine@dcc@vanetza@@UEAAXVChannelLoad@23@@Z
	?update@LimericBudget@dcc@vanetza@@QEAAXXZ
	?update@LimericTransmitRateControl@dcc@vanetza@@QEAAXXZ
	?update_cbr@Limeric@dcc@vanetza@@QEAAXVChannelLoad@23@@Z
	?value@UnitInterval@vanetza@@QEBANXZ
	?weak_release@sp_counted_base@detail@boost@@QEAAXXZ
	?what@bad_format_string@io@boost@@UEBAPEBDXZ
	?what@exception@std@@UEBAPEBDXZ
	?what@format_error@io@boost@@UEBAPEBDXZ
	?what@too_few_args@io@boost@@UEBAPEBDXZ
	?what@too_many_args@io@boost@@UEBAPEBDXZ
	?zero@?$duration@_JU?$ratio@$00$0PECEA@@std@@@chrono@std@@SA?AV123@XZ
	?zero@?$duration_values@_J@chrono@std@@SA_JXZ
	wmemcpy
