EXPORTS 
	??_R0?AU?$wrapexcept@Vfailure@ios_base@std@@@boost@@@8 	 DATA
	??_R0?AV?$basic_streambuf@DU?$char_traits@D@std@@@std@@@8 	 DATA
	??_R0?AV?$indirect_streambuf@Vbyte_buffer_source@vanetza@@U?$char_traits@D@std@@V?$allocator@D@4@Uinput@iostreams@boost@@@detail@iostreams@boost@@@8 	 DATA
	??_R0?AV?$linked_streambuf@DU?$char_traits@D@std@@@detail@iostreams@boost@@@8 	 DATA
	??_R0?AV?$stream_buffer@Vbyte_buffer_source@vanetza@@U?$char_traits@D@std@@V?$allocator@D@4@Uinput@iostreams@boost@@@iostreams@boost@@@8 	 DATA
	??_R0?AV_Iostream_error_category2@std@@@8 	 DATA
	??_R0?AV_System_error@std@@@8 	 DATA
	??_R0?AVbad_alloc@std@@@8 	 DATA
	??_R0?AVbad_array_new_length@std@@@8 	 DATA
	??_R0?AVbyte_buffer_source@vanetza@@@8 	 DATA
	??_R0?AVclone_base@exception_detail@boost@@@8 	 DATA
	??_R0?AVerror_category@std@@@8 	 DATA
	??_R0?AVexception@boost@@@8 	 DATA
	??_R0?AVexception@std@@@8 	 DATA
	??_R0?AVfailure@ios_base@std@@@8 	 DATA
	??_R0?AVruntime_error@std@@@8 	 DATA
	??_R0?AVsystem_error@std@@@8 	 DATA
	?_Static@?1???$_Immortalize_memcpy_image@V_Iostream_error_category2@std@@@std@@YAAEBV_Iostream_error_category2@1@XZ@4U?$_Constexpr_immortalize_impl@V_Iostream_error_category2@std@@@1@A 	 DATA
	?pdata@?1???B?$integral_constant@_N$00@boost@@QEBAAEBU?$bool_@$00@mpl@2@XZ@4PEBXEB 	 DATA
	?pdata@?1???B?$integral_constant@_N$0A@@boost@@QEBAAEBU?$bool_@$0A@@mpl@2@XZ@4PEBXEB 	 DATA
	??$?0$$V@?$_Compressed_pair@V?$allocator@D@std@@V?$_String_val@U?$_Simple_types@D@std@@@2@$00@std@@QEAA@U_Zero_then_variadic_args_t@1@@Z
	??$?0$$V@?$_Compressed_pair@V?$allocator@E@std@@V?$_Vector_val@U?$_Simple_types@E@std@@@2@$00@std@@QEAA@U_Zero_then_variadic_args_t@1@@Z
	??$?0AEAPEAU?$_List_node@U?$pair@$$CBV?$EndianType@G$0A@@vanetza@@PEAVIndicationInterface@btp@2@@std@@PEAX@std@@_N$0A@@?$pair@PEAU?$_List_node@U?$pair@$$CBV?$EndianType@G$0A@@vanetza@@PEAVIndicationInterface@btp@2@@std@@PEAX@std@@_N@std@@QEAA@AEAPEAU?$_List_node@U?$pair@$$CBV?$EndianType@G$0A@@vanetza@@PEAVIndicationInterface@btp@2@@std@@PEAX@1@$$QEA_N@Z
	??$?0AEBQEAVPromiscuousHook@PortDispatcher@btp@vanetza@@@?$_List_node_emplace_op2@V?$allocator@U?$_List_node@PEAVPromiscuousHook@PortDispatcher@btp@vanetza@@PEAX@std@@@std@@@std@@QEAA@AEAV?$allocator@U?$_List_node@PEAVPromiscuousHook@PortDispatcher@btp@vanetza@@PEAX@std@@@1@AEBQEAVPromiscuousHook@PortDispatcher@btp@vanetza@@@Z
	??$?0AEBUpiecewise_construct_t@std@@V?$tuple@AEBV?$EndianType@G$0A@@vanetza@@@1@V?$tuple@$$V@1@@?$_List_node_emplace_op2@V?$allocator@U?$_List_node@U?$pair@$$CBV?$EndianType@G$0A@@vanetza@@PEAVIndicationInterface@btp@2@@std@@PEAX@std@@@std@@@std@@QEAA@AEAV?$allocator@U?$_List_node@U?$pair@$$CBV?$EndianType@G$0A@@vanetza@@PEAVIndicationInterface@btp@2@@std@@PEAX@std@@@1@AEBUpiecewise_construct_t@1@$$QEAV?$tuple@AEBV?$EndianType@G$0A@@vanetza@@@1@$$QEAV?$tuple@$$V@1@@Z
	??$?0AEBV?$EndianType@G$0A@@vanetza@@$$Z$$V@?$pair@$$CBV?$EndianType@G$0A@@vanetza@@PEAVIndicationInterface@btp@2@@std@@QEAA@Upiecewise_construct_t@1@V?$tuple@AEBV?$EndianType@G$0A@@vanetza@@@1@V?$tuple@$$V@1@@Z
	??$?0AEBV?$EndianType@G$0A@@vanetza@@$0A@@?$tuple@AEBV?$EndianType@G$0A@@vanetza@@@std@@QEAA@AEBV?$EndianType@G$0A@@vanetza@@@Z
	??$?0AEBV?$EndianType@G$0A@@vanetza@@@?$_Tuple_val@AEBV?$EndianType@G$0A@@vanetza@@@std@@QEAA@AEBV?$EndianType@G$0A@@vanetza@@@Z
	??$?0D@?$allocator@U_Container_proxy@std@@@std@@QEAA@AEBV?$allocator@D@1@@Z
	??$?0E@?$allocator@U_Container_proxy@std@@@std@@QEAA@AEBV?$allocator@E@1@@Z
	??$?0PEAU?$_List_node@U?$pair@$$CBV?$EndianType@G$0A@@vanetza@@PEAVIndicationInterface@btp@2@@std@@PEAX@std@@_N$0A@@?$pair@PEAU?$_List_node@U?$pair@$$CBV?$EndianType@G$0A@@vanetza@@PEAVIndicationInterface@btp@2@@std@@PEAX@std@@_N@std@@QEAA@$$QEAPEAU?$_List_node@U?$pair@$$CBV?$EndianType@G$0A@@vanetza@@PEAVIndicationInterface@btp@2@@std@@PEAX@1@$$QEA_N@Z
	??$?0U?$_Tree_node@U?$pair@$$CBW4OsiLayer@vanetza@@VByteBufferConvertible@2@@std@@PEAX@std@@@?$allocator@U_Container_proxy@std@@@std@@QEAA@AEBV?$allocator@U?$_Tree_node@U?$pair@$$CBW4OsiLayer@vanetza@@VByteBufferConvertible@2@@std@@PEAX@std@@@1@@Z
	??$?0U?$default_delete@V?$variant@VChunkPacket@vanetza@@VCohesivePacket@2@@boost@@@std@@$0A@@?$unique_ptr@V?$variant@VChunkPacket@vanetza@@VCohesivePacket@2@@boost@@U?$default_delete@V?$variant@VChunkPacket@vanetza@@VCohesivePacket@2@@boost@@@std@@@std@@QEAA@$$QEAV01@@Z
	??$?0U?$default_delete@V?$variant@VChunkPacket@vanetza@@VCohesivePacket@2@@boost@@@std@@PEAV?$variant@VChunkPacket@vanetza@@VCohesivePacket@2@@boost@@@?$_Compressed_pair@U?$default_delete@V?$variant@VChunkPacket@vanetza@@VCohesivePacket@2@@boost@@@std@@PEAV?$variant@VChunkPacket@vanetza@@VCohesivePacket@2@@boost@@$00@std@@QEAA@U_One_then_variadic_args_t@1@$$QEAU?$default_delete@V?$variant@VChunkPacket@vanetza@@VCohesivePacket@2@@boost@@@1@$$QEAPEAV?$variant@VChunkPacket@vanetza@@VCohesivePacket@2@@boost@@@Z
	??$?0UCircle@geonet@vanetza@@@?$backup_assigner@V?$variant@URectangle@geonet@vanetza@@UEllipse@23@UCircle@23@@boost@@@variant@detail@boost@@QEAA@AEAV?$variant@URectangle@geonet@vanetza@@UEllipse@23@UCircle@23@@3@HAEBUCircle@geonet@vanetza@@@Z
	??$?0UEllipse@geonet@vanetza@@@?$backup_assigner@V?$variant@URectangle@geonet@vanetza@@UEllipse@23@UCircle@23@@boost@@@variant@detail@boost@@QEAA@AEAV?$variant@URectangle@geonet@vanetza@@UEllipse@23@UCircle@23@@3@HAEBUEllipse@geonet@vanetza@@@Z
	??$?0URectangle@geonet@vanetza@@@?$backup_assigner@V?$variant@URectangle@geonet@vanetza@@UEllipse@23@UCircle@23@@boost@@@variant@detail@boost@@QEAA@AEAV?$variant@URectangle@geonet@vanetza@@UEllipse@23@UCircle@23@@3@HAEBURectangle@geonet@vanetza@@@Z
	??$?0U_Exact_args_t@std@@$0A@@?$tuple@$$V@std@@QEAA@U_Exact_args_t@1@@Z
	??$?0U_Exact_args_t@std@@AEBV?$EndianType@G$0A@@vanetza@@$$V$0A@@?$tuple@AEBV?$EndianType@G$0A@@vanetza@@@std@@QEAA@U_Exact_args_t@1@AEBV?$EndianType@G$0A@@vanetza@@@Z
	??$?0V?$_Vector_const_iterator@V?$_Vector_val@U?$_Simple_types@E@std@@@std@@@std@@@?$iterator_range_base@V?$_Vector_const_iterator@V?$_Vector_val@U?$_Simple_types@E@std@@@std@@@std@@Ubidirectional_traversal_tag@iterators@boost@@@iterator_range_detail@boost@@IEAA@V?$_Vector_const_iterator@V?$_Vector_val@U?$_Simple_types@E@std@@@std@@@std@@0@Z
	??$?0V?$_Vector_const_iterator@V?$_Vector_val@U?$_Simple_types@E@std@@@std@@@std@@@?$iterator_range_base@V?$_Vector_const_iterator@V?$_Vector_val@U?$_Simple_types@E@std@@@std@@@std@@Uincrementable_traversal_tag@iterators@boost@@@iterator_range_detail@boost@@IEAA@V?$_Vector_const_iterator@V?$_Vector_val@U?$_Simple_types@E@std@@@std@@@std@@0@Z
	??$?0V?$_Vector_const_iterator@V?$_Vector_val@U?$_Simple_types@E@std@@@std@@@std@@@?$iterator_range_base@V?$_Vector_const_iterator@V?$_Vector_val@U?$_Simple_types@E@std@@@std@@@std@@Urandom_access_traversal_tag@iterators@boost@@@iterator_range_detail@boost@@IEAA@V?$_Vector_const_iterator@V?$_Vector_val@U?$_Simple_types@E@std@@@std@@@std@@0@Z
	??$?0V?$allocator@D@std@@$$V@?$_Compressed_pair@V?$allocator@D@std@@V?$_String_val@U?$_Simple_types@D@std@@@2@$00@std@@QEAA@U_One_then_variadic_args_t@1@$$QEAV?$allocator@D@1@@Z
	??$?0V?$allocator@E@std@@$$V@?$_Compressed_pair@V?$allocator@E@std@@V?$_Vector_val@U?$_Simple_types@E@std@@@2@$00@std@@QEAA@U_One_then_variadic_args_t@1@$$QEAV?$allocator@E@1@@Z
	??$?0V?$allocator@E@std@@PEAEPEAEPEAE@?$_Compressed_pair@V?$allocator@E@std@@V?$_Vector_val@U?$_Simple_types@E@std@@@2@$00@std@@QEAA@U_One_then_variadic_args_t@1@$$QEAV?$allocator@E@1@$$QEAPEAE22@Z
	??$?0V?$backup_holder@UCircle@geonet@vanetza@@@variant@detail@boost@@@?$backup_assigner@V?$variant@URectangle@geonet@vanetza@@UEllipse@23@UCircle@23@@boost@@@variant@detail@boost@@QEAA@AEAV?$variant@URectangle@geonet@vanetza@@UEllipse@23@UCircle@23@@3@HAEBV?$backup_holder@UCircle@geonet@vanetza@@@123@@Z
	??$?0V?$backup_holder@UEllipse@geonet@vanetza@@@variant@detail@boost@@@?$backup_assigner@V?$variant@URectangle@geonet@vanetza@@UEllipse@23@UCircle@23@@boost@@@variant@detail@boost@@QEAA@AEAV?$variant@URectangle@geonet@vanetza@@UEllipse@23@UCircle@23@@3@HAEBV?$backup_holder@UEllipse@geonet@vanetza@@@123@@Z
	??$?0V?$backup_holder@URectangle@geonet@vanetza@@@variant@detail@boost@@@?$backup_assigner@V?$variant@URectangle@geonet@vanetza@@UEllipse@23@UCircle@23@@boost@@@variant@detail@boost@@QEAA@AEAV?$variant@URectangle@geonet@vanetza@@UEllipse@23@UCircle@23@@3@HAEBV?$backup_holder@URectangle@geonet@vanetza@@@123@@Z
	??$?0V?$iterator_range@V?$_Vector_const_iterator@V?$_Vector_val@U?$_Simple_types@E@std@@@std@@@std@@@boost@@@?$iterator_range@V?$_Vector_const_iterator@V?$_Vector_val@U?$_Simple_types@E@std@@@std@@@std@@@boost@@QEAA@AEAV01@PEAX@Z
	??$?0V?$iterator_range@V?$_Vector_iterator@V?$_Vector_val@U?$_Simple_types@E@std@@@std@@@std@@@boost@@@?$iterator_range@V?$_Vector_const_iterator@V?$_Vector_val@U?$_Simple_types@E@std@@@std@@@std@@@boost@@QEAA@AEBV?$iterator_range@V?$_Vector_iterator@V?$_Vector_val@U?$_Simple_types@E@std@@@std@@@std@@@1@PEAX@Z
	??$?0V?$tuple@AEBV?$EndianType@G$0A@@vanetza@@@std@@V?$tuple@$$V@1@$0A@$$Z$S@?$pair@$$CBV?$EndianType@G$0A@@vanetza@@PEAVIndicationInterface@btp@2@@std@@QEAA@AEAV?$tuple@AEBV?$EndianType@G$0A@@vanetza@@@1@AEAV?$tuple@$$V@1@U?$integer_sequence@_K$0A@@1@U?$integer_sequence@_K$S@1@@Z
	??$?4UDataIndication@btp@vanetza@@@?$optional@UDataIndication@btp@vanetza@@@boost@@QEAAAEAV01@$$QEAUDataIndication@btp@vanetza@@@Z
	??$?5G@InputArchive@vanetza@@QEAAAEAV01@AEAG@Z
	??$?6G@OutputArchive@vanetza@@QEAAAEAV01@AEBG@Z
	??$?RV?$EndianType@G$0A@@vanetza@@@?$_Uhash_compare@V?$EndianType@G$0A@@vanetza@@U?$hash@V?$EndianType@G$0A@@vanetza@@@std@@U?$equal_to@V?$EndianType@G$0A@@vanetza@@@4@@std@@QEBA_KAEBV?$EndianType@G$0A@@vanetza@@@Z
	??$?RV?$EndianType@G$0A@@vanetza@@V01@@?$_Uhash_compare@V?$EndianType@G$0A@@vanetza@@U?$hash@V?$EndianType@G$0A@@vanetza@@@std@@U?$equal_to@V?$EndianType@G$0A@@vanetza@@@4@@std@@QEBA_NAEBV?$EndianType@G$0A@@vanetza@@0@Z
	??$_Adl_verify_range@PEAV?$_List_unchecked_iterator@V?$_List_val@U?$_List_simple_types@U?$pair@$$CBV?$EndianType@G$0A@@vanetza@@PEAVIndicationInterface@btp@2@@std@@@std@@@std@@@std@@PEAV12@@std@@YAXAEBQEAV?$_List_unchecked_iterator@V?$_List_val@U?$_List_simple_types@U?$pair@$$CBV?$EndianType@G$0A@@vanetza@@PEAVIndicationInterface@btp@2@@std@@@std@@@std@@@0@0@Z
	??$_Adl_verify_range@V?$_List_iterator@V?$_List_val@U?$_List_simple_types@PEAVPromiscuousHook@PortDispatcher@btp@vanetza@@@std@@@std@@@std@@V12@@std@@YAXAEBV?$_List_iterator@V?$_List_val@U?$_List_simple_types@PEAVPromiscuousHook@PortDispatcher@btp@vanetza@@@std@@@std@@@0@0@Z
	??$_Alloc_proxy@V?$allocator@U_Container_proxy@std@@@std@@@_Container_base12@std@@QEAAX$$QEAV?$allocator@U_Container_proxy@std@@@1@@Z
	??$_Allocate@$0BA@U_Default_allocate_traits@std@@$0A@@std@@YAPEAX_K@Z
	??$_Allocate_manually_vector_aligned@U_Default_allocate_traits@std@@@std@@YAPEAX_K@Z
	??$_Construct@$00PEBD@?$basic_string@DU?$char_traits@D@std@@V?$allocator@D@2@@std@@AEAAXQEBD_K@Z
	??$_Construct@$01PEBD@?$basic_string@DU?$char_traits@D@std@@V?$allocator@D@2@@std@@AEAAXQEBD_K@Z
	??$_Construct_in_place@PEADAEAPEAD@std@@YAXAEAPEAD0@Z
	??$_Construct_in_place@PEADAEBQEAD@std@@YAXAEAPEADAEBQEAD@Z
	??$_Construct_in_place@PEAU?$_List_node@PEAVPromiscuousHook@PortDispatcher@btp@vanetza@@PEAX@std@@AEBQEAU12@@std@@YAXAEAPEAU?$_List_node@PEAVPromiscuousHook@PortDispatcher@btp@vanetza@@PEAX@0@AEBQEAU10@@Z
	??$_Construct_in_place@PEAU?$_List_node@U?$pair@$$CBV?$EndianType@G$0A@@vanetza@@PEAVIndicationInterface@btp@2@@std@@PEAX@std@@AEBQEAU12@@std@@YAXAEAPEAU?$_List_node@U?$pair@$$CBV?$EndianType@G$0A@@vanetza@@PEAVIndicationInterface@btp@2@@std@@PEAX@0@AEBQEAU10@@Z
	??$_Construct_in_place@U_Container_proxy@std@@PEAU_Container_base12@2@@std@@YAXAEAU_Container_proxy@0@$$QEAPEAU_Container_base12@0@@Z
	??$_Construct_in_place@V?$_List_unchecked_iterator@V?$_List_val@U?$_List_simple_types@U?$pair@$$CBV?$EndianType@G$0A@@vanetza@@PEAVIndicationInterface@btp@2@@std@@@std@@@std@@@std@@AEBV12@@std@@YAXAEAV?$_List_unchecked_iterator@V?$_List_val@U?$_List_simple_types@U?$pair@$$CBV?$EndianType@G$0A@@vanetza@@PEAVIndicationInterface@btp@2@@std@@@std@@@std@@@0@AEBV10@@Z
	??$_Construct_n@AEBQEAEAEBQEAE@?$vector@EV?$allocator@E@std@@@std@@AEAAX_KAEBQEAE1@Z
	??$_Convert_size@_K@std@@YA_K_K@Z
	??$_Copy_memmove@PEAEPEAE@std@@YAPEAEPEAE00@Z
	??$_Deallocate@$0BA@$0A@@std@@YAXPEAX_K@Z
	??$_Deallocate_plain@V?$allocator@U_Container_proxy@std@@@std@@@std@@YAXAEAV?$allocator@U_Container_proxy@std@@@0@QEAU_Container_proxy@0@@Z
	??$_Delete_plain_internal@V?$allocator@U_Container_proxy@std@@@std@@@std@@YAXAEAV?$allocator@U_Container_proxy@std@@@0@QEAU_Container_proxy@0@@Z
	??$_Destroy_in_place@PEAD@std@@YAXAEAPEAD@Z
	??$_Destroy_in_place@PEAU?$_List_node@U?$pair@$$CBV?$EndianType@G$0A@@vanetza@@PEAVIndicationInterface@btp@2@@std@@PEAX@std@@@std@@YAXAEAPEAU?$_List_node@U?$pair@$$CBV?$EndianType@G$0A@@vanetza@@PEAVIndicationInterface@btp@2@@std@@PEAX@0@@Z
	??$_Destroy_in_place@PEAU?$_Tree_node@U?$pair@$$CBW4OsiLayer@vanetza@@VByteBufferConvertible@2@@std@@PEAX@std@@@std@@YAXAEAPEAU?$_Tree_node@U?$pair@$$CBW4OsiLayer@vanetza@@VByteBufferConvertible@2@@std@@PEAX@0@@Z
	??$_Destroy_range@PEAV?$_List_unchecked_iterator@V?$_List_val@U?$_List_simple_types@U?$pair@$$CBV?$EndianType@G$0A@@vanetza@@PEAVIndicationInterface@btp@2@@std@@@std@@@std@@@std@@PEAV12@@std@@YAXPEAV?$_List_unchecked_iterator@V?$_List_val@U?$_List_simple_types@U?$pair@$$CBV?$EndianType@G$0A@@vanetza@@PEAVIndicationInterface@btp@2@@std@@@std@@@std@@@0@QEAV10@@Z
	??$_Destroy_range@V?$allocator@E@std@@@std@@YAXPEAEQEAEAEAV?$allocator@E@0@@Z
	??$_Emplace@AEBQEAVPromiscuousHook@PortDispatcher@btp@vanetza@@@?$list@PEAVPromiscuousHook@PortDispatcher@btp@vanetza@@V?$allocator@PEAVPromiscuousHook@PortDispatcher@btp@vanetza@@@std@@@std@@QEAAPEAU?$_List_node@PEAVPromiscuousHook@PortDispatcher@btp@vanetza@@PEAX@1@QEAU21@AEBQEAVPromiscuousHook@PortDispatcher@btp@vanetza@@@Z
	??$_Emplace_back@AEAE@?$_Uninitialized_backout_al@V?$allocator@E@std@@@std@@QEAAXAEAE@Z
	??$_Emplace_back@AEBV?$_List_unchecked_iterator@V?$_List_val@U?$_List_simple_types@U?$pair@$$CBV?$EndianType@G$0A@@vanetza@@PEAVIndicationInterface@btp@2@@std@@@std@@@std@@@std@@@?$_Uninitialized_backout@PEAV?$_List_unchecked_iterator@V?$_List_val@U?$_List_simple_types@U?$pair@$$CBV?$EndianType@G$0A@@vanetza@@PEAVIndicationInterface@btp@2@@std@@@std@@@std@@@std@@@std@@QEAAXAEBV?$_List_unchecked_iterator@V?$_List_val@U?$_List_simple_types@U?$pair@$$CBV?$EndianType@G$0A@@vanetza@@PEAVIndicationInterface@btp@2@@std@@@std@@@std@@@1@@Z
	??$_Erase_head@V?$allocator@U?$_Tree_node@U?$pair@$$CBW4OsiLayer@vanetza@@VByteBufferConvertible@2@@std@@PEAX@std@@@std@@@?$_Tree_val@U?$_Tree_simple_types@U?$pair@$$CBW4OsiLayer@vanetza@@VByteBufferConvertible@2@@std@@@std@@@std@@QEAAXAEAV?$allocator@U?$_Tree_node@U?$pair@$$CBW4OsiLayer@vanetza@@VByteBufferConvertible@2@@std@@PEAX@std@@@1@@Z
	??$_Erase_tree@V?$allocator@U?$_Tree_node@U?$pair@$$CBW4OsiLayer@vanetza@@VByteBufferConvertible@2@@std@@PEAX@std@@@std@@@?$_Tree_val@U?$_Tree_simple_types@U?$pair@$$CBW4OsiLayer@vanetza@@VByteBufferConvertible@2@@std@@@std@@@std@@QEAAXAEAV?$allocator@U?$_Tree_node@U?$pair@$$CBW4OsiLayer@vanetza@@VByteBufferConvertible@2@@std@@PEAX@std@@@1@PEAU?$_Tree_node@U?$pair@$$CBW4OsiLayer@vanetza@@VByteBufferConvertible@2@@std@@PEAX@1@@Z
	??$_Find_last@V?$EndianType@G$0A@@vanetza@@@?$_Hash@V?$_Umap_traits@V?$EndianType@G$0A@@vanetza@@PEAVIndicationInterface@btp@2@V?$_Uhash_compare@V?$EndianType@G$0A@@vanetza@@U?$hash@V?$EndianType@G$0A@@vanetza@@@std@@U?$equal_to@V?$EndianType@G$0A@@vanetza@@@4@@std@@V?$allocator@U?$pair@$$CBV?$EndianType@G$0A@@vanetza@@PEAVIndicationInterface@btp@2@@std@@@6@$0A@@std@@@std@@IEBA?AU?$_Hash_find_last_result@PEAU?$_List_node@U?$pair@$$CBV?$EndianType@G$0A@@vanetza@@PEAVIndicationInterface@btp@2@@std@@PEAX@std@@@1@AEBV?$EndianType@G$0A@@vanetza@@_K@Z
	??$_Find_unchecked@V?$_List_unchecked_iterator@V?$_List_val@U?$_List_simple_types@PEAVPromiscuousHook@PortDispatcher@btp@vanetza@@@std@@@std@@@std@@PEAVPromiscuousHook@PortDispatcher@btp@vanetza@@@std@@YA?AV?$_List_unchecked_iterator@V?$_List_val@U?$_List_simple_types@PEAVPromiscuousHook@PortDispatcher@btp@vanetza@@@std@@@std@@@0@V10@V10@AEBQEAVPromiscuousHook@PortDispatcher@btp@vanetza@@@Z
	??$_Fnv1a_append_value@G@std@@YA_K_KAEBG@Z
	??$_Free_non_head@V?$allocator@U?$_List_node@U?$pair@$$CBV?$EndianType@G$0A@@vanetza@@PEAVIndicationInterface@btp@2@@std@@PEAX@std@@@std@@@?$_List_node@U?$pair@$$CBV?$EndianType@G$0A@@vanetza@@PEAVIndicationInterface@btp@2@@std@@PEAX@std@@SAXAEAV?$allocator@U?$_List_node@U?$pair@$$CBV?$EndianType@G$0A@@vanetza@@PEAVIndicationInterface@btp@2@@std@@PEAX@std@@@1@PEAU01@@Z
	??$_Freenode0@V?$allocator@U?$_List_node@U?$pair@$$CBV?$EndianType@G$0A@@vanetza@@PEAVIndicationInterface@btp@2@@std@@PEAX@std@@@std@@@?$_List_node@U?$pair@$$CBV?$EndianType@G$0A@@vanetza@@PEAVIndicationInterface@btp@2@@std@@PEAX@std@@SAXAEAV?$allocator@U?$_List_node@U?$pair@$$CBV?$EndianType@G$0A@@vanetza@@PEAVIndicationInterface@btp@2@@std@@PEAX@std@@@1@PEAU01@@Z
	??$_Freenode0@V?$allocator@U?$_Tree_node@U?$pair@$$CBW4OsiLayer@vanetza@@VByteBufferConvertible@2@@std@@PEAX@std@@@std@@@?$_Tree_node@U?$pair@$$CBW4OsiLayer@vanetza@@VByteBufferConvertible@2@@std@@PEAX@std@@SAXAEAV?$allocator@U?$_Tree_node@U?$pair@$$CBW4OsiLayer@vanetza@@VByteBufferConvertible@2@@std@@PEAX@std@@@1@PEAU01@@Z
	??$_Freenode@V?$allocator@U?$_List_node@U?$pair@$$CBV?$EndianType@G$0A@@vanetza@@PEAVIndicationInterface@btp@2@@std@@PEAX@std@@@std@@@?$_List_node@U?$pair@$$CBV?$EndianType@G$0A@@vanetza@@PEAVIndicationInterface@btp@2@@std@@PEAX@std@@SAXAEAV?$allocator@U?$_List_node@U?$pair@$$CBV?$EndianType@G$0A@@vanetza@@PEAVIndicationInterface@btp@2@@std@@PEAX@std@@@1@PEAU01@@Z
	??$_Freenode@V?$allocator@U?$_Tree_node@U?$pair@$$CBW4OsiLayer@vanetza@@VByteBufferConvertible@2@@std@@PEAX@std@@@std@@@?$_Tree_node@U?$pair@$$CBW4OsiLayer@vanetza@@VByteBufferConvertible@2@@std@@PEAX@std@@SAXAEAV?$allocator@U?$_Tree_node@U?$pair@$$CBW4OsiLayer@vanetza@@VByteBufferConvertible@2@@std@@PEAX@std@@@1@PEAU01@@Z
	??$_Get_size_of_n@$00@std@@YA_K_K@Z
	??$_Get_size_of_n@$07@std@@YA_K_K@Z
	??$_Get_size_of_n@$0BA@@std@@YA_K_K@Z
	??$_Get_size_of_n@$0BI@@std@@YA_K_K@Z
	??$_Get_size_of_n@$0CA@@std@@YA_K_K@Z
	??$_Get_unwrapped@AEAV?$_List_iterator@V?$_List_val@U?$_List_simple_types@PEAVPromiscuousHook@PortDispatcher@btp@vanetza@@@std@@@std@@@std@@@std@@YA?A_TAEAV?$_List_iterator@V?$_List_val@U?$_List_simple_types@PEAVPromiscuousHook@PortDispatcher@btp@vanetza@@@std@@@std@@@0@@Z
	??$_Get_unwrapped@AEBQEAE@std@@YA?A_TAEBQEAE@Z
	??$_Get_unwrapped@AEBQEAV?$_List_unchecked_iterator@V?$_List_val@U?$_List_simple_types@U?$pair@$$CBV?$EndianType@G$0A@@vanetza@@PEAVIndicationInterface@btp@2@@std@@@std@@@std@@@std@@@std@@YA?A_TAEBQEAV?$_List_unchecked_iterator@V?$_List_val@U?$_List_simple_types@U?$pair@$$CBV?$EndianType@G$0A@@vanetza@@PEAVIndicationInterface@btp@2@@std@@@std@@@std@@@0@@Z
	??$_Get_unwrapped@AEBV?$_List_iterator@V?$_List_val@U?$_List_simple_types@PEAVPromiscuousHook@PortDispatcher@btp@vanetza@@@std@@@std@@@std@@@std@@YA?A_TAEBV?$_List_iterator@V?$_List_val@U?$_List_simple_types@PEAVPromiscuousHook@PortDispatcher@btp@vanetza@@@std@@@std@@@0@@Z
	??$_Getvals@_W@?$time_get@DV?$istreambuf_iterator@DU?$char_traits@D@std@@@std@@@std@@IEAAX_WAEBV_Locinfo@1@@Z
	??$_Getvals@_W@?$time_get@_WV?$istreambuf_iterator@_WU?$char_traits@_W@std@@@std@@@std@@IEAAX_WAEBV_Locinfo@1@@Z
	??$_Hash_representation@G@std@@YA_KAEBG@Z
	??$_Immortalize_memcpy_image@V_Iostream_error_category2@std@@@std@@YAAEBV_Iostream_error_category2@0@XZ
	??$_Kfn@$$CBV?$EndianType@G$0A@@vanetza@@PEAVIndicationInterface@btp@2@@?$_Umap_traits@V?$EndianType@G$0A@@vanetza@@PEAVIndicationInterface@btp@2@V?$_Uhash_compare@V?$EndianType@G$0A@@vanetza@@U?$hash@V?$EndianType@G$0A@@vanetza@@@std@@U?$equal_to@V?$EndianType@G$0A@@vanetza@@@4@@std@@V?$allocator@U?$pair@$$CBV?$EndianType@G$0A@@vanetza@@PEAVIndicationInterface@btp@2@@std@@@6@$0A@@std@@SAAEBV?$EndianType@G$0A@@vanetza@@AEBU?$pair@$$CBV?$EndianType@G$0A@@vanetza@@PEAVIndicationInterface@btp@2@@1@@Z
	??$_Maklocstr@D@std@@YAPEADPEBDPEADAEBU_Cvtvec@@@Z
	??$_Maklocstr@_W@std@@YAPEA_WPEBDPEA_WAEBU_Cvtvec@@@Z
	??$_Pocma@V?$allocator@E@std@@@std@@YAXAEAV?$allocator@E@0@0@Z
	??$_Reallocate_grow_by@V<lambda_65e615be2a453ca0576c979606f46740>@@PEBD_K@?$basic_string@DU?$char_traits@D@std@@V?$allocator@D@2@@std@@AEAAAEAV01@_KV<lambda_65e615be2a453ca0576c979606f46740>@@PEBD_K@Z
	??$_Seek_wrapped@V?$_List_iterator@V?$_List_val@U?$_List_simple_types@PEAVPromiscuousHook@PortDispatcher@btp@vanetza@@@std@@@std@@@std@@V?$_List_unchecked_iterator@V?$_List_val@U?$_List_simple_types@PEAVPromiscuousHook@PortDispatcher@btp@vanetza@@@std@@@std@@@2@@std@@YAXAEAV?$_List_iterator@V?$_List_val@U?$_List_simple_types@PEAVPromiscuousHook@PortDispatcher@btp@vanetza@@@std@@@std@@@0@$$QEAV?$_List_unchecked_iterator@V?$_List_val@U?$_List_simple_types@PEAVPromiscuousHook@PortDispatcher@btp@vanetza@@@std@@@std@@@0@@Z
	??$_To_address@PEAE@std@@YA?A_PAEBQEAE@Z
	??$_Try_emplace@AEBV?$EndianType@G$0A@@vanetza@@$$V@?$_Hash@V?$_Umap_traits@V?$EndianType@G$0A@@vanetza@@PEAVIndicationInterface@btp@2@V?$_Uhash_compare@V?$EndianType@G$0A@@vanetza@@U?$hash@V?$EndianType@G$0A@@vanetza@@@std@@U?$equal_to@V?$EndianType@G$0A@@vanetza@@@4@@std@@V?$allocator@U?$pair@$$CBV?$EndianType@G$0A@@vanetza@@PEAVIndicationInterface@btp@2@@std@@@6@$0A@@std@@@std@@IEAA?AU?$pair@PEAU?$_List_node@U?$pair@$$CBV?$EndianType@G$0A@@vanetza@@PEAVIndicationInterface@btp@2@@std@@PEAX@std@@_N@1@AEBV?$EndianType@G$0A@@vanetza@@@Z
	??$_Tuple_get@$0A@AEBV?$EndianType@G$0A@@vanetza@@@std@@YA$$QEA_P$$QEAV?$tuple@AEBV?$EndianType@G$0A@@vanetza@@@0@@Z
	??$_Unfancy@D@std@@YAPEADPEAD@Z
	??$_Unfancy@E@std@@YAPEAEPEAE@Z
	??$_Unfancy@U_Container_proxy@std@@@std@@YAPEAU_Container_proxy@0@PEAU10@@Z
	??$_Uninitialized_copy@PEAEV?$allocator@E@std@@@std@@YAPEAEQEAE0PEAEAEAV?$allocator@E@0@@Z
	??$_Verify_range@V?$_List_unchecked_iterator@V?$_List_val@U?$_List_simple_types@U?$pair@$$CBV?$EndianType@G$0A@@vanetza@@PEAVIndicationInterface@btp@2@@std@@@std@@@std@@@std@@@std@@YAXQEBV?$_List_unchecked_iterator@V?$_List_val@U?$_List_simple_types@U?$pair@$$CBV?$EndianType@G$0A@@vanetza@@PEAVIndicationInterface@btp@2@@std@@@std@@@std@@@0@0@Z
	??$_Voidify_iter@PEAE@std@@YAPEAXPEAE@Z
	??$_Voidify_iter@PEAPEAD@std@@YAPEAXPEAPEAD@Z
	??$_Voidify_iter@PEAPEAU?$_List_node@PEAVPromiscuousHook@PortDispatcher@btp@vanetza@@PEAX@std@@@std@@YAPEAXPEAPEAU?$_List_node@PEAVPromiscuousHook@PortDispatcher@btp@vanetza@@PEAX@0@@Z
	??$_Voidify_iter@PEAPEAU?$_List_node@U?$pair@$$CBV?$EndianType@G$0A@@vanetza@@PEAVIndicationInterface@btp@2@@std@@PEAX@std@@@std@@YAPEAXPEAPEAU?$_List_node@U?$pair@$$CBV?$EndianType@G$0A@@vanetza@@PEAVIndicationInterface@btp@2@@std@@PEAX@0@@Z
	??$_Voidify_iter@PEAPEAVPromiscuousHook@PortDispatcher@btp@vanetza@@@std@@YAPEAXPEAPEAVPromiscuousHook@PortDispatcher@btp@vanetza@@@Z
	??$_Voidify_iter@PEAU?$pair@$$CBV?$EndianType@G$0A@@vanetza@@PEAVIndicationInterface@btp@2@@std@@@std@@YAPEAXPEAU?$pair@$$CBV?$EndianType@G$0A@@vanetza@@PEAVIndicationInterface@btp@2@@0@@Z
	??$_Voidify_iter@PEAU_Container_proxy@std@@@std@@YAPEAXPEAU_Container_proxy@0@@Z
	??$_Voidify_iter@PEAV?$_List_unchecked_iterator@V?$_List_val@U?$_List_simple_types@U?$pair@$$CBV?$EndianType@G$0A@@vanetza@@PEAVIndicationInterface@btp@2@@std@@@std@@@std@@@std@@@std@@YAPEAXPEAV?$_List_unchecked_iterator@V?$_List_val@U?$_List_simple_types@U?$pair@$$CBV?$EndianType@G$0A@@vanetza@@PEAVIndicationInterface@btp@2@@std@@@std@@@std@@@0@@Z
	??$addressof@$$CBV?$_String_val@U?$_Simple_types@D@std@@@std@@@std@@YAPEBV?$_String_val@U?$_Simple_types@D@std@@@0@AEBV10@@Z
	??$addressof@PEAD@std@@YAPEAPEADAEAPEAD@Z
	??$addressof@PEAU?$_List_node@PEAVPromiscuousHook@PortDispatcher@btp@vanetza@@PEAX@std@@@std@@YAPEAPEAU?$_List_node@PEAVPromiscuousHook@PortDispatcher@btp@vanetza@@PEAX@0@AEAPEAU10@@Z
	??$addressof@PEAU?$_List_node@U?$pair@$$CBV?$EndianType@G$0A@@vanetza@@PEAVIndicationInterface@btp@2@@std@@PEAX@std@@@std@@YAPEAPEAU?$_List_node@U?$pair@$$CBV?$EndianType@G$0A@@vanetza@@PEAVIndicationInterface@btp@2@@std@@PEAX@0@AEAPEAU10@@Z
	??$addressof@PEAVPromiscuousHook@PortDispatcher@btp@vanetza@@@std@@YAPEAPEAVPromiscuousHook@PortDispatcher@btp@vanetza@@AEAPEAV1234@@Z
	??$addressof@U?$pair@$$CBV?$EndianType@G$0A@@vanetza@@PEAVIndicationInterface@btp@2@@std@@@std@@YAPEAU?$pair@$$CBV?$EndianType@G$0A@@vanetza@@PEAVIndicationInterface@btp@2@@0@AEAU10@@Z
	??$addressof@U?$pair@$$CBW4OsiLayer@vanetza@@VByteBufferConvertible@2@@std@@@std@@YAPEAU?$pair@$$CBW4OsiLayer@vanetza@@VByteBufferConvertible@2@@0@AEAU10@@Z
	??$addressof@U_Container_base12@std@@@std@@YAPEAU_Container_base12@0@AEAU10@@Z
	??$addressof@U_Container_proxy@std@@@std@@YAPEAU_Container_proxy@0@AEAU10@@Z
	??$addressof@V?$_List_unchecked_iterator@V?$_List_val@U?$_List_simple_types@U?$pair@$$CBV?$EndianType@G$0A@@vanetza@@PEAVIndicationInterface@btp@2@@std@@@std@@@std@@@std@@@std@@YAPEAV?$_List_unchecked_iterator@V?$_List_val@U?$_List_simple_types@U?$pair@$$CBV?$EndianType@G$0A@@vanetza@@PEAVIndicationInterface@btp@2@@std@@@std@@@std@@@0@AEAV10@@Z
	??$addressof@V?$_List_val@U?$_List_simple_types@PEAVPromiscuousHook@PortDispatcher@btp@vanetza@@@std@@@std@@@std@@YAPEAV?$_List_val@U?$_List_simple_types@PEAVPromiscuousHook@PortDispatcher@btp@vanetza@@@std@@@0@AEAV10@@Z
	??$addressof@V?$_String_val@U?$_Simple_types@D@std@@@std@@@std@@YAPEAV?$_String_val@U?$_Simple_types@D@std@@@0@AEAV10@@Z
	??$addressof@V?$_Tree_val@U?$_Tree_simple_types@U?$pair@$$CBW4OsiLayer@vanetza@@VByteBufferConvertible@2@@std@@@std@@@std@@@std@@YAPEAV?$_Tree_val@U?$_Tree_simple_types@U?$pair@$$CBW4OsiLayer@vanetza@@VByteBufferConvertible@2@@std@@@std@@@0@AEAV10@@Z
	??$addressof@V?$vector@EV?$allocator@E@std@@@std@@@std@@YAPEAV?$vector@EV?$allocator@E@std@@@0@AEAV10@@Z
	??$adl_begin@$$CBV?$iterator_range@V?$_Vector_iterator@V?$_Vector_val@U?$_Simple_types@E@std@@@std@@@std@@@boost@@@?$iterator_range_impl@V?$_Vector_const_iterator@V?$_Vector_val@U?$_Simple_types@E@std@@@std@@@std@@@iterator_range_detail@boost@@SA?AV?$_Vector_const_iterator@V?$_Vector_val@U?$_Simple_types@E@std@@@std@@@std@@AEBV?$iterator_range@V?$_Vector_iterator@V?$_Vector_val@U?$_Simple_types@E@std@@@std@@@std@@@2@@Z
	??$adl_begin@V?$iterator_range@V?$_Vector_const_iterator@V?$_Vector_val@U?$_Simple_types@E@std@@@std@@@std@@@boost@@@?$iterator_range_impl@V?$_Vector_const_iterator@V?$_Vector_val@U?$_Simple_types@E@std@@@std@@@std@@@iterator_range_detail@boost@@SA?AV?$_Vector_const_iterator@V?$_Vector_val@U?$_Simple_types@E@std@@@std@@@std@@AEAV?$iterator_range@V?$_Vector_const_iterator@V?$_Vector_val@U?$_Simple_types@E@std@@@std@@@std@@@2@@Z
	??$adl_end@$$CBV?$iterator_range@V?$_Vector_iterator@V?$_Vector_val@U?$_Simple_types@E@std@@@std@@@std@@@boost@@@?$iterator_range_impl@V?$_Vector_const_iterator@V?$_Vector_val@U?$_Simple_types@E@std@@@std@@@std@@@iterator_range_detail@boost@@SA?AV?$_Vector_const_iterator@V?$_Vector_val@U?$_Simple_types@E@std@@@std@@@std@@AEBV?$iterator_range@V?$_Vector_iterator@V?$_Vector_val@U?$_Simple_types@E@std@@@std@@@std@@@2@@Z
	??$adl_end@V?$iterator_range@V?$_Vector_const_iterator@V?$_Vector_val@U?$_Simple_types@E@std@@@std@@@std@@@boost@@@?$iterator_range_impl@V?$_Vector_const_iterator@V?$_Vector_val@U?$_Simple_types@E@std@@@std@@@std@@@iterator_range_detail@boost@@SA?AV?$_Vector_const_iterator@V?$_Vector_val@U?$_Simple_types@E@std@@@std@@@std@@AEAV?$iterator_range@V?$_Vector_const_iterator@V?$_Vector_val@U?$_Simple_types@E@std@@@std@@@std@@@2@@Z
	??$assign_impl@$$TU?$bool_@$00@mpl@boost@@Uhas_fallback_type_@?$variant@VAddress@geonet@vanetza@@UArea@23@$$T@3@@move_assigner@?$variant@VAddress@geonet@vanetza@@UArea@23@$$T@boost@@AEBAXAEA$$TU?$bool_@$00@mpl@2@1Uhas_fallback_type_@12@@Z
	??$assign_impl@UArea@geonet@vanetza@@@move_assigner@?$variant@VAddress@geonet@vanetza@@UArea@23@$$T@boost@@AEBAXAEAUArea@geonet@vanetza@@U?$bool_@$0A@@mpl@2@1U?$bool_@$00@72@@Z
	??$assign_impl@UCircle@geonet@vanetza@@@assigner@?$variant@URectangle@geonet@vanetza@@UEllipse@23@UCircle@23@@boost@@IEBAXAEBUCircle@geonet@vanetza@@U?$bool_@$0A@@mpl@2@11@Z
	??$assign_impl@UCircle@geonet@vanetza@@@move_assigner@?$variant@URectangle@geonet@vanetza@@UEllipse@23@UCircle@23@@boost@@AEBAXAEAUCircle@geonet@vanetza@@U?$bool_@$0A@@mpl@2@11@Z
	??$assign_impl@UEllipse@geonet@vanetza@@@assigner@?$variant@URectangle@geonet@vanetza@@UEllipse@23@UCircle@23@@boost@@IEBAXAEBUEllipse@geonet@vanetza@@U?$bool_@$0A@@mpl@2@11@Z
	??$assign_impl@UEllipse@geonet@vanetza@@@move_assigner@?$variant@URectangle@geonet@vanetza@@UEllipse@23@UCircle@23@@boost@@AEBAXAEAUEllipse@geonet@vanetza@@U?$bool_@$0A@@mpl@2@11@Z
	??$assign_impl@URectangle@geonet@vanetza@@@assigner@?$variant@URectangle@geonet@vanetza@@UEllipse@23@UCircle@23@@boost@@IEBAXAEBURectangle@geonet@vanetza@@U?$bool_@$0A@@mpl@2@11@Z
	??$assign_impl@URectangle@geonet@vanetza@@@move_assigner@?$variant@URectangle@geonet@vanetza@@UEllipse@23@UCircle@23@@boost@@AEBAXAEAURectangle@geonet@vanetza@@U?$bool_@$0A@@mpl@2@11@Z
	??$assign_impl@V?$backup_holder@UCircle@geonet@vanetza@@@variant@detail@boost@@@assigner@?$variant@URectangle@geonet@vanetza@@UEllipse@23@UCircle@23@@boost@@IEBAXAEBV?$backup_holder@UCircle@geonet@vanetza@@@variant@detail@2@U?$bool_@$0A@@mpl@2@11@Z
	??$assign_impl@V?$backup_holder@UCircle@geonet@vanetza@@@variant@detail@boost@@@move_assigner@?$variant@URectangle@geonet@vanetza@@UEllipse@23@UCircle@23@@boost@@AEBAXAEAV?$backup_holder@UCircle@geonet@vanetza@@@variant@detail@2@U?$bool_@$0A@@mpl@2@11@Z
	??$assign_impl@V?$backup_holder@UEllipse@geonet@vanetza@@@variant@detail@boost@@@assigner@?$variant@URectangle@geonet@vanetza@@UEllipse@23@UCircle@23@@boost@@IEBAXAEBV?$backup_holder@UEllipse@geonet@vanetza@@@variant@detail@2@U?$bool_@$0A@@mpl@2@11@Z
	??$assign_impl@V?$backup_holder@UEllipse@geonet@vanetza@@@variant@detail@boost@@@move_assigner@?$variant@URectangle@geonet@vanetza@@UEllipse@23@UCircle@23@@boost@@AEBAXAEAV?$backup_holder@UEllipse@geonet@vanetza@@@variant@detail@2@U?$bool_@$0A@@mpl@2@11@Z
	??$assign_impl@V?$backup_holder@URectangle@geonet@vanetza@@@variant@detail@boost@@@assigner@?$variant@URectangle@geonet@vanetza@@UEllipse@23@UCircle@23@@boost@@IEBAXAEBV?$backup_holder@URectangle@geonet@vanetza@@@variant@detail@2@U?$bool_@$0A@@mpl@2@11@Z
	??$assign_impl@V?$backup_holder@URectangle@geonet@vanetza@@@variant@detail@boost@@@move_assigner@?$variant@URectangle@geonet@vanetza@@UEllipse@23@UCircle@23@@boost@@AEBAXAEAV?$backup_holder@URectangle@geonet@vanetza@@@variant@detail@2@U?$bool_@$0A@@mpl@2@11@Z
	??$assign_impl@VAddress@geonet@vanetza@@U?$bool_@$00@mpl@boost@@Uhas_fallback_type_@?$variant@VAddress@geonet@vanetza@@UArea@23@$$T@6@@move_assigner@?$variant@VAddress@geonet@vanetza@@UArea@23@$$T@boost@@AEBAXAEAVAddress@geonet@vanetza@@U?$bool_@$00@mpl@2@1Uhas_fallback_type_@12@@Z
	??$backup_assign_impl@UCircle@geonet@vanetza@@@?$backup_assigner@V?$variant@URectangle@geonet@vanetza@@UEllipse@23@UCircle@23@@boost@@@variant@detail@boost@@AEAAXAEAUCircle@geonet@vanetza@@U?$bool_@$0A@@mpl@3@H@Z
	??$backup_assign_impl@UCircle@geonet@vanetza@@@?$backup_assigner@V?$variant@URectangle@geonet@vanetza@@UEllipse@23@UCircle@23@@boost@@@variant@detail@boost@@AEAAXAEAV?$backup_holder@UCircle@geonet@vanetza@@@123@U?$bool_@$0A@@mpl@3@J@Z
	??$backup_assign_impl@UEllipse@geonet@vanetza@@@?$backup_assigner@V?$variant@URectangle@geonet@vanetza@@UEllipse@23@UCircle@23@@boost@@@variant@detail@boost@@AEAAXAEAUEllipse@geonet@vanetza@@U?$bool_@$0A@@mpl@3@H@Z
	??$backup_assign_impl@UEllipse@geonet@vanetza@@@?$backup_assigner@V?$variant@URectangle@geonet@vanetza@@UEllipse@23@UCircle@23@@boost@@@variant@detail@boost@@AEAAXAEAV?$backup_holder@UEllipse@geonet@vanetza@@@123@U?$bool_@$0A@@mpl@3@J@Z
	??$backup_assign_impl@URectangle@geonet@vanetza@@@?$backup_assigner@V?$variant@URectangle@geonet@vanetza@@UEllipse@23@UCircle@23@@boost@@@variant@detail@boost@@AEAAXAEAURectangle@geonet@vanetza@@U?$bool_@$0A@@mpl@3@H@Z
	??$backup_assign_impl@URectangle@geonet@vanetza@@@?$backup_assigner@V?$variant@URectangle@geonet@vanetza@@UEllipse@23@UCircle@23@@boost@@@variant@detail@boost@@AEAAXAEAV?$backup_holder@URectangle@geonet@vanetza@@@123@U?$bool_@$0A@@mpl@3@J@Z
	??$begin@V?$iterator_range@V?$_Vector_const_iterator@V?$_Vector_val@U?$_Simple_types@E@std@@@std@@@std@@@boost@@@range_adl_barrier@boost@@YA?AV?$_Vector_const_iterator@V?$_Vector_val@U?$_Simple_types@E@std@@@std@@@std@@AEAV?$iterator_range@V?$_Vector_const_iterator@V?$_Vector_val@U?$_Simple_types@E@std@@@std@@@std@@@1@@Z
	??$begin@V?$iterator_range@V?$_Vector_iterator@V?$_Vector_val@U?$_Simple_types@E@std@@@std@@@std@@@boost@@@range_adl_barrier@boost@@YA?AV?$_Vector_iterator@V?$_Vector_val@U?$_Simple_types@E@std@@@std@@@std@@AEBV?$iterator_range@V?$_Vector_iterator@V?$_Vector_val@U?$_Simple_types@E@std@@@std@@@std@@@1@@Z
	??$call_member_close@V?$linked_streambuf@DU?$char_traits@D@std@@@detail@iostreams@boost@@@detail@iostreams@boost@@YA?AV?$member_close_operation@V?$linked_streambuf@DU?$char_traits@D@std@@@detail@iostreams@boost@@@012@AEAV?$linked_streambuf@DU?$char_traits@D@std@@@012@H@Z
	??$call_reset@V?$optional@V?$concept_adapter@Vbyte_buffer_source@vanetza@@@detail@iostreams@boost@@@detail@iostreams@boost@@@detail@iostreams@boost@@YA?AV?$reset_operation@V?$optional@V?$concept_adapter@Vbyte_buffer_source@vanetza@@@detail@iostreams@boost@@@detail@iostreams@boost@@@012@AEAV?$optional@V?$concept_adapter@Vbyte_buffer_source@vanetza@@@detail@iostreams@boost@@@012@@Z
	??$cast_storage@$$T@variant@detail@boost@@YAAEA$$TPEAX@Z
	??$cast_storage@$$T@variant@detail@boost@@YAAEB$$TPEBX@Z
	??$cast_storage@UArea@geonet@vanetza@@@variant@detail@boost@@YAAEAUArea@geonet@vanetza@@PEAX@Z
	??$cast_storage@UArea@geonet@vanetza@@@variant@detail@boost@@YAAEBUArea@geonet@vanetza@@PEBX@Z
	??$cast_storage@UCircle@geonet@vanetza@@@variant@detail@boost@@YAAEAUCircle@geonet@vanetza@@PEAX@Z
	??$cast_storage@UCircle@geonet@vanetza@@@variant@detail@boost@@YAAEBUCircle@geonet@vanetza@@PEBX@Z
	??$cast_storage@UEllipse@geonet@vanetza@@@variant@detail@boost@@YAAEAUEllipse@geonet@vanetza@@PEAX@Z
	??$cast_storage@UEllipse@geonet@vanetza@@@variant@detail@boost@@YAAEBUEllipse@geonet@vanetza@@PEBX@Z
	??$cast_storage@URectangle@geonet@vanetza@@@variant@detail@boost@@YAAEAURectangle@geonet@vanetza@@PEAX@Z
	??$cast_storage@URectangle@geonet@vanetza@@@variant@detail@boost@@YAAEBURectangle@geonet@vanetza@@PEBX@Z
	??$cast_storage@V?$backup_holder@UCircle@geonet@vanetza@@@variant@detail@boost@@@variant@detail@boost@@YAAEAV?$backup_holder@UCircle@geonet@vanetza@@@012@PEAX@Z
	??$cast_storage@V?$backup_holder@UCircle@geonet@vanetza@@@variant@detail@boost@@@variant@detail@boost@@YAAEBV?$backup_holder@UCircle@geonet@vanetza@@@012@PEBX@Z
	??$cast_storage@V?$backup_holder@UEllipse@geonet@vanetza@@@variant@detail@boost@@@variant@detail@boost@@YAAEAV?$backup_holder@UEllipse@geonet@vanetza@@@012@PEAX@Z
	??$cast_storage@V?$backup_holder@UEllipse@geonet@vanetza@@@variant@detail@boost@@@variant@detail@boost@@YAAEBV?$backup_holder@UEllipse@geonet@vanetza@@@012@PEBX@Z
	??$cast_storage@V?$backup_holder@URectangle@geonet@vanetza@@@variant@detail@boost@@@variant@detail@boost@@YAAEAV?$backup_holder@URectangle@geonet@vanetza@@@012@PEAX@Z
	??$cast_storage@V?$backup_holder@URectangle@geonet@vanetza@@@variant@detail@boost@@@variant@detail@boost@@YAAEBV?$backup_holder@URectangle@geonet@vanetza@@@012@PEBX@Z
	??$cast_storage@V?$backup_holder@VChunkPacket@vanetza@@@variant@detail@boost@@@variant@detail@boost@@YAAEAV?$backup_holder@VChunkPacket@vanetza@@@012@PEAX@Z
	??$cast_storage@VAddress@geonet@vanetza@@@variant@detail@boost@@YAAEAVAddress@geonet@vanetza@@PEAX@Z
	??$cast_storage@VAddress@geonet@vanetza@@@variant@detail@boost@@YAAEBVAddress@geonet@vanetza@@PEBX@Z
	??$cast_storage@VChunkPacket@vanetza@@@variant@detail@boost@@YAAEAVChunkPacket@vanetza@@PEAX@Z
	??$cast_storage@VCohesivePacket@vanetza@@@variant@detail@boost@@YAAEAVCohesivePacket@vanetza@@PEAX@Z
	??$clear_flags@H@detail@iostreams@boost@@YA?AV?$clear_flags_operation@H@012@AEAH@Z
	??$close@V?$linked_streambuf@DU?$char_traits@D@std@@@detail@iostreams@boost@@@?$concept_adapter@Vbyte_buffer_source@vanetza@@@detail@iostreams@boost@@QEAAXHPEAV?$linked_streambuf@DU?$char_traits@D@std@@@123@@Z
	??$close@Vbyte_buffer_source@vanetza@@@?$close_impl@Uany_tag@iostreams@boost@@@detail@iostreams@boost@@SAXAEAVbyte_buffer_source@vanetza@@H@Z
	??$close@Vbyte_buffer_source@vanetza@@@iostreams@boost@@YAXAEAVbyte_buffer_source@vanetza@@H@Z
	??$close@Vbyte_buffer_source@vanetza@@V?$linked_streambuf@DU?$char_traits@D@std@@@detail@iostreams@boost@@@?$device_wrapper_impl@Uany_tag@iostreams@boost@@@detail@iostreams@boost@@SAXAEAVbyte_buffer_source@vanetza@@PEAV?$linked_streambuf@DU?$char_traits@D@std@@@123@H@Z
	??$close_all@Vbyte_buffer_source@vanetza@@@detail@iostreams@boost@@YAXAEAVbyte_buffer_source@vanetza@@@Z
	??$construct@EAEAE@?$_Default_allocator_traits@V?$allocator@E@std@@@std@@SAXAEAV?$allocator@E@1@QEAEAEAE@Z
	??$construct@PEAVPromiscuousHook@PortDispatcher@btp@vanetza@@AEBQEAV1234@@?$_Default_allocator_traits@V?$allocator@U?$_List_node@PEAVPromiscuousHook@PortDispatcher@btp@vanetza@@PEAX@std@@@std@@@std@@SAXAEAV?$allocator@U?$_List_node@PEAVPromiscuousHook@PortDispatcher@btp@vanetza@@PEAX@std@@@1@QEAPEAVPromiscuousHook@PortDispatcher@btp@vanetza@@AEBQEAV3456@@Z
	??$construct@U?$pair@$$CBV?$EndianType@G$0A@@vanetza@@PEAVIndicationInterface@btp@2@@std@@AEBUpiecewise_construct_t@2@V?$tuple@AEBV?$EndianType@G$0A@@vanetza@@@2@V?$tuple@$$V@2@@?$_Default_allocator_traits@V?$allocator@U?$_List_node@U?$pair@$$CBV?$EndianType@G$0A@@vanetza@@PEAVIndicationInterface@btp@2@@std@@PEAX@std@@@std@@@std@@SAXAEAV?$allocator@U?$_List_node@U?$pair@$$CBV?$EndianType@G$0A@@vanetza@@PEAVIndicationInterface@btp@2@@std@@PEAX@std@@@1@QEAU?$pair@$$CBV?$EndianType@G$0A@@vanetza@@PEAVIndicationInterface@btp@2@@1@AEBUpiecewise_construct_t@1@$$QEAV?$tuple@AEBV?$EndianType@G$0A@@vanetza@@@1@$$QEAV?$tuple@$$V@1@@Z
	??$construct_impl@UCircle@geonet@vanetza@@@?$backup_assigner@V?$variant@URectangle@geonet@vanetza@@UEllipse@23@UCircle@23@@boost@@@variant@detail@boost@@CAXPEAXPEBX@Z
	??$construct_impl@UEllipse@geonet@vanetza@@@?$backup_assigner@V?$variant@URectangle@geonet@vanetza@@UEllipse@23@UCircle@23@@boost@@@variant@detail@boost@@CAXPEAXPEBX@Z
	??$construct_impl@URectangle@geonet@vanetza@@@?$backup_assigner@V?$variant@URectangle@geonet@vanetza@@UEllipse@23@UCircle@23@@boost@@@variant@detail@boost@@CAXPEAXPEBX@Z
	??$construct_impl@V?$backup_holder@UCircle@geonet@vanetza@@@variant@detail@boost@@@?$backup_assigner@V?$variant@URectangle@geonet@vanetza@@UEllipse@23@UCircle@23@@boost@@@variant@detail@boost@@CAXPEAXPEBX@Z
	??$construct_impl@V?$backup_holder@UEllipse@geonet@vanetza@@@variant@detail@boost@@@?$backup_assigner@V?$variant@URectangle@geonet@vanetza@@UEllipse@23@UCircle@23@@boost@@@variant@detail@boost@@CAXPEAXPEBX@Z
	??$construct_impl@V?$backup_holder@URectangle@geonet@vanetza@@@variant@detail@boost@@@?$backup_assigner@V?$variant@URectangle@geonet@vanetza@@UEllipse@23@UCircle@23@@boost@@@variant@detail@boost@@CAXPEAXPEBX@Z
	??$deserialize@G$0A@@vanetza@@YAXAEAVInputArchive@0@AEAV?$EndianType@G$0A@@0@@Z
	??$deserialize_from_buffer@UHeaderA@btp@vanetza@@@vanetza@@YAXAEAUHeaderA@btp@0@AEBV?$vector@EV?$allocator@E@std@@@std@@@Z
	??$deserialize_from_buffer@UHeaderB@btp@vanetza@@@vanetza@@YAXAEAUHeaderB@btp@0@AEBV?$vector@EV?$allocator@E@std@@@std@@@Z
	??$deserialize_from_range@UHeaderA@btp@vanetza@@@vanetza@@YAXAEAUHeaderA@btp@0@V?$iterator_range@V?$_Vector_const_iterator@V?$_Vector_val@U?$_Simple_types@E@std@@@std@@@std@@@boost@@@Z
	??$deserialize_from_range@UHeaderB@btp@vanetza@@@vanetza@@YAXAEAUHeaderB@btp@0@V?$iterator_range@V?$_Vector_const_iterator@V?$_Vector_val@U?$_Simple_types@E@std@@@std@@@std@@@boost@@@Z
	??$destroy@PEAU?$_List_node@PEAVPromiscuousHook@PortDispatcher@btp@vanetza@@PEAX@std@@@?$_Default_allocator_traits@V?$allocator@U?$_List_node@PEAVPromiscuousHook@PortDispatcher@btp@vanetza@@PEAX@std@@@std@@@std@@SAXAEAV?$allocator@U?$_List_node@PEAVPromiscuousHook@PortDispatcher@btp@vanetza@@PEAX@std@@@1@QEAPEAU?$_List_node@PEAVPromiscuousHook@PortDispatcher@btp@vanetza@@PEAX@1@@Z
	??$destroy@PEAVPromiscuousHook@PortDispatcher@btp@vanetza@@@?$_Default_allocator_traits@V?$allocator@U?$_List_node@PEAVPromiscuousHook@PortDispatcher@btp@vanetza@@PEAX@std@@@std@@@std@@SAXAEAV?$allocator@U?$_List_node@PEAVPromiscuousHook@PortDispatcher@btp@vanetza@@PEAX@std@@@1@QEAPEAVPromiscuousHook@PortDispatcher@btp@vanetza@@@Z
	??$destroy@U?$pair@$$CBV?$EndianType@G$0A@@vanetza@@PEAVIndicationInterface@btp@2@@std@@@?$_Default_allocator_traits@V?$allocator@U?$_List_node@U?$pair@$$CBV?$EndianType@G$0A@@vanetza@@PEAVIndicationInterface@btp@2@@std@@PEAX@std@@@std@@@std@@SAXAEAV?$allocator@U?$_List_node@U?$pair@$$CBV?$EndianType@G$0A@@vanetza@@PEAVIndicationInterface@btp@2@@std@@PEAX@std@@@1@QEAU?$pair@$$CBV?$EndianType@G$0A@@vanetza@@PEAVIndicationInterface@btp@2@@1@@Z
	??$destroy@U?$pair@$$CBW4OsiLayer@vanetza@@VByteBufferConvertible@2@@std@@@?$_Default_allocator_traits@V?$allocator@U?$_Tree_node@U?$pair@$$CBW4OsiLayer@vanetza@@VByteBufferConvertible@2@@std@@PEAX@std@@@std@@@std@@SAXAEAV?$allocator@U?$_Tree_node@U?$pair@$$CBW4OsiLayer@vanetza@@VByteBufferConvertible@2@@std@@PEAX@std@@@1@QEAU?$pair@$$CBW4OsiLayer@vanetza@@VByteBufferConvertible@2@@1@@Z
	??$end@V?$iterator_range@V?$_Vector_const_iterator@V?$_Vector_val@U?$_Simple_types@E@std@@@std@@@std@@@boost@@@range_adl_barrier@boost@@YA?AV?$_Vector_const_iterator@V?$_Vector_val@U?$_Simple_types@E@std@@@std@@@std@@AEAV?$iterator_range@V?$_Vector_const_iterator@V?$_Vector_val@U?$_Simple_types@E@std@@@std@@@std@@@1@@Z
	??$end@V?$iterator_range@V?$_Vector_iterator@V?$_Vector_val@U?$_Simple_types@E@std@@@std@@@std@@@boost@@@range_adl_barrier@boost@@YA?AV?$_Vector_iterator@V?$_Vector_val@U?$_Simple_types@E@std@@@std@@@std@@AEBV?$iterator_range@V?$_Vector_iterator@V?$_Vector_val@U?$_Simple_types@E@std@@@std@@@std@@@1@@Z
	??$endian_cast@$0A@G@vanetza@@YA?AV?$EndianType@G$0A@@0@G@Z
	??$exchange@PEAE$$T@std@@YAPEAEAEAPEAE$$QEA$$T@Z
	??$exchange@PEAU?$_List_node@PEAVPromiscuousHook@PortDispatcher@btp@vanetza@@PEAX@std@@PEAU12@@std@@YAPEAU?$_List_node@PEAVPromiscuousHook@PortDispatcher@btp@vanetza@@PEAX@0@AEAPEAU10@$$QEAPEAU10@@Z
	??$exchange@PEAU?$_List_node@U?$pair@$$CBV?$EndianType@G$0A@@vanetza@@PEAVIndicationInterface@btp@2@@std@@PEAX@std@@$$T@std@@YAPEAU?$_List_node@U?$pair@$$CBV?$EndianType@G$0A@@vanetza@@PEAVIndicationInterface@btp@2@@std@@PEAX@0@AEAPEAU10@$$QEA$$T@Z
	??$exchange@PEAU?$_Tree_node@U?$pair@$$CBW4OsiLayer@vanetza@@VByteBufferConvertible@2@@std@@PEAX@std@@AEAPEAU12@@std@@YAPEAU?$_Tree_node@U?$pair@$$CBW4OsiLayer@vanetza@@VByteBufferConvertible@2@@std@@PEAX@0@AEAPEAU10@0@Z
	??$exchange@PEAU_Container_proxy@std@@$$T@std@@YAPEAU_Container_proxy@0@AEAPEAU10@$$QEA$$T@Z
	??$exchange@PEAV?$variant@VChunkPacket@vanetza@@VCohesivePacket@2@@boost@@$$T@std@@YAPEAV?$variant@VChunkPacket@vanetza@@VCohesivePacket@2@@boost@@AEAPEAV12@$$QEA$$T@Z
	??$execute@V?$member_close_operation@V?$linked_streambuf@DU?$char_traits@D@std@@@detail@iostreams@boost@@@detail@iostreams@boost@@@?$execute_traits_impl@X@detail@iostreams@boost@@SAHV?$member_close_operation@V?$linked_streambuf@DU?$char_traits@D@std@@@detail@iostreams@boost@@@123@@Z
	??$execute_all@V?$member_close_operation@V?$linked_streambuf@DU?$char_traits@D@std@@@detail@iostreams@boost@@@detail@iostreams@boost@@@detail@iostreams@boost@@YAHV?$member_close_operation@V?$linked_streambuf@DU?$char_traits@D@std@@@detail@iostreams@boost@@@012@@Z
	??$execute_all@V?$member_close_operation@V?$linked_streambuf@DU?$char_traits@D@std@@@detail@iostreams@boost@@@detail@iostreams@boost@@V1234@@detail@iostreams@boost@@YAHV?$member_close_operation@V?$linked_streambuf@DU?$char_traits@D@std@@@detail@iostreams@boost@@@012@0@Z
	??$execute_all@V?$member_close_operation@V?$linked_streambuf@DU?$char_traits@D@std@@@detail@iostreams@boost@@@detail@iostreams@boost@@V1234@V?$reset_operation@V?$optional@V?$concept_adapter@Vbyte_buffer_source@vanetza@@@detail@iostreams@boost@@@detail@iostreams@boost@@@234@@detail@iostreams@boost@@YAHV?$member_close_operation@V?$linked_streambuf@DU?$char_traits@D@std@@@detail@iostreams@boost@@@012@0V?$reset_operation@V?$optional@V?$concept_adapter@Vbyte_buffer_source@vanetza@@@detail@iostreams@boost@@@detail@iostreams@boost@@@012@@Z
	??$execute_all@V?$member_close_operation@V?$linked_streambuf@DU?$char_traits@D@std@@@detail@iostreams@boost@@@detail@iostreams@boost@@V1234@V?$reset_operation@V?$optional@V?$concept_adapter@Vbyte_buffer_source@vanetza@@@detail@iostreams@boost@@@detail@iostreams@boost@@@234@V?$clear_flags_operation@H@234@@detail@iostreams@boost@@YAHV?$member_close_operation@V?$linked_streambuf@DU?$char_traits@D@std@@@detail@iostreams@boost@@@012@0V?$reset_operation@V?$optional@V?$concept_adapter@Vbyte_buffer_source@vanetza@@@detail@iostreams@boost@@@detail@iostreams@boost@@@012@V?$clear_flags_operation@H@012@@Z
	??$fill@PEAV?$_List_unchecked_iterator@V?$_List_val@U?$_List_simple_types@U?$pair@$$CBV?$EndianType@G$0A@@vanetza@@PEAVIndicationInterface@btp@2@@std@@@std@@@std@@@std@@V12@@std@@YAXQEAV?$_List_unchecked_iterator@V?$_List_val@U?$_List_simple_types@U?$pair@$$CBV?$EndianType@G$0A@@vanetza@@PEAVIndicationInterface@btp@2@@std@@@std@@@std@@@0@0AEBV10@@Z
	??$find@V?$_List_iterator@V?$_List_val@U?$_List_simple_types@PEAVPromiscuousHook@PortDispatcher@btp@vanetza@@@std@@@std@@@std@@PEAVPromiscuousHook@PortDispatcher@btp@vanetza@@@std@@YA?AV?$_List_iterator@V?$_List_val@U?$_List_simple_types@PEAVPromiscuousHook@PortDispatcher@btp@vanetza@@@std@@@std@@@0@V10@V10@AEBQEAVPromiscuousHook@PortDispatcher@btp@vanetza@@@Z
	??$flush@V?$linked_streambuf@DU?$char_traits@D@std@@@detail@iostreams@boost@@@?$concept_adapter@Vbyte_buffer_source@vanetza@@@detail@iostreams@boost@@QEAA_NPEAV?$linked_streambuf@DU?$char_traits@D@std@@@123@@Z
	??$flush@Vbyte_buffer_source@vanetza@@@?$flush_device_impl@Uany_tag@iostreams@boost@@@detail@iostreams@boost@@SA_NAEAVbyte_buffer_source@vanetza@@@Z
	??$flush@Vbyte_buffer_source@vanetza@@@iostreams@boost@@YA_NAEAVbyte_buffer_source@vanetza@@@Z
	??$flush@Vbyte_buffer_source@vanetza@@V?$linked_streambuf@DU?$char_traits@D@std@@@detail@iostreams@boost@@@?$device_wrapper_impl@Uany_tag@iostreams@boost@@@detail@iostreams@boost@@SA_NAEAVbyte_buffer_source@vanetza@@PEAV?$linked_streambuf@DU?$char_traits@D@std@@@123@@Z
	??$forced_return@UHeaderA@btp@vanetza@@@variant@detail@boost@@YA?AUHeaderA@btp@vanetza@@XZ
	??$forced_return@UHeaderB@btp@vanetza@@@variant@detail@boost@@YA?AUHeaderB@btp@vanetza@@XZ
	??$forced_return@X@variant@detail@boost@@YAXXZ
	??$forward@AEAE@std@@YAAEAEAEAE@Z
	??$forward@AEAPEAD@std@@YAAEAPEADAEAPEAD@Z
	??$forward@AEAPEAU?$_List_node@U?$pair@$$CBV?$EndianType@G$0A@@vanetza@@PEAVIndicationInterface@btp@2@@std@@PEAX@std@@@std@@YAAEAPEAU?$_List_node@U?$pair@$$CBV?$EndianType@G$0A@@vanetza@@PEAVIndicationInterface@btp@2@@std@@PEAX@0@AEAPEAU10@@Z
	??$forward@AEAV?$variant@VChunkPacket@vanetza@@VCohesivePacket@2@@boost@@@boost@@YAAEAV?$variant@VChunkPacket@vanetza@@VCohesivePacket@2@@0@AEAV10@@Z
	??$forward@AEBQEAD@std@@YAAEBQEADAEBQEAD@Z
	??$forward@AEBQEAE@std@@YAAEBQEAEAEBQEAE@Z
	??$forward@AEBQEAU?$_List_node@PEAVPromiscuousHook@PortDispatcher@btp@vanetza@@PEAX@std@@@std@@YAAEBQEAU?$_List_node@PEAVPromiscuousHook@PortDispatcher@btp@vanetza@@PEAX@0@AEBQEAU10@@Z
	??$forward@AEBQEAU?$_List_node@U?$pair@$$CBV?$EndianType@G$0A@@vanetza@@PEAVIndicationInterface@btp@2@@std@@PEAX@std@@@std@@YAAEBQEAU?$_List_node@U?$pair@$$CBV?$EndianType@G$0A@@vanetza@@PEAVIndicationInterface@btp@2@@std@@PEAX@0@AEBQEAU10@@Z
	??$forward@AEBQEAVPromiscuousHook@PortDispatcher@btp@vanetza@@@std@@YAAEBQEAVPromiscuousHook@PortDispatcher@btp@vanetza@@AEBQEAV1234@@Z
	??$forward@AEBUDataIndication@geonet@vanetza@@@std@@YAAEBUDataIndication@geonet@vanetza@@AEBU123@@Z
	??$forward@AEBUpiecewise_construct_t@std@@@std@@YAAEBUpiecewise_construct_t@0@AEBU10@@Z
	??$forward@AEBV?$EndianType@G$0A@@vanetza@@@std@@YAAEBV?$EndianType@G$0A@@vanetza@@AEBV12@@Z
	??$forward@AEBV?$_List_unchecked_iterator@V?$_List_val@U?$_List_simple_types@U?$pair@$$CBV?$EndianType@G$0A@@vanetza@@PEAVIndicationInterface@btp@2@@std@@@std@@@std@@@std@@@std@@YAAEBV?$_List_unchecked_iterator@V?$_List_val@U?$_List_simple_types@U?$pair@$$CBV?$EndianType@G$0A@@vanetza@@PEAVIndicationInterface@btp@2@@std@@@std@@@std@@@0@AEBV10@@Z
	??$forward@PEAE@std@@YA$$QEAPEAEAEAPEAE@Z
	??$forward@PEAU?$_List_node@U?$pair@$$CBV?$EndianType@G$0A@@vanetza@@PEAVIndicationInterface@btp@2@@std@@PEAX@std@@@std@@YA$$QEAPEAU?$_List_node@U?$pair@$$CBV?$EndianType@G$0A@@vanetza@@PEAVIndicationInterface@btp@2@@std@@PEAX@0@AEAPEAU10@@Z
	??$forward@PEAU_Container_base12@std@@@std@@YA$$QEAPEAU_Container_base12@0@AEAPEAU10@@Z
	??$forward@PEAV?$variant@VChunkPacket@vanetza@@VCohesivePacket@2@@boost@@@std@@YA$$QEAPEAV?$variant@VChunkPacket@vanetza@@VCohesivePacket@2@@boost@@AEAPEAV12@@Z
	??$forward@PEBUDataIndication@btp@vanetza@@@std@@YA$$QEAPEBUDataIndication@btp@vanetza@@AEAPEBU123@@Z
	??$forward@U?$default_delete@V?$variant@VChunkPacket@vanetza@@VCohesivePacket@2@@boost@@@std@@@std@@YA$$QEAU?$default_delete@V?$variant@VChunkPacket@vanetza@@VCohesivePacket@2@@boost@@@0@AEAU10@@Z
	??$forward@UDataIndication@btp@vanetza@@@boost@@YA$$QEAUDataIndication@btp@vanetza@@AEAU123@@Z
	??$forward@V?$_List_unchecked_iterator@V?$_List_val@U?$_List_simple_types@PEAVPromiscuousHook@PortDispatcher@btp@vanetza@@@std@@@std@@@std@@@std@@YA$$QEAV?$_List_unchecked_iterator@V?$_List_val@U?$_List_simple_types@PEAVPromiscuousHook@PortDispatcher@btp@vanetza@@@std@@@std@@@0@AEAV10@@Z
	??$forward@V?$allocator@D@std@@@std@@YA$$QEAV?$allocator@D@0@AEAV10@@Z
	??$forward@V?$allocator@E@std@@@std@@YA$$QEAV?$allocator@E@0@AEAV10@@Z
	??$forward@V?$tuple@$$V@std@@@std@@YA$$QEAV?$tuple@$$V@0@AEAV10@@Z
	??$forward@V?$tuple@AEBV?$EndianType@G$0A@@vanetza@@@std@@@std@@YA$$QEAV?$tuple@AEBV?$EndianType@G$0A@@vanetza@@@0@AEAV10@@Z
	??$forward@_N@std@@YA$$QEA_NAEA_N@Z
	??$forward_as_tuple@$$V@std@@YA?AV?$tuple@$$V@0@XZ
	??$forward_as_tuple@AEBV?$EndianType@G$0A@@vanetza@@@std@@YA?AV?$tuple@AEBV?$EndianType@G$0A@@vanetza@@@0@AEBV?$EndianType@G$0A@@vanetza@@@Z
	??$imbue@Vbyte_buffer_source@vanetza@@Vlocale@std@@@?$imbue_impl@Uany_tag@iostreams@boost@@@detail@iostreams@boost@@SAXAEAVbyte_buffer_source@vanetza@@AEBVlocale@std@@@Z
	??$imbue@Vbyte_buffer_source@vanetza@@Vlocale@std@@@iostreams@boost@@YAXAEAVbyte_buffer_source@vanetza@@AEBVlocale@std@@@Z
	??$imbue@Vlocale@std@@@?$concept_adapter@Vbyte_buffer_source@vanetza@@@detail@iostreams@boost@@QEAAXAEBVlocale@std@@@Z
	??$internal_apply_visitor@Udestroyer@variant@detail@boost@@@?$variant@URectangle@geonet@vanetza@@UEllipse@23@UCircle@23@@boost@@AEAAXAEAUdestroyer@variant@detail@1@@Z
	??$internal_apply_visitor@Udestroyer@variant@detail@boost@@@?$variant@VAddress@geonet@vanetza@@UArea@23@$$T@boost@@AEAAXAEAUdestroyer@variant@detail@1@@Z
	??$internal_apply_visitor@Udestroyer@variant@detail@boost@@@?$variant@VChunkPacket@vanetza@@VCohesivePacket@2@@boost@@AEAAXAEAUdestroyer@variant@detail@1@@Z
	??$internal_apply_visitor@Umove_storage@variant@detail@boost@@@?$variant@URectangle@geonet@vanetza@@UEllipse@23@UCircle@23@@boost@@AEAAXAEAUmove_storage@variant@detail@1@@Z
	??$internal_apply_visitor@Umove_storage@variant@detail@boost@@@?$variant@VAddress@geonet@vanetza@@UArea@23@$$T@boost@@AEAAXAEAUmove_storage@variant@detail@1@@Z
	??$internal_apply_visitor@V?$backup_assigner@V?$variant@URectangle@geonet@vanetza@@UEllipse@23@UCircle@23@@boost@@@variant@detail@boost@@@?$variant@URectangle@geonet@vanetza@@UEllipse@23@UCircle@23@@boost@@AEAAXAEAV?$backup_assigner@V?$variant@URectangle@geonet@vanetza@@UEllipse@23@UCircle@23@@boost@@@variant@detail@1@@Z
	??$internal_apply_visitor@Vcopy_into@variant@detail@boost@@@?$variant@URectangle@geonet@vanetza@@UEllipse@23@UCircle@23@@boost@@AEBAXAEAVcopy_into@variant@detail@1@@Z
	??$internal_apply_visitor@Vcopy_into@variant@detail@boost@@@?$variant@VAddress@geonet@vanetza@@UArea@23@$$T@boost@@AEBAXAEAVcopy_into@variant@detail@1@@Z
	??$internal_apply_visitor@Vmove_assigner@?$variant@URectangle@geonet@vanetza@@UEllipse@23@UCircle@23@@boost@@@?$variant@URectangle@geonet@vanetza@@UEllipse@23@UCircle@23@@boost@@AEAAXAEAVmove_assigner@01@@Z
	??$internal_apply_visitor@Vmove_assigner@?$variant@VAddress@geonet@vanetza@@UArea@23@$$T@boost@@@?$variant@VAddress@geonet@vanetza@@UArea@23@$$T@boost@@AEAAXAEAVmove_assigner@01@@Z
	??$internal_apply_visitor@Vmove_into@variant@detail@boost@@@?$variant@URectangle@geonet@vanetza@@UEllipse@23@UCircle@23@@boost@@AEAAXAEAVmove_into@variant@detail@1@@Z
	??$internal_apply_visitor@Vmove_into@variant@detail@boost@@@?$variant@VAddress@geonet@vanetza@@UArea@23@$$T@boost@@AEAAXAEAVmove_into@variant@detail@1@@Z
	??$internal_apply_visitor_impl@Udestroyer@variant@detail@boost@@PEAX@?$variant@URectangle@geonet@vanetza@@UEllipse@23@UCircle@23@@boost@@CAXHHAEAUdestroyer@variant@detail@1@PEAX@Z
	??$internal_apply_visitor_impl@Udestroyer@variant@detail@boost@@PEAX@?$variant@VAddress@geonet@vanetza@@UArea@23@$$T@boost@@CAXHHAEAUdestroyer@variant@detail@1@PEAX@Z
	??$internal_apply_visitor_impl@Udestroyer@variant@detail@boost@@PEAX@?$variant@VChunkPacket@vanetza@@VCohesivePacket@2@@boost@@CAXHHAEAUdestroyer@variant@detail@1@PEAX@Z
	??$internal_apply_visitor_impl@Umove_storage@variant@detail@boost@@PEAX@?$variant@URectangle@geonet@vanetza@@UEllipse@23@UCircle@23@@boost@@CAXHHAEAUmove_storage@variant@detail@1@PEAX@Z
	??$internal_apply_visitor_impl@Umove_storage@variant@detail@boost@@PEAX@?$variant@VAddress@geonet@vanetza@@UArea@23@$$T@boost@@CAXHHAEAUmove_storage@variant@detail@1@PEAX@Z
	??$internal_apply_visitor_impl@V?$backup_assigner@V?$variant@URectangle@geonet@vanetza@@UEllipse@23@UCircle@23@@boost@@@variant@detail@boost@@PEAX@?$variant@URectangle@geonet@vanetza@@UEllipse@23@UCircle@23@@boost@@CAXHHAEAV?$backup_assigner@V?$variant@URectangle@geonet@vanetza@@UEllipse@23@UCircle@23@@boost@@@variant@detail@1@PEAX@Z
	??$internal_apply_visitor_impl@Vcopy_into@variant@detail@boost@@PEBX@?$variant@URectangle@geonet@vanetza@@UEllipse@23@UCircle@23@@boost@@CAXHHAEAVcopy_into@variant@detail@1@PEBX@Z
	??$internal_apply_visitor_impl@Vcopy_into@variant@detail@boost@@PEBX@?$variant@VAddress@geonet@vanetza@@UArea@23@$$T@boost@@CAXHHAEAVcopy_into@variant@detail@1@PEBX@Z
	??$internal_apply_visitor_impl@Vmove_assigner@?$variant@URectangle@geonet@vanetza@@UEllipse@23@UCircle@23@@boost@@PEAX@?$variant@URectangle@geonet@vanetza@@UEllipse@23@UCircle@23@@boost@@CAXHHAEAVmove_assigner@01@PEAX@Z
	??$internal_apply_visitor_impl@Vmove_assigner@?$variant@VAddress@geonet@vanetza@@UArea@23@$$T@boost@@PEAX@?$variant@VAddress@geonet@vanetza@@UArea@23@$$T@boost@@CAXHHAEAVmove_assigner@01@PEAX@Z
	??$internal_apply_visitor_impl@Vmove_into@variant@detail@boost@@PEAX@?$variant@URectangle@geonet@vanetza@@UEllipse@23@UCircle@23@@boost@@CAXHHAEAVmove_into@variant@detail@1@PEAX@Z
	??$internal_apply_visitor_impl@Vmove_into@variant@detail@boost@@PEAX@?$variant@VAddress@geonet@vanetza@@UArea@23@$$T@boost@@CAXHHAEAVmove_into@variant@detail@1@PEAX@Z
	??$internal_visit@$$T@copy_into@variant@detail@boost@@QEBAXAEB$$TH@Z
	??$internal_visit@$$T@destroyer@variant@detail@boost@@QEBAXAEA$$TH@Z
	??$internal_visit@$$T@move_assigner@?$variant@VAddress@geonet@vanetza@@UArea@23@$$T@boost@@QEBAXAEA$$TH@Z
	??$internal_visit@$$T@move_into@variant@detail@boost@@QEBAXAEA$$TH@Z
	??$internal_visit@$$T@move_storage@variant@detail@boost@@QEBAXAEA$$TH@Z
	??$internal_visit@UArea@geonet@vanetza@@@copy_into@variant@detail@boost@@QEBAXAEBUArea@geonet@vanetza@@H@Z
	??$internal_visit@UArea@geonet@vanetza@@@destroyer@variant@detail@boost@@QEBAXAEAUArea@geonet@vanetza@@H@Z
	??$internal_visit@UArea@geonet@vanetza@@@move_assigner@?$variant@VAddress@geonet@vanetza@@UArea@23@$$T@boost@@QEBAXAEAUArea@geonet@vanetza@@H@Z
	??$internal_visit@UArea@geonet@vanetza@@@move_into@variant@detail@boost@@QEBAXAEAUArea@geonet@vanetza@@H@Z
	??$internal_visit@UArea@geonet@vanetza@@@move_storage@variant@detail@boost@@QEBAXAEAUArea@geonet@vanetza@@H@Z
	??$internal_visit@UCircle@geonet@vanetza@@@?$backup_assigner@V?$variant@URectangle@geonet@vanetza@@UEllipse@23@UCircle@23@@boost@@@variant@detail@boost@@QEAAXAEAUCircle@geonet@vanetza@@H@Z
	??$internal_visit@UCircle@geonet@vanetza@@@copy_into@variant@detail@boost@@QEBAXAEBUCircle@geonet@vanetza@@H@Z
	??$internal_visit@UCircle@geonet@vanetza@@@copy_into@variant@detail@boost@@QEBAXAEBV?$backup_holder@UCircle@geonet@vanetza@@@123@J@Z
	??$internal_visit@UCircle@geonet@vanetza@@@destroyer@variant@detail@boost@@QEBAXAEAUCircle@geonet@vanetza@@H@Z
	??$internal_visit@UCircle@geonet@vanetza@@@move_assigner@?$variant@URectangle@geonet@vanetza@@UEllipse@23@UCircle@23@@boost@@QEBAXAEAUCircle@geonet@vanetza@@H@Z
	??$internal_visit@UCircle@geonet@vanetza@@@move_into@variant@detail@boost@@QEBAXAEAUCircle@geonet@vanetza@@H@Z
	??$internal_visit@UCircle@geonet@vanetza@@@move_into@variant@detail@boost@@QEBAXAEAV?$backup_holder@UCircle@geonet@vanetza@@@123@J@Z
	??$internal_visit@UCircle@geonet@vanetza@@@move_storage@variant@detail@boost@@QEBAXAEAUCircle@geonet@vanetza@@H@Z
	??$internal_visit@UCircle@geonet@vanetza@@@move_storage@variant@detail@boost@@QEBAXAEAV?$backup_holder@UCircle@geonet@vanetza@@@123@J@Z
	??$internal_visit@UEllipse@geonet@vanetza@@@?$backup_assigner@V?$variant@URectangle@geonet@vanetza@@UEllipse@23@UCircle@23@@boost@@@variant@detail@boost@@QEAAXAEAUEllipse@geonet@vanetza@@H@Z
	??$internal_visit@UEllipse@geonet@vanetza@@@copy_into@variant@detail@boost@@QEBAXAEBUEllipse@geonet@vanetza@@H@Z
	??$internal_visit@UEllipse@geonet@vanetza@@@copy_into@variant@detail@boost@@QEBAXAEBV?$backup_holder@UEllipse@geonet@vanetza@@@123@J@Z
	??$internal_visit@UEllipse@geonet@vanetza@@@destroyer@variant@detail@boost@@QEBAXAEAUEllipse@geonet@vanetza@@H@Z
	??$internal_visit@UEllipse@geonet@vanetza@@@move_assigner@?$variant@URectangle@geonet@vanetza@@UEllipse@23@UCircle@23@@boost@@QEBAXAEAUEllipse@geonet@vanetza@@H@Z
	??$internal_visit@UEllipse@geonet@vanetza@@@move_into@variant@detail@boost@@QEBAXAEAUEllipse@geonet@vanetza@@H@Z
	??$internal_visit@UEllipse@geonet@vanetza@@@move_into@variant@detail@boost@@QEBAXAEAV?$backup_holder@UEllipse@geonet@vanetza@@@123@J@Z
	??$internal_visit@UEllipse@geonet@vanetza@@@move_storage@variant@detail@boost@@QEBAXAEAUEllipse@geonet@vanetza@@H@Z
	??$internal_visit@UEllipse@geonet@vanetza@@@move_storage@variant@detail@boost@@QEBAXAEAV?$backup_holder@UEllipse@geonet@vanetza@@@123@J@Z
	??$internal_visit@URectangle@geonet@vanetza@@@?$backup_assigner@V?$variant@URectangle@geonet@vanetza@@UEllipse@23@UCircle@23@@boost@@@variant@detail@boost@@QEAAXAEAURectangle@geonet@vanetza@@H@Z
	??$internal_visit@URectangle@geonet@vanetza@@@copy_into@variant@detail@boost@@QEBAXAEBURectangle@geonet@vanetza@@H@Z
	??$internal_visit@URectangle@geonet@vanetza@@@copy_into@variant@detail@boost@@QEBAXAEBV?$backup_holder@URectangle@geonet@vanetza@@@123@J@Z
	??$internal_visit@URectangle@geonet@vanetza@@@destroyer@variant@detail@boost@@QEBAXAEAURectangle@geonet@vanetza@@H@Z
	??$internal_visit@URectangle@geonet@vanetza@@@move_assigner@?$variant@URectangle@geonet@vanetza@@UEllipse@23@UCircle@23@@boost@@QEBAXAEAURectangle@geonet@vanetza@@H@Z
	??$internal_visit@URectangle@geonet@vanetza@@@move_into@variant@detail@boost@@QEBAXAEAURectangle@geonet@vanetza@@H@Z
	??$internal_visit@URectangle@geonet@vanetza@@@move_into@variant@detail@boost@@QEBAXAEAV?$backup_holder@URectangle@geonet@vanetza@@@123@J@Z
	??$internal_visit@URectangle@geonet@vanetza@@@move_storage@variant@detail@boost@@QEBAXAEAURectangle@geonet@vanetza@@H@Z
	??$internal_visit@URectangle@geonet@vanetza@@@move_storage@variant@detail@boost@@QEBAXAEAV?$backup_holder@URectangle@geonet@vanetza@@@123@J@Z
	??$internal_visit@V?$backup_holder@UCircle@geonet@vanetza@@@variant@detail@boost@@@?$backup_assigner@V?$variant@URectangle@geonet@vanetza@@UEllipse@23@UCircle@23@@boost@@@variant@detail@boost@@QEAAXAEAV?$backup_holder@UCircle@geonet@vanetza@@@123@H@Z
	??$internal_visit@V?$backup_holder@UCircle@geonet@vanetza@@@variant@detail@boost@@@destroyer@variant@detail@boost@@QEBAXAEAV?$backup_holder@UCircle@geonet@vanetza@@@123@H@Z
	??$internal_visit@V?$backup_holder@UCircle@geonet@vanetza@@@variant@detail@boost@@@move_assigner@?$variant@URectangle@geonet@vanetza@@UEllipse@23@UCircle@23@@boost@@QEBAXAEAV?$backup_holder@UCircle@geonet@vanetza@@@variant@detail@2@H@Z
	??$internal_visit@V?$backup_holder@UEllipse@geonet@vanetza@@@variant@detail@boost@@@?$backup_assigner@V?$variant@URectangle@geonet@vanetza@@UEllipse@23@UCircle@23@@boost@@@variant@detail@boost@@QEAAXAEAV?$backup_holder@UEllipse@geonet@vanetza@@@123@H@Z
	??$internal_visit@V?$backup_holder@UEllipse@geonet@vanetza@@@variant@detail@boost@@@destroyer@variant@detail@boost@@QEBAXAEAV?$backup_holder@UEllipse@geonet@vanetza@@@123@H@Z
	??$internal_visit@V?$backup_holder@UEllipse@geonet@vanetza@@@variant@detail@boost@@@move_assigner@?$variant@URectangle@geonet@vanetza@@UEllipse@23@UCircle@23@@boost@@QEBAXAEAV?$backup_holder@UEllipse@geonet@vanetza@@@variant@detail@2@H@Z
	??$internal_visit@V?$backup_holder@URectangle@geonet@vanetza@@@variant@detail@boost@@@?$backup_assigner@V?$variant@URectangle@geonet@vanetza@@UEllipse@23@UCircle@23@@boost@@@variant@detail@boost@@QEAAXAEAV?$backup_holder@URectangle@geonet@vanetza@@@123@H@Z
	??$internal_visit@V?$backup_holder@URectangle@geonet@vanetza@@@variant@detail@boost@@@destroyer@variant@detail@boost@@QEBAXAEAV?$backup_holder@URectangle@geonet@vanetza@@@123@H@Z
	??$internal_visit@V?$backup_holder@URectangle@geonet@vanetza@@@variant@detail@boost@@@move_assigner@?$variant@URectangle@geonet@vanetza@@UEllipse@23@UCircle@23@@boost@@QEBAXAEAV?$backup_holder@URectangle@geonet@vanetza@@@variant@detail@2@H@Z
	??$internal_visit@V?$backup_holder@VChunkPacket@vanetza@@@variant@detail@boost@@@destroyer@variant@detail@boost@@QEBAXAEAV?$backup_holder@VChunkPacket@vanetza@@@123@H@Z
	??$internal_visit@VAddress@geonet@vanetza@@@copy_into@variant@detail@boost@@QEBAXAEBVAddress@geonet@vanetza@@H@Z
	??$internal_visit@VAddress@geonet@vanetza@@@destroyer@variant@detail@boost@@QEBAXAEAVAddress@geonet@vanetza@@H@Z
	??$internal_visit@VAddress@geonet@vanetza@@@move_assigner@?$variant@VAddress@geonet@vanetza@@UArea@23@$$T@boost@@QEBAXAEAVAddress@geonet@vanetza@@H@Z
	??$internal_visit@VAddress@geonet@vanetza@@@move_into@variant@detail@boost@@QEBAXAEAVAddress@geonet@vanetza@@H@Z
	??$internal_visit@VAddress@geonet@vanetza@@@move_storage@variant@detail@boost@@QEBAXAEAVAddress@geonet@vanetza@@H@Z
	??$internal_visit@VChunkPacket@vanetza@@@destroyer@variant@detail@boost@@QEBAXAEAVChunkPacket@vanetza@@H@Z
	??$internal_visit@VCohesivePacket@vanetza@@@destroyer@variant@detail@boost@@QEBAXAEAVCohesivePacket@vanetza@@H@Z
	??$max@_J@std@@YAAEB_JAEB_J0@Z
	??$max@_K@std@@YAAEB_KAEB_K0@Z
	??$min@_J@std@@YAAEB_JAEB_J0@Z
	??$min@_K@std@@YAAEB_KAEB_K0@Z
	??$move@AEA$$T@boost@@YA$$QEA$$TAEA$$T@Z
	??$move@AEAPEAD@std@@YA$$QEAPEADAEAPEAD@Z
	??$move@AEAUArea@geonet@vanetza@@@boost@@YA$$QEAUArea@geonet@vanetza@@AEAU123@@Z
	??$move@AEAUCircle@geonet@vanetza@@@boost@@YA$$QEAUCircle@geonet@vanetza@@AEAU123@@Z
	??$move@AEAUDataIndication@btp@vanetza@@@boost@@YA$$QEAUDataIndication@btp@vanetza@@AEAU123@@Z
	??$move@AEAUEllipse@geonet@vanetza@@@boost@@YA$$QEAUEllipse@geonet@vanetza@@AEAU123@@Z
	??$move@AEAURectangle@geonet@vanetza@@@boost@@YA$$QEAURectangle@geonet@vanetza@@AEAU123@@Z
	??$move@AEAV?$EndianType@G$0A@@vanetza@@@boost@@YA$$QEAV?$EndianType@G$0A@@vanetza@@AEAV12@@Z
	??$move@AEAV?$allocator@D@std@@@std@@YA$$QEAV?$allocator@D@0@AEAV10@@Z
	??$move@AEAV?$allocator@E@std@@@std@@YA$$QEAV?$allocator@E@0@AEAV10@@Z
	??$move@AEAV?$tuple@AEBV?$EndianType@G$0A@@vanetza@@@std@@@std@@YA$$QEAV?$tuple@AEBV?$EndianType@G$0A@@vanetza@@@0@AEAV10@@Z
	??$move@AEAV?$unique_ptr@V?$variant@VChunkPacket@vanetza@@VCohesivePacket@2@@boost@@U?$default_delete@V?$variant@VChunkPacket@vanetza@@VCohesivePacket@2@@boost@@@std@@@std@@@std@@YA$$QEAV?$unique_ptr@V?$variant@VChunkPacket@vanetza@@VCohesivePacket@2@@boost@@U?$default_delete@V?$variant@VChunkPacket@vanetza@@VCohesivePacket@2@@boost@@@std@@@0@AEAV10@@Z
	??$move@AEAV?$variant@URectangle@geonet@vanetza@@UEllipse@23@UCircle@23@@boost@@@boost@@YA$$QEAV?$variant@URectangle@geonet@vanetza@@UEllipse@23@UCircle@23@@0@AEAV10@@Z
	??$move@AEAV?$variant@VAddress@geonet@vanetza@@UArea@23@$$T@boost@@@boost@@YA$$QEAV?$variant@VAddress@geonet@vanetza@@UArea@23@$$T@0@AEAV10@@Z
	??$move@AEAV?$vector@EV?$allocator@E@std@@@std@@@boost@@YA$$QEAV?$vector@EV?$allocator@E@std@@@std@@AEAV12@@Z
	??$move@AEAVAddress@geonet@vanetza@@@boost@@YA$$QEAVAddress@geonet@vanetza@@AEAV123@@Z
	??$move@AEAVLifetime@geonet@vanetza@@@boost@@YA$$QEAVLifetime@geonet@vanetza@@AEAV123@@Z
	??$move@AEA_J@std@@YA$$QEA_JAEA_J@Z
	??$network_cast@G@vanetza@@YA?AV?$EndianType@G$0A@@0@G@Z
	??$optimal_buffer_size@Vbyte_buffer_source@vanetza@@@?$optimal_buffer_size_impl@Udevice_tag@iostreams@boost@@@detail@iostreams@boost@@SA_JAEBVbyte_buffer_source@vanetza@@@Z
	??$optimal_buffer_size@Vbyte_buffer_source@vanetza@@@iostreams@boost@@YA_JAEBVbyte_buffer_source@vanetza@@@Z
	??$range_begin@$$CBV?$iterator_range@V?$_Vector_iterator@V?$_Vector_val@U?$_Simple_types@E@std@@@std@@@std@@@boost@@@range_detail@boost@@YA?AV?$_Vector_iterator@V?$_Vector_val@U?$_Simple_types@E@std@@@std@@@std@@AEBV?$iterator_range@V?$_Vector_iterator@V?$_Vector_val@U?$_Simple_types@E@std@@@std@@@std@@@1@@Z
	??$range_begin@V?$iterator_range@V?$_Vector_const_iterator@V?$_Vector_val@U?$_Simple_types@E@std@@@std@@@std@@@boost@@@range_detail@boost@@YA?AV?$_Vector_const_iterator@V?$_Vector_val@U?$_Simple_types@E@std@@@std@@@std@@AEAV?$iterator_range@V?$_Vector_const_iterator@V?$_Vector_val@U?$_Simple_types@E@std@@@std@@@std@@@1@@Z
	??$range_end@$$CBV?$iterator_range@V?$_Vector_iterator@V?$_Vector_val@U?$_Simple_types@E@std@@@std@@@std@@@boost@@@range_detail@boost@@YA?AV?$_Vector_iterator@V?$_Vector_val@U?$_Simple_types@E@std@@@std@@@std@@AEBV?$iterator_range@V?$_Vector_iterator@V?$_Vector_val@U?$_Simple_types@E@std@@@std@@@std@@@1@@Z
	??$range_end@V?$iterator_range@V?$_Vector_const_iterator@V?$_Vector_val@U?$_Simple_types@E@std@@@std@@@std@@@boost@@@range_detail@boost@@YA?AV?$_Vector_const_iterator@V?$_Vector_val@U?$_Simple_types@E@std@@@std@@@std@@AEAV?$iterator_range@V?$_Vector_const_iterator@V?$_Vector_val@U?$_Simple_types@E@std@@@std@@@std@@@1@@Z
	??$read@V?$linked_streambuf@DU?$char_traits@D@std@@@detail@iostreams@boost@@@?$concept_adapter@Vbyte_buffer_source@vanetza@@@detail@iostreams@boost@@QEAA_JPEAD_JPEAV?$linked_streambuf@DU?$char_traits@D@std@@@123@@Z
	??$read@Vbyte_buffer_source@vanetza@@@?$read_device_impl@Uinput@iostreams@boost@@@detail@iostreams@boost@@SA_JAEAVbyte_buffer_source@vanetza@@PEAD_J@Z
	??$read@Vbyte_buffer_source@vanetza@@@iostreams@boost@@YA_JAEAVbyte_buffer_source@vanetza@@PEAD_J@Z
	??$read@Vbyte_buffer_source@vanetza@@V?$linked_streambuf@DU?$char_traits@D@std@@@detail@iostreams@boost@@@?$device_wrapper_impl@Uinput@iostreams@boost@@@detail@iostreams@boost@@SA_JAEAVbyte_buffer_source@vanetza@@PEAV?$linked_streambuf@DU?$char_traits@D@std@@@123@PEAD_J@Z
	??$remove_if@V<lambda_f1029778a57b646c15e664f974467e61>@@@?$list@PEAVPromiscuousHook@PortDispatcher@btp@vanetza@@V?$allocator@PEAVPromiscuousHook@PortDispatcher@btp@vanetza@@@std@@@std@@QEAA?A_PV<lambda_f1029778a57b646c15e664f974467e61>@@@Z
	??$seek@V?$linked_streambuf@DU?$char_traits@D@std@@@detail@iostreams@boost@@@?$concept_adapter@Vbyte_buffer_source@vanetza@@@detail@iostreams@boost@@QEAA?AV?$fpos@U_Mbstatet@@@std@@_JHHPEAV?$linked_streambuf@DU?$char_traits@D@std@@@123@@Z
	??$seek@Vbyte_buffer_source@vanetza@@@?$device_wrapper_impl@Uany_tag@iostreams@boost@@@detail@iostreams@boost@@SA?AV?$fpos@U_Mbstatet@@@std@@AEAVbyte_buffer_source@vanetza@@_JHHUany_tag@23@@Z
	??$seek@Vbyte_buffer_source@vanetza@@V?$linked_streambuf@DU?$char_traits@D@std@@@detail@iostreams@boost@@@?$device_wrapper_impl@Uany_tag@iostreams@boost@@@detail@iostreams@boost@@SA?AV?$fpos@U_Mbstatet@@@std@@AEAVbyte_buffer_source@vanetza@@PEAV?$linked_streambuf@DU?$char_traits@D@std@@@123@_JHH@Z
	??$serialize@G$0A@@vanetza@@YAXAEAVOutputArchive@0@V?$EndianType@G$0A@@0@@Z
	??$swap@PEAD$0A@@std@@YAXAEAPEAD0@Z
	??$swap@_J$0A@@std@@YAXAEA_J0@Z
	??$throw_exception@Vfailure@ios_base@std@@@boost@@YAXAEBVfailure@ios_base@std@@@Z
	??$uninitialized_fill@PEAV?$_List_unchecked_iterator@V?$_List_val@U?$_List_simple_types@U?$pair@$$CBV?$EndianType@G$0A@@vanetza@@PEAVIndicationInterface@btp@2@@std@@@std@@@std@@@std@@V12@@std@@YAXQEAV?$_List_unchecked_iterator@V?$_List_val@U?$_List_simple_types@U?$pair@$$CBV?$EndianType@G$0A@@vanetza@@PEAVIndicationInterface@btp@2@@std@@@std@@@std@@@0@0AEBV10@@Z
	??$unwrap@Vbyte_buffer_source@vanetza@@@detail@iostreams@boost@@YAAEAVbyte_buffer_source@vanetza@@AEAV34@@Z
	??$unwrap@Vbyte_buffer_source@vanetza@@@detail@iostreams@boost@@YAAEBVbyte_buffer_source@vanetza@@AEBV34@@Z
	??$visitation_impl@U?$int_@$0A@@mpl@boost@@U?$visitation_impl_step@U?$l_iter@U?$l_item@U?$long_@$01@mpl@boost@@VChunkPacket@vanetza@@U?$l_item@U?$long_@$00@mpl@boost@@VCohesivePacket@vanetza@@Ul_end@23@@23@@mpl@boost@@@mpl@boost@@U?$l_iter@Ul_end@mpl@boost@@@23@@variant@detail@3@Udestroyer@563@PEAXUhas_fallback_type_@?$variant@VChunkPacket@vanetza@@VCohesivePacket@2@@3@@variant@detail@boost@@YAXHHAEAUdestroyer@012@PEAXU?$bool_@$0A@@mpl@2@Uhas_fallback_type_@?$variant@VChunkPacket@vanetza@@VCohesivePacket@2@@2@PEAU?$int_@$0A@@52@PEAU?$visitation_impl_step@U?$l_iter@U?$l_item@U?$long_@$01@mpl@boost@@VChunkPacket@vanetza@@U?$l_item@U?$long_@$00@mpl@boost@@VCohesivePacket@vanetza@@Ul_end@23@@23@@mpl@boost@@@mpl@boost@@U?$l_iter@Ul_end@mpl@boost@@@23@@012@@Z
	??$visitation_impl@U?$int_@$0A@@mpl@boost@@U?$visitation_impl_step@U?$l_iter@U?$l_item@U?$long_@$02@mpl@boost@@URectangle@geonet@vanetza@@U?$l_item@U?$long_@$01@mpl@boost@@UEllipse@geonet@vanetza@@U?$l_item@U?$long_@$00@mpl@boost@@UCircle@geonet@vanetza@@Ul_end@23@@23@@23@@mpl@boost@@@mpl@boost@@U?$l_iter@Ul_end@mpl@boost@@@23@@variant@detail@3@Udestroyer@563@PEAXUhas_fallback_type_@?$variant@URectangle@geonet@vanetza@@UEllipse@23@UCircle@23@@3@@variant@detail@boost@@YAXHHAEAUdestroyer@012@PEAXU?$bool_@$0A@@mpl@2@Uhas_fallback_type_@?$variant@URectangle@geonet@vanetza@@UEllipse@23@UCircle@23@@2@PEAU?$int_@$0A@@52@PEAU?$visitation_impl_step@U?$l_iter@U?$l_item@U?$long_@$02@mpl@boost@@URectangle@geonet@vanetza@@U?$l_item@U?$long_@$01@mpl@boost@@UEllipse@geonet@vanetza@@U?$l_item@U?$long_@$00@mpl@boost@@UCircle@geonet@vanetza@@Ul_end@23@@23@@23@@mpl@boost@@@mpl@boost@@U?$l_iter@Ul_end@mpl@boost@@@23@@012@@Z
	??$visitation_impl@U?$int_@$0A@@mpl@boost@@U?$visitation_impl_step@U?$l_iter@U?$l_item@U?$long_@$02@mpl@boost@@URectangle@geonet@vanetza@@U?$l_item@U?$long_@$01@mpl@boost@@UEllipse@geonet@vanetza@@U?$l_item@U?$long_@$00@mpl@boost@@UCircle@geonet@vanetza@@Ul_end@23@@23@@23@@mpl@boost@@@mpl@boost@@U?$l_iter@Ul_end@mpl@boost@@@23@@variant@detail@3@Umove_storage@563@PEAXUhas_fallback_type_@?$variant@URectangle@geonet@vanetza@@UEllipse@23@UCircle@23@@3@@variant@detail@boost@@YAXHHAEAUmove_storage@012@PEAXU?$bool_@$0A@@mpl@2@Uhas_fallback_type_@?$variant@URectangle@geonet@vanetza@@UEllipse@23@UCircle@23@@2@PEAU?$int_@$0A@@52@PEAU?$visitation_impl_step@U?$l_iter@U?$l_item@U?$long_@$02@mpl@boost@@URectangle@geonet@vanetza@@U?$l_item@U?$long_@$01@mpl@boost@@UEllipse@geonet@vanetza@@U?$l_item@U?$long_@$00@mpl@boost@@UCircle@geonet@vanetza@@Ul_end@23@@23@@23@@mpl@boost@@@mpl@boost@@U?$l_iter@Ul_end@mpl@boost@@@23@@012@@Z
	??$visitation_impl@U?$int_@$0A@@mpl@boost@@U?$visitation_impl_step@U?$l_iter@U?$l_item@U?$long_@$02@mpl@boost@@URectangle@geonet@vanetza@@U?$l_item@U?$long_@$01@mpl@boost@@UEllipse@geonet@vanetza@@U?$l_item@U?$long_@$00@mpl@boost@@UCircle@geonet@vanetza@@Ul_end@23@@23@@23@@mpl@boost@@@mpl@boost@@U?$l_iter@Ul_end@mpl@boost@@@23@@variant@detail@3@V?$backup_assigner@V?$variant@URectangle@geonet@vanetza@@UEllipse@23@UCircle@23@@boost@@@563@PEAXUhas_fallback_type_@?$variant@URectangle@geonet@vanetza@@UEllipse@23@UCircle@23@@3@@variant@detail@boost@@YAXHHAEAV?$backup_assigner@V?$variant@URectangle@geonet@vanetza@@UEllipse@23@UCircle@23@@boost@@@012@PEAXU?$bool_@$0A@@mpl@2@Uhas_fallback_type_@?$variant@URectangle@geonet@vanetza@@UEllipse@23@UCircle@23@@2@PEAU?$int_@$0A@@52@PEAU?$visitation_impl_step@U?$l_iter@U?$l_item@U?$long_@$02@mpl@boost@@URectangle@geonet@vanetza@@U?$l_item@U?$long_@$01@mpl@boost@@UEllipse@geonet@vanetza@@U?$l_item@U?$long_@$00@mpl@boost@@UCircle@geonet@vanetza@@Ul_end@23@@23@@23@@mpl@boost@@@mpl@boost@@U?$l_iter@Ul_end@mpl@boost@@@23@@012@@Z
	??$visitation_impl@U?$int_@$0A@@mpl@boost@@U?$visitation_impl_step@U?$l_iter@U?$l_item@U?$long_@$02@mpl@boost@@URectangle@geonet@vanetza@@U?$l_item@U?$long_@$01@mpl@boost@@UEllipse@geonet@vanetza@@U?$l_item@U?$long_@$00@mpl@boost@@UCircle@geonet@vanetza@@Ul_end@23@@23@@23@@mpl@boost@@@mpl@boost@@U?$l_iter@Ul_end@mpl@boost@@@23@@variant@detail@3@Vcopy_into@563@PEBXUhas_fallback_type_@?$variant@URectangle@geonet@vanetza@@UEllipse@23@UCircle@23@@3@@variant@detail@boost@@YAXHHAEAVcopy_into@012@PEBXU?$bool_@$0A@@mpl@2@Uhas_fallback_type_@?$variant@URectangle@geonet@vanetza@@UEllipse@23@UCircle@23@@2@PEAU?$int_@$0A@@52@PEAU?$visitation_impl_step@U?$l_iter@U?$l_item@U?$long_@$02@mpl@boost@@URectangle@geonet@vanetza@@U?$l_item@U?$long_@$01@mpl@boost@@UEllipse@geonet@vanetza@@U?$l_item@U?$long_@$00@mpl@boost@@UCircle@geonet@vanetza@@Ul_end@23@@23@@23@@mpl@boost@@@mpl@boost@@U?$l_iter@Ul_end@mpl@boost@@@23@@012@@Z
	??$visitation_impl@U?$int_@$0A@@mpl@boost@@U?$visitation_impl_step@U?$l_iter@U?$l_item@U?$long_@$02@mpl@boost@@URectangle@geonet@vanetza@@U?$l_item@U?$long_@$01@mpl@boost@@UEllipse@geonet@vanetza@@U?$l_item@U?$long_@$00@mpl@boost@@UCircle@geonet@vanetza@@Ul_end@23@@23@@23@@mpl@boost@@@mpl@boost@@U?$l_iter@Ul_end@mpl@boost@@@23@@variant@detail@3@Vmove_assigner@?$variant@URectangle@geonet@vanetza@@UEllipse@23@UCircle@23@@3@PEAXUhas_fallback_type_@83@@variant@detail@boost@@YAXHHAEAVmove_assigner@?$variant@URectangle@geonet@vanetza@@UEllipse@23@UCircle@23@@2@PEAXU?$bool_@$0A@@mpl@2@Uhas_fallback_type_@42@PEAU?$int_@$0A@@62@PEAU?$visitation_impl_step@U?$l_iter@U?$l_item@U?$long_@$02@mpl@boost@@URectangle@geonet@vanetza@@U?$l_item@U?$long_@$01@mpl@boost@@UEllipse@geonet@vanetza@@U?$l_item@U?$long_@$00@mpl@boost@@UCircle@geonet@vanetza@@Ul_end@23@@23@@23@@mpl@boost@@@mpl@boost@@U?$l_iter@Ul_end@mpl@boost@@@23@@012@@Z
	??$visitation_impl@U?$int_@$0A@@mpl@boost@@U?$visitation_impl_step@U?$l_iter@U?$l_item@U?$long_@$02@mpl@boost@@URectangle@geonet@vanetza@@U?$l_item@U?$long_@$01@mpl@boost@@UEllipse@geonet@vanetza@@U?$l_item@U?$long_@$00@mpl@boost@@UCircle@geonet@vanetza@@Ul_end@23@@23@@23@@mpl@boost@@@mpl@boost@@U?$l_iter@Ul_end@mpl@boost@@@23@@variant@detail@3@Vmove_into@563@PEAXUhas_fallback_type_@?$variant@URectangle@geonet@vanetza@@UEllipse@23@UCircle@23@@3@@variant@detail@boost@@YAXHHAEAVmove_into@012@PEAXU?$bool_@$0A@@mpl@2@Uhas_fallback_type_@?$variant@URectangle@geonet@vanetza@@UEllipse@23@UCircle@23@@2@PEAU?$int_@$0A@@52@PEAU?$visitation_impl_step@U?$l_iter@U?$l_item@U?$long_@$02@mpl@boost@@URectangle@geonet@vanetza@@U?$l_item@U?$long_@$01@mpl@boost@@UEllipse@geonet@vanetza@@U?$l_item@U?$long_@$00@mpl@boost@@UCircle@geonet@vanetza@@Ul_end@23@@23@@23@@mpl@boost@@@mpl@boost@@U?$l_iter@Ul_end@mpl@boost@@@23@@012@@Z
	??$visitation_impl@U?$int_@$0A@@mpl@boost@@U?$visitation_impl_step@U?$l_iter@U?$l_item@U?$long_@$02@mpl@boost@@VAddress@geonet@vanetza@@U?$l_item@U?$long_@$01@mpl@boost@@UArea@geonet@vanetza@@U?$l_item@U?$long_@$00@mpl@boost@@$$TUl_end@23@@23@@23@@mpl@boost@@@mpl@boost@@U?$l_iter@Ul_end@mpl@boost@@@23@@variant@detail@3@Udestroyer@563@PEAXUhas_fallback_type_@?$variant@VAddress@geonet@vanetza@@UArea@23@$$T@3@@variant@detail@boost@@YAXHHAEAUdestroyer@012@PEAXU?$bool_@$0A@@mpl@2@Uhas_fallback_type_@?$variant@VAddress@geonet@vanetza@@UArea@23@$$T@2@PEAU?$int_@$0A@@52@PEAU?$visitation_impl_step@U?$l_iter@U?$l_item@U?$long_@$02@mpl@boost@@VAddress@geonet@vanetza@@U?$l_item@U?$long_@$01@mpl@boost@@UArea@geonet@vanetza@@U?$l_item@U?$long_@$00@mpl@boost@@$$TUl_end@23@@23@@23@@mpl@boost@@@mpl@boost@@U?$l_iter@Ul_end@mpl@boost@@@23@@012@@Z
	??$visitation_impl@U?$int_@$0A@@mpl@boost@@U?$visitation_impl_step@U?$l_iter@U?$l_item@U?$long_@$02@mpl@boost@@VAddress@geonet@vanetza@@U?$l_item@U?$long_@$01@mpl@boost@@UArea@geonet@vanetza@@U?$l_item@U?$long_@$00@mpl@boost@@$$TUl_end@23@@23@@23@@mpl@boost@@@mpl@boost@@U?$l_iter@Ul_end@mpl@boost@@@23@@variant@detail@3@Umove_storage@563@PEAXUhas_fallback_type_@?$variant@VAddress@geonet@vanetza@@UArea@23@$$T@3@@variant@detail@boost@@YAXHHAEAUmove_storage@012@PEAXU?$bool_@$0A@@mpl@2@Uhas_fallback_type_@?$variant@VAddress@geonet@vanetza@@UArea@23@$$T@2@PEAU?$int_@$0A@@52@PEAU?$visitation_impl_step@U?$l_iter@U?$l_item@U?$long_@$02@mpl@boost@@VAddress@geonet@vanetza@@U?$l_item@U?$long_@$01@mpl@boost@@UArea@geonet@vanetza@@U?$l_item@U?$long_@$00@mpl@boost@@$$TUl_end@23@@23@@23@@mpl@boost@@@mpl@boost@@U?$l_iter@Ul_end@mpl@boost@@@23@@012@@Z
	??$visitation_impl@U?$int_@$0A@@mpl@boost@@U?$visitation_impl_step@U?$l_iter@U?$l_item@U?$long_@$02@mpl@boost@@VAddress@geonet@vanetza@@U?$l_item@U?$long_@$01@mpl@boost@@UArea@geonet@vanetza@@U?$l_item@U?$long_@$00@mpl@boost@@$$TUl_end@23@@23@@23@@mpl@boost@@@mpl@boost@@U?$l_iter@Ul_end@mpl@boost@@@23@@variant@detail@3@Vcopy_into@563@PEBXUhas_fallback_type_@?$variant@VAddress@geonet@vanetza@@UArea@23@$$T@3@@variant@detail@boost@@YAXHHAEAVcopy_into@012@PEBXU?$bool_@$0A@@mpl@2@Uhas_fallback_type_@?$variant@VAddress@geonet@vanetza@@UArea@23@$$T@2@PEAU?$int_@$0A@@52@PEAU?$visitation_impl_step@U?$l_iter@U?$l_item@U?$long_@$02@mpl@boost@@VAddress@geonet@vanetza@@U?$l_item@U?$long_@$01@mpl@boost@@UArea@geonet@vanetza@@U?$l_item@U?$long_@$00@mpl@boost@@$$TUl_end@23@@23@@23@@mpl@boost@@@mpl@boost@@U?$l_iter@Ul_end@mpl@boost@@@23@@012@@Z
	??$visitation_impl@U?$int_@$0A@@mpl@boost@@U?$visitation_impl_step@U?$l_iter@U?$l_item@U?$long_@$02@mpl@boost@@VAddress@geonet@vanetza@@U?$l_item@U?$long_@$01@mpl@boost@@UArea@geonet@vanetza@@U?$l_item@U?$long_@$00@mpl@boost@@$$TUl_end@23@@23@@23@@mpl@boost@@@mpl@boost@@U?$l_iter@Ul_end@mpl@boost@@@23@@variant@detail@3@Vmove_assigner@?$variant@VAddress@geonet@vanetza@@UArea@23@$$T@3@PEAXUhas_fallback_type_@83@@variant@detail@boost@@YAXHHAEAVmove_assigner@?$variant@VAddress@geonet@vanetza@@UArea@23@$$T@2@PEAXU?$bool_@$0A@@mpl@2@Uhas_fallback_type_@42@PEAU?$int_@$0A@@62@PEAU?$visitation_impl_step@U?$l_iter@U?$l_item@U?$long_@$02@mpl@boost@@VAddress@geonet@vanetza@@U?$l_item@U?$long_@$01@mpl@boost@@UArea@geonet@vanetza@@U?$l_item@U?$long_@$00@mpl@boost@@$$TUl_end@23@@23@@23@@mpl@boost@@@mpl@boost@@U?$l_iter@Ul_end@mpl@boost@@@23@@012@@Z
	??$visitation_impl@U?$int_@$0A@@mpl@boost@@U?$visitation_impl_step@U?$l_iter@U?$l_item@U?$long_@$02@mpl@boost@@VAddress@geonet@vanetza@@U?$l_item@U?$long_@$01@mpl@boost@@UArea@geonet@vanetza@@U?$l_item@U?$long_@$00@mpl@boost@@$$TUl_end@23@@23@@23@@mpl@boost@@@mpl@boost@@U?$l_iter@Ul_end@mpl@boost@@@23@@variant@detail@3@Vmove_into@563@PEAXUhas_fallback_type_@?$variant@VAddress@geonet@vanetza@@UArea@23@$$T@3@@variant@detail@boost@@YAXHHAEAVmove_into@012@PEAXU?$bool_@$0A@@mpl@2@Uhas_fallback_type_@?$variant@VAddress@geonet@vanetza@@UArea@23@$$T@2@PEAU?$int_@$0A@@52@PEAU?$visitation_impl_step@U?$l_iter@U?$l_item@U?$long_@$02@mpl@boost@@VAddress@geonet@vanetza@@U?$l_item@U?$long_@$01@mpl@boost@@UArea@geonet@vanetza@@U?$l_item@U?$long_@$00@mpl@boost@@$$TUl_end@23@@23@@23@@mpl@boost@@@mpl@boost@@U?$l_iter@Ul_end@mpl@boost@@@23@@012@@Z
	??$visitation_impl@U?$int_@$0BE@@mpl@boost@@U?$visitation_impl_step@U?$l_iter@Ul_end@mpl@boost@@@mpl@boost@@U123@@variant@detail@3@Udestroyer@563@PEAXUhas_fallback_type_@?$variant@URectangle@geonet@vanetza@@UEllipse@23@UCircle@23@@3@@variant@detail@boost@@YAXHHAEAUdestroyer@012@PEAXU?$bool_@$00@mpl@2@Uhas_fallback_type_@?$variant@URectangle@geonet@vanetza@@UEllipse@23@UCircle@23@@2@PEAU?$int_@$0BE@@52@PEAU?$visitation_impl_step@U?$l_iter@Ul_end@mpl@boost@@@mpl@boost@@U123@@012@@Z
	??$visitation_impl@U?$int_@$0BE@@mpl@boost@@U?$visitation_impl_step@U?$l_iter@Ul_end@mpl@boost@@@mpl@boost@@U123@@variant@detail@3@Udestroyer@563@PEAXUhas_fallback_type_@?$variant@VAddress@geonet@vanetza@@UArea@23@$$T@3@@variant@detail@boost@@YAXHHAEAUdestroyer@012@PEAXU?$bool_@$00@mpl@2@Uhas_fallback_type_@?$variant@VAddress@geonet@vanetza@@UArea@23@$$T@2@PEAU?$int_@$0BE@@52@PEAU?$visitation_impl_step@U?$l_iter@Ul_end@mpl@boost@@@mpl@boost@@U123@@012@@Z
	??$visitation_impl@U?$int_@$0BE@@mpl@boost@@U?$visitation_impl_step@U?$l_iter@Ul_end@mpl@boost@@@mpl@boost@@U123@@variant@detail@3@Udestroyer@563@PEAXUhas_fallback_type_@?$variant@VChunkPacket@vanetza@@VCohesivePacket@2@@3@@variant@detail@boost@@YAXHHAEAUdestroyer@012@PEAXU?$bool_@$00@mpl@2@Uhas_fallback_type_@?$variant@VChunkPacket@vanetza@@VCohesivePacket@2@@2@PEAU?$int_@$0BE@@52@PEAU?$visitation_impl_step@U?$l_iter@Ul_end@mpl@boost@@@mpl@boost@@U123@@012@@Z
	??$visitation_impl@U?$int_@$0BE@@mpl@boost@@U?$visitation_impl_step@U?$l_iter@Ul_end@mpl@boost@@@mpl@boost@@U123@@variant@detail@3@Umove_storage@563@PEAXUhas_fallback_type_@?$variant@URectangle@geonet@vanetza@@UEllipse@23@UCircle@23@@3@@variant@detail@boost@@YAXHHAEAUmove_storage@012@PEAXU?$bool_@$00@mpl@2@Uhas_fallback_type_@?$variant@URectangle@geonet@vanetza@@UEllipse@23@UCircle@23@@2@PEAU?$int_@$0BE@@52@PEAU?$visitation_impl_step@U?$l_iter@Ul_end@mpl@boost@@@mpl@boost@@U123@@012@@Z
	??$visitation_impl@U?$int_@$0BE@@mpl@boost@@U?$visitation_impl_step@U?$l_iter@Ul_end@mpl@boost@@@mpl@boost@@U123@@variant@detail@3@Umove_storage@563@PEAXUhas_fallback_type_@?$variant@VAddress@geonet@vanetza@@UArea@23@$$T@3@@variant@detail@boost@@YAXHHAEAUmove_storage@012@PEAXU?$bool_@$00@mpl@2@Uhas_fallback_type_@?$variant@VAddress@geonet@vanetza@@UArea@23@$$T@2@PEAU?$int_@$0BE@@52@PEAU?$visitation_impl_step@U?$l_iter@Ul_end@mpl@boost@@@mpl@boost@@U123@@012@@Z
	??$visitation_impl@U?$int_@$0BE@@mpl@boost@@U?$visitation_impl_step@U?$l_iter@Ul_end@mpl@boost@@@mpl@boost@@U123@@variant@detail@3@V?$backup_assigner@V?$variant@URectangle@geonet@vanetza@@UEllipse@23@UCircle@23@@boost@@@563@PEAXUhas_fallback_type_@?$variant@URectangle@geonet@vanetza@@UEllipse@23@UCircle@23@@3@@variant@detail@boost@@YAXHHAEAV?$backup_assigner@V?$variant@URectangle@geonet@vanetza@@UEllipse@23@UCircle@23@@boost@@@012@PEAXU?$bool_@$00@mpl@2@Uhas_fallback_type_@?$variant@URectangle@geonet@vanetza@@UEllipse@23@UCircle@23@@2@PEAU?$int_@$0BE@@52@PEAU?$visitation_impl_step@U?$l_iter@Ul_end@mpl@boost@@@mpl@boost@@U123@@012@@Z
	??$visitation_impl@U?$int_@$0BE@@mpl@boost@@U?$visitation_impl_step@U?$l_iter@Ul_end@mpl@boost@@@mpl@boost@@U123@@variant@detail@3@Vcopy_into@563@PEBXUhas_fallback_type_@?$variant@URectangle@geonet@vanetza@@UEllipse@23@UCircle@23@@3@@variant@detail@boost@@YAXHHAEAVcopy_into@012@PEBXU?$bool_@$00@mpl@2@Uhas_fallback_type_@?$variant@URectangle@geonet@vanetza@@UEllipse@23@UCircle@23@@2@PEAU?$int_@$0BE@@52@PEAU?$visitation_impl_step@U?$l_iter@Ul_end@mpl@boost@@@mpl@boost@@U123@@012@@Z
	??$visitation_impl@U?$int_@$0BE@@mpl@boost@@U?$visitation_impl_step@U?$l_iter@Ul_end@mpl@boost@@@mpl@boost@@U123@@variant@detail@3@Vcopy_into@563@PEBXUhas_fallback_type_@?$variant@VAddress@geonet@vanetza@@UArea@23@$$T@3@@variant@detail@boost@@YAXHHAEAVcopy_into@012@PEBXU?$bool_@$00@mpl@2@Uhas_fallback_type_@?$variant@VAddress@geonet@vanetza@@UArea@23@$$T@2@PEAU?$int_@$0BE@@52@PEAU?$visitation_impl_step@U?$l_iter@Ul_end@mpl@boost@@@mpl@boost@@U123@@012@@Z
	??$visitation_impl@U?$int_@$0BE@@mpl@boost@@U?$visitation_impl_step@U?$l_iter@Ul_end@mpl@boost@@@mpl@boost@@U123@@variant@detail@3@Vmove_assigner@?$variant@URectangle@geonet@vanetza@@UEllipse@23@UCircle@23@@3@PEAXUhas_fallback_type_@83@@variant@detail@boost@@YAXHHAEAVmove_assigner@?$variant@URectangle@geonet@vanetza@@UEllipse@23@UCircle@23@@2@PEAXU?$bool_@$00@mpl@2@Uhas_fallback_type_@42@PEAU?$int_@$0BE@@62@PEAU?$visitation_impl_step@U?$l_iter@Ul_end@mpl@boost@@@mpl@boost@@U123@@012@@Z
	??$visitation_impl@U?$int_@$0BE@@mpl@boost@@U?$visitation_impl_step@U?$l_iter@Ul_end@mpl@boost@@@mpl@boost@@U123@@variant@detail@3@Vmove_assigner@?$variant@VAddress@geonet@vanetza@@UArea@23@$$T@3@PEAXUhas_fallback_type_@83@@variant@detail@boost@@YAXHHAEAVmove_assigner@?$variant@VAddress@geonet@vanetza@@UArea@23@$$T@2@PEAXU?$bool_@$00@mpl@2@Uhas_fallback_type_@42@PEAU?$int_@$0BE@@62@PEAU?$visitation_impl_step@U?$l_iter@Ul_end@mpl@boost@@@mpl@boost@@U123@@012@@Z
	??$visitation_impl@U?$int_@$0BE@@mpl@boost@@U?$visitation_impl_step@U?$l_iter@Ul_end@mpl@boost@@@mpl@boost@@U123@@variant@detail@3@Vmove_into@563@PEAXUhas_fallback_type_@?$variant@URectangle@geonet@vanetza@@UEllipse@23@UCircle@23@@3@@variant@detail@boost@@YAXHHAEAVmove_into@012@PEAXU?$bool_@$00@mpl@2@Uhas_fallback_type_@?$variant@URectangle@geonet@vanetza@@UEllipse@23@UCircle@23@@2@PEAU?$int_@$0BE@@52@PEAU?$visitation_impl_step@U?$l_iter@Ul_end@mpl@boost@@@mpl@boost@@U123@@012@@Z
	??$visitation_impl@U?$int_@$0BE@@mpl@boost@@U?$visitation_impl_step@U?$l_iter@Ul_end@mpl@boost@@@mpl@boost@@U123@@variant@detail@3@Vmove_into@563@PEAXUhas_fallback_type_@?$variant@VAddress@geonet@vanetza@@UArea@23@$$T@3@@variant@detail@boost@@YAXHHAEAVmove_into@012@PEAXU?$bool_@$00@mpl@2@Uhas_fallback_type_@?$variant@VAddress@geonet@vanetza@@UArea@23@$$T@2@PEAU?$int_@$0BE@@52@PEAU?$visitation_impl_step@U?$l_iter@Ul_end@mpl@boost@@@mpl@boost@@U123@@012@@Z
	??$visitation_impl_invoke@Udestroyer@variant@detail@boost@@PEAX$$TUhas_fallback_type_@?$variant@VAddress@geonet@vanetza@@UArea@23@$$T@4@@variant@detail@boost@@YAXHAEAUdestroyer@012@PEAXPEA$$TUhas_fallback_type_@?$variant@VAddress@geonet@vanetza@@UArea@23@$$T@2@H@Z
	??$visitation_impl_invoke@Udestroyer@variant@detail@boost@@PEAXUArea@geonet@vanetza@@Uhas_fallback_type_@?$variant@VAddress@geonet@vanetza@@UArea@23@$$T@4@@variant@detail@boost@@YAXHAEAUdestroyer@012@PEAXPEAUArea@geonet@vanetza@@Uhas_fallback_type_@?$variant@VAddress@geonet@vanetza@@UArea@23@$$T@2@H@Z
	??$visitation_impl_invoke@Udestroyer@variant@detail@boost@@PEAXUCircle@geonet@vanetza@@Uhas_fallback_type_@?$variant@URectangle@geonet@vanetza@@UEllipse@23@UCircle@23@@4@@variant@detail@boost@@YAXHAEAUdestroyer@012@PEAXPEAUCircle@geonet@vanetza@@Uhas_fallback_type_@?$variant@URectangle@geonet@vanetza@@UEllipse@23@UCircle@23@@2@H@Z
	??$visitation_impl_invoke@Udestroyer@variant@detail@boost@@PEAXUEllipse@geonet@vanetza@@Uhas_fallback_type_@?$variant@URectangle@geonet@vanetza@@UEllipse@23@UCircle@23@@4@@variant@detail@boost@@YAXHAEAUdestroyer@012@PEAXPEAUEllipse@geonet@vanetza@@Uhas_fallback_type_@?$variant@URectangle@geonet@vanetza@@UEllipse@23@UCircle@23@@2@H@Z
	??$visitation_impl_invoke@Udestroyer@variant@detail@boost@@PEAXURectangle@geonet@vanetza@@Uhas_fallback_type_@?$variant@URectangle@geonet@vanetza@@UEllipse@23@UCircle@23@@4@@variant@detail@boost@@YAXHAEAUdestroyer@012@PEAXPEAURectangle@geonet@vanetza@@Uhas_fallback_type_@?$variant@URectangle@geonet@vanetza@@UEllipse@23@UCircle@23@@2@H@Z
	??$visitation_impl_invoke@Udestroyer@variant@detail@boost@@PEAXUhas_fallback_type_@?$variant@URectangle@geonet@vanetza@@UEllipse@23@UCircle@23@@4@@variant@detail@boost@@YAXHAEAUdestroyer@012@PEAXPEAUapply_visitor_unrolled@012@Uhas_fallback_type_@?$variant@URectangle@geonet@vanetza@@UEllipse@23@UCircle@23@@2@J@Z
	??$visitation_impl_invoke@Udestroyer@variant@detail@boost@@PEAXUhas_fallback_type_@?$variant@VAddress@geonet@vanetza@@UArea@23@$$T@4@@variant@detail@boost@@YAXHAEAUdestroyer@012@PEAXPEAUapply_visitor_unrolled@012@Uhas_fallback_type_@?$variant@VAddress@geonet@vanetza@@UArea@23@$$T@2@J@Z
	??$visitation_impl_invoke@Udestroyer@variant@detail@boost@@PEAXUhas_fallback_type_@?$variant@VChunkPacket@vanetza@@VCohesivePacket@2@@4@@variant@detail@boost@@YAXHAEAUdestroyer@012@PEAXPEAUapply_visitor_unrolled@012@Uhas_fallback_type_@?$variant@VChunkPacket@vanetza@@VCohesivePacket@2@@2@J@Z
	??$visitation_impl_invoke@Udestroyer@variant@detail@boost@@PEAXVAddress@geonet@vanetza@@Uhas_fallback_type_@?$variant@VAddress@geonet@vanetza@@UArea@23@$$T@4@@variant@detail@boost@@YAXHAEAUdestroyer@012@PEAXPEAVAddress@geonet@vanetza@@Uhas_fallback_type_@?$variant@VAddress@geonet@vanetza@@UArea@23@$$T@2@H@Z
	??$visitation_impl_invoke@Udestroyer@variant@detail@boost@@PEAXVChunkPacket@vanetza@@Uhas_fallback_type_@?$variant@VChunkPacket@vanetza@@VCohesivePacket@2@@4@@variant@detail@boost@@YAXHAEAUdestroyer@012@PEAXPEAVChunkPacket@vanetza@@Uhas_fallback_type_@?$variant@VChunkPacket@vanetza@@VCohesivePacket@2@@2@H@Z
	??$visitation_impl_invoke@Udestroyer@variant@detail@boost@@PEAXVCohesivePacket@vanetza@@Uhas_fallback_type_@?$variant@VChunkPacket@vanetza@@VCohesivePacket@2@@4@@variant@detail@boost@@YAXHAEAUdestroyer@012@PEAXPEAVCohesivePacket@vanetza@@Uhas_fallback_type_@?$variant@VChunkPacket@vanetza@@VCohesivePacket@2@@2@H@Z
	??$visitation_impl_invoke@Umove_storage@variant@detail@boost@@PEAX$$TUhas_fallback_type_@?$variant@VAddress@geonet@vanetza@@UArea@23@$$T@4@@variant@detail@boost@@YAXHAEAUmove_storage@012@PEAXPEA$$TUhas_fallback_type_@?$variant@VAddress@geonet@vanetza@@UArea@23@$$T@2@H@Z
	??$visitation_impl_invoke@Umove_storage@variant@detail@boost@@PEAXUArea@geonet@vanetza@@Uhas_fallback_type_@?$variant@VAddress@geonet@vanetza@@UArea@23@$$T@4@@variant@detail@boost@@YAXHAEAUmove_storage@012@PEAXPEAUArea@geonet@vanetza@@Uhas_fallback_type_@?$variant@VAddress@geonet@vanetza@@UArea@23@$$T@2@H@Z
	??$visitation_impl_invoke@Umove_storage@variant@detail@boost@@PEAXUCircle@geonet@vanetza@@Uhas_fallback_type_@?$variant@URectangle@geonet@vanetza@@UEllipse@23@UCircle@23@@4@@variant@detail@boost@@YAXHAEAUmove_storage@012@PEAXPEAUCircle@geonet@vanetza@@Uhas_fallback_type_@?$variant@URectangle@geonet@vanetza@@UEllipse@23@UCircle@23@@2@H@Z
	??$visitation_impl_invoke@Umove_storage@variant@detail@boost@@PEAXUEllipse@geonet@vanetza@@Uhas_fallback_type_@?$variant@URectangle@geonet@vanetza@@UEllipse@23@UCircle@23@@4@@variant@detail@boost@@YAXHAEAUmove_storage@012@PEAXPEAUEllipse@geonet@vanetza@@Uhas_fallback_type_@?$variant@URectangle@geonet@vanetza@@UEllipse@23@UCircle@23@@2@H@Z
	??$visitation_impl_invoke@Umove_storage@variant@detail@boost@@PEAXURectangle@geonet@vanetza@@Uhas_fallback_type_@?$variant@URectangle@geonet@vanetza@@UEllipse@23@UCircle@23@@4@@variant@detail@boost@@YAXHAEAUmove_storage@012@PEAXPEAURectangle@geonet@vanetza@@Uhas_fallback_type_@?$variant@URectangle@geonet@vanetza@@UEllipse@23@UCircle@23@@2@H@Z
	??$visitation_impl_invoke@Umove_storage@variant@detail@boost@@PEAXUhas_fallback_type_@?$variant@URectangle@geonet@vanetza@@UEllipse@23@UCircle@23@@4@@variant@detail@boost@@YAXHAEAUmove_storage@012@PEAXPEAUapply_visitor_unrolled@012@Uhas_fallback_type_@?$variant@URectangle@geonet@vanetza@@UEllipse@23@UCircle@23@@2@J@Z
	??$visitation_impl_invoke@Umove_storage@variant@detail@boost@@PEAXUhas_fallback_type_@?$variant@VAddress@geonet@vanetza@@UArea@23@$$T@4@@variant@detail@boost@@YAXHAEAUmove_storage@012@PEAXPEAUapply_visitor_unrolled@012@Uhas_fallback_type_@?$variant@VAddress@geonet@vanetza@@UArea@23@$$T@2@J@Z
	??$visitation_impl_invoke@Umove_storage@variant@detail@boost@@PEAXVAddress@geonet@vanetza@@Uhas_fallback_type_@?$variant@VAddress@geonet@vanetza@@UArea@23@$$T@4@@variant@detail@boost@@YAXHAEAUmove_storage@012@PEAXPEAVAddress@geonet@vanetza@@Uhas_fallback_type_@?$variant@VAddress@geonet@vanetza@@UArea@23@$$T@2@H@Z
	??$visitation_impl_invoke@V?$backup_assigner@V?$variant@URectangle@geonet@vanetza@@UEllipse@23@UCircle@23@@boost@@@variant@detail@boost@@PEAXUCircle@geonet@vanetza@@Uhas_fallback_type_@?$variant@URectangle@geonet@vanetza@@UEllipse@23@UCircle@23@@4@@variant@detail@boost@@YAXHAEAV?$backup_assigner@V?$variant@URectangle@geonet@vanetza@@UEllipse@23@UCircle@23@@boost@@@012@PEAXPEAUCircle@geonet@vanetza@@Uhas_fallback_type_@?$variant@URectangle@geonet@vanetza@@UEllipse@23@UCircle@23@@2@H@Z
	??$visitation_impl_invoke@V?$backup_assigner@V?$variant@URectangle@geonet@vanetza@@UEllipse@23@UCircle@23@@boost@@@variant@detail@boost@@PEAXUEllipse@geonet@vanetza@@Uhas_fallback_type_@?$variant@URectangle@geonet@vanetza@@UEllipse@23@UCircle@23@@4@@variant@detail@boost@@YAXHAEAV?$backup_assigner@V?$variant@URectangle@geonet@vanetza@@UEllipse@23@UCircle@23@@boost@@@012@PEAXPEAUEllipse@geonet@vanetza@@Uhas_fallback_type_@?$variant@URectangle@geonet@vanetza@@UEllipse@23@UCircle@23@@2@H@Z
	??$visitation_impl_invoke@V?$backup_assigner@V?$variant@URectangle@geonet@vanetza@@UEllipse@23@UCircle@23@@boost@@@variant@detail@boost@@PEAXURectangle@geonet@vanetza@@Uhas_fallback_type_@?$variant@URectangle@geonet@vanetza@@UEllipse@23@UCircle@23@@4@@variant@detail@boost@@YAXHAEAV?$backup_assigner@V?$variant@URectangle@geonet@vanetza@@UEllipse@23@UCircle@23@@boost@@@012@PEAXPEAURectangle@geonet@vanetza@@Uhas_fallback_type_@?$variant@URectangle@geonet@vanetza@@UEllipse@23@UCircle@23@@2@H@Z
	??$visitation_impl_invoke@V?$backup_assigner@V?$variant@URectangle@geonet@vanetza@@UEllipse@23@UCircle@23@@boost@@@variant@detail@boost@@PEAXUhas_fallback_type_@?$variant@URectangle@geonet@vanetza@@UEllipse@23@UCircle@23@@4@@variant@detail@boost@@YAXHAEAV?$backup_assigner@V?$variant@URectangle@geonet@vanetza@@UEllipse@23@UCircle@23@@boost@@@012@PEAXPEAUapply_visitor_unrolled@012@Uhas_fallback_type_@?$variant@URectangle@geonet@vanetza@@UEllipse@23@UCircle@23@@2@J@Z
	??$visitation_impl_invoke@Vcopy_into@variant@detail@boost@@PEBX$$TUhas_fallback_type_@?$variant@VAddress@geonet@vanetza@@UArea@23@$$T@4@@variant@detail@boost@@YAXHAEAVcopy_into@012@PEBXPEA$$TUhas_fallback_type_@?$variant@VAddress@geonet@vanetza@@UArea@23@$$T@2@H@Z
	??$visitation_impl_invoke@Vcopy_into@variant@detail@boost@@PEBXUArea@geonet@vanetza@@Uhas_fallback_type_@?$variant@VAddress@geonet@vanetza@@UArea@23@$$T@4@@variant@detail@boost@@YAXHAEAVcopy_into@012@PEBXPEAUArea@geonet@vanetza@@Uhas_fallback_type_@?$variant@VAddress@geonet@vanetza@@UArea@23@$$T@2@H@Z
	??$visitation_impl_invoke@Vcopy_into@variant@detail@boost@@PEBXUCircle@geonet@vanetza@@Uhas_fallback_type_@?$variant@URectangle@geonet@vanetza@@UEllipse@23@UCircle@23@@4@@variant@detail@boost@@YAXHAEAVcopy_into@012@PEBXPEAUCircle@geonet@vanetza@@Uhas_fallback_type_@?$variant@URectangle@geonet@vanetza@@UEllipse@23@UCircle@23@@2@H@Z
	??$visitation_impl_invoke@Vcopy_into@variant@detail@boost@@PEBXUEllipse@geonet@vanetza@@Uhas_fallback_type_@?$variant@URectangle@geonet@vanetza@@UEllipse@23@UCircle@23@@4@@variant@detail@boost@@YAXHAEAVcopy_into@012@PEBXPEAUEllipse@geonet@vanetza@@Uhas_fallback_type_@?$variant@URectangle@geonet@vanetza@@UEllipse@23@UCircle@23@@2@H@Z
	??$visitation_impl_invoke@Vcopy_into@variant@detail@boost@@PEBXURectangle@geonet@vanetza@@Uhas_fallback_type_@?$variant@URectangle@geonet@vanetza@@UEllipse@23@UCircle@23@@4@@variant@detail@boost@@YAXHAEAVcopy_into@012@PEBXPEAURectangle@geonet@vanetza@@Uhas_fallback_type_@?$variant@URectangle@geonet@vanetza@@UEllipse@23@UCircle@23@@2@H@Z
	??$visitation_impl_invoke@Vcopy_into@variant@detail@boost@@PEBXUhas_fallback_type_@?$variant@URectangle@geonet@vanetza@@UEllipse@23@UCircle@23@@4@@variant@detail@boost@@YAXHAEAVcopy_into@012@PEBXPEAUapply_visitor_unrolled@012@Uhas_fallback_type_@?$variant@URectangle@geonet@vanetza@@UEllipse@23@UCircle@23@@2@J@Z
	??$visitation_impl_invoke@Vcopy_into@variant@detail@boost@@PEBXUhas_fallback_type_@?$variant@VAddress@geonet@vanetza@@UArea@23@$$T@4@@variant@detail@boost@@YAXHAEAVcopy_into@012@PEBXPEAUapply_visitor_unrolled@012@Uhas_fallback_type_@?$variant@VAddress@geonet@vanetza@@UArea@23@$$T@2@J@Z
	??$visitation_impl_invoke@Vcopy_into@variant@detail@boost@@PEBXVAddress@geonet@vanetza@@Uhas_fallback_type_@?$variant@VAddress@geonet@vanetza@@UArea@23@$$T@4@@variant@detail@boost@@YAXHAEAVcopy_into@012@PEBXPEAVAddress@geonet@vanetza@@Uhas_fallback_type_@?$variant@VAddress@geonet@vanetza@@UArea@23@$$T@2@H@Z
	??$visitation_impl_invoke@Vmove_assigner@?$variant@URectangle@geonet@vanetza@@UEllipse@23@UCircle@23@@boost@@PEAXUCircle@geonet@vanetza@@Uhas_fallback_type_@23@@variant@detail@boost@@YAXHAEAVmove_assigner@?$variant@URectangle@geonet@vanetza@@UEllipse@23@UCircle@23@@2@PEAXPEAUCircle@geonet@vanetza@@Uhas_fallback_type_@42@H@Z
	??$visitation_impl_invoke@Vmove_assigner@?$variant@URectangle@geonet@vanetza@@UEllipse@23@UCircle@23@@boost@@PEAXUEllipse@geonet@vanetza@@Uhas_fallback_type_@23@@variant@detail@boost@@YAXHAEAVmove_assigner@?$variant@URectangle@geonet@vanetza@@UEllipse@23@UCircle@23@@2@PEAXPEAUEllipse@geonet@vanetza@@Uhas_fallback_type_@42@H@Z
	??$visitation_impl_invoke@Vmove_assigner@?$variant@URectangle@geonet@vanetza@@UEllipse@23@UCircle@23@@boost@@PEAXURectangle@geonet@vanetza@@Uhas_fallback_type_@23@@variant@detail@boost@@YAXHAEAVmove_assigner@?$variant@URectangle@geonet@vanetza@@UEllipse@23@UCircle@23@@2@PEAXPEAURectangle@geonet@vanetza@@Uhas_fallback_type_@42@H@Z
	??$visitation_impl_invoke@Vmove_assigner@?$variant@URectangle@geonet@vanetza@@UEllipse@23@UCircle@23@@boost@@PEAXUhas_fallback_type_@23@@variant@detail@boost@@YAXHAEAVmove_assigner@?$variant@URectangle@geonet@vanetza@@UEllipse@23@UCircle@23@@2@PEAXPEAUapply_visitor_unrolled@012@Uhas_fallback_type_@42@J@Z
	??$visitation_impl_invoke@Vmove_assigner@?$variant@VAddress@geonet@vanetza@@UArea@23@$$T@boost@@PEAX$$TUhas_fallback_type_@23@@variant@detail@boost@@YAXHAEAVmove_assigner@?$variant@VAddress@geonet@vanetza@@UArea@23@$$T@2@PEAXPEA$$TUhas_fallback_type_@42@H@Z
	??$visitation_impl_invoke@Vmove_assigner@?$variant@VAddress@geonet@vanetza@@UArea@23@$$T@boost@@PEAXUArea@geonet@vanetza@@Uhas_fallback_type_@23@@variant@detail@boost@@YAXHAEAVmove_assigner@?$variant@VAddress@geonet@vanetza@@UArea@23@$$T@2@PEAXPEAUArea@geonet@vanetza@@Uhas_fallback_type_@42@H@Z
	??$visitation_impl_invoke@Vmove_assigner@?$variant@VAddress@geonet@vanetza@@UArea@23@$$T@boost@@PEAXUhas_fallback_type_@23@@variant@detail@boost@@YAXHAEAVmove_assigner@?$variant@VAddress@geonet@vanetza@@UArea@23@$$T@2@PEAXPEAUapply_visitor_unrolled@012@Uhas_fallback_type_@42@J@Z
	??$visitation_impl_invoke@Vmove_assigner@?$variant@VAddress@geonet@vanetza@@UArea@23@$$T@boost@@PEAXVAddress@geonet@vanetza@@Uhas_fallback_type_@23@@variant@detail@boost@@YAXHAEAVmove_assigner@?$variant@VAddress@geonet@vanetza@@UArea@23@$$T@2@PEAXPEAVAddress@geonet@vanetza@@Uhas_fallback_type_@42@H@Z
	??$visitation_impl_invoke@Vmove_into@variant@detail@boost@@PEAX$$TUhas_fallback_type_@?$variant@VAddress@geonet@vanetza@@UArea@23@$$T@4@@variant@detail@boost@@YAXHAEAVmove_into@012@PEAXPEA$$TUhas_fallback_type_@?$variant@VAddress@geonet@vanetza@@UArea@23@$$T@2@H@Z
	??$visitation_impl_invoke@Vmove_into@variant@detail@boost@@PEAXUArea@geonet@vanetza@@Uhas_fallback_type_@?$variant@VAddress@geonet@vanetza@@UArea@23@$$T@4@@variant@detail@boost@@YAXHAEAVmove_into@012@PEAXPEAUArea@geonet@vanetza@@Uhas_fallback_type_@?$variant@VAddress@geonet@vanetza@@UArea@23@$$T@2@H@Z
	??$visitation_impl_invoke@Vmove_into@variant@detail@boost@@PEAXUCircle@geonet@vanetza@@Uhas_fallback_type_@?$variant@URectangle@geonet@vanetza@@UEllipse@23@UCircle@23@@4@@variant@detail@boost@@YAXHAEAVmove_into@012@PEAXPEAUCircle@geonet@vanetza@@Uhas_fallback_type_@?$variant@URectangle@geonet@vanetza@@UEllipse@23@UCircle@23@@2@H@Z
	??$visitation_impl_invoke@Vmove_into@variant@detail@boost@@PEAXUEllipse@geonet@vanetza@@Uhas_fallback_type_@?$variant@URectangle@geonet@vanetza@@UEllipse@23@UCircle@23@@4@@variant@detail@boost@@YAXHAEAVmove_into@012@PEAXPEAUEllipse@geonet@vanetza@@Uhas_fallback_type_@?$variant@URectangle@geonet@vanetza@@UEllipse@23@UCircle@23@@2@H@Z
	??$visitation_impl_invoke@Vmove_into@variant@detail@boost@@PEAXURectangle@geonet@vanetza@@Uhas_fallback_type_@?$variant@URectangle@geonet@vanetza@@UEllipse@23@UCircle@23@@4@@variant@detail@boost@@YAXHAEAVmove_into@012@PEAXPEAURectangle@geonet@vanetza@@Uhas_fallback_type_@?$variant@URectangle@geonet@vanetza@@UEllipse@23@UCircle@23@@2@H@Z
	??$visitation_impl_invoke@Vmove_into@variant@detail@boost@@PEAXUhas_fallback_type_@?$variant@URectangle@geonet@vanetza@@UEllipse@23@UCircle@23@@4@@variant@detail@boost@@YAXHAEAVmove_into@012@PEAXPEAUapply_visitor_unrolled@012@Uhas_fallback_type_@?$variant@URectangle@geonet@vanetza@@UEllipse@23@UCircle@23@@2@J@Z
	??$visitation_impl_invoke@Vmove_into@variant@detail@boost@@PEAXUhas_fallback_type_@?$variant@VAddress@geonet@vanetza@@UArea@23@$$T@4@@variant@detail@boost@@YAXHAEAVmove_into@012@PEAXPEAUapply_visitor_unrolled@012@Uhas_fallback_type_@?$variant@VAddress@geonet@vanetza@@UArea@23@$$T@2@J@Z
	??$visitation_impl_invoke@Vmove_into@variant@detail@boost@@PEAXVAddress@geonet@vanetza@@Uhas_fallback_type_@?$variant@VAddress@geonet@vanetza@@UArea@23@$$T@4@@variant@detail@boost@@YAXHAEAVmove_into@012@PEAXPEAVAddress@geonet@vanetza@@Uhas_fallback_type_@?$variant@VAddress@geonet@vanetza@@UArea@23@$$T@2@H@Z
	??$visitation_impl_invoke_impl@Udestroyer@variant@detail@boost@@PEAX$$T@variant@detail@boost@@YAXHAEAUdestroyer@012@PEAXPEA$$TU?$bool_@$00@mpl@2@@Z
	??$visitation_impl_invoke_impl@Udestroyer@variant@detail@boost@@PEAXUArea@geonet@vanetza@@@variant@detail@boost@@YAXHAEAUdestroyer@012@PEAXPEAUArea@geonet@vanetza@@U?$bool_@$00@mpl@2@@Z
	??$visitation_impl_invoke_impl@Udestroyer@variant@detail@boost@@PEAXUCircle@geonet@vanetza@@@variant@detail@boost@@YAXHAEAUdestroyer@012@PEAXPEAUCircle@geonet@vanetza@@U?$bool_@$0A@@mpl@2@@Z
	??$visitation_impl_invoke_impl@Udestroyer@variant@detail@boost@@PEAXUEllipse@geonet@vanetza@@@variant@detail@boost@@YAXHAEAUdestroyer@012@PEAXPEAUEllipse@geonet@vanetza@@U?$bool_@$0A@@mpl@2@@Z
	??$visitation_impl_invoke_impl@Udestroyer@variant@detail@boost@@PEAXURectangle@geonet@vanetza@@@variant@detail@boost@@YAXHAEAUdestroyer@012@PEAXPEAURectangle@geonet@vanetza@@U?$bool_@$0A@@mpl@2@@Z
	??$visitation_impl_invoke_impl@Udestroyer@variant@detail@boost@@PEAXVAddress@geonet@vanetza@@@variant@detail@boost@@YAXHAEAUdestroyer@012@PEAXPEAVAddress@geonet@vanetza@@U?$bool_@$00@mpl@2@@Z
	??$visitation_impl_invoke_impl@Udestroyer@variant@detail@boost@@PEAXVChunkPacket@vanetza@@@variant@detail@boost@@YAXHAEAUdestroyer@012@PEAXPEAVChunkPacket@vanetza@@U?$bool_@$0A@@mpl@2@@Z
	??$visitation_impl_invoke_impl@Udestroyer@variant@detail@boost@@PEAXVCohesivePacket@vanetza@@@variant@detail@boost@@YAXHAEAUdestroyer@012@PEAXPEAVCohesivePacket@vanetza@@U?$bool_@$00@mpl@2@@Z
	??$visitation_impl_invoke_impl@Umove_storage@variant@detail@boost@@PEAX$$T@variant@detail@boost@@YAXHAEAUmove_storage@012@PEAXPEA$$TU?$bool_@$00@mpl@2@@Z
	??$visitation_impl_invoke_impl@Umove_storage@variant@detail@boost@@PEAXUArea@geonet@vanetza@@@variant@detail@boost@@YAXHAEAUmove_storage@012@PEAXPEAUArea@geonet@vanetza@@U?$bool_@$00@mpl@2@@Z
	??$visitation_impl_invoke_impl@Umove_storage@variant@detail@boost@@PEAXUCircle@geonet@vanetza@@@variant@detail@boost@@YAXHAEAUmove_storage@012@PEAXPEAUCircle@geonet@vanetza@@U?$bool_@$0A@@mpl@2@@Z
	??$visitation_impl_invoke_impl@Umove_storage@variant@detail@boost@@PEAXUEllipse@geonet@vanetza@@@variant@detail@boost@@YAXHAEAUmove_storage@012@PEAXPEAUEllipse@geonet@vanetza@@U?$bool_@$0A@@mpl@2@@Z
	??$visitation_impl_invoke_impl@Umove_storage@variant@detail@boost@@PEAXURectangle@geonet@vanetza@@@variant@detail@boost@@YAXHAEAUmove_storage@012@PEAXPEAURectangle@geonet@vanetza@@U?$bool_@$0A@@mpl@2@@Z
	??$visitation_impl_invoke_impl@Umove_storage@variant@detail@boost@@PEAXVAddress@geonet@vanetza@@@variant@detail@boost@@YAXHAEAUmove_storage@012@PEAXPEAVAddress@geonet@vanetza@@U?$bool_@$00@mpl@2@@Z
	??$visitation_impl_invoke_impl@V?$backup_assigner@V?$variant@URectangle@geonet@vanetza@@UEllipse@23@UCircle@23@@boost@@@variant@detail@boost@@PEAXUCircle@geonet@vanetza@@@variant@detail@boost@@YAXHAEAV?$backup_assigner@V?$variant@URectangle@geonet@vanetza@@UEllipse@23@UCircle@23@@boost@@@012@PEAXPEAUCircle@geonet@vanetza@@U?$bool_@$0A@@mpl@2@@Z
	??$visitation_impl_invoke_impl@V?$backup_assigner@V?$variant@URectangle@geonet@vanetza@@UEllipse@23@UCircle@23@@boost@@@variant@detail@boost@@PEAXUEllipse@geonet@vanetza@@@variant@detail@boost@@YAXHAEAV?$backup_assigner@V?$variant@URectangle@geonet@vanetza@@UEllipse@23@UCircle@23@@boost@@@012@PEAXPEAUEllipse@geonet@vanetza@@U?$bool_@$0A@@mpl@2@@Z
	??$visitation_impl_invoke_impl@V?$backup_assigner@V?$variant@URectangle@geonet@vanetza@@UEllipse@23@UCircle@23@@boost@@@variant@detail@boost@@PEAXURectangle@geonet@vanetza@@@variant@detail@boost@@YAXHAEAV?$backup_assigner@V?$variant@URectangle@geonet@vanetza@@UEllipse@23@UCircle@23@@boost@@@012@PEAXPEAURectangle@geonet@vanetza@@U?$bool_@$0A@@mpl@2@@Z
	??$visitation_impl_invoke_impl@Vcopy_into@variant@detail@boost@@PEBX$$T@variant@detail@boost@@YAXHAEAVcopy_into@012@PEBXPEA$$TU?$bool_@$00@mpl@2@@Z
	??$visitation_impl_invoke_impl@Vcopy_into@variant@detail@boost@@PEBXUArea@geonet@vanetza@@@variant@detail@boost@@YAXHAEAVcopy_into@012@PEBXPEAUArea@geonet@vanetza@@U?$bool_@$00@mpl@2@@Z
	??$visitation_impl_invoke_impl@Vcopy_into@variant@detail@boost@@PEBXUCircle@geonet@vanetza@@@variant@detail@boost@@YAXHAEAVcopy_into@012@PEBXPEAUCircle@geonet@vanetza@@U?$bool_@$0A@@mpl@2@@Z
	??$visitation_impl_invoke_impl@Vcopy_into@variant@detail@boost@@PEBXUEllipse@geonet@vanetza@@@variant@detail@boost@@YAXHAEAVcopy_into@012@PEBXPEAUEllipse@geonet@vanetza@@U?$bool_@$0A@@mpl@2@@Z
	??$visitation_impl_invoke_impl@Vcopy_into@variant@detail@boost@@PEBXURectangle@geonet@vanetza@@@variant@detail@boost@@YAXHAEAVcopy_into@012@PEBXPEAURectangle@geonet@vanetza@@U?$bool_@$0A@@mpl@2@@Z
	??$visitation_impl_invoke_impl@Vcopy_into@variant@detail@boost@@PEBXVAddress@geonet@vanetza@@@variant@detail@boost@@YAXHAEAVcopy_into@012@PEBXPEAVAddress@geonet@vanetza@@U?$bool_@$00@mpl@2@@Z
	??$visitation_impl_invoke_impl@Vmove_assigner@?$variant@URectangle@geonet@vanetza@@UEllipse@23@UCircle@23@@boost@@PEAXUCircle@geonet@vanetza@@@variant@detail@boost@@YAXHAEAVmove_assigner@?$variant@URectangle@geonet@vanetza@@UEllipse@23@UCircle@23@@2@PEAXPEAUCircle@geonet@vanetza@@U?$bool_@$0A@@mpl@2@@Z
	??$visitation_impl_invoke_impl@Vmove_assigner@?$variant@URectangle@geonet@vanetza@@UEllipse@23@UCircle@23@@boost@@PEAXUEllipse@geonet@vanetza@@@variant@detail@boost@@YAXHAEAVmove_assigner@?$variant@URectangle@geonet@vanetza@@UEllipse@23@UCircle@23@@2@PEAXPEAUEllipse@geonet@vanetza@@U?$bool_@$0A@@mpl@2@@Z
	??$visitation_impl_invoke_impl@Vmove_assigner@?$variant@URectangle@geonet@vanetza@@UEllipse@23@UCircle@23@@boost@@PEAXURectangle@geonet@vanetza@@@variant@detail@boost@@YAXHAEAVmove_assigner@?$variant@URectangle@geonet@vanetza@@UEllipse@23@UCircle@23@@2@PEAXPEAURectangle@geonet@vanetza@@U?$bool_@$0A@@mpl@2@@Z
	??$visitation_impl_invoke_impl@Vmove_assigner@?$variant@VAddress@geonet@vanetza@@UArea@23@$$T@boost@@PEAX$$T@variant@detail@boost@@YAXHAEAVmove_assigner@?$variant@VAddress@geonet@vanetza@@UArea@23@$$T@2@PEAXPEA$$TU?$bool_@$00@mpl@2@@Z
	??$visitation_impl_invoke_impl@Vmove_assigner@?$variant@VAddress@geonet@vanetza@@UArea@23@$$T@boost@@PEAXUArea@geonet@vanetza@@@variant@detail@boost@@YAXHAEAVmove_assigner@?$variant@VAddress@geonet@vanetza@@UArea@23@$$T@2@PEAXPEAUArea@geonet@vanetza@@U?$bool_@$00@mpl@2@@Z
	??$visitation_impl_invoke_impl@Vmove_assigner@?$variant@VAddress@geonet@vanetza@@UArea@23@$$T@boost@@PEAXVAddress@geonet@vanetza@@@variant@detail@boost@@YAXHAEAVmove_assigner@?$variant@VAddress@geonet@vanetza@@UArea@23@$$T@2@PEAXPEAVAddress@geonet@vanetza@@U?$bool_@$00@mpl@2@@Z
	??$visitation_impl_invoke_impl@Vmove_into@variant@detail@boost@@PEAX$$T@variant@detail@boost@@YAXHAEAVmove_into@012@PEAXPEA$$TU?$bool_@$00@mpl@2@@Z
	??$visitation_impl_invoke_impl@Vmove_into@variant@detail@boost@@PEAXUArea@geonet@vanetza@@@variant@detail@boost@@YAXHAEAVmove_into@012@PEAXPEAUArea@geonet@vanetza@@U?$bool_@$00@mpl@2@@Z
	??$visitation_impl_invoke_impl@Vmove_into@variant@detail@boost@@PEAXUCircle@geonet@vanetza@@@variant@detail@boost@@YAXHAEAVmove_into@012@PEAXPEAUCircle@geonet@vanetza@@U?$bool_@$0A@@mpl@2@@Z
	??$visitation_impl_invoke_impl@Vmove_into@variant@detail@boost@@PEAXUEllipse@geonet@vanetza@@@variant@detail@boost@@YAXHAEAVmove_into@012@PEAXPEAUEllipse@geonet@vanetza@@U?$bool_@$0A@@mpl@2@@Z
	??$visitation_impl_invoke_impl@Vmove_into@variant@detail@boost@@PEAXURectangle@geonet@vanetza@@@variant@detail@boost@@YAXHAEAVmove_into@012@PEAXPEAURectangle@geonet@vanetza@@U?$bool_@$0A@@mpl@2@@Z
	??$visitation_impl_invoke_impl@Vmove_into@variant@detail@boost@@PEAXVAddress@geonet@vanetza@@@variant@detail@boost@@YAXHAEAVmove_into@012@PEAXPEAVAddress@geonet@vanetza@@U?$bool_@$00@mpl@2@@Z
	??$wrap@Vbyte_buffer_source@vanetza@@@detail@iostreams@boost@@YA?AVbyte_buffer_source@vanetza@@AEBV34@PEAX@Z
	??$write@V?$linked_streambuf@DU?$char_traits@D@std@@@detail@iostreams@boost@@@?$concept_adapter@Vbyte_buffer_source@vanetza@@@detail@iostreams@boost@@QEAA_JPEBD_JPEAV?$linked_streambuf@DU?$char_traits@D@std@@@123@@Z
	??$write@Vbyte_buffer_source@vanetza@@V?$linked_streambuf@DU?$char_traits@D@std@@@detail@iostreams@boost@@@?$device_wrapper_impl@Uinput@iostreams@boost@@@detail@iostreams@boost@@SA_JAEAVbyte_buffer_source@vanetza@@PEAV?$linked_streambuf@DU?$char_traits@D@std@@@123@PEBD_J@Z
	??0<lambda_f1029778a57b646c15e664f974467e61>@@QEAA@AEBQEAVPromiscuousHook@PortDispatcher@btp@vanetza@@@Z
	??0?$EndianType@G$0A@@vanetza@@QEAA@G@Z
	??0?$_Alloc_construct_ptr@V?$allocator@U?$_List_node@PEAVPromiscuousHook@PortDispatcher@btp@vanetza@@PEAX@std@@@std@@@std@@QEAA@AEAV?$allocator@U?$_List_node@PEAVPromiscuousHook@PortDispatcher@btp@vanetza@@PEAX@std@@@1@@Z
	??0?$_Alloc_construct_ptr@V?$allocator@U?$_List_node@U?$pair@$$CBV?$EndianType@G$0A@@vanetza@@PEAVIndicationInterface@btp@2@@std@@PEAX@std@@@std@@@std@@QEAA@AEAV?$allocator@U?$_List_node@U?$pair@$$CBV?$EndianType@G$0A@@vanetza@@PEAVIndicationInterface@btp@2@@std@@PEAX@std@@@1@@Z
	??0?$_Container_proxy_ptr12@V?$allocator@U_Container_proxy@std@@@std@@@std@@QEAA@AEAV?$allocator@U_Container_proxy@std@@@1@AEAU_Container_base12@1@@Z
	??0?$_List_const_iterator@V?$_List_val@U?$_List_simple_types@PEAVPromiscuousHook@PortDispatcher@btp@vanetza@@@std@@@std@@@std@@QEAA@$$QEAV01@@Z
	??0?$_List_const_iterator@V?$_List_val@U?$_List_simple_types@PEAVPromiscuousHook@PortDispatcher@btp@vanetza@@@std@@@std@@@std@@QEAA@PEAU?$_List_node@PEAVPromiscuousHook@PortDispatcher@btp@vanetza@@PEAX@1@PEBV?$_List_val@U?$_List_simple_types@PEAVPromiscuousHook@PortDispatcher@btp@vanetza@@@std@@@1@@Z
	??0?$_List_iterator@V?$_List_val@U?$_List_simple_types@PEAVPromiscuousHook@PortDispatcher@btp@vanetza@@@std@@@std@@@std@@QEAA@$$QEAV01@@Z
	??0?$_List_iterator@V?$_List_val@U?$_List_simple_types@PEAVPromiscuousHook@PortDispatcher@btp@vanetza@@@std@@@std@@@std@@QEAA@PEAU?$_List_node@PEAVPromiscuousHook@PortDispatcher@btp@vanetza@@PEAX@1@PEBV?$_List_val@U?$_List_simple_types@PEAVPromiscuousHook@PortDispatcher@btp@vanetza@@@std@@@1@@Z
	??0?$_List_unchecked_const_iterator@V?$_List_val@U?$_List_simple_types@PEAVPromiscuousHook@PortDispatcher@btp@vanetza@@@std@@@std@@U_Iterator_base0@2@@std@@QEAA@PEAU?$_List_node@PEAVPromiscuousHook@PortDispatcher@btp@vanetza@@PEAX@1@PEBV?$_List_val@U?$_List_simple_types@PEAVPromiscuousHook@PortDispatcher@btp@vanetza@@@std@@@1@@Z
	??0?$_List_unchecked_const_iterator@V?$_List_val@U?$_List_simple_types@PEAVPromiscuousHook@PortDispatcher@btp@vanetza@@@std@@@std@@U_Iterator_base12@2@@std@@QEAA@$$QEAV01@@Z
	??0?$_List_unchecked_const_iterator@V?$_List_val@U?$_List_simple_types@PEAVPromiscuousHook@PortDispatcher@btp@vanetza@@@std@@@std@@U_Iterator_base12@2@@std@@QEAA@PEAU?$_List_node@PEAVPromiscuousHook@PortDispatcher@btp@vanetza@@PEAX@1@PEBV?$_List_val@U?$_List_simple_types@PEAVPromiscuousHook@PortDispatcher@btp@vanetza@@@std@@@1@@Z
	??0?$_List_unchecked_const_iterator@V?$_List_val@U?$_List_simple_types@U?$pair@$$CBV?$EndianType@G$0A@@vanetza@@PEAVIndicationInterface@btp@2@@std@@@std@@@std@@U_Iterator_base0@2@@std@@QEAA@PEAU?$_List_node@U?$pair@$$CBV?$EndianType@G$0A@@vanetza@@PEAVIndicationInterface@btp@2@@std@@PEAX@1@PEBV?$_List_val@U?$_List_simple_types@U?$pair@$$CBV?$EndianType@G$0A@@vanetza@@PEAVIndicationInterface@btp@2@@std@@@std@@@1@@Z
	??0?$_List_unchecked_iterator@V?$_List_val@U?$_List_simple_types@PEAVPromiscuousHook@PortDispatcher@btp@vanetza@@@std@@@std@@@std@@QEAA@PEAU?$_List_node@PEAVPromiscuousHook@PortDispatcher@btp@vanetza@@PEAX@1@PEBV?$_List_val@U?$_List_simple_types@PEAVPromiscuousHook@PortDispatcher@btp@vanetza@@@std@@@1@@Z
	??0?$_List_unchecked_iterator@V?$_List_val@U?$_List_simple_types@U?$pair@$$CBV?$EndianType@G$0A@@vanetza@@PEAVIndicationInterface@btp@2@@std@@@std@@@std@@@std@@QEAA@PEAU?$_List_node@U?$pair@$$CBV?$EndianType@G$0A@@vanetza@@PEAVIndicationInterface@btp@2@@std@@PEAX@1@PEBV?$_List_val@U?$_List_simple_types@U?$pair@$$CBV?$EndianType@G$0A@@vanetza@@PEAVIndicationInterface@btp@2@@std@@@std@@@1@@Z
	??0?$_String_val@U?$_Simple_types@D@std@@@std@@QEAA@XZ
	??0?$_Uninitialized_backout@PEAV?$_List_unchecked_iterator@V?$_List_val@U?$_List_simple_types@U?$pair@$$CBV?$EndianType@G$0A@@vanetza@@PEAVIndicationInterface@btp@2@@std@@@std@@@std@@@std@@@std@@QEAA@PEAV?$_List_unchecked_iterator@V?$_List_val@U?$_List_simple_types@U?$pair@$$CBV?$EndianType@G$0A@@vanetza@@PEAVIndicationInterface@btp@2@@std@@@std@@@std@@@1@@Z
	??0?$_Uninitialized_backout_al@V?$allocator@E@std@@@std@@QEAA@PEAEAEAV?$allocator@E@1@@Z
	??0?$_Vector_const_iterator@V?$_Vector_val@U?$_Simple_types@E@std@@@std@@@std@@QEAA@$$QEAV01@@Z
	??0?$_Vector_const_iterator@V?$_Vector_val@U?$_Simple_types@E@std@@@std@@@std@@QEAA@AEBV01@@Z
	??0?$_Vector_iterator@V?$_Vector_val@U?$_Simple_types@E@std@@@std@@@std@@QEAA@AEBV01@@Z
	??0?$_Vector_val@U?$_Simple_types@E@std@@@std@@QEAA@PEAE00@Z
	??0?$_Vector_val@U?$_Simple_types@E@std@@@std@@QEAA@XZ
	??0?$aligned_storage@$0BA@$07@boost@@QEAA@XZ
	??0?$aligned_storage@$0DA@$07@boost@@QEAA@XZ
	??0?$allocator@D@std@@QEAA@XZ
	??0?$allocator@E@std@@QEAA@XZ
	??0?$backup_holder@UCircle@geonet@vanetza@@@variant@detail@boost@@QEAA@AEBV0123@@Z
	??0?$backup_holder@UCircle@geonet@vanetza@@@variant@detail@boost@@QEAA@PEAUCircle@geonet@vanetza@@@Z
	??0?$backup_holder@UEllipse@geonet@vanetza@@@variant@detail@boost@@QEAA@AEBV0123@@Z
	??0?$backup_holder@UEllipse@geonet@vanetza@@@variant@detail@boost@@QEAA@PEAUEllipse@geonet@vanetza@@@Z
	??0?$backup_holder@URectangle@geonet@vanetza@@@variant@detail@boost@@QEAA@AEBV0123@@Z
	??0?$backup_holder@URectangle@geonet@vanetza@@@variant@detail@boost@@QEAA@PEAURectangle@geonet@vanetza@@@Z
	??0?$basic_buffer@DV?$allocator@D@std@@@detail@iostreams@boost@@QEAA@XZ
	??0?$basic_buffer@DV?$allocator@D@std@@@detail@iostreams@boost@@QEAA@_J@Z
	??0?$basic_string@DU?$char_traits@D@std@@V?$allocator@D@2@@std@@QEAA@$$QEAV01@@Z
	??0?$basic_string@DU?$char_traits@D@std@@V?$allocator@D@2@@std@@QEAA@AEBV01@@Z
	??0?$basic_string@DU?$char_traits@D@std@@V?$allocator@D@2@@std@@QEAA@QEBD@Z
	??0?$basic_string@DU?$char_traits@D@std@@V?$allocator@D@2@@std@@QEAA@QEBD_K@Z
	??0?$clear_flags_operation@H@detail@iostreams@boost@@QEAA@AEAH@Z
	??0?$concept_adapter@Vbyte_buffer_source@vanetza@@@detail@iostreams@boost@@QEAA@AEBV0123@@Z
	??0?$concept_adapter@Vbyte_buffer_source@vanetza@@@detail@iostreams@boost@@QEAA@AEBVbyte_buffer_source@vanetza@@@Z
	??0?$double_object@V?$basic_buffer@DV?$allocator@D@std@@@detail@iostreams@boost@@U?$is_convertible@Uinput@iostreams@boost@@Utwo_sequence@detail@23@@4@@detail@iostreams@boost@@QEAA@XZ
	??0?$indirect_streambuf@Vbyte_buffer_source@vanetza@@U?$char_traits@D@std@@V?$allocator@D@4@Uinput@iostreams@boost@@@detail@iostreams@boost@@QEAA@XZ
	??0?$linked_streambuf@DU?$char_traits@D@std@@@detail@iostreams@boost@@IEAA@XZ
	??0?$member_close_operation@V?$linked_streambuf@DU?$char_traits@D@std@@@detail@iostreams@boost@@@detail@iostreams@boost@@QEAA@AEAV?$linked_streambuf@DU?$char_traits@D@std@@@123@H@Z
	??0?$optional@I@boost@@QEAA@XZ
	??0?$optional@UDataIndication@btp@vanetza@@@boost@@QEAA@$$QEAV01@@Z
	??0?$optional@UDataIndication@btp@vanetza@@@boost@@QEAA@XZ
	??0?$optional@URepetition@DataRequest@geonet@vanetza@@@boost@@QEAA@XZ
	??0?$optional@V?$EndianType@G$0A@@vanetza@@@boost@@QEAA@$$QEAV01@@Z
	??0?$optional@V?$EndianType@G$0A@@vanetza@@@boost@@QEAA@AEBV?$EndianType@G$0A@@vanetza@@@Z
	??0?$optional@V?$EndianType@G$0A@@vanetza@@@boost@@QEAA@XZ
	??0?$optional@V?$concept_adapter@Vbyte_buffer_source@vanetza@@@detail@iostreams@boost@@@detail@iostreams@boost@@QEAA@XZ
	??0?$optional@V?$vector@EV?$allocator@E@std@@@std@@@boost@@QEAA@$$QEAV01@@Z
	??0?$optional@V?$vector@EV?$allocator@E@std@@@std@@@boost@@QEAA@AEBV01@@Z
	??0?$optional@V?$vector@EV?$allocator@E@std@@@std@@@boost@@QEAA@XZ
	??0?$optional@VLifetime@geonet@vanetza@@@boost@@QEAA@$$QEAV01@@Z
	??0?$optional@VLifetime@geonet@vanetza@@@boost@@QEAA@AEBV01@@Z
	??0?$optional@VLifetime@geonet@vanetza@@@boost@@QEAA@XZ
	??0?$optional_base@UDataIndication@btp@vanetza@@@optional_detail@boost@@IEAA@$$QEAV012@@Z
	??0?$optional_base@UDataIndication@btp@vanetza@@@optional_detail@boost@@IEAA@XZ
	??0?$optional_base@URepetition@DataRequest@geonet@vanetza@@@optional_detail@boost@@IEAA@XZ
	??0?$optional_base@V?$EndianType@G$0A@@vanetza@@@optional_detail@boost@@IEAA@$$QEAV012@@Z
	??0?$optional_base@V?$EndianType@G$0A@@vanetza@@@optional_detail@boost@@IEAA@Uinit_value_tag@12@AEBV?$EndianType@G$0A@@vanetza@@@Z
	??0?$optional_base@V?$EndianType@G$0A@@vanetza@@@optional_detail@boost@@IEAA@XZ
	??0?$optional_base@V?$vector@EV?$allocator@E@std@@@std@@@optional_detail@boost@@IEAA@$$QEAV012@@Z
	??0?$optional_base@V?$vector@EV?$allocator@E@std@@@std@@@optional_detail@boost@@IEAA@AEBV012@@Z
	??0?$optional_base@V?$vector@EV?$allocator@E@std@@@std@@@optional_detail@boost@@IEAA@XZ
	??0?$optional_base@VLifetime@geonet@vanetza@@@optional_detail@boost@@IEAA@$$QEAV012@@Z
	??0?$optional_base@VLifetime@geonet@vanetza@@@optional_detail@boost@@IEAA@AEBV012@@Z
	??0?$optional_base@VLifetime@geonet@vanetza@@@optional_detail@boost@@IEAA@XZ
	??0?$quantity@V?$absolute@V?$unit@U?$list@U?$dim@Utime_base_dimension@units@boost@@V?$static_rational@$00$00@23@@units@boost@@Udimensionless_type@23@@units@boost@@U?$heterogeneous_system@U?$heterogeneous_system_impl@U?$list@U?$heterogeneous_system_dim@Usecond_base_unit@si@units@boost@@V?$static_rational@$00$00@34@@units@boost@@Udimensionless_type@23@@units@boost@@U?$list@U?$dim@Utime_base_dimension@units@boost@@V?$static_rational@$00$00@23@@units@boost@@Udimensionless_type@23@@23@U?$list@U?$scale_list_dim@U?$scale@$09V?$static_rational@$0?2$00@units@boost@@@units@boost@@@units@boost@@Udimensionless_type@23@@23@@units@boost@@@23@X@units@boost@@@units@boost@@I@units@boost@@QEAA@AEBV012@@Z
	??0?$quantity@V?$absolute@V?$unit@U?$list@U?$dim@Utime_base_dimension@units@boost@@V?$static_rational@$00$00@23@@units@boost@@Udimensionless_type@23@@units@boost@@U?$heterogeneous_system@U?$heterogeneous_system_impl@U?$list@U?$heterogeneous_system_dim@Usecond_base_unit@si@units@boost@@V?$static_rational@$00$00@34@@units@boost@@Udimensionless_type@23@@units@boost@@U?$list@U?$dim@Utime_base_dimension@units@boost@@V?$static_rational@$00$00@23@@units@boost@@Udimensionless_type@23@@23@U?$list@U?$scale_list_dim@U?$scale@$09V?$static_rational@$0?2$00@units@boost@@@units@boost@@@units@boost@@Udimensionless_type@23@@23@@units@boost@@@23@X@units@boost@@@units@boost@@I@units@boost@@QEAA@P8012@EAAXPEAPEAPEAPEAPEAPEAPEAH@Z@Z
	??0?$quantity@V?$unit@U?$list@U?$dim@Ulength_base_dimension@units@boost@@V?$static_rational@$00$00@23@@units@boost@@Udimensionless_type@23@@units@boost@@U?$homogeneous_system@U?$list@Umeter_base_unit@si@units@boost@@U?$list@U?$scaled_base_unit@Ugram_base_unit@cgs@units@boost@@U?$scale@$09V?$static_rational@$02$00@units@boost@@@34@@units@boost@@U?$list@Usecond_base_unit@si@units@boost@@U?$list@Uampere_base_unit@si@units@boost@@U?$list@Ukelvin_base_unit@si@units@boost@@U?$list@Umole_base_unit@si@units@boost@@U?$list@Ucandela_base_unit@si@units@boost@@U?$list@Uradian_base_unit@angle@units@boost@@U?$list@Usteradian_base_unit@angle@units@boost@@Udimensionless_type@34@@34@@34@@34@@34@@34@@34@@23@@34@@units@boost@@@23@X@units@boost@@N@units@boost@@QEAA@AEBV012@@Z
	??0?$quantity@V?$unit@U?$list@U?$dim@Uplane_angle_base_dimension@units@boost@@V?$static_rational@$00$00@23@@units@boost@@Udimensionless_type@23@@units@boost@@U?$heterogeneous_system@U?$heterogeneous_system_impl@U?$list@U?$heterogeneous_system_dim@Udegree_base_unit@angle@units@boost@@V?$static_rational@$00$00@34@@units@boost@@Udimensionless_type@23@@units@boost@@U?$list@U?$dim@Uplane_angle_base_dimension@units@boost@@V?$static_rational@$00$00@23@@units@boost@@Udimensionless_type@23@@23@U?$list@U?$scale_list_dim@U?$scale@$09V?$static_rational@$0?6$00@units@boost@@@units@boost@@@units@boost@@Udimensionless_type@23@@23@@units@boost@@@23@X@units@boost@@H@units@boost@@QEAA@AEBV012@@Z
	??0?$quantity@V?$unit@U?$list@U?$dim@Uplane_angle_base_dimension@units@boost@@V?$static_rational@$00$00@23@@units@boost@@Udimensionless_type@23@@units@boost@@U?$heterogeneous_system@U?$heterogeneous_system_impl@U?$list@U?$heterogeneous_system_dim@Udegree_base_unit@angle@units@boost@@V?$static_rational@$00$00@34@@units@boost@@Udimensionless_type@23@@units@boost@@U?$list@U?$dim@Uplane_angle_base_dimension@units@boost@@V?$static_rational@$00$00@23@@units@boost@@Udimensionless_type@23@@23@U?$list@U?$scale_list_dim@U?$scale@$09V?$static_rational@$0?6$00@units@boost@@@units@boost@@@units@boost@@Udimensionless_type@23@@23@@units@boost@@@23@X@units@boost@@H@units@boost@@QEAA@XZ
	??0?$quantity@V?$unit@U?$list@U?$dim@Uplane_angle_base_dimension@units@boost@@V?$static_rational@$00$00@23@@units@boost@@Udimensionless_type@23@@units@boost@@U?$homogeneous_system@U?$list@Udegree_base_unit@angle@units@boost@@Udimensionless_type@34@@units@boost@@@23@X@units@boost@@N@units@boost@@QEAA@AEBV012@@Z
	??0?$quantity@V?$unit@U?$list@U?$dim@Uplane_angle_base_dimension@units@boost@@V?$static_rational@$00$00@23@@units@boost@@Udimensionless_type@23@@units@boost@@U?$homogeneous_system@U?$list@Umeter_base_unit@si@units@boost@@U?$list@U?$scaled_base_unit@Ugram_base_unit@cgs@units@boost@@U?$scale@$09V?$static_rational@$02$00@units@boost@@@34@@units@boost@@U?$list@Usecond_base_unit@si@units@boost@@U?$list@Uampere_base_unit@si@units@boost@@U?$list@Ukelvin_base_unit@si@units@boost@@U?$list@Umole_base_unit@si@units@boost@@U?$list@Ucandela_base_unit@si@units@boost@@U?$list@Uradian_base_unit@angle@units@boost@@U?$list@Usteradian_base_unit@angle@units@boost@@Udimensionless_type@34@@34@@34@@34@@34@@34@@34@@23@@34@@units@boost@@@23@X@units@boost@@N@units@boost@@QEAA@AEBV012@@Z
	??0?$refcount_ptr@Uerror_info_container@exception_detail@boost@@@exception_detail@boost@@QEAA@AEBV012@@Z
	??0?$refcount_ptr@Uerror_info_container@exception_detail@boost@@@exception_detail@boost@@QEAA@XZ
	??0?$reset_operation@V?$optional@V?$concept_adapter@Vbyte_buffer_source@vanetza@@@detail@iostreams@boost@@@detail@iostreams@boost@@@detail@iostreams@boost@@QEAA@AEAV?$optional@V?$concept_adapter@Vbyte_buffer_source@vanetza@@@detail@iostreams@boost@@@123@@Z
	??0?$single_object_holder@V?$basic_buffer@DV?$allocator@D@std@@@detail@iostreams@boost@@@detail@iostreams@boost@@QEAA@XZ
	??0?$stream_buffer@Vbyte_buffer_source@vanetza@@U?$char_traits@D@std@@V?$allocator@D@4@Uinput@iostreams@boost@@@iostreams@boost@@QEAA@AEAVbyte_buffer_source@vanetza@@_J1@Z
	??0?$tc_optional_base@I@optional_detail@boost@@IEAA@XZ
	??0?$tuple@$$V@std@@QEAA@AEBV01@@Z
	??0?$tuple@AEBV?$EndianType@G$0A@@vanetza@@@std@@QEAA@$$QEAV01@@Z
	??0?$variant@URectangle@geonet@vanetza@@UEllipse@23@UCircle@23@@boost@@QEAA@$$QEAV01@@Z
	??0?$variant@URectangle@geonet@vanetza@@UEllipse@23@UCircle@23@@boost@@QEAA@AEBV01@@Z
	??0?$variant@VAddress@geonet@vanetza@@UArea@23@$$T@boost@@QEAA@$$QEAV01@@Z
	??0?$variant@VAddress@geonet@vanetza@@UArea@23@$$T@boost@@QEAA@AEBV01@@Z
	??0?$variant@VAddress@geonet@vanetza@@UArea@23@$$T@boost@@QEAA@XZ
	??0?$vector@EV?$allocator@E@std@@@std@@QEAA@$$QEAV01@@Z
	??0?$vector@EV?$allocator@E@std@@@std@@QEAA@AEBV01@@Z
	??0?$vector@EV?$allocator@E@std@@@std@@QEAA@XZ
	??0?$wrapexcept@Vfailure@ios_base@std@@@boost@@QEAA@AEBU01@@Z
	??0?$wrapexcept@Vfailure@ios_base@std@@@boost@@QEAA@AEBVfailure@ios_base@std@@@Z
	??0Area@geonet@vanetza@@QEAA@$$QEAU012@@Z
	??0Area@geonet@vanetza@@QEAA@AEBU012@@Z
	??0Circle@geonet@vanetza@@QEAA@$$QEAU012@@Z
	??0Circle@geonet@vanetza@@QEAA@AEBU012@@Z
	??0DataIndication@btp@vanetza@@QEAA@$$QEAU012@@Z
	??0DataIndication@btp@vanetza@@QEAA@AEBU0geonet@2@AEBUHeaderA@12@@Z
	??0DataIndication@btp@vanetza@@QEAA@AEBU0geonet@2@AEBUHeaderB@12@@Z
	??0DataIndication@btp@vanetza@@QEAA@XZ
	??0DataRequestA@btp@vanetza@@QEAA@XZ
	??0DataRequestB@btp@vanetza@@QEAA@XZ
	??0DataRequestGeoNetParams@btp@vanetza@@QEAA@XZ
	??0Ellipse@geonet@vanetza@@QEAA@$$QEAU012@@Z
	??0Ellipse@geonet@vanetza@@QEAA@AEBU012@@Z
	??0GeodeticPosition@geonet@vanetza@@QEAA@$$QEAU012@@Z
	??0GeodeticPosition@geonet@vanetza@@QEAA@AEBU012@@Z
	??0Rectangle@geonet@vanetza@@QEAA@$$QEAU012@@Z
	??0Rectangle@geonet@vanetza@@QEAA@AEBU012@@Z
	??0ShortPositionVector@geonet@vanetza@@QEAA@AEBV012@@Z
	??0ShortPositionVector@geonet@vanetza@@QEAA@XZ
	??0Timestamp@geonet@vanetza@@QEAA@AEBV012@@Z
	??0Timestamp@geonet@vanetza@@QEAA@XZ
	??0_Basic_container_proxy_ptr12@std@@IEAA@XZ
	??0_Bxty@?$_String_val@U?$_Simple_types@D@std@@@std@@QEAA@XZ
	??0_Clear_guard@?$_Hash@V?$_Umap_traits@V?$EndianType@G$0A@@vanetza@@PEAVIndicationInterface@btp@2@V?$_Uhash_compare@V?$EndianType@G$0A@@vanetza@@U?$hash@V?$EndianType@G$0A@@vanetza@@@std@@U?$equal_to@V?$EndianType@G$0A@@vanetza@@@4@@std@@V?$allocator@U?$pair@$$CBV?$EndianType@G$0A@@vanetza@@PEAVIndicationInterface@btp@2@@std@@@6@$0A@@std@@@std@@QEAA@QEAV12@@Z
	??0_Container_base12@std@@QEAA@XZ
	??0_Container_proxy@std@@QEAA@PEAU_Container_base12@1@@Z
	??0_Iterator_base12@std@@QEAA@AEBU01@@Z
	??0_Iterator_base12@std@@QEAA@XZ
	??0_List_node_remove_op@?$list@PEAVPromiscuousHook@PortDispatcher@btp@vanetza@@V?$allocator@PEAVPromiscuousHook@PortDispatcher@btp@vanetza@@@std@@@std@@QEAA@AEAV12@@Z
	??0_System_error@std@@IEAA@Verror_code@1@AEBV?$basic_string@DU?$char_traits@D@std@@V?$allocator@D@2@@1@@Z
	??0_System_error@std@@QEAA@AEBV01@@Z
	??0assigner@?$variant@URectangle@geonet@vanetza@@UEllipse@23@UCircle@23@@boost@@QEAA@AEAV12@H@Z
	??0assigner@?$variant@VAddress@geonet@vanetza@@UArea@23@$$T@boost@@QEAA@AEAV12@H@Z
	??0bad_alloc@std@@AEAA@QEBD@Z
	??0bad_alloc@std@@QEAA@AEBV01@@Z
	??0bad_array_new_length@std@@QEAA@AEBV01@@Z
	??0bad_array_new_length@std@@QEAA@XZ
	??0byte_buffer_source@vanetza@@QEAA@AEBV01@@Z
	??0clone_base@exception_detail@boost@@QEAA@AEBV012@@Z
	??0clone_base@exception_detail@boost@@QEAA@XZ
	??0copy_into@variant@detail@boost@@QEAA@PEAX@Z
	??0device_tag@iostreams@boost@@QEAA@XZ
	??0error_code@std@@QEAA@HAEBVerror_category@1@@Z
	??0error_condition@std@@QEAA@HAEBVerror_category@1@@Z
	??0exception@boost@@IEAA@XZ
	??0exception@boost@@QEAA@AEBV01@@Z
	??0exception@std@@QEAA@AEBV01@@Z
	??0exception@std@@QEAA@QEBD@Z
	??0exception@std@@QEAA@QEBDH@Z
	??0failure@ios_base@std@@QEAA@AEBV012@@Z
	??0failure@ios_base@std@@QEAA@PEBDAEBVerror_code@2@@Z
	??0in_place_init_if_t@optional_ns@boost@@QEAA@Uinit_tag@012@@Z
	??0in_place_init_t@optional_ns@boost@@QEAA@Uinit_tag@012@@Z
	??0input@iostreams@boost@@QEAA@XZ
	??0move_assigner@?$variant@URectangle@geonet@vanetza@@UEllipse@23@UCircle@23@@boost@@QEAA@AEAV12@H@Z
	??0move_assigner@?$variant@VAddress@geonet@vanetza@@UArea@23@$$T@boost@@QEAA@AEAV12@H@Z
	??0move_into@variant@detail@boost@@QEAA@PEAX@Z
	??0move_storage@variant@detail@boost@@QEAA@PEAX@Z
	??0runtime_error@std@@QEAA@AEBV01@@Z
	??0runtime_error@std@@QEAA@AEBV?$basic_string@DU?$char_traits@D@std@@V?$allocator@D@2@@1@@Z
	??0source_tag@iostreams@boost@@QEAA@XZ
	??0system_error@std@@QEAA@AEBV01@@Z
	??0system_error@std@@QEAA@Verror_code@1@PEBD@Z
	??1?$_Alloc_construct_ptr@V?$allocator@U?$_List_node@PEAVPromiscuousHook@PortDispatcher@btp@vanetza@@PEAX@std@@@std@@@std@@QEAA@XZ
	??1?$_Alloc_construct_ptr@V?$allocator@U?$_List_node@U?$pair@$$CBV?$EndianType@G$0A@@vanetza@@PEAVIndicationInterface@btp@2@@std@@PEAX@std@@@std@@@std@@QEAA@XZ
	??1?$_Compressed_pair@V?$allocator@D@std@@V?$_String_val@U?$_Simple_types@D@std@@@2@$00@std@@QEAA@XZ
	??1?$_Container_proxy_ptr12@V?$allocator@U_Container_proxy@std@@@std@@@std@@QEAA@XZ
	??1?$_List_const_iterator@V?$_List_val@U?$_List_simple_types@PEAVPromiscuousHook@PortDispatcher@btp@vanetza@@@std@@@std@@@std@@QEAA@XZ
	??1?$_List_iterator@V?$_List_val@U?$_List_simple_types@PEAVPromiscuousHook@PortDispatcher@btp@vanetza@@@std@@@std@@@std@@QEAA@XZ
	??1?$_List_node_emplace_op2@V?$allocator@U?$_List_node@PEAVPromiscuousHook@PortDispatcher@btp@vanetza@@PEAX@std@@@std@@@std@@QEAA@XZ
	??1?$_List_node_emplace_op2@V?$allocator@U?$_List_node@U?$pair@$$CBV?$EndianType@G$0A@@vanetza@@PEAVIndicationInterface@btp@2@@std@@PEAX@std@@@std@@@std@@QEAA@XZ
	??1?$_List_unchecked_const_iterator@V?$_List_val@U?$_List_simple_types@PEAVPromiscuousHook@PortDispatcher@btp@vanetza@@@std@@@std@@U_Iterator_base12@2@@std@@QEAA@XZ
	??1?$_String_val@U?$_Simple_types@D@std@@@std@@QEAA@XZ
	??1?$_Tidy_guard@V?$vector@EV?$allocator@E@std@@@std@@@std@@QEAA@XZ
	??1?$_Tree@V?$_Tmap_traits@W4OsiLayer@vanetza@@VByteBufferConvertible@2@U?$less@W4OsiLayer@vanetza@@@std@@V?$allocator@U?$pair@$$CBW4OsiLayer@vanetza@@VByteBufferConvertible@2@@std@@@5@$0A@@std@@@std@@QEAA@XZ
	??1?$_Uninitialized_backout@PEAV?$_List_unchecked_iterator@V?$_List_val@U?$_List_simple_types@U?$pair@$$CBV?$EndianType@G$0A@@vanetza@@PEAVIndicationInterface@btp@2@@std@@@std@@@std@@@std@@@std@@QEAA@XZ
	??1?$_Uninitialized_backout_al@V?$allocator@E@std@@@std@@QEAA@XZ
	??1?$_Vector_const_iterator@V?$_Vector_val@U?$_Simple_types@E@std@@@std@@@std@@QEAA@XZ
	??1?$_Vector_iterator@V?$_Vector_val@U?$_Simple_types@E@std@@@std@@@std@@QEAA@XZ
	??1?$aligned_storage@$0BA@$07@boost@@QEAA@XZ
	??1?$aligned_storage@$0DA@$07@boost@@QEAA@XZ
	??1?$aligned_storage@$0OA@$07@boost@@QEAA@XZ
	??1?$array@V?$_Vector_iterator@V?$_Vector_val@U?$_Simple_types@E@std@@@std@@@std@@$07@std@@QEAA@XZ
	??1?$backup_holder@UCircle@geonet@vanetza@@@variant@detail@boost@@QEAA@XZ
	??1?$backup_holder@UEllipse@geonet@vanetza@@@variant@detail@boost@@QEAA@XZ
	??1?$backup_holder@URectangle@geonet@vanetza@@@variant@detail@boost@@QEAA@XZ
	??1?$backup_holder@VChunkPacket@vanetza@@@variant@detail@boost@@QEAA@XZ
	??1?$basic_buffer@DV?$allocator@D@std@@@detail@iostreams@boost@@QEAA@XZ
	??1?$basic_string@DU?$char_traits@D@std@@V?$allocator@D@2@@std@@QEAA@XZ
	??1?$concept_adapter@Vbyte_buffer_source@vanetza@@@detail@iostreams@boost@@QEAA@XZ
	??1?$double_object@V?$basic_buffer@DV?$allocator@D@std@@@detail@iostreams@boost@@U?$is_convertible@Uinput@iostreams@boost@@Utwo_sequence@detail@23@@4@@detail@iostreams@boost@@QEAA@XZ
	??1?$indirect_streambuf@Vbyte_buffer_source@vanetza@@U?$char_traits@D@std@@V?$allocator@D@4@Uinput@iostreams@boost@@@detail@iostreams@boost@@UEAA@XZ
	??1?$iterator_range@V?$_Vector_const_iterator@V?$_Vector_val@U?$_Simple_types@E@std@@@std@@@std@@@boost@@QEAA@XZ
	??1?$iterator_range@V?$_Vector_iterator@V?$_Vector_val@U?$_Simple_types@E@std@@@std@@@std@@@boost@@QEAA@XZ
	??1?$iterator_range_base@V?$_Vector_const_iterator@V?$_Vector_val@U?$_Simple_types@E@std@@@std@@@std@@Ubidirectional_traversal_tag@iterators@boost@@@iterator_range_detail@boost@@QEAA@XZ
	??1?$iterator_range_base@V?$_Vector_const_iterator@V?$_Vector_val@U?$_Simple_types@E@std@@@std@@@std@@Uincrementable_traversal_tag@iterators@boost@@@iterator_range_detail@boost@@QEAA@XZ
	??1?$iterator_range_base@V?$_Vector_const_iterator@V?$_Vector_val@U?$_Simple_types@E@std@@@std@@@std@@Urandom_access_traversal_tag@iterators@boost@@@iterator_range_detail@boost@@QEAA@XZ
	??1?$iterator_range_base@V?$_Vector_iterator@V?$_Vector_val@U?$_Simple_types@E@std@@@std@@@std@@Ubidirectional_traversal_tag@iterators@boost@@@iterator_range_detail@boost@@QEAA@XZ
	??1?$iterator_range_base@V?$_Vector_iterator@V?$_Vector_val@U?$_Simple_types@E@std@@@std@@@std@@Uincrementable_traversal_tag@iterators@boost@@@iterator_range_detail@boost@@QEAA@XZ
	??1?$iterator_range_base@V?$_Vector_iterator@V?$_Vector_val@U?$_Simple_types@E@std@@@std@@@std@@Urandom_access_traversal_tag@iterators@boost@@@iterator_range_detail@boost@@QEAA@XZ
	??1?$linked_streambuf@DU?$char_traits@D@std@@@detail@iostreams@boost@@UEAA@XZ
	??1?$map@W4OsiLayer@vanetza@@VByteBufferConvertible@2@U?$less@W4OsiLayer@vanetza@@@std@@V?$allocator@U?$pair@$$CBW4OsiLayer@vanetza@@VByteBufferConvertible@2@@std@@@5@@std@@QEAA@XZ
	??1?$optional@UDataIndication@btp@vanetza@@@boost@@QEAA@XZ
	??1?$optional@URepetition@DataRequest@geonet@vanetza@@@boost@@QEAA@XZ
	??1?$optional@V?$EndianType@G$0A@@vanetza@@@boost@@QEAA@XZ
	??1?$optional@V?$concept_adapter@Vbyte_buffer_source@vanetza@@@detail@iostreams@boost@@@detail@iostreams@boost@@QEAA@XZ
	??1?$optional@V?$vector@EV?$allocator@E@std@@@std@@@boost@@QEAA@XZ
	??1?$optional@VLifetime@geonet@vanetza@@@boost@@QEAA@XZ
	??1?$optional_base@UDataIndication@btp@vanetza@@@optional_detail@boost@@IEAA@XZ
	??1?$optional_base@URepetition@DataRequest@geonet@vanetza@@@optional_detail@boost@@IEAA@XZ
	??1?$optional_base@V?$EndianType@G$0A@@vanetza@@@optional_detail@boost@@IEAA@XZ
	??1?$optional_base@V?$vector@EV?$allocator@E@std@@@std@@@optional_detail@boost@@IEAA@XZ
	??1?$optional_base@VLifetime@geonet@vanetza@@@optional_detail@boost@@IEAA@XZ
	??1?$pair@$$CBW4OsiLayer@vanetza@@VByteBufferConvertible@2@@std@@QEAA@XZ
	??1?$refcount_ptr@Uerror_info_container@exception_detail@boost@@@exception_detail@boost@@QEAA@XZ
	??1?$single_object_holder@V?$basic_buffer@DV?$allocator@D@std@@@detail@iostreams@boost@@@detail@iostreams@boost@@QEAA@XZ
	??1?$stream_buffer@Vbyte_buffer_source@vanetza@@U?$char_traits@D@std@@V?$allocator@D@4@Uinput@iostreams@boost@@@iostreams@boost@@UEAA@XZ
	??1?$unique_ptr@Ubyte_buffer@convertible@vanetza@@U?$default_delete@Ubyte_buffer@convertible@vanetza@@@std@@@std@@QEAA@XZ
	??1?$unique_ptr@V?$variant@VChunkPacket@vanetza@@VCohesivePacket@2@@boost@@U?$default_delete@V?$variant@VChunkPacket@vanetza@@VCohesivePacket@2@@boost@@@std@@@std@@QEAA@XZ
	??1?$variant@URectangle@geonet@vanetza@@UEllipse@23@UCircle@23@@boost@@QEAA@XZ
	??1?$variant@VAddress@geonet@vanetza@@UArea@23@$$T@boost@@QEAA@XZ
	??1?$variant@VChunkPacket@vanetza@@VCohesivePacket@2@@boost@@QEAA@XZ
	??1?$vector@EV?$allocator@E@std@@@std@@QEAA@XZ
	??1?$wrapexcept@Vfailure@ios_base@std@@@boost@@UEAA@XZ
	??1Area@geonet@vanetza@@QEAA@XZ
	??1ByteBufferConvertible@vanetza@@QEAA@XZ
	??1ChunkPacket@vanetza@@QEAA@XZ
	??1CohesivePacket@vanetza@@QEAA@XZ
	??1DataIndication@btp@vanetza@@QEAA@XZ
	??1_Bxty@?$_String_val@U?$_Simple_types@D@std@@@std@@QEAA@XZ
	??1_Clear_guard@?$_Hash@V?$_Umap_traits@V?$EndianType@G$0A@@vanetza@@PEAVIndicationInterface@btp@2@V?$_Uhash_compare@V?$EndianType@G$0A@@vanetza@@U?$hash@V?$EndianType@G$0A@@vanetza@@@std@@U?$equal_to@V?$EndianType@G$0A@@vanetza@@@4@@std@@V?$allocator@U?$pair@$$CBV?$EndianType@G$0A@@vanetza@@PEAVIndicationInterface@btp@2@@std@@@6@$0A@@std@@@std@@QEAA@XZ
	??1_Iostream_error_category2@std@@UEAA@XZ
	??1_Iterator_base12@std@@QEAA@XZ
	??1_List_node_remove_op@?$list@PEAVPromiscuousHook@PortDispatcher@btp@vanetza@@V?$allocator@PEAVPromiscuousHook@PortDispatcher@btp@vanetza@@@std@@@std@@QEAA@XZ
	??1_System_error@std@@UEAA@XZ
	??1bad_alloc@std@@UEAA@XZ
	??1bad_array_new_length@std@@UEAA@XZ
	??1byte_buffer_source@vanetza@@QEAA@XZ
	??1clone_base@exception_detail@boost@@UEAA@XZ
	??1deleter@?$wrapexcept@Vfailure@ios_base@std@@@boost@@QEAA@XZ
	??1error_category@std@@UEAA@XZ
	??1exception@boost@@MEAA@XZ
	??1exception@std@@UEAA@XZ
	??1failure@ios_base@std@@UEAA@XZ
	??1locale@std@@QEAA@XZ
	??1runtime_error@std@@UEAA@XZ
	??1system_error@std@@UEAA@XZ
	??2@YAPEAX_KPEAX@Z
	??4?$optional@V?$EndianType@G$0A@@vanetza@@@boost@@QEAAAEAV01@$$QEAV01@@Z
	??4?$optional@V?$vector@EV?$allocator@E@std@@@std@@@boost@@QEAAAEAV01@$$QEAV01@@Z
	??4?$optional@VLifetime@geonet@vanetza@@@boost@@QEAAAEAV01@$$QEAV01@@Z
	??4?$optional_base@V?$EndianType@G$0A@@vanetza@@@optional_detail@boost@@IEAAAEAV012@$$QEAV012@@Z
	??4?$optional_base@V?$vector@EV?$allocator@E@std@@@std@@@optional_detail@boost@@IEAAAEAV012@$$QEAV012@@Z
	??4?$optional_base@VLifetime@geonet@vanetza@@@optional_detail@boost@@IEAAAEAV012@$$QEAV012@@Z
	??4?$quantity@V?$absolute@V?$unit@U?$list@U?$dim@Utime_base_dimension@units@boost@@V?$static_rational@$00$00@23@@units@boost@@Udimensionless_type@23@@units@boost@@U?$heterogeneous_system@U?$heterogeneous_system_impl@U?$list@U?$heterogeneous_system_dim@Usecond_base_unit@si@units@boost@@V?$static_rational@$00$00@34@@units@boost@@Udimensionless_type@23@@units@boost@@U?$list@U?$dim@Utime_base_dimension@units@boost@@V?$static_rational@$00$00@23@@units@boost@@Udimensionless_type@23@@23@U?$list@U?$scale_list_dim@U?$scale@$09V?$static_rational@$0?2$00@units@boost@@@units@boost@@@units@boost@@Udimensionless_type@23@@23@@units@boost@@@23@X@units@boost@@@units@boost@@I@units@boost@@QEAAAEAV012@AEBV012@@Z
	??4?$quantity@V?$unit@U?$list@U?$dim@Ulength_base_dimension@units@boost@@V?$static_rational@$00$00@23@@units@boost@@Udimensionless_type@23@@units@boost@@U?$homogeneous_system@U?$list@Umeter_base_unit@si@units@boost@@U?$list@U?$scaled_base_unit@Ugram_base_unit@cgs@units@boost@@U?$scale@$09V?$static_rational@$02$00@units@boost@@@34@@units@boost@@U?$list@Usecond_base_unit@si@units@boost@@U?$list@Uampere_base_unit@si@units@boost@@U?$list@Ukelvin_base_unit@si@units@boost@@U?$list@Umole_base_unit@si@units@boost@@U?$list@Ucandela_base_unit@si@units@boost@@U?$list@Uradian_base_unit@angle@units@boost@@U?$list@Usteradian_base_unit@angle@units@boost@@Udimensionless_type@34@@34@@34@@34@@34@@34@@34@@23@@34@@units@boost@@@23@X@units@boost@@N@units@boost@@QEAAAEAV012@AEBV012@@Z
	??4?$quantity@V?$unit@U?$list@U?$dim@Uplane_angle_base_dimension@units@boost@@V?$static_rational@$00$00@23@@units@boost@@Udimensionless_type@23@@units@boost@@U?$heterogeneous_system@U?$heterogeneous_system_impl@U?$list@U?$heterogeneous_system_dim@Udegree_base_unit@angle@units@boost@@V?$static_rational@$00$00@34@@units@boost@@Udimensionless_type@23@@units@boost@@U?$list@U?$dim@Uplane_angle_base_dimension@units@boost@@V?$static_rational@$00$00@23@@units@boost@@Udimensionless_type@23@@23@U?$list@U?$scale_list_dim@U?$scale@$09V?$static_rational@$0?6$00@units@boost@@@units@boost@@@units@boost@@Udimensionless_type@23@@23@@units@boost@@@23@X@units@boost@@H@units@boost@@QEAAAEAV012@AEBV012@@Z
	??4?$quantity@V?$unit@U?$list@U?$dim@Uplane_angle_base_dimension@units@boost@@V?$static_rational@$00$00@23@@units@boost@@Udimensionless_type@23@@units@boost@@U?$homogeneous_system@U?$list@Udegree_base_unit@angle@units@boost@@Udimensionless_type@34@@units@boost@@@23@X@units@boost@@N@units@boost@@QEAAAEAV012@AEBV012@@Z
	??4?$quantity@V?$unit@U?$list@U?$dim@Uplane_angle_base_dimension@units@boost@@V?$static_rational@$00$00@23@@units@boost@@Udimensionless_type@23@@units@boost@@U?$homogeneous_system@U?$list@Umeter_base_unit@si@units@boost@@U?$list@U?$scaled_base_unit@Ugram_base_unit@cgs@units@boost@@U?$scale@$09V?$static_rational@$02$00@units@boost@@@34@@units@boost@@U?$list@Usecond_base_unit@si@units@boost@@U?$list@Uampere_base_unit@si@units@boost@@U?$list@Ukelvin_base_unit@si@units@boost@@U?$list@Umole_base_unit@si@units@boost@@U?$list@Ucandela_base_unit@si@units@boost@@U?$list@Uradian_base_unit@angle@units@boost@@U?$list@Usteradian_base_unit@angle@units@boost@@Udimensionless_type@34@@34@@34@@34@@34@@34@@34@@23@@34@@units@boost@@@23@X@units@boost@@N@units@boost@@QEAAAEAV012@AEBV012@@Z
	??4?$refcount_ptr@Uerror_info_container@exception_detail@boost@@@exception_detail@boost@@QEAAAEAV012@AEBV012@@Z
	??4?$variant@URectangle@geonet@vanetza@@UEllipse@23@UCircle@23@@boost@@QEAAAEAV01@$$QEAV01@@Z
	??4?$variant@VAddress@geonet@vanetza@@UArea@23@$$T@boost@@QEAAAEAV01@$$QEAV01@@Z
	??4?$vector@EV?$allocator@E@std@@@std@@QEAAAEAV01@$$QEAV01@@Z
	??4Area@geonet@vanetza@@QEAAAEAU012@$$QEAU012@@Z
	??4Circle@geonet@vanetza@@QEAAAEAU012@$$QEAU012@@Z
	??4DataIndication@btp@vanetza@@QEAAAEAU012@$$QEAU012@@Z
	??4Ellipse@geonet@vanetza@@QEAAAEAU012@$$QEAU012@@Z
	??4GeodeticPosition@geonet@vanetza@@QEAAAEAU012@$$QEAU012@@Z
	??4Rectangle@geonet@vanetza@@QEAAAEAU012@$$QEAU012@@Z
	??4ShortPositionVector@geonet@vanetza@@QEAAAEAV012@AEBV012@@Z
	??4Timestamp@geonet@vanetza@@QEAAAEAV012@AEBV012@@Z
	??4_Iterator_base12@std@@QEAAAEAU01@AEBU01@@Z
	??7?$optional@UDataIndication@btp@vanetza@@@boost@@QEBA_NXZ
	??7?$optional@V?$EndianType@G$0A@@vanetza@@@boost@@QEBA_NXZ
	??8?$EndianType@G$0A@@vanetza@@QEBA_NAEBV01@@Z
	??8?$_List_const_iterator@V?$_List_val@U?$_List_simple_types@PEAVPromiscuousHook@PortDispatcher@btp@vanetza@@@std@@@std@@@std@@QEBA_NAEBV01@@Z
	??8?$_List_unchecked_const_iterator@V?$_List_val@U?$_List_simple_types@PEAVPromiscuousHook@PortDispatcher@btp@vanetza@@@std@@@std@@U_Iterator_base0@2@@std@@QEBA_NAEBV01@@Z
	??8?$_List_unchecked_const_iterator@V?$_List_val@U?$_List_simple_types@U?$pair@$$CBV?$EndianType@G$0A@@vanetza@@PEAVIndicationInterface@btp@2@@std@@@std@@@std@@U_Iterator_base0@2@@std@@QEBA_NAEBV01@@Z
	??8error_category@std@@QEBA_NAEBV01@@Z
	??8std@@YA_NAEBVerror_condition@0@0@Z
	??9?$_List_unchecked_const_iterator@V?$_List_val@U?$_List_simple_types@PEAVPromiscuousHook@PortDispatcher@btp@vanetza@@@std@@@std@@U_Iterator_base0@2@@std@@QEBA_NAEBV01@@Z
	??9?$_List_unchecked_const_iterator@V?$_List_val@U?$_List_simple_types@U?$pair@$$CBV?$EndianType@G$0A@@vanetza@@PEAVIndicationInterface@btp@2@@std@@@std@@@std@@U_Iterator_base0@2@@std@@QEBA_NAEBV01@@Z
	??A?$unordered_map@V?$EndianType@G$0A@@vanetza@@PEAVIndicationInterface@btp@2@U?$hash@V?$EndianType@G$0A@@vanetza@@@std@@U?$equal_to@V?$EndianType@G$0A@@vanetza@@@6@V?$allocator@U?$pair@$$CBV?$EndianType@G$0A@@vanetza@@PEAVIndicationInterface@btp@2@@std@@@6@@std@@QEAAAEAPEAVIndicationInterface@btp@vanetza@@AEBV?$EndianType@G$0A@@4@@Z
	??AChunkPacket@vanetza@@QEAAAEAVByteBufferConvertible@1@W4OsiLayer@1@@Z
	??B?$fpos@U_Mbstatet@@@std@@QEBA_JXZ
	??B?$function@$$A6AXAEBUDataIndication@geonet@vanetza@@PEBU1btp@3@@Z@std@@QEBA_NXZ
	??B?$integral_constant@_N$00@boost@@QEBAAEBU?$bool_@$00@mpl@1@XZ
	??B?$integral_constant@_N$0A@@boost@@QEBAAEBU?$bool_@$0A@@mpl@1@XZ
	??B?$optional@UDataIndication@btp@vanetza@@@boost@@QEBA_NXZ
	??B?$optional@V?$EndianType@G$0A@@vanetza@@@boost@@QEBA_NXZ
	??B?$unique_ptr@V?$variant@VChunkPacket@vanetza@@VCohesivePacket@2@@boost@@U?$default_delete@V?$variant@VChunkPacket@vanetza@@VCohesivePacket@2@@boost@@@std@@@std@@QEBA_NXZ
	??C?$optional@UDataIndication@btp@vanetza@@@boost@@QEAAPEAUDataIndication@btp@vanetza@@XZ
	??C?$unique_ptr@Ubyte_buffer@convertible@vanetza@@U?$default_delete@Ubyte_buffer@convertible@vanetza@@@std@@@std@@QEBAPEAUbyte_buffer@convertible@vanetza@@XZ
	??D?$_List_unchecked_const_iterator@V?$_List_val@U?$_List_simple_types@PEAVPromiscuousHook@PortDispatcher@btp@vanetza@@@std@@@std@@U_Iterator_base0@2@@std@@QEBAAEBQEAVPromiscuousHook@PortDispatcher@btp@vanetza@@XZ
	??D?$_List_unchecked_const_iterator@V?$_List_val@U?$_List_simple_types@U?$pair@$$CBV?$EndianType@G$0A@@vanetza@@PEAVIndicationInterface@btp@2@@std@@@std@@@std@@U_Iterator_base0@2@@std@@QEBAAEBU?$pair@$$CBV?$EndianType@G$0A@@vanetza@@PEAVIndicationInterface@btp@2@@1@XZ
	??D?$_List_unchecked_iterator@V?$_List_val@U?$_List_simple_types@PEAVPromiscuousHook@PortDispatcher@btp@vanetza@@@std@@@std@@@std@@QEBAAEAPEAVPromiscuousHook@PortDispatcher@btp@vanetza@@XZ
	??D?$_List_unchecked_iterator@V?$_List_val@U?$_List_simple_types@U?$pair@$$CBV?$EndianType@G$0A@@vanetza@@PEAVIndicationInterface@btp@2@@std@@@std@@@std@@@std@@QEBAAEAU?$pair@$$CBV?$EndianType@G$0A@@vanetza@@PEAVIndicationInterface@btp@2@@1@XZ
	??D?$concept_adapter@Vbyte_buffer_source@vanetza@@@detail@iostreams@boost@@QEAAAEAVbyte_buffer_source@vanetza@@XZ
	??D?$optional@UDataIndication@btp@vanetza@@@boost@@QEGAAAEAUDataIndication@btp@vanetza@@XZ
	??D?$optional@V?$concept_adapter@Vbyte_buffer_source@vanetza@@@detail@iostreams@boost@@@detail@iostreams@boost@@QEAAAEAV?$concept_adapter@Vbyte_buffer_source@vanetza@@@123@XZ
	??D?$unique_ptr@V?$variant@VChunkPacket@vanetza@@VCohesivePacket@2@@boost@@U?$default_delete@V?$variant@VChunkPacket@vanetza@@VCohesivePacket@2@@boost@@@std@@@std@@QEBAAEAV?$variant@VChunkPacket@vanetza@@VCohesivePacket@2@@boost@@XZ
	??E?$_List_unchecked_const_iterator@V?$_List_val@U?$_List_simple_types@PEAVPromiscuousHook@PortDispatcher@btp@vanetza@@@std@@@std@@U_Iterator_base0@2@@std@@QEAAAEAV01@XZ
	??E?$_List_unchecked_const_iterator@V?$_List_val@U?$_List_simple_types@U?$pair@$$CBV?$EndianType@G$0A@@vanetza@@PEAVIndicationInterface@btp@2@@std@@@std@@@std@@U_Iterator_base0@2@@std@@QEAAAEAV01@XZ
	??E?$_List_unchecked_iterator@V?$_List_val@U?$_List_simple_types@PEAVPromiscuousHook@PortDispatcher@btp@vanetza@@@std@@@std@@@std@@QEAAAEAV01@XZ
	??E?$_List_unchecked_iterator@V?$_List_val@U?$_List_simple_types@U?$pair@$$CBV?$EndianType@G$0A@@vanetza@@PEAVIndicationInterface@btp@2@@std@@@std@@@std@@@std@@QEAAAEAV01@XZ
	??F?$_List_unchecked_const_iterator@V?$_List_val@U?$_List_simple_types@U?$pair@$$CBV?$EndianType@G$0A@@vanetza@@PEAVIndicationInterface@btp@2@@std@@@std@@@std@@U_Iterator_base0@2@@std@@QEAAAEAV01@XZ
	??G?$fpos@U_Mbstatet@@@std@@QEBA?AV01@_J@Z
	??R<lambda_65e615be2a453ca0576c979606f46740>@@QEBA@QEADQEBD_K12@Z
	??R<lambda_f1029778a57b646c15e664f974467e61>@@QEBA@AEBQEAVPromiscuousHook@PortDispatcher@btp@vanetza@@@Z
	??R?$Hook@AEBUDataIndication@geonet@vanetza@@PEBU1btp@3@@vanetza@@QEAAXAEBUDataIndication@geonet@1@PEBU2btp@1@@Z
	??R?$_Conditionally_enabled_hash@G$00@std@@QEBA_KAEBG@Z
	??R?$_Func_class@XAEBUDataIndication@geonet@vanetza@@PEBU1btp@3@@std@@QEBAXAEBUDataIndication@geonet@vanetza@@PEBU2btp@4@@Z
	??R?$clear_flags_operation@H@detail@iostreams@boost@@QEBAXXZ
	??R?$default_delete@Ubyte_buffer@convertible@vanetza@@@std@@QEBAXPEAUbyte_buffer@convertible@vanetza@@@Z
	??R?$default_delete@V?$variant@VChunkPacket@vanetza@@VCohesivePacket@2@@boost@@@std@@QEBAXPEAV?$variant@VChunkPacket@vanetza@@VCohesivePacket@2@@boost@@@Z
	??R?$equal_to@V?$EndianType@G$0A@@vanetza@@@std@@QEBA_NAEBV?$EndianType@G$0A@@vanetza@@0@Z
	??R?$hash@V?$EndianType@G$0A@@vanetza@@@std@@QEBA_KAEBV?$EndianType@G$0A@@vanetza@@@Z
	??R?$member_close_operation@V?$linked_streambuf@DU?$char_traits@D@std@@@detail@iostreams@boost@@@detail@iostreams@boost@@QEBAXXZ
	??R?$reset_operation@V?$optional@V?$concept_adapter@Vbyte_buffer_source@vanetza@@@detail@iostreams@boost@@@detail@iostreams@boost@@@detail@iostreams@boost@@QEBAXXZ
	??Z?$fpos@U_Mbstatet@@@std@@QEAAAEAV01@_J@Z
	?_Adjust_manually_vector_aligned@std@@YAXAEAPEAXAEA_K@Z
	?_Adopt@_Iterator_base0@std@@QEAAXPEBX@Z
	?_Adopt@_Iterator_base12@std@@QEAAXPEBU_Container_base12@2@@Z
	?_Adopt_locked@_Iterator_base12@std@@AEAAXPEBU_Container_base12@2@@Z
	?_Adopt_unlocked@_Iterator_base12@std@@AEAAXPEBU_Container_base12@2@@Z
	?_Allocate@?$_Alloc_construct_ptr@V?$allocator@U?$_List_node@PEAVPromiscuousHook@PortDispatcher@btp@vanetza@@PEAX@std@@@std@@@std@@QEAAXXZ
	?_Allocate@?$_Alloc_construct_ptr@V?$allocator@U?$_List_node@U?$pair@$$CBV?$EndianType@G$0A@@vanetza@@PEAVIndicationInterface@btp@2@@std@@PEAX@std@@@std@@@std@@QEAAXXZ
	?_Allocate@_Default_allocate_traits@std@@SAPEAX_K@Z
	?_Assign_grow@?$_Hash_vec@V?$allocator@V?$_List_unchecked_iterator@V?$_List_val@U?$_List_simple_types@U?$pair@$$CBV?$EndianType@G$0A@@vanetza@@PEAVIndicationInterface@btp@2@@std@@@std@@@std@@@std@@@std@@@std@@QEAAX_KV?$_List_unchecked_iterator@V?$_List_val@U?$_List_simple_types@U?$pair@$$CBV?$EndianType@G$0A@@vanetza@@PEAVIndicationInterface@btp@2@@std@@@std@@@std@@@2@@Z
	?_Assign_locked@_Iterator_base12@std@@AEAAXAEBU12@@Z
	?_Assign_unlocked@_Iterator_base12@std@@AEAAXAEBU12@@Z
	?_Buy_nonzero@?$vector@EV?$allocator@E@std@@@std@@AEAAX_K@Z
	?_Buy_raw@?$vector@EV?$allocator@E@std@@@std@@AEAAX_K@Z
	?_Calculate_growth@?$basic_string@DU?$char_traits@D@std@@V?$allocator@D@2@@std@@AEBA_K_K@Z
	?_Calculate_growth@?$basic_string@DU?$char_traits@D@std@@V?$allocator@D@2@@std@@CA_K_K00@Z
	?_Ceiling_of_log_2@std@@YAK_K@Z
	?_Check_max_size@?$_Hash@V?$_Umap_traits@V?$EndianType@G$0A@@vanetza@@PEAVIndicationInterface@btp@2@V?$_Uhash_compare@V?$EndianType@G$0A@@vanetza@@U?$hash@V?$EndianType@G$0A@@vanetza@@@std@@U?$equal_to@V?$EndianType@G$0A@@vanetza@@@4@@std@@V?$allocator@U?$pair@$$CBV?$EndianType@G$0A@@vanetza@@PEAVIndicationInterface@btp@2@@std@@@6@$0A@@std@@@std@@IEBAXXZ
	?_Check_rehash_required_1@?$_Hash@V?$_Umap_traits@V?$EndianType@G$0A@@vanetza@@PEAVIndicationInterface@btp@2@V?$_Uhash_compare@V?$EndianType@G$0A@@vanetza@@U?$hash@V?$EndianType@G$0A@@vanetza@@@std@@U?$equal_to@V?$EndianType@G$0A@@vanetza@@@4@@std@@V?$allocator@U?$pair@$$CBV?$EndianType@G$0A@@vanetza@@PEAVIndicationInterface@btp@2@@std@@@6@$0A@@std@@@std@@IEBA_NXZ
	?_Desired_grow_bucket_count@?$_Hash@V?$_Umap_traits@V?$EndianType@G$0A@@vanetza@@PEAVIndicationInterface@btp@2@V?$_Uhash_compare@V?$EndianType@G$0A@@vanetza@@U?$hash@V?$EndianType@G$0A@@vanetza@@@std@@U?$equal_to@V?$EndianType@G$0A@@vanetza@@@4@@std@@V?$allocator@U?$pair@$$CBV?$EndianType@G$0A@@vanetza@@PEAVIndicationInterface@btp@2@@std@@@6@$0A@@std@@@std@@IEBA_K_K@Z
	?_Do_hash@?$hash@G@std@@SA_KAEBG@Z
	?_Empty@?$_Func_class@XAEBUDataIndication@geonet@vanetza@@PEBU1btp@3@@std@@IEBA_NXZ
	?_Floor_of_log_2@std@@YAK_K@Z
	?_Fnv1a_append_bytes@std@@YA_K_KQEBE_K@Z
	?_Forced_rehash@?$_Hash@V?$_Umap_traits@V?$EndianType@G$0A@@vanetza@@PEAVIndicationInterface@btp@2@V?$_Uhash_compare@V?$EndianType@G$0A@@vanetza@@U?$hash@V?$EndianType@G$0A@@vanetza@@@std@@U?$equal_to@V?$EndianType@G$0A@@vanetza@@@4@@std@@V?$allocator@U?$pair@$$CBV?$EndianType@G$0A@@vanetza@@PEAVIndicationInterface@btp@2@@std@@@6@$0A@@std@@@std@@IEAAX_K@Z
	?_Get_first@?$_Compressed_pair@U?$default_delete@Ubyte_buffer@convertible@vanetza@@@std@@PEAUbyte_buffer@convertible@vanetza@@$00@std@@QEAAAEAU?$default_delete@Ubyte_buffer@convertible@vanetza@@@2@XZ
	?_Get_first@?$_Compressed_pair@U?$default_delete@V?$variant@VChunkPacket@vanetza@@VCohesivePacket@2@@boost@@@std@@PEAV?$variant@VChunkPacket@vanetza@@VCohesivePacket@2@@boost@@$00@std@@QEAAAEAU?$default_delete@V?$variant@VChunkPacket@vanetza@@VCohesivePacket@2@@boost@@@2@XZ
	?_Get_first@?$_Compressed_pair@U?$equal_to@V?$EndianType@G$0A@@vanetza@@@std@@M$00@std@@QEBAAEBU?$equal_to@V?$EndianType@G$0A@@vanetza@@@2@XZ
	?_Get_first@?$_Compressed_pair@U?$hash@V?$EndianType@G$0A@@vanetza@@@std@@V?$_Compressed_pair@U?$equal_to@V?$EndianType@G$0A@@vanetza@@@std@@M$00@2@$00@std@@QEBAAEBU?$hash@V?$EndianType@G$0A@@vanetza@@@2@XZ
	?_Get_first@?$_Compressed_pair@V?$allocator@D@std@@V?$_String_val@U?$_Simple_types@D@std@@@2@$00@std@@QEAAAEAV?$allocator@D@2@XZ
	?_Get_first@?$_Compressed_pair@V?$allocator@D@std@@V?$_String_val@U?$_Simple_types@D@std@@@2@$00@std@@QEBAAEBV?$allocator@D@2@XZ
	?_Get_first@?$_Compressed_pair@V?$allocator@E@std@@V?$_Vector_val@U?$_Simple_types@E@std@@@2@$00@std@@QEAAAEAV?$allocator@E@2@XZ
	?_Get_first@?$_Compressed_pair@V?$allocator@E@std@@V?$_Vector_val@U?$_Simple_types@E@std@@@2@$00@std@@QEBAAEBV?$allocator@E@2@XZ
	?_Get_first@?$_Compressed_pair@V?$allocator@U?$_List_node@PEAVPromiscuousHook@PortDispatcher@btp@vanetza@@PEAX@std@@@std@@V?$_List_val@U?$_List_simple_types@PEAVPromiscuousHook@PortDispatcher@btp@vanetza@@@std@@@2@$00@std@@QEAAAEAV?$allocator@U?$_List_node@PEAVPromiscuousHook@PortDispatcher@btp@vanetza@@PEAX@std@@@2@XZ
	?_Get_first@?$_Compressed_pair@V?$allocator@U?$_List_node@PEAVPromiscuousHook@PortDispatcher@btp@vanetza@@PEAX@std@@@std@@V?$_List_val@U?$_List_simple_types@PEAVPromiscuousHook@PortDispatcher@btp@vanetza@@@std@@@2@$00@std@@QEBAAEBV?$allocator@U?$_List_node@PEAVPromiscuousHook@PortDispatcher@btp@vanetza@@PEAX@std@@@2@XZ
	?_Get_first@?$_Compressed_pair@V?$allocator@U?$_List_node@U?$pair@$$CBV?$EndianType@G$0A@@vanetza@@PEAVIndicationInterface@btp@2@@std@@PEAX@std@@@std@@V?$_List_val@U?$_List_simple_types@U?$pair@$$CBV?$EndianType@G$0A@@vanetza@@PEAVIndicationInterface@btp@2@@std@@@std@@@2@$00@std@@QEAAAEAV?$allocator@U?$_List_node@U?$pair@$$CBV?$EndianType@G$0A@@vanetza@@PEAVIndicationInterface@btp@2@@std@@PEAX@std@@@2@XZ
	?_Get_first@?$_Compressed_pair@V?$allocator@U?$_List_node@U?$pair@$$CBV?$EndianType@G$0A@@vanetza@@PEAVIndicationInterface@btp@2@@std@@PEAX@std@@@std@@V?$_List_val@U?$_List_simple_types@U?$pair@$$CBV?$EndianType@G$0A@@vanetza@@PEAVIndicationInterface@btp@2@@std@@@std@@@2@$00@std@@QEBAAEBV?$allocator@U?$_List_node@U?$pair@$$CBV?$EndianType@G$0A@@vanetza@@PEAVIndicationInterface@btp@2@@std@@PEAX@std@@@2@XZ
	?_Get_first@?$_Compressed_pair@V?$allocator@U?$_Tree_node@U?$pair@$$CBW4OsiLayer@vanetza@@VByteBufferConvertible@2@@std@@PEAX@std@@@std@@V?$_Tree_val@U?$_Tree_simple_types@U?$pair@$$CBW4OsiLayer@vanetza@@VByteBufferConvertible@2@@std@@@std@@@2@$00@std@@QEAAAEAV?$allocator@U?$_Tree_node@U?$pair@$$CBW4OsiLayer@vanetza@@VByteBufferConvertible@2@@std@@PEAX@std@@@2@XZ
	?_Get_first@?$_Compressed_pair@V?$allocator@V?$_List_unchecked_iterator@V?$_List_val@U?$_List_simple_types@U?$pair@$$CBV?$EndianType@G$0A@@vanetza@@PEAVIndicationInterface@btp@2@@std@@@std@@@std@@@std@@@std@@V?$_Vector_val@U?$_Simple_types@V?$_List_unchecked_iterator@V?$_List_val@U?$_List_simple_types@U?$pair@$$CBV?$EndianType@G$0A@@vanetza@@PEAVIndicationInterface@btp@2@@std@@@std@@@std@@@std@@@std@@@2@$00@std@@QEAAAEAV?$allocator@V?$_List_unchecked_iterator@V?$_List_val@U?$_List_simple_types@U?$pair@$$CBV?$EndianType@G$0A@@vanetza@@PEAVIndicationInterface@btp@2@@std@@@std@@@std@@@std@@@2@XZ
	?_Get_first@?$_Compressed_pair@V?$allocator@V?$_List_unchecked_iterator@V?$_List_val@U?$_List_simple_types@U?$pair@$$CBV?$EndianType@G$0A@@vanetza@@PEAVIndicationInterface@btp@2@@std@@@std@@@std@@@std@@@std@@V?$_Vector_val@U?$_Simple_types@V?$_List_unchecked_iterator@V?$_List_val@U?$_List_simple_types@U?$pair@$$CBV?$EndianType@G$0A@@vanetza@@PEAVIndicationInterface@btp@2@@std@@@std@@@std@@@std@@@std@@@2@$00@std@@QEBAAEBV?$allocator@V?$_List_unchecked_iterator@V?$_List_val@U?$_List_simple_types@U?$pair@$$CBV?$EndianType@G$0A@@vanetza@@PEAVIndicationInterface@btp@2@@std@@@std@@@std@@@std@@@2@XZ
	?_Get_max_bucket_size@?$_Uhash_compare@V?$EndianType@G$0A@@vanetza@@U?$hash@V?$EndianType@G$0A@@vanetza@@@std@@U?$equal_to@V?$EndianType@G$0A@@vanetza@@@4@@std@@QEBAAEBMXZ
	?_Get_scary@?$_Tree@V?$_Tmap_traits@W4OsiLayer@vanetza@@VByteBufferConvertible@2@U?$less@W4OsiLayer@vanetza@@@std@@V?$allocator@U?$pair@$$CBW4OsiLayer@vanetza@@VByteBufferConvertible@2@@std@@@5@$0A@@std@@@std@@IEAAPEAV?$_Tree_val@U?$_Tree_simple_types@U?$pair@$$CBW4OsiLayer@vanetza@@VByteBufferConvertible@2@@std@@@std@@@2@XZ
	?_Getal@?$_Tree@V?$_Tmap_traits@W4OsiLayer@vanetza@@VByteBufferConvertible@2@U?$less@W4OsiLayer@vanetza@@@std@@V?$allocator@U?$pair@$$CBW4OsiLayer@vanetza@@VByteBufferConvertible@2@@std@@@5@$0A@@std@@@std@@IEAAAEAV?$allocator@U?$_Tree_node@U?$pair@$$CBW4OsiLayer@vanetza@@VByteBufferConvertible@2@@std@@PEAX@std@@@2@XZ
	?_Getal@?$basic_string@DU?$char_traits@D@std@@V?$allocator@D@2@@std@@AEAAAEAV?$allocator@D@2@XZ
	?_Getal@?$basic_string@DU?$char_traits@D@std@@V?$allocator@D@2@@std@@AEBAAEBV?$allocator@D@2@XZ
	?_Getal@?$list@PEAVPromiscuousHook@PortDispatcher@btp@vanetza@@V?$allocator@PEAVPromiscuousHook@PortDispatcher@btp@vanetza@@@std@@@std@@AEAAAEAV?$allocator@U?$_List_node@PEAVPromiscuousHook@PortDispatcher@btp@vanetza@@PEAX@std@@@2@XZ
	?_Getal@?$list@PEAVPromiscuousHook@PortDispatcher@btp@vanetza@@V?$allocator@PEAVPromiscuousHook@PortDispatcher@btp@vanetza@@@std@@@std@@AEBAAEBV?$allocator@U?$_List_node@PEAVPromiscuousHook@PortDispatcher@btp@vanetza@@PEAX@std@@@2@XZ
	?_Getal@?$list@U?$pair@$$CBV?$EndianType@G$0A@@vanetza@@PEAVIndicationInterface@btp@2@@std@@V?$allocator@U?$pair@$$CBV?$EndianType@G$0A@@vanetza@@PEAVIndicationInterface@btp@2@@std@@@2@@std@@AEAAAEAV?$allocator@U?$_List_node@U?$pair@$$CBV?$EndianType@G$0A@@vanetza@@PEAVIndicationInterface@btp@2@@std@@PEAX@std@@@2@XZ
	?_Getal@?$list@U?$pair@$$CBV?$EndianType@G$0A@@vanetza@@PEAVIndicationInterface@btp@2@@std@@V?$allocator@U?$pair@$$CBV?$EndianType@G$0A@@vanetza@@PEAVIndicationInterface@btp@2@@std@@@2@@std@@AEBAAEBV?$allocator@U?$_List_node@U?$pair@$$CBV?$EndianType@G$0A@@vanetza@@PEAVIndicationInterface@btp@2@@std@@PEAX@std@@@2@XZ
	?_Getal@?$vector@EV?$allocator@E@std@@@std@@AEAAAEAV?$allocator@E@2@XZ
	?_Getal@?$vector@EV?$allocator@E@std@@@std@@AEBAAEBV?$allocator@E@2@XZ
	?_Getcont@_Iterator_base12@std@@QEBAPEBU_Container_base12@2@XZ
	?_Getimpl@?$_Func_class@XAEBUDataIndication@geonet@vanetza@@PEBU1btp@3@@std@@AEBAPEAV?$_Func_base@XAEBUDataIndication@geonet@vanetza@@PEBU1btp@3@@2@XZ
	?_Insert_new_node_before@?$_Hash@V?$_Umap_traits@V?$EndianType@G$0A@@vanetza@@PEAVIndicationInterface@btp@2@V?$_Uhash_compare@V?$EndianType@G$0A@@vanetza@@U?$hash@V?$EndianType@G$0A@@vanetza@@@std@@U?$equal_to@V?$EndianType@G$0A@@vanetza@@@4@@std@@V?$allocator@U?$pair@$$CBV?$EndianType@G$0A@@vanetza@@PEAVIndicationInterface@btp@2@@std@@@6@$0A@@std@@@std@@IEAAPEAU?$_List_node@U?$pair@$$CBV?$EndianType@G$0A@@vanetza@@PEAVIndicationInterface@btp@2@@std@@PEAX@2@_KQEAU32@1@Z
	?_Large_string_engaged@?$_String_val@U?$_Simple_types@D@std@@@std@@QEBA_NXZ
	?_Makestr@_System_error@std@@CA?AV?$basic_string@DU?$char_traits@D@std@@V?$allocator@D@2@@2@Verror_code@2@V32@@Z
	?_Maklocwcs@std@@YAPEA_WPEB_W@Z
	?_Max_bucket_size@?$_Hash@V?$_Umap_traits@V?$EndianType@G$0A@@vanetza@@PEAVIndicationInterface@btp@2@V?$_Uhash_compare@V?$EndianType@G$0A@@vanetza@@U?$hash@V?$EndianType@G$0A@@vanetza@@@std@@U?$equal_to@V?$EndianType@G$0A@@vanetza@@@4@@std@@V?$allocator@U?$pair@$$CBV?$EndianType@G$0A@@vanetza@@PEAVIndicationInterface@btp@2@@std@@@6@$0A@@std@@@std@@IEBAAEBMXZ
	?_Memcpy_val_from@?$basic_string@DU?$char_traits@D@std@@V?$allocator@D@2@@std@@AEAAXAEBV12@@Z
	?_Min_load_factor_buckets@?$_Hash@V?$_Umap_traits@V?$EndianType@G$0A@@vanetza@@PEAVIndicationInterface@btp@2@V?$_Uhash_compare@V?$EndianType@G$0A@@vanetza@@U?$hash@V?$EndianType@G$0A@@vanetza@@@std@@U?$equal_to@V?$EndianType@G$0A@@vanetza@@@4@@std@@V?$allocator@U?$pair@$$CBV?$EndianType@G$0A@@vanetza@@PEAVIndicationInterface@btp@2@@std@@@6@$0A@@std@@@std@@IEBA_K_K@Z
	?_Myptr@?$_String_val@U?$_Simple_types@D@std@@@std@@QEAAPEADXZ
	?_Myptr@?$_String_val@U?$_Simple_types@D@std@@@std@@QEBAPEBDXZ
	?_Orphan_all@_Container_base12@std@@QEAAXXZ
	?_Orphan_all_locked_v3@_Container_base12@std@@AEAAXXZ
	?_Orphan_all_unlocked_v3@_Container_base12@std@@AEAAXXZ
	?_Orphan_me_locked_v3@_Iterator_base12@std@@AEAAXXZ
	?_Orphan_me_unlocked_v3@_Iterator_base12@std@@AEAAXXZ
	?_Orphan_non_end@?$_List_val@U?$_List_simple_types@U?$pair@$$CBV?$EndianType@G$0A@@vanetza@@PEAVIndicationInterface@btp@2@@std@@@std@@@std@@QEAAXXZ
	?_Orphan_ptr2@?$_List_val@U?$_List_simple_types@PEAVPromiscuousHook@PortDispatcher@btp@vanetza@@@std@@@std@@QEAAXPEAU?$_List_node@PEAVPromiscuousHook@PortDispatcher@btp@vanetza@@PEAX@2@@Z
	?_Rehash_for_1@?$_Hash@V?$_Umap_traits@V?$EndianType@G$0A@@vanetza@@PEAVIndicationInterface@btp@2@V?$_Uhash_compare@V?$EndianType@G$0A@@vanetza@@U?$hash@V?$EndianType@G$0A@@vanetza@@@std@@U?$equal_to@V?$EndianType@G$0A@@vanetza@@@4@@std@@V?$allocator@U?$pair@$$CBV?$EndianType@G$0A@@vanetza@@PEAVIndicationInterface@btp@2@@std@@@6@$0A@@std@@@std@@IEAAXXZ
	?_Release@?$_Alloc_construct_ptr@V?$allocator@U?$_List_node@U?$pair@$$CBV?$EndianType@G$0A@@vanetza@@PEAVIndicationInterface@btp@2@@std@@PEAX@std@@@std@@@std@@QEAAPEAU?$_List_node@U?$pair@$$CBV?$EndianType@G$0A@@vanetza@@PEAVIndicationInterface@btp@2@@std@@PEAX@2@XZ
	?_Release@?$_Uninitialized_backout@PEAV?$_List_unchecked_iterator@V?$_List_val@U?$_List_simple_types@U?$pair@$$CBV?$EndianType@G$0A@@vanetza@@PEAVIndicationInterface@btp@2@@std@@@std@@@std@@@std@@@std@@QEAAPEAV?$_List_unchecked_iterator@V?$_List_val@U?$_List_simple_types@U?$pair@$$CBV?$EndianType@G$0A@@vanetza@@PEAVIndicationInterface@btp@2@@std@@@std@@@std@@@2@XZ
	?_Release@?$_Uninitialized_backout_al@V?$allocator@E@std@@@std@@QEAAPEAEXZ
	?_Release@_Basic_container_proxy_ptr12@std@@QEAAXXZ
	?_Seek_to@?$_List_const_iterator@V?$_List_val@U?$_List_simple_types@PEAVPromiscuousHook@PortDispatcher@btp@vanetza@@@std@@@std@@@std@@QEAAXV?$_List_unchecked_const_iterator@V?$_List_val@U?$_List_simple_types@PEAVPromiscuousHook@PortDispatcher@btp@vanetza@@@std@@@std@@U_Iterator_base0@2@@2@@Z
	?_Swap_proxy_and_iterators@?$basic_string@DU?$char_traits@D@std@@V?$allocator@D@2@@std@@AEAAXAEAV12@@Z
	?_Swap_proxy_and_iterators@_Container_base12@std@@QEAAXAEAU12@@Z
	?_Swap_proxy_and_iterators_locked@_Container_base12@std@@AEAAXAEAU12@@Z
	?_Swap_proxy_and_iterators_unlocked@_Container_base12@std@@AEAAXAEAU12@@Z
	?_Take_contents@?$_Vector_val@U?$_Simple_types@E@std@@@std@@QEAAXAEAV12@@Z
	?_Take_contents@?$basic_string@DU?$char_traits@D@std@@V?$allocator@D@2@@std@@AEAAXAEAV12@@Z
	?_Throw_bad_array_new_length@std@@YAXXZ
	?_Tidy@?$vector@EV?$allocator@E@std@@@std@@AEAAXXZ
	?_Tidy_deallocate@?$basic_string@DU?$char_traits@D@std@@V?$allocator@D@2@@std@@AEAAXXZ
	?_Tidy_init@?$basic_string@DU?$char_traits@D@std@@V?$allocator@D@2@@std@@AEAAXXZ
	?_Transfer_back@_List_node_remove_op@?$list@PEAVPromiscuousHook@PortDispatcher@btp@vanetza@@V?$allocator@PEAVPromiscuousHook@PortDispatcher@btp@vanetza@@@std@@@std@@QEAAPEAU?$_List_node@PEAVPromiscuousHook@PortDispatcher@btp@vanetza@@PEAX@3@QEAU43@@Z
	?_Transfer_before@?$_List_node_emplace_op2@V?$allocator@U?$_List_node@PEAVPromiscuousHook@PortDispatcher@btp@vanetza@@PEAX@std@@@std@@@std@@QEAAPEAU?$_List_node@PEAVPromiscuousHook@PortDispatcher@btp@vanetza@@PEAX@2@QEAU32@@Z
	?_Unchecked_begin@?$_Hash@V?$_Umap_traits@V?$EndianType@G$0A@@vanetza@@PEAVIndicationInterface@btp@2@V?$_Uhash_compare@V?$EndianType@G$0A@@vanetza@@U?$hash@V?$EndianType@G$0A@@vanetza@@@std@@U?$equal_to@V?$EndianType@G$0A@@vanetza@@@4@@std@@V?$allocator@U?$pair@$$CBV?$EndianType@G$0A@@vanetza@@PEAVIndicationInterface@btp@2@@std@@@6@$0A@@std@@@std@@QEAA?AV?$_List_unchecked_iterator@V?$_List_val@U?$_List_simple_types@U?$pair@$$CBV?$EndianType@G$0A@@vanetza@@PEAVIndicationInterface@btp@2@@std@@@std@@@std@@@2@XZ
	?_Unchecked_begin@?$list@PEAVPromiscuousHook@PortDispatcher@btp@vanetza@@V?$allocator@PEAVPromiscuousHook@PortDispatcher@btp@vanetza@@@std@@@std@@QEAA?AV?$_List_unchecked_iterator@V?$_List_val@U?$_List_simple_types@PEAVPromiscuousHook@PortDispatcher@btp@vanetza@@@std@@@std@@@2@XZ
	?_Unchecked_begin@?$list@U?$pair@$$CBV?$EndianType@G$0A@@vanetza@@PEAVIndicationInterface@btp@2@@std@@V?$allocator@U?$pair@$$CBV?$EndianType@G$0A@@vanetza@@PEAVIndicationInterface@btp@2@@std@@@2@@std@@QEAA?AV?$_List_unchecked_iterator@V?$_List_val@U?$_List_simple_types@U?$pair@$$CBV?$EndianType@G$0A@@vanetza@@PEAVIndicationInterface@btp@2@@std@@@std@@@std@@@2@XZ
	?_Unchecked_end@?$_Hash@V?$_Umap_traits@V?$EndianType@G$0A@@vanetza@@PEAVIndicationInterface@btp@2@V?$_Uhash_compare@V?$EndianType@G$0A@@vanetza@@U?$hash@V?$EndianType@G$0A@@vanetza@@@std@@U?$equal_to@V?$EndianType@G$0A@@vanetza@@@4@@std@@V?$allocator@U?$pair@$$CBV?$EndianType@G$0A@@vanetza@@PEAVIndicationInterface@btp@2@@std@@@6@$0A@@std@@@std@@QEAA?AV?$_List_unchecked_iterator@V?$_List_val@U?$_List_simple_types@U?$pair@$$CBV?$EndianType@G$0A@@vanetza@@PEAVIndicationInterface@btp@2@@std@@@std@@@std@@@2@XZ
	?_Unchecked_end@?$list@PEAVPromiscuousHook@PortDispatcher@btp@vanetza@@V?$allocator@PEAVPromiscuousHook@PortDispatcher@btp@vanetza@@@std@@@std@@QEAA?AV?$_List_unchecked_iterator@V?$_List_val@U?$_List_simple_types@PEAVPromiscuousHook@PortDispatcher@btp@vanetza@@@std@@@std@@@2@XZ
	?_Unchecked_end@?$list@U?$pair@$$CBV?$EndianType@G$0A@@vanetza@@PEAVIndicationInterface@btp@2@@std@@V?$allocator@U?$pair@$$CBV?$EndianType@G$0A@@vanetza@@PEAVIndicationInterface@btp@2@@std@@@2@@std@@QEAA?AV?$_List_unchecked_iterator@V?$_List_val@U?$_List_simple_types@U?$pair@$$CBV?$EndianType@G$0A@@vanetza@@PEAVIndicationInterface@btp@2@@std@@@std@@@std@@@2@XZ
	?_Unchecked_splice@?$_List_val@U?$_List_simple_types@U?$pair@$$CBV?$EndianType@G$0A@@vanetza@@PEAVIndicationInterface@btp@2@@std@@@std@@@std@@SAPEAU?$_List_node@U?$pair@$$CBV?$EndianType@G$0A@@vanetza@@PEAVIndicationInterface@btp@2@@std@@PEAX@2@QEAU32@00@Z
	?_Unwrapped@?$_List_iterator@V?$_List_val@U?$_List_simple_types@PEAVPromiscuousHook@PortDispatcher@btp@vanetza@@@std@@@std@@@std@@QEBA?AV?$_List_unchecked_iterator@V?$_List_val@U?$_List_simple_types@PEAVPromiscuousHook@PortDispatcher@btp@vanetza@@@std@@@std@@@2@XZ
	?_Verify_range@std@@YAXAEBV?$_List_const_iterator@V?$_List_val@U?$_List_simple_types@PEAVPromiscuousHook@PortDispatcher@btp@vanetza@@@std@@@std@@@1@0@Z
	?_Xlen_string@std@@YAXXZ
	?_Xlength@?$vector@EV?$allocator@E@std@@@std@@CAXXZ
	?__empty_global_delete@@YAXPEAX@Z
	?__empty_global_delete@@YAXPEAXW4align_val_t@std@@@Z
	?__empty_global_delete@@YAXPEAX_K@Z
	?__empty_global_delete@@YAXPEAX_KW4align_val_t@std@@@Z
	?add_promiscuous_hook@PortDispatcher@btp@vanetza@@QEAAXPEAVPromiscuousHook@123@@Z
	?add_ref@?$refcount_ptr@Uerror_info_container@exception_detail@boost@@@exception_detail@boost@@AEAAXXZ
	?address@?$aligned_storage@$0BA@$07@boost@@QEAAPEAXXZ
	?address@?$aligned_storage@$0BA@$07@boost@@QEBAPEBXXZ
	?address@?$aligned_storage@$0DA@$07@boost@@QEAAPEAXXZ
	?address@?$aligned_storage@$0DA@$07@boost@@QEBAPEBXXZ
	?address@?$aligned_storage@$0OA@$07@boost@@QEAAPEAXXZ
	?address@?$aligned_storage@UDataIndication@btp@vanetza@@@optional_detail@boost@@QEAAPEAXXZ
	?address@?$aligned_storage@URepetition@DataRequest@geonet@vanetza@@@optional_detail@boost@@QEAAPEAXXZ
	?address@?$aligned_storage@V?$EndianType@G$0A@@vanetza@@@optional_detail@boost@@QEAAPEAXXZ
	?address@?$aligned_storage@V?$vector@EV?$allocator@E@std@@@std@@@optional_detail@boost@@QEAAPEAXXZ
	?address@?$aligned_storage@V?$vector@EV?$allocator@E@std@@@std@@@optional_detail@boost@@QEBAPEBXXZ
	?address@?$aligned_storage@VLifetime@geonet@vanetza@@@optional_detail@boost@@QEAAPEAXXZ
	?address@?$aligned_storage@VLifetime@geonet@vanetza@@@optional_detail@boost@@QEBAPEBXXZ
	?address@?$aligned_storage_imp@$0BA@$07@aligned_storage@detail@boost@@QEBAPEAXXZ
	?address@?$aligned_storage_imp@$0DA@$07@aligned_storage@detail@boost@@QEBAPEAXXZ
	?address@?$aligned_storage_imp@$0OA@$07@aligned_storage@detail@boost@@QEBAPEAXXZ
	?address@?$optional@V?$concept_adapter@Vbyte_buffer_source@vanetza@@@detail@iostreams@boost@@@detail@iostreams@boost@@AEAAPEAXXZ
	?adopt@?$refcount_ptr@Uerror_info_container@exception_detail@boost@@@exception_detail@boost@@QEAAXPEAUerror_info_container@23@@Z
	?allocate@?$_Default_allocator_traits@V?$allocator@D@std@@@std@@SAPEADAEAV?$allocator@D@2@_K@Z
	?allocate@?$allocator@D@std@@QEAAPEAD_K@Z
	?allocate@?$allocator@E@std@@QEAAPEAE_K@Z
	?allocate@?$allocator@U?$_List_node@PEAVPromiscuousHook@PortDispatcher@btp@vanetza@@PEAX@std@@@std@@QEAAPEAU?$_List_node@PEAVPromiscuousHook@PortDispatcher@btp@vanetza@@PEAX@2@_K@Z
	?allocate@?$allocator@U?$_List_node@U?$pair@$$CBV?$EndianType@G$0A@@vanetza@@PEAVIndicationInterface@btp@2@@std@@PEAX@std@@@std@@QEAAPEAU?$_List_node@U?$pair@$$CBV?$EndianType@G$0A@@vanetza@@PEAVIndicationInterface@btp@2@@std@@PEAX@2@_K@Z
	?allocate@?$allocator@U_Container_proxy@std@@@std@@QEAAPEAU_Container_proxy@2@_K@Z
	?allocate@?$allocator@V?$_List_unchecked_iterator@V?$_List_val@U?$_List_simple_types@U?$pair@$$CBV?$EndianType@G$0A@@vanetza@@PEAVIndicationInterface@btp@2@@std@@@std@@@std@@@std@@@std@@QEAAPEAV?$_List_unchecked_iterator@V?$_List_val@U?$_List_simple_types@U?$pair@$$CBV?$EndianType@G$0A@@vanetza@@PEAVIndicationInterface@btp@2@@std@@@std@@@std@@@2@_K@Z
	?allocate@?$basic_buffer@DV?$allocator@D@std@@@detail@iostreams@boost@@CAPEAD_J@Z
	?append@?$basic_string@DU?$char_traits@D@std@@V?$allocator@D@2@@std@@QEAAAEAV12@AEBV12@@Z
	?append@?$basic_string@DU?$char_traits@D@std@@V?$allocator@D@2@@std@@QEAAAEAV12@QEBD@Z
	?append@?$basic_string@DU?$char_traits@D@std@@V?$allocator@D@2@@std@@QEAAAEAV12@QEBD_K@Z
	?assign@?$_Narrow_char_traits@DH@std@@SAXAEADAEBD@Z
	?assign@?$optional_base@UDataIndication@btp@vanetza@@@optional_detail@boost@@IEAAX$$QEAUDataIndication@btp@vanetza@@@Z
	?assign@?$optional_base@V?$EndianType@G$0A@@vanetza@@@optional_detail@boost@@IEAAX$$QEAV123@@Z
	?assign@?$optional_base@V?$vector@EV?$allocator@E@std@@@std@@@optional_detail@boost@@IEAAX$$QEAV123@@Z
	?assign@?$optional_base@VLifetime@geonet@vanetza@@@optional_detail@boost@@IEAAX$$QEAV123@@Z
	?assign_value@?$optional_base@UDataIndication@btp@vanetza@@@optional_detail@boost@@IEAAX$$QEAUDataIndication@btp@vanetza@@@Z
	?assign_value@?$optional_base@V?$EndianType@G$0A@@vanetza@@@optional_detail@boost@@IEAAX$$QEAV?$EndianType@G$0A@@vanetza@@@Z
	?assign_value@?$optional_base@V?$vector@EV?$allocator@E@std@@@std@@@optional_detail@boost@@IEAAX$$QEAV?$vector@EV?$allocator@E@std@@@std@@@Z
	?assign_value@?$optional_base@VLifetime@geonet@vanetza@@@optional_detail@boost@@IEAAX$$QEAVLifetime@geonet@vanetza@@@Z
	?auto_close@?$indirect_streambuf@Vbyte_buffer_source@vanetza@@U?$char_traits@D@std@@V?$allocator@D@4@Uinput@iostreams@boost@@@detail@iostreams@boost@@UEBA_NXZ
	?bad_putback@detail@iostreams@boost@@YA?AVfailure@ios_base@std@@XZ
	?bad_seek@detail@iostreams@boost@@YA?AVfailure@ios_base@std@@XZ
	?begin@?$basic_buffer@DV?$allocator@D@std@@@detail@iostreams@boost@@QEBAPEADXZ
	?begin@?$iterator_range_base@V?$_Vector_const_iterator@V?$_Vector_val@U?$_Simple_types@E@std@@@std@@@std@@Uincrementable_traversal_tag@iterators@boost@@@iterator_range_detail@boost@@QEBA?AV?$_Vector_const_iterator@V?$_Vector_val@U?$_Simple_types@E@std@@@std@@@std@@XZ
	?begin@?$iterator_range_base@V?$_Vector_iterator@V?$_Vector_val@U?$_Simple_types@E@std@@@std@@@std@@Uincrementable_traversal_tag@iterators@boost@@@iterator_range_detail@boost@@QEBA?AV?$_Vector_iterator@V?$_Vector_val@U?$_Simple_types@E@std@@@std@@@std@@XZ
	?begin@?$list@PEAVPromiscuousHook@PortDispatcher@btp@vanetza@@V?$allocator@PEAVPromiscuousHook@PortDispatcher@btp@vanetza@@@std@@@std@@QEAA?AV?$_List_iterator@V?$_List_val@U?$_List_simple_types@PEAVPromiscuousHook@PortDispatcher@btp@vanetza@@@std@@@std@@@2@XZ
	?bucket@?$_Hash@V?$_Umap_traits@V?$EndianType@G$0A@@vanetza@@PEAVIndicationInterface@btp@2@V?$_Uhash_compare@V?$EndianType@G$0A@@vanetza@@U?$hash@V?$EndianType@G$0A@@vanetza@@@std@@U?$equal_to@V?$EndianType@G$0A@@vanetza@@@4@@std@@V?$allocator@U?$pair@$$CBV?$EndianType@G$0A@@vanetza@@PEAVIndicationInterface@btp@2@@std@@@6@$0A@@std@@@std@@QEBA_KAEBV?$EndianType@G$0A@@vanetza@@@Z
	?bucket_count@?$_Hash@V?$_Umap_traits@V?$EndianType@G$0A@@vanetza@@PEAVIndicationInterface@btp@2@V?$_Uhash_compare@V?$EndianType@G$0A@@vanetza@@U?$hash@V?$EndianType@G$0A@@vanetza@@@std@@U?$equal_to@V?$EndianType@G$0A@@vanetza@@@4@@std@@V?$allocator@U?$pair@$$CBV?$EndianType@G$0A@@vanetza@@PEAVIndicationInterface@btp@2@@std@@@6@$0A@@std@@@std@@QEBA_KXZ
	?c_str@?$basic_string@DU?$char_traits@D@std@@V?$allocator@D@2@@std@@QEBAPEBDXZ
	?can_read@?$indirect_streambuf@Vbyte_buffer_source@vanetza@@U?$char_traits@D@std@@V?$allocator@D@4@Uinput@iostreams@boost@@@detail@iostreams@boost@@AEBA_NXZ
	?can_write@?$indirect_streambuf@Vbyte_buffer_source@vanetza@@U?$char_traits@D@std@@V?$allocator@D@4@Uinput@iostreams@boost@@@detail@iostreams@boost@@AEBA_NXZ
	?cant_seek@detail@iostreams@boost@@YA?AVfailure@ios_base@std@@XZ
	?cant_write@detail@iostreams@boost@@YA?AVfailure@ios_base@std@@XZ
	?category@error_code@std@@QEBAAEBVerror_category@2@XZ
	?category@error_condition@std@@QEBAAEBVerror_category@2@XZ
	?clear@?$_Hash@V?$_Umap_traits@V?$EndianType@G$0A@@vanetza@@PEAVIndicationInterface@btp@2@V?$_Uhash_compare@V?$EndianType@G$0A@@vanetza@@U?$hash@V?$EndianType@G$0A@@vanetza@@@std@@U?$equal_to@V?$EndianType@G$0A@@vanetza@@@4@@std@@V?$allocator@U?$pair@$$CBV?$EndianType@G$0A@@vanetza@@PEAVIndicationInterface@btp@2@@std@@@6@$0A@@std@@@std@@QEAAXXZ
	?clear@?$list@U?$pair@$$CBV?$EndianType@G$0A@@vanetza@@PEAVIndicationInterface@btp@2@@std@@V?$allocator@U?$pair@$$CBV?$EndianType@G$0A@@vanetza@@PEAVIndicationInterface@btp@2@@std@@@2@@std@@QEAAXXZ
	?clone@?$wrapexcept@Vfailure@ios_base@std@@@boost@@UEBAPEBVclone_base@exception_detail@2@XZ
	?close@?$indirect_streambuf@Vbyte_buffer_source@vanetza@@U?$char_traits@D@std@@V?$allocator@D@4@Uinput@iostreams@boost@@@detail@iostreams@boost@@QEAAXXZ
	?close@?$linked_streambuf@DU?$char_traits@D@std@@@detail@iostreams@boost@@IEAAXH@Z
	?close_impl@?$indirect_streambuf@Vbyte_buffer_source@vanetza@@U?$char_traits@D@std@@V?$allocator@D@4@Uinput@iostreams@boost@@@detail@iostreams@boost@@MEAAXH@Z
	?component@?$indirect_streambuf@Vbyte_buffer_source@vanetza@@U?$char_traits@D@std@@V?$allocator@D@4@Uinput@iostreams@boost@@@detail@iostreams@boost@@QEAAPEAVbyte_buffer_source@vanetza@@XZ
	?component_impl@?$indirect_streambuf@Vbyte_buffer_source@vanetza@@U?$char_traits@D@std@@V?$allocator@D@4@Uinput@iostreams@boost@@@detail@iostreams@boost@@MEAAPEAXXZ
	?component_type@?$indirect_streambuf@Vbyte_buffer_source@vanetza@@U?$char_traits@D@std@@V?$allocator@D@4@Uinput@iostreams@boost@@@detail@iostreams@boost@@MEBAAEBVtype_info@@XZ
	?construct@?$optional_base@UDataIndication@btp@vanetza@@@optional_detail@boost@@IEAAX$$QEAUDataIndication@btp@vanetza@@@Z
	?construct@?$optional_base@V?$EndianType@G$0A@@vanetza@@@optional_detail@boost@@IEAAX$$QEAV?$EndianType@G$0A@@vanetza@@@Z
	?construct@?$optional_base@V?$EndianType@G$0A@@vanetza@@@optional_detail@boost@@IEAAXAEBV?$EndianType@G$0A@@vanetza@@@Z
	?construct@?$optional_base@V?$vector@EV?$allocator@E@std@@@std@@@optional_detail@boost@@IEAAX$$QEAV?$vector@EV?$allocator@E@std@@@std@@@Z
	?construct@?$optional_base@V?$vector@EV?$allocator@E@std@@@std@@@optional_detail@boost@@IEAAXAEBV?$vector@EV?$allocator@E@std@@@std@@@Z
	?construct@?$optional_base@VLifetime@geonet@vanetza@@@optional_detail@boost@@IEAAX$$QEAVLifetime@geonet@vanetza@@@Z
	?construct@?$optional_base@VLifetime@geonet@vanetza@@@optional_detail@boost@@IEAAXAEBVLifetime@geonet@vanetza@@@Z
	?construct_fallback@assigner@?$variant@VAddress@geonet@vanetza@@UArea@23@$$T@boost@@IEBAXXZ
	?convert@ByteBufferConvertible@vanetza@@QEBAXAEAV?$vector@EV?$allocator@E@std@@@std@@@Z
	?copy@?$_Char_traits@DH@std@@SAPEADQEADQEBD_K@Z
	?copy_boost_exception@exception_detail@boost@@YAXPEAVexception@2@PEBV32@@Z
	?copy_from@?$wrapexcept@Vfailure@ios_base@std@@@boost@@AEAAXPEBX@Z
	?data@?$basic_buffer@DV?$allocator@D@std@@@detail@iostreams@boost@@QEBAPEADXZ
	?deallocate@?$_Default_allocator_traits@V?$allocator@D@std@@@std@@SAXAEAV?$allocator@D@2@QEAD_K@Z
	?deallocate@?$_Default_allocator_traits@V?$allocator@U?$_List_node@U?$pair@$$CBV?$EndianType@G$0A@@vanetza@@PEAVIndicationInterface@btp@2@@std@@PEAX@std@@@std@@@std@@SAXAEAV?$allocator@U?$_List_node@U?$pair@$$CBV?$EndianType@G$0A@@vanetza@@PEAVIndicationInterface@btp@2@@std@@PEAX@std@@@2@QEAU?$_List_node@U?$pair@$$CBV?$EndianType@G$0A@@vanetza@@PEAVIndicationInterface@btp@2@@std@@PEAX@2@_K@Z
	?deallocate@?$_Default_allocator_traits@V?$allocator@U?$_Tree_node@U?$pair@$$CBW4OsiLayer@vanetza@@VByteBufferConvertible@2@@std@@PEAX@std@@@std@@@std@@SAXAEAV?$allocator@U?$_Tree_node@U?$pair@$$CBW4OsiLayer@vanetza@@VByteBufferConvertible@2@@std@@PEAX@std@@@2@QEAU?$_Tree_node@U?$pair@$$CBW4OsiLayer@vanetza@@VByteBufferConvertible@2@@std@@PEAX@2@_K@Z
	?deallocate@?$_Default_allocator_traits@V?$allocator@U_Container_proxy@std@@@std@@@std@@SAXAEAV?$allocator@U_Container_proxy@std@@@2@QEAU_Container_proxy@2@_K@Z
	?deallocate@?$allocator@D@std@@QEAAXQEAD_K@Z
	?deallocate@?$allocator@E@std@@QEAAXQEAE_K@Z
	?deallocate@?$allocator@U?$_List_node@PEAVPromiscuousHook@PortDispatcher@btp@vanetza@@PEAX@std@@@std@@QEAAXQEAU?$_List_node@PEAVPromiscuousHook@PortDispatcher@btp@vanetza@@PEAX@2@_K@Z
	?deallocate@?$allocator@U?$_List_node@U?$pair@$$CBV?$EndianType@G$0A@@vanetza@@PEAVIndicationInterface@btp@2@@std@@PEAX@std@@@std@@QEAAXQEAU?$_List_node@U?$pair@$$CBV?$EndianType@G$0A@@vanetza@@PEAVIndicationInterface@btp@2@@std@@PEAX@2@_K@Z
	?deallocate@?$allocator@V?$_List_unchecked_iterator@V?$_List_val@U?$_List_simple_types@U?$pair@$$CBV?$EndianType@G$0A@@vanetza@@PEAVIndicationInterface@btp@2@@std@@@std@@@std@@@std@@@std@@QEAAXQEAV?$_List_unchecked_iterator@V?$_List_val@U?$_List_simple_types@U?$pair@$$CBV?$EndianType@G$0A@@vanetza@@PEAVIndicationInterface@btp@2@@std@@@std@@@std@@@2@_K@Z
	?default_error_condition@error_category@std@@UEBA?AVerror_condition@2@H@Z
	?deserialize@btp@vanetza@@YAXAEAVInputArchive@2@AEAUHeaderA@12@@Z
	?deserialize@btp@vanetza@@YAXAEAVInputArchive@2@AEAUHeaderB@12@@Z
	?destroy@?$optional_base@UDataIndication@btp@vanetza@@@optional_detail@boost@@IEAAXXZ
	?destroy@?$optional_base@URepetition@DataRequest@geonet@vanetza@@@optional_detail@boost@@IEAAXXZ
	?destroy@?$optional_base@V?$EndianType@G$0A@@vanetza@@@optional_detail@boost@@IEAAXXZ
	?destroy@?$optional_base@V?$vector@EV?$allocator@E@std@@@std@@@optional_detail@boost@@IEAAXXZ
	?destroy@?$optional_base@VLifetime@geonet@vanetza@@@optional_detail@boost@@IEAAXXZ
	?destroy_content@?$variant@URectangle@geonet@vanetza@@UEllipse@23@UCircle@23@@boost@@AEAAXXZ
	?destroy_content@?$variant@VAddress@geonet@vanetza@@UArea@23@$$T@boost@@AEAAXXZ
	?destroy_content@?$variant@VChunkPacket@vanetza@@VCohesivePacket@2@@boost@@AEAAXXZ
	?destroy_impl@?$optional_base@UDataIndication@btp@vanetza@@@optional_detail@boost@@AEAAXXZ
	?destroy_impl@?$optional_base@URepetition@DataRequest@geonet@vanetza@@@optional_detail@boost@@AEAAXXZ
	?destroy_impl@?$optional_base@V?$EndianType@G$0A@@vanetza@@@optional_detail@boost@@AEAAXXZ
	?destroy_impl@?$optional_base@V?$vector@EV?$allocator@E@std@@@std@@@optional_detail@boost@@AEAAXXZ
	?destroy_impl@?$optional_base@VLifetime@geonet@vanetza@@@optional_detail@boost@@AEAAXXZ
	?empty@?$basic_string@DU?$char_traits@D@std@@V?$allocator@D@2@@std@@QEBA_NXZ
	?end@?$basic_buffer@DV?$allocator@D@std@@@detail@iostreams@boost@@QEBAPEADXZ
	?end@?$iterator_range_base@V?$_Vector_const_iterator@V?$_Vector_val@U?$_Simple_types@E@std@@@std@@@std@@Uincrementable_traversal_tag@iterators@boost@@@iterator_range_detail@boost@@QEBA?AV?$_Vector_const_iterator@V?$_Vector_val@U?$_Simple_types@E@std@@@std@@@std@@XZ
	?end@?$iterator_range_base@V?$_Vector_iterator@V?$_Vector_val@U?$_Simple_types@E@std@@@std@@@std@@Uincrementable_traversal_tag@iterators@boost@@@iterator_range_detail@boost@@QEBA?AV?$_Vector_iterator@V?$_Vector_val@U?$_Simple_types@E@std@@@std@@@std@@XZ
	?end@?$list@PEAVPromiscuousHook@PortDispatcher@btp@vanetza@@V?$allocator@PEAVPromiscuousHook@PortDispatcher@btp@vanetza@@@std@@@std@@QEAA?AV?$_List_iterator@V?$_List_val@U?$_List_simple_types@PEAVPromiscuousHook@PortDispatcher@btp@vanetza@@@std@@@std@@@2@XZ
	?eof@?$_Narrow_char_traits@DH@std@@SAHXZ
	?eq_int_type@?$_Narrow_char_traits@DH@std@@SA_NAEBH0@Z
	?equivalent@error_category@std@@UEBA_NAEBVerror_code@2@H@Z
	?equivalent@error_category@std@@UEBA_NHAEBVerror_condition@2@@Z
	?first@?$single_object_holder@V?$basic_buffer@DV?$allocator@D@std@@@detail@iostreams@boost@@@detail@iostreams@boost@@QEAAAEAV?$basic_buffer@DV?$allocator@D@std@@@234@XZ
	?get@?$EndianType@G$0A@@vanetza@@QEBAGXZ
	?get@?$backup_holder@UCircle@geonet@vanetza@@@variant@detail@boost@@QEAAAEAUCircle@geonet@vanetza@@XZ
	?get@?$backup_holder@UCircle@geonet@vanetza@@@variant@detail@boost@@QEBAAEBUCircle@geonet@vanetza@@XZ
	?get@?$backup_holder@UEllipse@geonet@vanetza@@@variant@detail@boost@@QEAAAEAUEllipse@geonet@vanetza@@XZ
	?get@?$backup_holder@UEllipse@geonet@vanetza@@@variant@detail@boost@@QEBAAEBUEllipse@geonet@vanetza@@XZ
	?get@?$backup_holder@URectangle@geonet@vanetza@@@variant@detail@boost@@QEAAAEAURectangle@geonet@vanetza@@XZ
	?get@?$backup_holder@URectangle@geonet@vanetza@@@variant@detail@boost@@QEBAAEBURectangle@geonet@vanetza@@XZ
	?get@?$backup_holder@VChunkPacket@vanetza@@@variant@detail@boost@@QEAAAEAVChunkPacket@vanetza@@XZ
	?get@?$optional@UDataIndication@btp@vanetza@@@boost@@QEAAAEAUDataIndication@btp@vanetza@@XZ
	?get@?$refcount_ptr@Uerror_info_container@exception_detail@boost@@@exception_detail@boost@@QEBAPEAUerror_info_container@23@XZ
	?get_deleter@?$unique_ptr@V?$variant@VChunkPacket@vanetza@@VCohesivePacket@2@@boost@@U?$default_delete@V?$variant@VChunkPacket@vanetza@@VCohesivePacket@2@@boost@@@std@@@std@@QEAAAEAU?$default_delete@V?$variant@VChunkPacket@vanetza@@VCohesivePacket@2@@boost@@@2@XZ
	?get_impl@?$optional_base@UDataIndication@btp@vanetza@@@optional_detail@boost@@IEAAAEAUDataIndication@btp@vanetza@@XZ
	?get_impl@?$optional_base@V?$EndianType@G$0A@@vanetza@@@optional_detail@boost@@IEAAAEAV?$EndianType@G$0A@@vanetza@@XZ
	?get_impl@?$optional_base@V?$vector@EV?$allocator@E@std@@@std@@@optional_detail@boost@@IEAAAEAV?$vector@EV?$allocator@E@std@@@std@@XZ
	?get_impl@?$optional_base@V?$vector@EV?$allocator@E@std@@@std@@@optional_detail@boost@@IEBAAEBV?$vector@EV?$allocator@E@std@@@std@@XZ
	?get_impl@?$optional_base@VLifetime@geonet@vanetza@@@optional_detail@boost@@IEAAAEAVLifetime@geonet@vanetza@@XZ
	?get_impl@?$optional_base@VLifetime@geonet@vanetza@@@optional_detail@boost@@IEBAAEBVLifetime@geonet@vanetza@@XZ
	?get_ptr_impl@?$optional_base@UDataIndication@btp@vanetza@@@optional_detail@boost@@IEAAPEAUDataIndication@btp@vanetza@@XZ
	?imbue@?$indirect_streambuf@Vbyte_buffer_source@vanetza@@U?$char_traits@D@std@@V?$allocator@D@4@Uinput@iostreams@boost@@@detail@iostreams@boost@@MEAAXAEBVlocale@std@@@Z
	?in@?$indirect_streambuf@Vbyte_buffer_source@vanetza@@U?$char_traits@D@std@@V?$allocator@D@4@Uinput@iostreams@boost@@@detail@iostreams@boost@@AEAAAEAV?$basic_buffer@DV?$allocator@D@std@@@234@XZ
	?indicate@PortDispatcher@btp@vanetza@@UEAAXAEBUDataIndication@geonet@3@V?$unique_ptr@V?$variant@VChunkPacket@vanetza@@VCohesivePacket@2@@boost@@U?$default_delete@V?$variant@VChunkPacket@vanetza@@VCohesivePacket@2@@boost@@@std@@@std@@@Z
	?indicate_backup_which@?$variant@URectangle@geonet@vanetza@@UEllipse@23@UCircle@23@@boost@@AEAAXH@Z
	?indicate_which@?$variant@URectangle@geonet@vanetza@@UEllipse@23@UCircle@23@@boost@@AEAAXH@Z
	?indicate_which@?$variant@VAddress@geonet@vanetza@@UArea@23@$$T@boost@@AEAAXH@Z
	?init_get_area@?$indirect_streambuf@Vbyte_buffer_source@vanetza@@U?$char_traits@D@std@@V?$allocator@D@4@Uinput@iostreams@boost@@@detail@iostreams@boost@@EEAAXXZ
	?init_put_area@?$indirect_streambuf@Vbyte_buffer_source@vanetza@@U?$char_traits@D@std@@V?$allocator@D@4@Uinput@iostreams@boost@@@detail@iostreams@boost@@EEAAXXZ
	?iostream_category@std@@YAAEBVerror_category@1@XZ
	?is_initialized@?$optional_base@UDataIndication@btp@vanetza@@@optional_detail@boost@@QEBA_NXZ
	?is_initialized@?$optional_base@V?$EndianType@G$0A@@vanetza@@@optional_detail@boost@@QEBA_NXZ
	?is_initialized@?$optional_base@V?$vector@EV?$allocator@E@std@@@std@@@optional_detail@boost@@QEBA_NXZ
	?is_initialized@?$optional_base@VLifetime@geonet@vanetza@@@optional_detail@boost@@QEBA_NXZ
	?is_open@?$indirect_streambuf@Vbyte_buffer_source@vanetza@@U?$char_traits@D@std@@V?$allocator@D@4@Uinput@iostreams@boost@@@detail@iostreams@boost@@QEBA_NXZ
	?length@?$_Narrow_char_traits@DH@std@@SA_KQEBD@Z
	?make_error_code@std@@YA?AVerror_code@1@W4io_errc@1@@Z
	?max@?$numeric_limits@_J@std@@SA_JXZ
	?max_load_factor@?$_Hash@V?$_Umap_traits@V?$EndianType@G$0A@@vanetza@@PEAVIndicationInterface@btp@2@V?$_Uhash_compare@V?$EndianType@G$0A@@vanetza@@U?$hash@V?$EndianType@G$0A@@vanetza@@@std@@U?$equal_to@V?$EndianType@G$0A@@vanetza@@@4@@std@@V?$allocator@U?$pair@$$CBV?$EndianType@G$0A@@vanetza@@PEAVIndicationInterface@btp@2@@std@@@6@$0A@@std@@@std@@QEBAMXZ
	?max_size@?$_Default_allocator_traits@V?$allocator@D@std@@@std@@SA_KAEBV?$allocator@D@2@@Z
	?max_size@?$_Default_allocator_traits@V?$allocator@E@std@@@std@@SA_KAEBV?$allocator@E@2@@Z
	?max_size@?$_Default_allocator_traits@V?$allocator@U?$_List_node@PEAVPromiscuousHook@PortDispatcher@btp@vanetza@@PEAX@std@@@std@@@std@@SA_KAEBV?$allocator@U?$_List_node@PEAVPromiscuousHook@PortDispatcher@btp@vanetza@@PEAX@std@@@2@@Z
	?max_size@?$_Default_allocator_traits@V?$allocator@U?$_List_node@U?$pair@$$CBV?$EndianType@G$0A@@vanetza@@PEAVIndicationInterface@btp@2@@std@@PEAX@std@@@std@@@std@@SA_KAEBV?$allocator@U?$_List_node@U?$pair@$$CBV?$EndianType@G$0A@@vanetza@@PEAVIndicationInterface@btp@2@@std@@PEAX@std@@@2@@Z
	?max_size@?$_Default_allocator_traits@V?$allocator@V?$_List_unchecked_iterator@V?$_List_val@U?$_List_simple_types@U?$pair@$$CBV?$EndianType@G$0A@@vanetza@@PEAVIndicationInterface@btp@2@@std@@@std@@@std@@@std@@@std@@@std@@SA_KAEBV?$allocator@V?$_List_unchecked_iterator@V?$_List_val@U?$_List_simple_types@U?$pair@$$CBV?$EndianType@G$0A@@vanetza@@PEAVIndicationInterface@btp@2@@std@@@std@@@std@@@std@@@2@@Z
	?max_size@?$_Hash_vec@V?$allocator@V?$_List_unchecked_iterator@V?$_List_val@U?$_List_simple_types@U?$pair@$$CBV?$EndianType@G$0A@@vanetza@@PEAVIndicationInterface@btp@2@@std@@@std@@@std@@@std@@@std@@@std@@QEBA_KXZ
	?max_size@?$basic_string@DU?$char_traits@D@std@@V?$allocator@D@2@@std@@QEBA_KXZ
	?max_size@?$list@PEAVPromiscuousHook@PortDispatcher@btp@vanetza@@V?$allocator@PEAVPromiscuousHook@PortDispatcher@btp@vanetza@@@std@@@std@@QEBA_KXZ
	?max_size@?$list@U?$pair@$$CBV?$EndianType@G$0A@@vanetza@@PEAVIndicationInterface@btp@2@@std@@V?$allocator@U?$pair@$$CBV?$EndianType@G$0A@@vanetza@@PEAVIndicationInterface@btp@2@@std@@@2@@std@@QEBA_KXZ
	?max_size@?$vector@EV?$allocator@E@std@@@std@@QEBA_KXZ
	?message@_Iostream_error_category2@std@@UEBA?AV?$basic_string@DU?$char_traits@D@std@@V?$allocator@D@2@@2@H@Z
	?message@error_code@std@@QEBA?AV?$basic_string@DU?$char_traits@D@std@@V?$allocator@D@2@@2@XZ
	?move@?$_Char_traits@DH@std@@SAPEADQEADQEBD_K@Z
	?name@_Iostream_error_category2@std@@UEBAPEBDXZ
	?next@?$indirect_streambuf@Vbyte_buffer_source@vanetza@@U?$char_traits@D@std@@V?$allocator@D@4@Uinput@iostreams@boost@@@detail@iostreams@boost@@AEBAPEAV?$linked_streambuf@DU?$char_traits@D@std@@@234@XZ
	?not_eof@?$_Narrow_char_traits@DH@std@@SAHAEBH@Z
	?obj@?$indirect_streambuf@Vbyte_buffer_source@vanetza@@U?$char_traits@D@std@@V?$allocator@D@4@Uinput@iostreams@boost@@@detail@iostreams@boost@@AEAAAEAV?$concept_adapter@Vbyte_buffer_source@vanetza@@@234@XZ
	?open@?$indirect_streambuf@Vbyte_buffer_source@vanetza@@U?$char_traits@D@std@@V?$allocator@D@4@Uinput@iostreams@boost@@@detail@iostreams@boost@@QEAAXAEBVbyte_buffer_source@vanetza@@_J1@Z
	?open_impl@?$stream_buffer@Vbyte_buffer_source@vanetza@@U?$char_traits@D@std@@V?$allocator@D@4@Uinput@iostreams@boost@@@iostreams@boost@@AEAAXAEBVbyte_buffer_source@vanetza@@_J1@Z
	?out@?$indirect_streambuf@Vbyte_buffer_source@vanetza@@U?$char_traits@D@std@@V?$allocator@D@4@Uinput@iostreams@boost@@@detail@iostreams@boost@@AEAAAEAV?$basic_buffer@DV?$allocator@D@std@@@234@XZ
	?output_buffered@?$indirect_streambuf@Vbyte_buffer_source@vanetza@@U?$char_traits@D@std@@V?$allocator@D@4@Uinput@iostreams@boost@@@detail@iostreams@boost@@AEBA_NXZ
	?overflow@?$indirect_streambuf@Vbyte_buffer_source@vanetza@@U?$char_traits@D@std@@V?$allocator@D@4@Uinput@iostreams@boost@@@detail@iostreams@boost@@MEAAHH@Z
	?parse_btp_a@btp@vanetza@@YA?AUHeaderA@12@AEAV?$variant@VChunkPacket@vanetza@@VCohesivePacket@2@@boost@@@Z
	?parse_btp_a@btp@vanetza@@YA?AUHeaderA@12@AEAVChunkPacket@2@@Z
	?parse_btp_a@btp@vanetza@@YA?AUHeaderA@12@AEAVCohesivePacket@2@@Z
	?parse_btp_b@btp@vanetza@@YA?AUHeaderB@12@AEAV?$variant@VChunkPacket@vanetza@@VCohesivePacket@2@@boost@@@Z
	?parse_btp_b@btp@vanetza@@YA?AUHeaderB@12@AEAVChunkPacket@2@@Z
	?parse_btp_b@btp@vanetza@@YA?AUHeaderB@12@AEAVCohesivePacket@2@@Z
	?parse_btp_header@btp@vanetza@@YA?AV?$optional@UDataIndication@btp@vanetza@@@boost@@AEBUDataIndication@geonet@2@AEAV?$variant@VChunkPacket@vanetza@@VCohesivePacket@2@@4@@Z
	?pbackfail@?$indirect_streambuf@Vbyte_buffer_source@vanetza@@U?$char_traits@D@std@@V?$allocator@D@4@Uinput@iostreams@boost@@@detail@iostreams@boost@@MEAAHH@Z
	?position_to_offset@iostreams@boost@@YA_JV?$fpos@U_Mbstatet@@@std@@@Z
	?ptr_ref@?$aligned_storage@UDataIndication@btp@vanetza@@@optional_detail@boost@@QEAAPEAUDataIndication@btp@vanetza@@XZ
	?ptr_ref@?$aligned_storage@URepetition@DataRequest@geonet@vanetza@@@optional_detail@boost@@QEAAPEAURepetition@DataRequest@geonet@vanetza@@XZ
	?ptr_ref@?$aligned_storage@V?$EndianType@G$0A@@vanetza@@@optional_detail@boost@@QEAAPEAV?$EndianType@G$0A@@vanetza@@XZ
	?ptr_ref@?$aligned_storage@V?$vector@EV?$allocator@E@std@@@std@@@optional_detail@boost@@QEAAPEAV?$vector@EV?$allocator@E@std@@@std@@XZ
	?ptr_ref@?$aligned_storage@V?$vector@EV?$allocator@E@std@@@std@@@optional_detail@boost@@QEBAPEBV?$vector@EV?$allocator@E@std@@@std@@XZ
	?ptr_ref@?$aligned_storage@VLifetime@geonet@vanetza@@@optional_detail@boost@@QEAAPEAVLifetime@geonet@vanetza@@XZ
	?ptr_ref@?$aligned_storage@VLifetime@geonet@vanetza@@@optional_detail@boost@@QEBAPEBVLifetime@geonet@vanetza@@XZ
	?push_back@?$list@PEAVPromiscuousHook@PortDispatcher@btp@vanetza@@V?$allocator@PEAVPromiscuousHook@PortDispatcher@btp@vanetza@@@std@@@std@@QEAAXAEBQEAVPromiscuousHook@PortDispatcher@btp@vanetza@@@Z
	?ref@?$aligned_storage@UDataIndication@btp@vanetza@@@optional_detail@boost@@QEAAAEAUDataIndication@btp@vanetza@@XZ
	?ref@?$aligned_storage@V?$EndianType@G$0A@@vanetza@@@optional_detail@boost@@QEAAAEAV?$EndianType@G$0A@@vanetza@@XZ
	?ref@?$aligned_storage@V?$vector@EV?$allocator@E@std@@@std@@@optional_detail@boost@@QEAAAEAV?$vector@EV?$allocator@E@std@@@std@@XZ
	?ref@?$aligned_storage@V?$vector@EV?$allocator@E@std@@@std@@@optional_detail@boost@@QEBAAEBV?$vector@EV?$allocator@E@std@@@std@@XZ
	?ref@?$aligned_storage@VLifetime@geonet@vanetza@@@optional_detail@boost@@QEAAAEAVLifetime@geonet@vanetza@@XZ
	?ref@?$aligned_storage@VLifetime@geonet@vanetza@@@optional_detail@boost@@QEBAAEBVLifetime@geonet@vanetza@@XZ
	?release@?$refcount_ptr@Uerror_info_container@exception_detail@boost@@@exception_detail@boost@@AEAAXXZ
	?release@?$unique_ptr@V?$variant@VChunkPacket@vanetza@@VCohesivePacket@2@@boost@@U?$default_delete@V?$variant@VChunkPacket@vanetza@@VCohesivePacket@2@@boost@@@std@@@std@@QEAAPEAV?$variant@VChunkPacket@vanetza@@VCohesivePacket@2@@boost@@XZ
	?remove@?$list@PEAVPromiscuousHook@PortDispatcher@btp@vanetza@@V?$allocator@PEAVPromiscuousHook@PortDispatcher@btp@vanetza@@@std@@@std@@QEAA@AEBQEAVPromiscuousHook@PortDispatcher@btp@vanetza@@@Z
	?remove_promiscuous_hook@PortDispatcher@btp@vanetza@@QEAAXPEAVPromiscuousHook@123@@Z
	?reset@?$optional@V?$concept_adapter@Vbyte_buffer_source@vanetza@@@detail@iostreams@boost@@@detail@iostreams@boost@@QEAAXAEBV?$concept_adapter@Vbyte_buffer_source@vanetza@@@234@@Z
	?reset@?$optional@V?$concept_adapter@Vbyte_buffer_source@vanetza@@@detail@iostreams@boost@@@detail@iostreams@boost@@QEAAXXZ
	?resize@?$basic_buffer@DV?$allocator@D@std@@@detail@iostreams@boost@@QEAAX_J@Z
	?rethrow@?$wrapexcept@Vfailure@ios_base@std@@@boost@@UEBAXXZ
	?second@?$single_object_holder@V?$basic_buffer@DV?$allocator@D@std@@@detail@iostreams@boost@@@detail@iostreams@boost@@QEAAAEAV?$basic_buffer@DV?$allocator@D@std@@@234@XZ
	?seek_impl@?$indirect_streambuf@Vbyte_buffer_source@vanetza@@U?$char_traits@D@std@@V?$allocator@D@4@Uinput@iostreams@boost@@@detail@iostreams@boost@@AEAA?AV?$fpos@U_Mbstatet@@@std@@_JHH@Z
	?seekoff@?$indirect_streambuf@Vbyte_buffer_source@vanetza@@U?$char_traits@D@std@@V?$allocator@D@4@Uinput@iostreams@boost@@@detail@iostreams@boost@@MEAA?AV?$fpos@U_Mbstatet@@@std@@_JHH@Z
	?seekpos@?$indirect_streambuf@Vbyte_buffer_source@vanetza@@U?$char_traits@D@std@@V?$allocator@D@4@Uinput@iostreams@boost@@@detail@iostreams@boost@@MEAA?AV?$fpos@U_Mbstatet@@@std@@V56@H@Z
	?select_on_container_copy_construction@?$_Default_allocator_traits@V?$allocator@D@std@@@std@@SA?AV?$allocator@D@2@AEBV32@@Z
	?select_on_container_copy_construction@?$_Default_allocator_traits@V?$allocator@E@std@@@std@@SA?AV?$allocator@E@2@AEBV32@@Z
	?serialize@btp@vanetza@@YAXAEAVOutputArchive@2@AEBUHeaderA@12@@Z
	?serialize@btp@vanetza@@YAXAEAVOutputArchive@2@AEBUHeaderB@12@@Z
	?set_auto_close@?$indirect_streambuf@Vbyte_buffer_source@vanetza@@U?$char_traits@D@std@@V?$allocator@D@4@Uinput@iostreams@boost@@@detail@iostreams@boost@@UEAAX_N@Z
	?set_interactive_handler@PortDispatcher@btp@vanetza@@QEAAXV?$EndianType@G$0A@@3@PEAVIndicationInterface@23@@Z
	?set_needs_close@?$linked_streambuf@DU?$char_traits@D@std@@@detail@iostreams@boost@@IEAAXXZ
	?set_next@?$indirect_streambuf@Vbyte_buffer_source@vanetza@@U?$char_traits@D@std@@V?$allocator@D@4@Uinput@iostreams@boost@@@detail@iostreams@boost@@MEAAXPEAV?$linked_streambuf@DU?$char_traits@D@std@@@234@@Z
	?set_next@?$linked_streambuf@DU?$char_traits@D@std@@@detail@iostreams@boost@@MEAAXPEAV1234@@Z
	?set_non_interactive_handler@PortDispatcher@btp@vanetza@@QEAAXV?$EndianType@G$0A@@3@PEAVIndicationInterface@23@@Z
	?set_true_eof@?$linked_streambuf@DU?$char_traits@D@std@@@detail@iostreams@boost@@IEAAX_N@Z
	?shared_buffer@?$indirect_streambuf@Vbyte_buffer_source@vanetza@@U?$char_traits@D@std@@V?$allocator@D@4@Uinput@iostreams@boost@@@detail@iostreams@boost@@AEBA_NXZ
	?size@?$_Hash_vec@V?$allocator@V?$_List_unchecked_iterator@V?$_List_val@U?$_List_simple_types@U?$pair@$$CBV?$EndianType@G$0A@@vanetza@@PEAVIndicationInterface@btp@2@@std@@@std@@@std@@@std@@@std@@@std@@QEBA_KXZ
	?size@?$basic_buffer@DV?$allocator@D@std@@@detail@iostreams@boost@@QEBA_JXZ
	?strict_sync@?$indirect_streambuf@Vbyte_buffer_source@vanetza@@U?$char_traits@D@std@@V?$allocator@D@4@Uinput@iostreams@boost@@@detail@iostreams@boost@@UEAA_NXZ
	?swap@?$backup_holder@UCircle@geonet@vanetza@@@variant@detail@boost@@QEAAXAEAV1234@@Z
	?swap@?$backup_holder@UEllipse@geonet@vanetza@@@variant@detail@boost@@QEAAXAEAV1234@@Z
	?swap@?$backup_holder@URectangle@geonet@vanetza@@@variant@detail@boost@@QEAAXAEAV1234@@Z
	?sync@?$indirect_streambuf@Vbyte_buffer_source@vanetza@@U?$char_traits@D@std@@V?$allocator@D@4@Uinput@iostreams@boost@@@detail@iostreams@boost@@MEAAHXZ
	?sync_impl@?$indirect_streambuf@Vbyte_buffer_source@vanetza@@U?$char_traits@D@std@@V?$allocator@D@4@Uinput@iostreams@boost@@@detail@iostreams@boost@@AEAAXXZ
	?throw_exception_assert_compatibility@boost@@YAXAEBVexception@std@@@Z
	?to_char_type@?$_Narrow_char_traits@DH@std@@SADAEBH@Z
	?to_int_type@?$_Narrow_char_traits@DH@std@@SAHAEBD@Z
	?underflow@?$indirect_streambuf@Vbyte_buffer_source@vanetza@@U?$char_traits@D@std@@V?$allocator@D@4@Uinput@iostreams@boost@@@detail@iostreams@boost@@MEAAHXZ
	?using_backup@?$variant@URectangle@geonet@vanetza@@UEllipse@23@UCircle@23@@boost@@AEBA_NXZ
	?using_backup@?$variant@VAddress@geonet@vanetza@@UArea@23@$$T@boost@@AEBA_NXZ
	?using_backup@?$variant@VChunkPacket@vanetza@@VCohesivePacket@2@@boost@@AEBA_NXZ
	?value@error_code@std@@QEBAHXZ
	?value@error_condition@std@@QEBAHXZ
	?variant_assign@?$variant@URectangle@geonet@vanetza@@UEllipse@23@UCircle@23@@boost@@AEAAX$$QEAV12@@Z
	?variant_assign@?$variant@VAddress@geonet@vanetza@@UArea@23@$$T@boost@@AEAAX$$QEAV12@@Z
	?what@exception@std@@UEBAPEBDXZ
	?which@?$variant@URectangle@geonet@vanetza@@UEllipse@23@UCircle@23@@boost@@QEBAHXZ
	?which@?$variant@VAddress@geonet@vanetza@@UArea@23@$$T@boost@@QEBAHXZ
	?which@?$variant@VChunkPacket@vanetza@@VCohesivePacket@2@@boost@@QEBAHXZ
	wmemcpy
