EXPORTS 
	?$TSS0@?6???$month_str_to_ushort@Vgreg_month@gregorian@boost@@@date_time@boost@@YAGAEBV?$basic_string@DU?$char_traits@D@std@@V?$allocator@D@2@@std@@@Z@4HA 	 DATA
	??_R0?AU?$byte_buffer_impl@$$T@convertible@vanetza@@@8 	 DATA
	??_R0?AU?$byte_buffer_impl@V?$basic_string@DU?$char_traits@D@std@@V?$allocator@D@2@@std@@@convertible@vanetza@@@8 	 DATA
	??_R0?AU?$byte_buffer_impl@V?$vector@EV?$allocator@E@std@@@std@@@convertible@vanetza@@@8 	 DATA
	??_R0?AU?$wrapexcept@Ubad_day_of_month@gregorian@boost@@@boost@@@8 	 DATA
	??_R0?AU?$wrapexcept@Ubad_month@gregorian@boost@@@boost@@@8 	 DATA
	??_R0?AU?$wrapexcept@Ubad_year@gregorian@boost@@@boost@@@8 	 DATA
	??_R0?AU?$wrapexcept@Vbad_lexical_cast@boost@@@boost@@@8 	 DATA
	??_R0?AU_Crt_new_delete@std@@@8 	 DATA
	??_R0?AUbad_day_of_month@gregorian@boost@@@8 	 DATA
	??_R0?AUbad_month@gregorian@boost@@@8 	 DATA
	??_R0?AUbad_year@gregorian@boost@@@8 	 DATA
	??_R0?AUbyte_buffer@convertible@vanetza@@@8 	 DATA
	??_R0?AV?$_Func_base@E$$V@std@@@8 	 DATA
	??_R0?AV?$basic_string@DU?$char_traits@D@std@@V?$allocator@D@2@@std@@@8 	 DATA
	??_R0?AV?$numpunct@D@std@@@8 	 DATA
	??_R0?AVException@InputArchive@vanetza@@@8 	 DATA
	??_R0?AVException@OutputArchive@vanetza@@@8 	 DATA
	??_R0?AVManualRuntime@vanetza@@@8 	 DATA
	??_R0?AVRuntime@vanetza@@@8 	 DATA
	??_R0?AV_Facet_base@std@@@8 	 DATA
	??_R0?AVbad_alloc@std@@@8 	 DATA
	??_R0?AVbad_array_new_length@std@@@8 	 DATA
	??_R0?AVbad_cast@std@@@8 	 DATA
	??_R0?AVbad_lexical_cast@boost@@@8 	 DATA
	??_R0?AVclone_base@exception_detail@boost@@@8 	 DATA
	??_R0?AVexception@boost@@@8 	 DATA
	??_R0?AVexception@std@@@8 	 DATA
	??_R0?AVfacet@locale@std@@@8 	 DATA
	??_R0?AVlogic_error@std@@@8 	 DATA
	??_R0?AVout_of_range@std@@@8 	 DATA
	??_R0?AVruntime_error@std@@@8 	 DATA
	??_R0G@8 	 DATA
	??_R0H@8 	 DATA
	??_R0_J@8 	 DATA
	?_Psave@?$_Facetptr@V?$ctype@D@std@@@std@@2PEBVfacet@locale@2@EB 	 DATA
	?_Psave@?$_Facetptr@V?$numpunct@D@std@@@std@@2PEBVfacet@locale@2@EB 	 DATA
	?month_map@?6???$month_str_to_ushort@Vgreg_month@gregorian@boost@@@date_time@boost@@YAGAEBV?$basic_string@DU?$char_traits@D@std@@V?$allocator@D@2@@std@@@Z@4V?$map@V?$basic_string@DU?$char_traits@D@std@@V?$allocator@D@2@@std@@GU?$less@V?$basic_string@DU?$char_traits@D@std@@V?$allocator@D@2@@std@@@2@V?$allocator@U?$pair@$$CBV?$basic_string@DU?$char_traits@D@std@@V?$allocator@D@2@@std@@G@std@@@2@@4@A 	 DATA
	?pdata@?1???B?$integral_constant@_N$00@boost@@QEBAAEBU?$bool_@$00@mpl@2@XZ@4PEBXEB 	 DATA
	??$?0$$V@?$_Compressed_pair@V?$allocator@D@std@@V?$_String_val@U?$_Simple_types@D@std@@@2@$00@std@@QEAA@U_Zero_then_variadic_args_t@1@@Z
	??$?0$$V@?$_Compressed_pair@V?$allocator@E@std@@V?$_Vector_val@U?$_Simple_types@E@std@@@2@$00@std@@QEAA@U_Zero_then_variadic_args_t@1@@Z
	??$?0$$V@?$_Compressed_pair@V?$allocator@U?$_Tree_node@U?$pair@$$CBV?$basic_string@DU?$char_traits@D@std@@V?$allocator@D@2@@std@@G@std@@PEAX@std@@@std@@V?$_Tree_val@U?$_Tree_simple_types@U?$pair@$$CBV?$basic_string@DU?$char_traits@D@std@@V?$allocator@D@2@@std@@G@std@@@std@@@2@$00@std@@QEAA@U_Zero_then_variadic_args_t@1@@Z
	??$?0AEAPEAU?$hashed_index_node_impl@V?$allocator@D@std@@@detail@multi_index@boost@@_N$0A@@?$pair@PEAU?$hashed_index_node_impl@V?$allocator@D@std@@@detail@multi_index@boost@@_N@std@@QEAA@AEAPEAU?$hashed_index_node_impl@V?$allocator@D@std@@@detail@multi_index@boost@@$$QEA_N@Z
	??$?0AEAPEAU?$ordered_index_node@Unull_augment_policy@detail@multi_index@boost@@U?$hashed_index_node@U?$index_node_base@UScheduledCallback@ManualRuntime@vanetza@@V?$allocator@UScheduledCallback@ManualRuntime@vanetza@@@std@@@detail@multi_index@boost@@@234@@detail@multi_index@boost@@_N$0A@@?$pair@PEAU?$ordered_index_node@Unull_augment_policy@detail@multi_index@boost@@U?$hashed_index_node@U?$index_node_base@UScheduledCallback@ManualRuntime@vanetza@@V?$allocator@UScheduledCallback@ManualRuntime@vanetza@@@std@@@detail@multi_index@boost@@@234@@detail@multi_index@boost@@_N@std@@QEAA@AEAPEAU?$ordered_index_node@Unull_augment_policy@detail@multi_index@boost@@U?$hashed_index_node@U?$index_node_base@UScheduledCallback@ManualRuntime@vanetza@@V?$allocator@UScheduledCallback@ManualRuntime@vanetza@@@std@@@detail@multi_index@boost@@@234@@detail@multi_index@boost@@$$QEA_N@Z
	??$?0AEAPEAUbyte_buffer@convertible@vanetza@@@?$_Compressed_pair@U?$default_delete@Ubyte_buffer@convertible@vanetza@@@std@@PEAUbyte_buffer@convertible@vanetza@@$00@std@@QEAA@U_Zero_then_variadic_args_t@1@AEAPEAUbyte_buffer@convertible@vanetza@@@Z
	??$?0AEAPEAV_Facet_base@std@@@?$_Compressed_pair@U?$default_delete@V_Facet_base@std@@@std@@PEAV_Facet_base@2@$00@std@@QEAA@U_Zero_then_variadic_args_t@1@AEAPEAV_Facet_base@1@@Z
	??$?0AEAY03$$CBDG$0A@@?$pair@$$CBV?$basic_string@DU?$char_traits@D@std@@V?$allocator@D@2@@std@@G@std@@QEAA@AEAY03$$CBD$$QEAG@Z
	??$?0AEAY04$$CBDG$0A@@?$pair@$$CBV?$basic_string@DU?$char_traits@D@std@@V?$allocator@D@2@@std@@G@std@@QEAA@AEAY04$$CBD$$QEAG@Z
	??$?0AEAY05$$CBDG$0A@@?$pair@$$CBV?$basic_string@DU?$char_traits@D@std@@V?$allocator@D@2@@std@@G@std@@QEAA@AEAY05$$CBD$$QEAG@Z
	??$?0AEAY06$$CBDG$0A@@?$pair@$$CBV?$basic_string@DU?$char_traits@D@std@@V?$allocator@D@2@@std@@G@std@@QEAA@AEAY06$$CBD$$QEAG@Z
	??$?0AEAY07$$CBDG$0A@@?$pair@$$CBV?$basic_string@DU?$char_traits@D@std@@V?$allocator@D@2@@std@@G@std@@QEAA@AEAY07$$CBD$$QEAG@Z
	??$?0AEAY08$$CBDG$0A@@?$pair@$$CBV?$basic_string@DU?$char_traits@D@std@@V?$allocator@D@2@@std@@G@std@@QEAA@AEAY08$$CBD$$QEAG@Z
	??$?0AEAY09$$CBDG$0A@@?$pair@$$CBV?$basic_string@DU?$char_traits@D@std@@V?$allocator@D@2@@std@@G@std@@QEAA@AEAY09$$CBD$$QEAG@Z
	??$?0AEBU?$less@V?$basic_string@DU?$char_traits@D@std@@V?$allocator@D@2@@std@@@std@@U_Zero_then_variadic_args_t@1@@?$_Compressed_pair@U?$less@V?$basic_string@DU?$char_traits@D@std@@V?$allocator@D@2@@std@@@std@@V?$_Compressed_pair@V?$allocator@U?$_Tree_node@U?$pair@$$CBV?$basic_string@DU?$char_traits@D@std@@V?$allocator@D@2@@std@@G@std@@PEAX@std@@@std@@V?$_Tree_val@U?$_Tree_simple_types@U?$pair@$$CBV?$basic_string@DU?$char_traits@D@std@@V?$allocator@D@2@@std@@G@std@@@std@@@2@$00@2@$00@std@@QEAA@U_One_then_variadic_args_t@1@AEBU?$less@V?$basic_string@DU?$char_traits@D@std@@V?$allocator@D@2@@std@@@1@$$QEAU_Zero_then_variadic_args_t@1@@Z
	??$?0AEBU?$pair@$$CBV?$basic_string@DU?$char_traits@D@std@@V?$allocator@D@2@@std@@G@std@@@?$_Tree_temp_node@V?$allocator@U?$_Tree_node@U?$pair@$$CBV?$basic_string@DU?$char_traits@D@std@@V?$allocator@D@2@@std@@G@std@@PEAX@std@@@std@@@std@@QEAA@AEAV?$allocator@U?$_Tree_node@U?$pair@$$CBV?$basic_string@DU?$char_traits@D@std@@V?$allocator@D@2@@std@@G@std@@PEAX@std@@@1@PEAU?$_Tree_node@U?$pair@$$CBV?$basic_string@DU?$char_traits@D@std@@V?$allocator@D@2@@std@@G@std@@PEAX@1@AEBU?$pair@$$CBV?$basic_string@DU?$char_traits@D@std@@V?$allocator@D@2@@std@@G@1@@Z
	??$?0AEBV?$allocator@D@std@@$$V@?$_Compressed_pair@V?$allocator@D@std@@V?$_String_val@U?$_Simple_types@D@std@@@2@$00@std@@QEAA@U_One_then_variadic_args_t@1@AEBV?$allocator@D@1@@Z
	??$?0AEBV?$allocator@E@std@@$$V@?$_Compressed_pair@V?$allocator@E@std@@V?$_Vector_val@U?$_Simple_types@E@std@@@2@$00@std@@QEAA@U_One_then_variadic_args_t@1@AEBV?$allocator@E@1@@Z
	??$?0D@?$allocator@U_Container_proxy@std@@@std@@QEAA@AEBV?$allocator@D@1@@Z
	??$?0E@?$allocator@U_Container_proxy@std@@@std@@QEAA@AEBV?$allocator@E@1@@Z
	??$?0U?$_Tree_node@U?$pair@$$CBV?$basic_string@DU?$char_traits@D@std@@V?$allocator@D@2@@std@@G@std@@PEAX@std@@@?$allocator@U_Container_proxy@std@@@std@@QEAA@AEBV?$allocator@U?$_Tree_node@U?$pair@$$CBV?$basic_string@DU?$char_traits@D@std@@V?$allocator@D@2@@std@@G@std@@PEAX@std@@@1@@Z
	??$?0U?$default_delete@Ubyte_buffer@convertible@vanetza@@@std@@$0A@@?$unique_ptr@Ubyte_buffer@convertible@vanetza@@U?$default_delete@Ubyte_buffer@convertible@vanetza@@@std@@@std@@QEAA@$$QEAV01@@Z
	??$?0U?$default_delete@Ubyte_buffer@convertible@vanetza@@@std@@$0A@@?$unique_ptr@Ubyte_buffer@convertible@vanetza@@U?$default_delete@Ubyte_buffer@convertible@vanetza@@@std@@@std@@QEAA@PEAUbyte_buffer@convertible@vanetza@@@Z
	??$?0U?$default_delete@Ubyte_buffer@convertible@vanetza@@@std@@PEAUbyte_buffer@convertible@vanetza@@@?$_Compressed_pair@U?$default_delete@Ubyte_buffer@convertible@vanetza@@@std@@PEAUbyte_buffer@convertible@vanetza@@$00@std@@QEAA@U_One_then_variadic_args_t@1@$$QEAU?$default_delete@Ubyte_buffer@convertible@vanetza@@@1@$$QEAPEAUbyte_buffer@convertible@vanetza@@@Z
	??$?0U?$default_delete@V_Facet_base@std@@@std@@$0A@@?$unique_ptr@V_Facet_base@std@@U?$default_delete@V_Facet_base@std@@@2@@std@@QEAA@PEAV_Facet_base@1@@Z
	??$?0U?$ordered_index_node@Unull_augment_policy@detail@multi_index@boost@@U?$hashed_index_node@U?$index_node_base@UScheduledCallback@ManualRuntime@vanetza@@V?$allocator@UScheduledCallback@ManualRuntime@vanetza@@@std@@@detail@multi_index@boost@@@234@@detail@multi_index@boost@@@?$allocator@UScheduledCallback@ManualRuntime@vanetza@@@std@@QEAA@AEBV?$allocator@U?$ordered_index_node@Unull_augment_policy@detail@multi_index@boost@@U?$hashed_index_node@U?$index_node_base@UScheduledCallback@ManualRuntime@vanetza@@V?$allocator@UScheduledCallback@ManualRuntime@vanetza@@@std@@@detail@multi_index@boost@@@234@@detail@multi_index@boost@@@1@@Z
	??$?0UScheduledCallback@ManualRuntime@vanetza@@@?$allocator@PEAU?$hashed_index_node_impl@V?$allocator@D@std@@@detail@multi_index@boost@@@std@@QEAA@AEBV?$allocator@UScheduledCallback@ManualRuntime@vanetza@@@1@@Z
	??$?0UScheduledCallback@ManualRuntime@vanetza@@@?$allocator@U?$hashed_index_base_node_impl@V?$allocator@D@std@@@detail@multi_index@boost@@@std@@QEAA@AEBV?$allocator@UScheduledCallback@ManualRuntime@vanetza@@@1@@Z
	??$?0UScheduledCallback@ManualRuntime@vanetza@@@?$allocator@U?$ordered_index_node@Unull_augment_policy@detail@multi_index@boost@@U?$hashed_index_node@U?$index_node_base@UScheduledCallback@ManualRuntime@vanetza@@V?$allocator@UScheduledCallback@ManualRuntime@vanetza@@@std@@@detail@multi_index@boost@@@234@@detail@multi_index@boost@@@std@@QEAA@AEBV?$allocator@UScheduledCallback@ManualRuntime@vanetza@@@1@@Z
	??$?0UScheduledCallback@ManualRuntime@vanetza@@@?$allocator@_K@std@@QEAA@AEBV?$allocator@UScheduledCallback@ManualRuntime@vanetza@@@1@@Z
	??$?0V?$_Vector_const_iterator@V?$_Vector_val@U?$_Simple_types@E@std@@@std@@@std@@@?$iterator_range@Vbyte_view_iterator@vanetza@@@boost@@QEAA@V?$_Vector_const_iterator@V?$_Vector_val@U?$_Simple_types@E@std@@@std@@@std@@0@Z
	??$?0V?$_Vector_const_iterator@V?$_Vector_val@U?$_Simple_types@E@std@@@std@@@std@@@?$iterator_range_base@Vbyte_view_iterator@vanetza@@Ubidirectional_traversal_tag@iterators@boost@@@iterator_range_detail@boost@@IEAA@V?$_Vector_const_iterator@V?$_Vector_val@U?$_Simple_types@E@std@@@std@@@std@@0@Z
	??$?0V?$_Vector_const_iterator@V?$_Vector_val@U?$_Simple_types@E@std@@@std@@@std@@@?$iterator_range_base@Vbyte_view_iterator@vanetza@@Uincrementable_traversal_tag@iterators@boost@@@iterator_range_detail@boost@@IEAA@V?$_Vector_const_iterator@V?$_Vector_val@U?$_Simple_types@E@std@@@std@@@std@@0@Z
	??$?0V?$_Vector_const_iterator@V?$_Vector_val@U?$_Simple_types@E@std@@@std@@@std@@@?$iterator_range_base@Vbyte_view_iterator@vanetza@@Urandom_access_traversal_tag@iterators@boost@@@iterator_range_detail@boost@@IEAA@V?$_Vector_const_iterator@V?$_Vector_val@U?$_Simple_types@E@std@@@std@@@std@@0@Z
	??$?0V?$_Vector_iterator@V?$_Vector_val@U?$_Simple_types@E@std@@@std@@@std@@@?$iterator_range@Vbyte_view_iterator@vanetza@@@boost@@QEAA@V?$_Vector_iterator@V?$_Vector_val@U?$_Simple_types@E@std@@@std@@@std@@0@Z
	??$?0V?$_Vector_iterator@V?$_Vector_val@U?$_Simple_types@E@std@@@std@@@std@@@?$iterator_range_base@Vbyte_view_iterator@vanetza@@Ubidirectional_traversal_tag@iterators@boost@@@iterator_range_detail@boost@@IEAA@V?$_Vector_iterator@V?$_Vector_val@U?$_Simple_types@E@std@@@std@@@std@@0@Z
	??$?0V?$_Vector_iterator@V?$_Vector_val@U?$_Simple_types@E@std@@@std@@@std@@@?$iterator_range_base@Vbyte_view_iterator@vanetza@@Uincrementable_traversal_tag@iterators@boost@@@iterator_range_detail@boost@@IEAA@V?$_Vector_iterator@V?$_Vector_val@U?$_Simple_types@E@std@@@std@@@std@@0@Z
	??$?0V?$_Vector_iterator@V?$_Vector_val@U?$_Simple_types@E@std@@@std@@@std@@@?$iterator_range_base@Vbyte_view_iterator@vanetza@@Urandom_access_traversal_tag@iterators@boost@@@iterator_range_detail@boost@@IEAA@V?$_Vector_iterator@V?$_Vector_val@U?$_Simple_types@E@std@@@std@@@std@@0@Z
	??$?0V?$allocator@D@std@@$$V@?$_Compressed_pair@V?$allocator@D@std@@V?$_String_val@U?$_Simple_types@D@std@@@2@$00@std@@QEAA@U_One_then_variadic_args_t@1@$$QEAV?$allocator@D@1@@Z
	??$?0V?$allocator@E@std@@PEAEPEAEPEAE@?$_Compressed_pair@V?$allocator@E@std@@V?$_Vector_val@U?$_Simple_types@E@std@@@2@$00@std@@QEAA@U_One_then_variadic_args_t@1@$$QEAV?$allocator@E@1@$$QEAPEAE22@Z
	??$?0V?$allocator@UScheduledCallback@ManualRuntime@vanetza@@@std@@X@?$base_from_member@V?$allocator@U?$ordered_index_node@Unull_augment_policy@detail@multi_index@boost@@U?$hashed_index_node@U?$index_node_base@UScheduledCallback@ManualRuntime@vanetza@@V?$allocator@UScheduledCallback@ManualRuntime@vanetza@@@std@@@detail@multi_index@boost@@@234@@detail@multi_index@boost@@@std@@$0A@@boost@@IEAA@$$QEAV?$allocator@UScheduledCallback@ManualRuntime@vanetza@@@std@@@Z
	??$?0V?$basic_string@DU?$char_traits@D@std@@V?$allocator@D@2@@std@@@?$tokenizer@V?$char_separator@DU?$char_traits@D@std@@@boost@@V?$_String_const_iterator@V?$_String_val@U?$_Simple_types@D@std@@@std@@@std@@V?$basic_string@DU?$char_traits@D@std@@V?$allocator@D@2@@4@@boost@@QEAA@AEBV?$basic_string@DU?$char_traits@D@std@@V?$allocator@D@2@@std@@AEBV?$char_separator@DU?$char_traits@D@std@@@1@@Z
	??$?0V?$bidir_node_iterator@U?$ordered_index_node@Unull_augment_policy@detail@multi_index@boost@@U?$hashed_index_node@U?$index_node_base@UScheduledCallback@ManualRuntime@vanetza@@V?$allocator@UScheduledCallback@ManualRuntime@vanetza@@@std@@@detail@multi_index@boost@@@234@@detail@multi_index@boost@@@detail@multi_index@boost@@AEA_N$0A@@?$pair@V?$bidir_node_iterator@U?$ordered_index_node@Unull_augment_policy@detail@multi_index@boost@@U?$hashed_index_node@U?$index_node_base@UScheduledCallback@ManualRuntime@vanetza@@V?$allocator@UScheduledCallback@ManualRuntime@vanetza@@@std@@@detail@multi_index@boost@@@234@@detail@multi_index@boost@@@detail@multi_index@boost@@_N@std@@QEAA@$$QEAV?$bidir_node_iterator@U?$ordered_index_node@Unull_augment_policy@detail@multi_index@boost@@U?$hashed_index_node@U?$index_node_base@UScheduledCallback@ManualRuntime@vanetza@@V?$allocator@UScheduledCallback@ManualRuntime@vanetza@@@std@@@detail@multi_index@boost@@@234@@detail@multi_index@boost@@@detail@multi_index@boost@@AEA_N@Z
	??$?0V?$hashed_index_iterator@U?$hashed_index_node@U?$index_node_base@UScheduledCallback@ManualRuntime@vanetza@@V?$allocator@UScheduledCallback@ManualRuntime@vanetza@@@std@@@detail@multi_index@boost@@@detail@multi_index@boost@@V?$bucket_array@V?$allocator@UScheduledCallback@ManualRuntime@vanetza@@@std@@@234@Uhashed_non_unique_tag@234@Uhashed_index_global_iterator_tag@234@@detail@multi_index@boost@@V0123@$0A@@?$pair@V?$hashed_index_iterator@U?$hashed_index_node@U?$index_node_base@UScheduledCallback@ManualRuntime@vanetza@@V?$allocator@UScheduledCallback@ManualRuntime@vanetza@@@std@@@detail@multi_index@boost@@@detail@multi_index@boost@@V?$bucket_array@V?$allocator@UScheduledCallback@ManualRuntime@vanetza@@@std@@@234@Uhashed_non_unique_tag@234@Uhashed_index_global_iterator_tag@234@@detail@multi_index@boost@@V1234@@std@@QEAA@$$QEAV?$hashed_index_iterator@U?$hashed_index_node@U?$index_node_base@UScheduledCallback@ManualRuntime@vanetza@@V?$allocator@UScheduledCallback@ManualRuntime@vanetza@@@std@@@detail@multi_index@boost@@@detail@multi_index@boost@@V?$bucket_array@V?$allocator@UScheduledCallback@ManualRuntime@vanetza@@@std@@@234@Uhashed_non_unique_tag@234@Uhashed_index_global_iterator_tag@234@@detail@multi_index@boost@@0@Z
	??$?0Vbyte_view_iterator@vanetza@@@?$iterator_range@Vbyte_view_iterator@vanetza@@@boost@@QEAA@Vbyte_view_iterator@vanetza@@0@Z
	??$?0Vbyte_view_iterator@vanetza@@@?$iterator_range_base@Vbyte_view_iterator@vanetza@@Ubidirectional_traversal_tag@iterators@boost@@@iterator_range_detail@boost@@IEAA@Vbyte_view_iterator@vanetza@@0@Z
	??$?0Vbyte_view_iterator@vanetza@@@?$iterator_range_base@Vbyte_view_iterator@vanetza@@Uincrementable_traversal_tag@iterators@boost@@@iterator_range_detail@boost@@IEAA@Vbyte_view_iterator@vanetza@@0@Z
	??$?0Vbyte_view_iterator@vanetza@@@?$iterator_range_base@Vbyte_view_iterator@vanetza@@Urandom_access_traversal_tag@iterators@boost@@@iterator_range_detail@boost@@IEAA@Vbyte_view_iterator@vanetza@@0@Z
	??$?0_J$0A@@?$duration@_JU?$ratio@$00$0PECEA@@std@@@chrono@std@@QEAA@AEB_J@Z
	??$?0_J@?$subsecond_duration@Vtime_duration@posix_time@boost@@$0PECEA@@date_time@boost@@QEAA@AEB_JPEAX@Z
	??$?4U?$default_delete@Ubyte_buffer@convertible@vanetza@@@std@@$0A@@?$unique_ptr@Ubyte_buffer@convertible@vanetza@@U?$default_delete@Ubyte_buffer@convertible@vanetza@@@std@@@std@@QEAAAEAV01@$$QEAV01@@Z
	??$?6V?$allocator@D@std@@@?$lexical_istream_limited_src@DU?$char_traits@D@std@@$0A@$01@detail@boost@@QEAA_NAEBV?$basic_string@DU?$char_traits@D@std@@V?$allocator@D@2@@std@@@Z
	??$?8U?$hashed_index_node@U?$index_node_base@UScheduledCallback@ManualRuntime@vanetza@@V?$allocator@UScheduledCallback@ManualRuntime@vanetza@@@std@@@detail@multi_index@boost@@@detail@multi_index@boost@@V?$bucket_array@V?$allocator@UScheduledCallback@ManualRuntime@vanetza@@@std@@@123@Uhashed_non_unique_tag@123@Uhashed_index_global_iterator_tag@123@@detail@multi_index@boost@@YA_NAEBV?$hashed_index_iterator@U?$hashed_index_node@U?$index_node_base@UScheduledCallback@ManualRuntime@vanetza@@V?$allocator@UScheduledCallback@ManualRuntime@vanetza@@@std@@@detail@multi_index@boost@@@detail@multi_index@boost@@V?$bucket_array@V?$allocator@UScheduledCallback@ManualRuntime@vanetza@@@std@@@234@Uhashed_non_unique_tag@234@Uhashed_index_global_iterator_tag@234@@012@0@Z
	??$?8U?$ordered_index_node@Unull_augment_policy@detail@multi_index@boost@@U?$hashed_index_node@U?$index_node_base@UScheduledCallback@ManualRuntime@vanetza@@V?$allocator@UScheduledCallback@ManualRuntime@vanetza@@@std@@@detail@multi_index@boost@@@234@@detail@multi_index@boost@@@detail@multi_index@boost@@YA_NAEBV?$bidir_node_iterator@U?$ordered_index_node@Unull_augment_policy@detail@multi_index@boost@@U?$hashed_index_node@U?$index_node_base@UScheduledCallback@ManualRuntime@vanetza@@V?$allocator@UScheduledCallback@ManualRuntime@vanetza@@@std@@@detail@multi_index@boost@@@234@@detail@multi_index@boost@@@012@0@Z
	??$?9V?$token_iterator@V?$char_separator@DU?$char_traits@D@std@@@boost@@V?$_String_const_iterator@V?$_String_val@U?$_Simple_types@D@std@@@std@@@std@@V?$basic_string@DU?$char_traits@D@std@@V?$allocator@D@2@@4@@boost@@V?$basic_string@DU?$char_traits@D@std@@V?$allocator@D@2@@std@@Uforward_traversal_tag@iterators@1@AEBV23@_JV01@V23@U451@AEBV23@_J@iterators@boost@@YA_NAEBV?$iterator_facade@V?$token_iterator@V?$char_separator@DU?$char_traits@D@std@@@boost@@V?$_String_const_iterator@V?$_String_val@U?$_Simple_types@D@std@@@std@@@std@@V?$basic_string@DU?$char_traits@D@std@@V?$allocator@D@2@@4@@boost@@V?$basic_string@DU?$char_traits@D@std@@V?$allocator@D@2@@std@@Uforward_traversal_tag@iterators@2@AEBV34@_J@01@0@Z
	??$?G_J@?$int_adapter@_J@date_time@boost@@QEBA?AV012@AEBV012@@Z
	??$?HI@?$int_adapter@_J@date_time@boost@@QEBA?AV012@AEBV?$int_adapter@I@12@@Z
	??$?HVClock@vanetza@@V?$duration@_JU?$ratio@$00$0PECEA@@std@@@chrono@std@@_JU?$ratio@$00$0PECEA@@4@@chrono@std@@YA?AV?$time_point@VClock@vanetza@@V?$duration@_JU?$ratio@$00$0PECEA@@std@@@chrono@std@@@01@AEBV201@AEBV?$duration@_JU?$ratio@$00$0PECEA@@std@@@01@@Z
	??$?H_J@?$int_adapter@_J@date_time@boost@@QEBA?AV012@AEBV012@@Z
	??$?H_JU?$ratio@$00$0PECEA@@std@@_JU01@@chrono@std@@YA?AV?$duration@_JU?$ratio@$00$0PECEA@@std@@@01@AEBV201@0@Z
	??$?MDU?$char_traits@D@std@@V?$allocator@D@1@@std@@YA_NAEBV?$basic_string@DU?$char_traits@D@std@@V?$allocator@D@2@@0@0@Z
	??$?MVClock@vanetza@@V?$duration@_JU?$ratio@$00$0PECEA@@std@@@chrono@std@@V234@@chrono@std@@YA_NAEBV?$time_point@VClock@vanetza@@V?$duration@_JU?$ratio@$00$0PECEA@@std@@@chrono@std@@@01@0@Z
	??$?M_JU?$ratio@$00$0PECEA@@std@@_JU01@@chrono@std@@YA_NAEBV?$duration@_JU?$ratio@$00$0PECEA@@std@@@01@0@Z
	??$?NVClock@vanetza@@V?$duration@_JU?$ratio@$00$0PECEA@@std@@@chrono@std@@V234@@chrono@std@@YA_NAEBV?$time_point@VClock@vanetza@@V?$duration@_JU?$ratio@$00$0PECEA@@std@@@chrono@std@@@01@0@Z
	??$?PVClock@vanetza@@V?$duration@_JU?$ratio@$00$0PECEA@@std@@@chrono@std@@V234@@chrono@std@@YA_NAEBV?$time_point@VClock@vanetza@@V?$duration@_JU?$ratio@$00$0PECEA@@std@@@chrono@std@@@01@0@Z
	??$?RAEB_KAEB_K@?$less@X@std@@QEBA_NAEB_K0@Z
	??$?RPEAU?$hashed_index_base_node_impl@V?$allocator@D@std@@@detail@multi_index@boost@@@default_assigner@detail@multi_index@boost@@QEAAXAEAPEAU?$hashed_index_base_node_impl@V?$allocator@D@std@@@123@AEBQEAU4123@@Z
	??$?RPEAU?$hashed_index_node_impl@V?$allocator@D@std@@@detail@multi_index@boost@@@default_assigner@detail@multi_index@boost@@QEAAXAEAPEAU?$hashed_index_node_impl@V?$allocator@D@std@@@123@AEBQEAU4123@@Z
	??$?RV?$_String_const_iterator@V?$_String_val@U?$_Simple_types@D@std@@@std@@@std@@V?$basic_string@DU?$char_traits@D@std@@V?$allocator@D@2@@1@@?$char_separator@DU?$char_traits@D@std@@@boost@@QEAA_NAEAV?$_String_const_iterator@V?$_String_val@U?$_Simple_types@D@std@@@std@@@std@@V23@AEAV?$basic_string@DU?$char_traits@D@std@@V?$allocator@D@2@@3@@Z
	??$_Adl_verify_range@PEAEPEAE@std@@YAXAEBQEAE0@Z
	??$_Adl_verify_range@PEBDPEBD@std@@YAXAEBQEBD0@Z
	??$_Adl_verify_range@PEBU?$pair@$$CBV?$basic_string@DU?$char_traits@D@std@@V?$allocator@D@2@@std@@G@std@@PEBU12@@std@@YAXAEBQEBU?$pair@$$CBV?$basic_string@DU?$char_traits@D@std@@V?$allocator@D@2@@std@@G@0@0@Z
	??$_Adl_verify_range@PEB_KPEB_K@std@@YAXAEBQEB_K0@Z
	??$_Adl_verify_range@V?$_String_const_iterator@V?$_String_val@U?$_Simple_types@D@std@@@std@@@std@@V12@@std@@YAXAEBV?$_String_const_iterator@V?$_String_val@U?$_Simple_types@D@std@@@std@@@0@0@Z
	??$_Adl_verify_range@V?$_Vector_const_iterator@V?$_Vector_val@U?$_Simple_types@E@std@@@std@@@std@@V12@@std@@YAXAEBV?$_Vector_const_iterator@V?$_Vector_val@U?$_Simple_types@E@std@@@std@@@0@0@Z
	??$_Adl_verify_range@V?$_Vector_iterator@V?$_Vector_val@U?$_Simple_types@E@std@@@std@@@std@@V12@@std@@YAXAEBV?$_Vector_iterator@V?$_Vector_val@U?$_Simple_types@E@std@@@std@@@0@0@Z
	??$_Alloc_proxy@V?$allocator@U_Container_proxy@std@@@std@@@_Container_base12@std@@QEAAX$$QEAV?$allocator@U_Container_proxy@std@@@1@@Z
	??$_Allocate@$0BA@U_Default_allocate_traits@std@@$0A@@std@@YAPEAX_K@Z
	??$_Allocate_manually_vector_aligned@U_Default_allocate_traits@std@@@std@@YAPEAX_K@Z
	??$_Assign_range@PEAE@?$vector@EV?$allocator@E@std@@@std@@AEAAXPEAE0Uforward_iterator_tag@1@@Z
	??$_Buyheadnode@V?$allocator@U?$_Tree_node@U?$pair@$$CBV?$basic_string@DU?$char_traits@D@std@@V?$allocator@D@2@@std@@G@std@@PEAX@std@@@std@@@?$_Tree_node@U?$pair@$$CBV?$basic_string@DU?$char_traits@D@std@@V?$allocator@D@2@@std@@G@std@@PEAX@std@@SAPEAU01@AEAV?$allocator@U?$_Tree_node@U?$pair@$$CBV?$basic_string@DU?$char_traits@D@std@@V?$allocator@D@2@@std@@G@std@@PEAX@std@@@1@@Z
	??$_Construct@$00PEBD@?$basic_string@DU?$char_traits@D@std@@V?$allocator@D@2@@std@@AEAAXQEBD_K@Z
	??$_Construct@$01PEBD@?$basic_string@DU?$char_traits@D@std@@V?$allocator@D@2@@std@@AEAAXQEBD_K@Z
	??$_Construct_in_place@EE@std@@YAXAEAE$$QEAE@Z
	??$_Construct_in_place@PEADAEAPEAD@std@@YAXAEAPEAD0@Z
	??$_Construct_in_place@PEADAEBQEAD@std@@YAXAEAPEADAEBQEAD@Z
	??$_Construct_in_place@PEAU?$_Tree_node@U?$pair@$$CBV?$basic_string@DU?$char_traits@D@std@@V?$allocator@D@2@@std@@G@std@@PEAX@std@@AEAPEAU12@@std@@YAXAEAPEAU?$_Tree_node@U?$pair@$$CBV?$basic_string@DU?$char_traits@D@std@@V?$allocator@D@2@@std@@G@std@@PEAX@0@0@Z
	??$_Construct_in_place@PEAU?$_Tree_node@U?$pair@$$CBV?$basic_string@DU?$char_traits@D@std@@V?$allocator@D@2@@std@@G@std@@PEAX@std@@AEBQEAU12@@std@@YAXAEAPEAU?$_Tree_node@U?$pair@$$CBV?$basic_string@DU?$char_traits@D@std@@V?$allocator@D@2@@std@@G@std@@PEAX@0@AEBQEAU10@@Z
	??$_Construct_in_place@U_Container_proxy@std@@PEAU_Container_base12@2@@std@@YAXAEAU_Container_proxy@0@$$QEAPEAU_Container_base12@0@@Z
	??$_Construct_n@$$V@?$vector@EV?$allocator@E@std@@@std@@AEAAX_K@Z
	??$_Convert_size@_K@std@@YA_K_K@Z
	??$_Copy_memmove@PEAEPEAE@std@@YAPEAEPEAE00@Z
	??$_Copy_memmove@PEBEPEAD@std@@YAPEADPEBE0PEAD@Z
	??$_Copy_unchecked@PEAEPEAE@std@@YAPEAEPEAE00@Z
	??$_Copy_unchecked@PEBDV?$back_insert_iterator@V?$vector@EV?$allocator@E@std@@@std@@@std@@@std@@YA?AV?$back_insert_iterator@V?$vector@EV?$allocator@E@std@@@std@@@0@PEBD0V10@@Z
	??$_Copy_unchecked@PEBEPEAD@std@@YAPEADPEBE0PEAD@Z
	??$_Deallocate@$07$0A@@std@@YAXPEAX_K@Z
	??$_Deallocate@$0BA@$0A@@std@@YAXPEAX_K@Z
	??$_Deallocate_plain@V?$allocator@U_Container_proxy@std@@@std@@@std@@YAXAEAV?$allocator@U_Container_proxy@std@@@0@QEAU_Container_proxy@0@@Z
	??$_Debug_lt_pred@AEBU?$less@V?$basic_string@DU?$char_traits@D@std@@V?$allocator@D@2@@std@@@std@@AEBV?$basic_string@DU?$char_traits@D@std@@V?$allocator@D@2@@2@AEBV32@$0A@@std@@YA_NAEBU?$less@V?$basic_string@DU?$char_traits@D@std@@V?$allocator@D@2@@std@@@0@AEBV?$basic_string@DU?$char_traits@D@std@@V?$allocator@D@2@@0@1@Z
	??$_Delete_plain_internal@V?$allocator@U_Container_proxy@std@@@std@@@std@@YAXAEAV?$allocator@U_Container_proxy@std@@@0@QEAU_Container_proxy@0@@Z
	??$_Destroy_in_place@PEAD@std@@YAXAEAPEAD@Z
	??$_Destroy_in_place@PEAU?$_Tree_node@U?$pair@$$CBV?$basic_string@DU?$char_traits@D@std@@V?$allocator@D@2@@std@@G@std@@PEAX@std@@@std@@YAXAEAPEAU?$_Tree_node@U?$pair@$$CBV?$basic_string@DU?$char_traits@D@std@@V?$allocator@D@2@@std@@G@std@@PEAX@0@@Z
	??$_Destroy_range@V?$allocator@E@std@@@std@@YAXPEAEQEAEAEAV?$allocator@E@0@@Z
	??$_Emplace_back@$$V@?$_Uninitialized_backout_al@V?$allocator@E@std@@@std@@QEAAXXZ
	??$_Emplace_back@AEAE@?$_Uninitialized_backout_al@V?$allocator@E@std@@@std@@QEAAXAEAE@Z
	??$_Emplace_back@E@?$_Uninitialized_backout_al@V?$allocator@E@std@@@std@@QEAAX$$QEAE@Z
	??$_Emplace_back_with_unused_capacity@E@?$vector@EV?$allocator@E@std@@@std@@AEAAAEAE$$QEAE@Z
	??$_Emplace_hint@AEBU?$pair@$$CBV?$basic_string@DU?$char_traits@D@std@@V?$allocator@D@2@@std@@G@std@@@?$_Tree@V?$_Tmap_traits@V?$basic_string@DU?$char_traits@D@std@@V?$allocator@D@2@@std@@GU?$less@V?$basic_string@DU?$char_traits@D@std@@V?$allocator@D@2@@std@@@2@V?$allocator@U?$pair@$$CBV?$basic_string@DU?$char_traits@D@std@@V?$allocator@D@2@@std@@G@std@@@2@$0A@@std@@@std@@IEAAPEAU?$_Tree_node@U?$pair@$$CBV?$basic_string@DU?$char_traits@D@std@@V?$allocator@D@2@@std@@G@std@@PEAX@1@QEAU21@AEBU?$pair@$$CBV?$basic_string@DU?$char_traits@D@std@@V?$allocator@D@2@@std@@G@1@@Z
	??$_Emplace_one_at_back@E@?$vector@EV?$allocator@E@std@@@std@@AEAAAEAE$$QEAE@Z
	??$_Emplace_reallocate@E@?$vector@EV?$allocator@E@std@@@std@@AEAAPEAEQEAE$$QEAE@Z
	??$_Erase_head@V?$allocator@U?$_Tree_node@U?$pair@$$CBV?$basic_string@DU?$char_traits@D@std@@V?$allocator@D@2@@std@@G@std@@PEAX@std@@@std@@@?$_Tree_val@U?$_Tree_simple_types@U?$pair@$$CBV?$basic_string@DU?$char_traits@D@std@@V?$allocator@D@2@@std@@G@std@@@std@@@std@@QEAAXAEAV?$allocator@U?$_Tree_node@U?$pair@$$CBV?$basic_string@DU?$char_traits@D@std@@V?$allocator@D@2@@std@@G@std@@PEAX@std@@@1@@Z
	??$_Erase_tree@V?$allocator@U?$_Tree_node@U?$pair@$$CBV?$basic_string@DU?$char_traits@D@std@@V?$allocator@D@2@@std@@G@std@@PEAX@std@@@std@@@?$_Tree_val@U?$_Tree_simple_types@U?$pair@$$CBV?$basic_string@DU?$char_traits@D@std@@V?$allocator@D@2@@std@@G@std@@@std@@@std@@QEAAXAEAV?$allocator@U?$_Tree_node@U?$pair@$$CBV?$basic_string@DU?$char_traits@D@std@@V?$allocator@D@2@@std@@G@std@@PEAX@std@@@1@PEAU?$_Tree_node@U?$pair@$$CBV?$basic_string@DU?$char_traits@D@std@@V?$allocator@D@2@@std@@G@std@@PEAX@1@@Z
	??$_Find@V?$basic_string@DU?$char_traits@D@std@@V?$allocator@D@2@@std@@@?$_Tree@V?$_Tmap_traits@V?$basic_string@DU?$char_traits@D@std@@V?$allocator@D@2@@std@@GU?$less@V?$basic_string@DU?$char_traits@D@std@@V?$allocator@D@2@@std@@@2@V?$allocator@U?$pair@$$CBV?$basic_string@DU?$char_traits@D@std@@V?$allocator@D@2@@std@@G@std@@@2@$0A@@std@@@std@@AEBAPEAU?$_Tree_node@U?$pair@$$CBV?$basic_string@DU?$char_traits@D@std@@V?$allocator@D@2@@std@@G@std@@PEAX@1@AEBV?$basic_string@DU?$char_traits@D@std@@V?$allocator@D@2@@1@@Z
	??$_Find_hint@V?$basic_string@DU?$char_traits@D@std@@V?$allocator@D@2@@std@@@?$_Tree@V?$_Tmap_traits@V?$basic_string@DU?$char_traits@D@std@@V?$allocator@D@2@@std@@GU?$less@V?$basic_string@DU?$char_traits@D@std@@V?$allocator@D@2@@std@@@2@V?$allocator@U?$pair@$$CBV?$basic_string@DU?$char_traits@D@std@@V?$allocator@D@2@@std@@G@std@@@2@$0A@@std@@@std@@IEBA?AU?$_Tree_find_hint_result@PEAU?$_Tree_node@U?$pair@$$CBV?$basic_string@DU?$char_traits@D@std@@V?$allocator@D@2@@std@@G@std@@PEAX@std@@@1@QEAU?$_Tree_node@U?$pair@$$CBV?$basic_string@DU?$char_traits@D@std@@V?$allocator@D@2@@std@@G@std@@PEAX@1@AEBV?$basic_string@DU?$char_traits@D@std@@V?$allocator@D@2@@1@@Z
	??$_Find_lower_bound@V?$basic_string@DU?$char_traits@D@std@@V?$allocator@D@2@@std@@@?$_Tree@V?$_Tmap_traits@V?$basic_string@DU?$char_traits@D@std@@V?$allocator@D@2@@std@@GU?$less@V?$basic_string@DU?$char_traits@D@std@@V?$allocator@D@2@@std@@@2@V?$allocator@U?$pair@$$CBV?$basic_string@DU?$char_traits@D@std@@V?$allocator@D@2@@std@@G@std@@@2@$0A@@std@@@std@@IEBA?AU?$_Tree_find_result@PEAU?$_Tree_node@U?$pair@$$CBV?$basic_string@DU?$char_traits@D@std@@V?$allocator@D@2@@std@@G@std@@PEAX@std@@@1@AEBV?$basic_string@DU?$char_traits@D@std@@V?$allocator@D@2@@1@@Z
	??$_Freenode0@V?$allocator@U?$_Tree_node@U?$pair@$$CBV?$basic_string@DU?$char_traits@D@std@@V?$allocator@D@2@@std@@G@std@@PEAX@std@@@std@@@?$_Tree_node@U?$pair@$$CBV?$basic_string@DU?$char_traits@D@std@@V?$allocator@D@2@@std@@G@std@@PEAX@std@@SAXAEAV?$allocator@U?$_Tree_node@U?$pair@$$CBV?$basic_string@DU?$char_traits@D@std@@V?$allocator@D@2@@std@@G@std@@PEAX@std@@@1@PEAU01@@Z
	??$_Freenode@V?$allocator@U?$_Tree_node@U?$pair@$$CBV?$basic_string@DU?$char_traits@D@std@@V?$allocator@D@2@@std@@G@std@@PEAX@std@@@std@@@?$_Tree_node@U?$pair@$$CBV?$basic_string@DU?$char_traits@D@std@@V?$allocator@D@2@@std@@G@std@@PEAX@std@@SAXAEAV?$allocator@U?$_Tree_node@U?$pair@$$CBV?$basic_string@DU?$char_traits@D@std@@V?$allocator@D@2@@std@@G@std@@PEAX@std@@@1@PEAU01@@Z
	??$_Get_size_of_n@$00@std@@YA_K_K@Z
	??$_Get_size_of_n@$07@std@@YA_K_K@Z
	??$_Get_size_of_n@$0BA@@std@@YA_K_K@Z
	??$_Get_size_of_n@$0FA@@std@@YA_K_K@Z
	??$_Get_size_of_n@$0HI@@std@@YA_K_K@Z
	??$_Get_unwrapped@AEAPEAE@std@@YA?A_TAEAPEAE@Z
	??$_Get_unwrapped@AEAPEBD@std@@YA?A_TAEAPEBD@Z
	??$_Get_unwrapped@AEAPEBU?$pair@$$CBV?$basic_string@DU?$char_traits@D@std@@V?$allocator@D@2@@std@@G@std@@@std@@YA?A_TAEAPEBU?$pair@$$CBV?$basic_string@DU?$char_traits@D@std@@V?$allocator@D@2@@std@@G@0@@Z
	??$_Get_unwrapped@AEAPEB_K@std@@YA?A_TAEAPEB_K@Z
	??$_Get_unwrapped@AEAV?$_String_const_iterator@V?$_String_val@U?$_Simple_types@D@std@@@std@@@std@@@std@@YA?A_TAEAV?$_String_const_iterator@V?$_String_val@U?$_Simple_types@D@std@@@std@@@0@@Z
	??$_Get_unwrapped@AEAV?$_Vector_const_iterator@V?$_Vector_val@U?$_Simple_types@E@std@@@std@@@std@@@std@@YA?A_TAEAV?$_Vector_const_iterator@V?$_Vector_val@U?$_Simple_types@E@std@@@std@@@0@@Z
	??$_Get_unwrapped@AEAV?$_Vector_iterator@V?$_Vector_val@U?$_Simple_types@E@std@@@std@@@std@@@std@@YA?A_TAEAV?$_Vector_iterator@V?$_Vector_val@U?$_Simple_types@E@std@@@std@@@0@@Z
	??$_Get_unwrapped@AEBQEAE@std@@YA?A_TAEBQEAE@Z
	??$_Get_unwrapped@AEBQEB_K@std@@YA?A_TAEBQEB_K@Z
	??$_Get_unwrapped@AEBV?$_String_const_iterator@V?$_String_val@U?$_Simple_types@D@std@@@std@@@std@@@std@@YA?A_TAEBV?$_String_const_iterator@V?$_String_val@U?$_Simple_types@D@std@@@std@@@0@@Z
	??$_Get_unwrapped_n@AEAPEAD_J@std@@YA?A_TAEAPEAD_J@Z
	??$_Get_unwrapped_n@AEAV?$back_insert_iterator@V?$vector@EV?$allocator@E@std@@@std@@@std@@_J@std@@YA?A_TAEAV?$back_insert_iterator@V?$vector@EV?$allocator@E@std@@@std@@@0@_J@Z
	??$_Getvals@D@?$numpunct@D@std@@IEAAXDPEBUlconv@@U_Cvtvec@@@Z
	??$_Getvals@_W@?$time_get@DV?$istreambuf_iterator@DU?$char_traits@D@std@@@std@@@std@@IEAAX_WAEBV_Locinfo@1@@Z
	??$_Getvals@_W@?$time_get@_WV?$istreambuf_iterator@_WU?$char_traits@_W@std@@@std@@@std@@IEAAX_WAEBV_Locinfo@1@@Z
	??$_Idl_distance@PEBDPEBD@std@@YA?A_PAEBQEBD0@Z
	??$_Idl_distance@V?$_String_const_iterator@V?$_String_val@U?$_Simple_types@D@std@@@std@@@std@@PEBD@std@@YA?A_PAEBQEBD0@Z
	??$_Idl_distance@V?$_Vector_const_iterator@V?$_Vector_val@U?$_Simple_types@E@std@@@std@@@std@@PEBE@std@@YA?A_PAEBQEBE0@Z
	??$_Kfn@$$CBV?$basic_string@DU?$char_traits@D@std@@V?$allocator@D@2@@std@@G@?$_Tmap_traits@V?$basic_string@DU?$char_traits@D@std@@V?$allocator@D@2@@std@@GU?$less@V?$basic_string@DU?$char_traits@D@std@@V?$allocator@D@2@@std@@@2@V?$allocator@U?$pair@$$CBV?$basic_string@DU?$char_traits@D@std@@V?$allocator@D@2@@std@@G@std@@@2@$0A@@std@@SAAEBV?$basic_string@DU?$char_traits@D@std@@V?$allocator@D@2@@1@AEBU?$pair@$$CBV?$basic_string@DU?$char_traits@D@std@@V?$allocator@D@2@@std@@G@1@@Z
	??$_Lower_bound_duplicate@V?$basic_string@DU?$char_traits@D@std@@V?$allocator@D@2@@std@@@?$_Tree@V?$_Tmap_traits@V?$basic_string@DU?$char_traits@D@std@@V?$allocator@D@2@@std@@GU?$less@V?$basic_string@DU?$char_traits@D@std@@V?$allocator@D@2@@std@@@2@V?$allocator@U?$pair@$$CBV?$basic_string@DU?$char_traits@D@std@@V?$allocator@D@2@@std@@G@std@@@2@$0A@@std@@@std@@IEBA_NQEAU?$_Tree_node@U?$pair@$$CBV?$basic_string@DU?$char_traits@D@std@@V?$allocator@D@2@@std@@G@std@@PEAX@1@AEBV?$basic_string@DU?$char_traits@D@std@@V?$allocator@D@2@@1@@Z
	??$_Maklocchr@D@std@@YADDPEADAEBU_Cvtvec@@@Z
	??$_Maklocstr@D@std@@YAPEADPEBDPEADAEBU_Cvtvec@@@Z
	??$_Maklocstr@_W@std@@YAPEA_WPEBDPEA_WAEBU_Cvtvec@@@Z
	??$_Next_iter@PEB_K@std@@YAPEB_KPEB_K@Z
	??$_Pocca@V?$allocator@E@std@@@std@@YAXAEAV?$allocator@E@0@AEBV10@@Z
	??$_Pocma@V?$allocator@D@std@@@std@@YAXAEAV?$allocator@D@0@0@Z
	??$_Reallocate_for@V<lambda_66f57f934f28d61049862f64df852ff0>@@PEBD@?$basic_string@DU?$char_traits@D@std@@V?$allocator@D@2@@std@@AEAAAEAV01@_KV<lambda_66f57f934f28d61049862f64df852ff0>@@PEBD@Z
	??$_Refancy@PEBD$0A@@std@@YAPEBDPEBD@Z
	??$_Seek_wrapped@PEADPEAD@std@@YAXAEAPEAD$$QEAPEAD@Z
	??$_Seek_wrapped@PEB_KAEAPEB_K@std@@YAXAEAPEB_K0@Z
	??$_Seek_wrapped@V?$back_insert_iterator@V?$vector@EV?$allocator@E@std@@@std@@@std@@V12@@std@@YAXAEAV?$back_insert_iterator@V?$vector@EV?$allocator@E@std@@@std@@@0@$$QEAV10@@Z
	??$_To_address@PEAD@std@@YA?A_PAEBQEAD@Z
	??$_To_address@PEAE@std@@YA?A_PAEBQEAE@Z
	??$_To_address@PEBE@std@@YA?A_PAEBQEBE@Z
	??$_Traits_compare@U?$char_traits@D@std@@@std@@YAHQEBD_K01@Z
	??$_Traits_find_ch@U?$char_traits@D@std@@@std@@YA_KQEBD_K1D@Z
	??$_Unfancy@$$CBD@std@@YAPEBDPEBD@Z
	??$_Unfancy@D@std@@YAPEADPEAD@Z
	??$_Unfancy@E@std@@YAPEAEPEAE@Z
	??$_Unfancy@U_Container_proxy@std@@@std@@YAPEAU_Container_proxy@0@PEAU10@@Z
	??$_Uninitialized_copy@PEAEV?$allocator@E@std@@@std@@YAPEAEQEAE0PEAEAEAV?$allocator@E@0@@Z
	??$_Uninitialized_move@PEAEV?$allocator@E@std@@@std@@YAPEAEQEAE0PEAEAEAV?$allocator@E@0@@Z
	??$_Uninitialized_value_construct_n@V?$allocator@E@std@@@std@@YAPEAEPEAE_KAEAV?$allocator@E@0@@Z
	??$_Verify_range@D@std@@YAXQEBD0@Z
	??$_Verify_range@E@std@@YAXQEBE0@Z
	??$_Verify_range@U?$pair@$$CBV?$basic_string@DU?$char_traits@D@std@@V?$allocator@D@2@@std@@G@std@@@std@@YAXQEBU?$pair@$$CBV?$basic_string@DU?$char_traits@D@std@@V?$allocator@D@2@@std@@G@0@0@Z
	??$_Verify_range@_K@std@@YAXQEB_K0@Z
	??$_Voidify_iter@PEAE@std@@YAPEAXPEAE@Z
	??$_Voidify_iter@PEAPEAD@std@@YAPEAXPEAPEAD@Z
	??$_Voidify_iter@PEAPEAU?$_Tree_node@U?$pair@$$CBV?$basic_string@DU?$char_traits@D@std@@V?$allocator@D@2@@std@@G@std@@PEAX@std@@@std@@YAPEAXPEAPEAU?$_Tree_node@U?$pair@$$CBV?$basic_string@DU?$char_traits@D@std@@V?$allocator@D@2@@std@@G@std@@PEAX@0@@Z
	??$_Voidify_iter@PEAU?$pair@$$CBV?$basic_string@DU?$char_traits@D@std@@V?$allocator@D@2@@std@@G@std@@@std@@YAPEAXPEAU?$pair@$$CBV?$basic_string@DU?$char_traits@D@std@@V?$allocator@D@2@@std@@G@0@@Z
	??$_Voidify_iter@PEAUScheduledCallback@ManualRuntime@vanetza@@@std@@YAPEAXPEAUScheduledCallback@ManualRuntime@vanetza@@@Z
	??$_Voidify_iter@PEAU_Container_proxy@std@@@std@@YAPEAXPEAU_Container_proxy@0@@Z
	??$_Zero_range@PEAE@std@@YAPEAEQEAE0@Z
	??$absolute_value@_J@date_time@boost@@YA_J_J@Z
	??$add@PEAU?$ordered_index_node_impl@Unull_augment_policy@detail@multi_index@boost@@V?$allocator@D@std@@@detail@multi_index@boost@@@null_augment_policy@detail@multi_index@boost@@SAXPEAU?$ordered_index_node_impl@Unull_augment_policy@detail@multi_index@boost@@V?$allocator@D@std@@@123@0@Z
	??$addressof@$$CBU?$pair@$$CBV?$basic_string@DU?$char_traits@D@std@@V?$allocator@D@2@@std@@G@std@@@std@@YAPEBU?$pair@$$CBV?$basic_string@DU?$char_traits@D@std@@V?$allocator@D@2@@std@@G@0@AEBU10@@Z
	??$addressof@$$CBUScheduledCallback@ManualRuntime@vanetza@@@boost@@YAPEBUScheduledCallback@ManualRuntime@vanetza@@AEBU123@@Z
	??$addressof@$$CBV?$_String_val@U?$_Simple_types@D@std@@@std@@@std@@YAPEBV?$_String_val@U?$_Simple_types@D@std@@@0@AEBV10@@Z
	??$addressof@$$CBV?$_Tree_val@U?$_Tree_simple_types@U?$pair@$$CBV?$basic_string@DU?$char_traits@D@std@@V?$allocator@D@2@@std@@G@std@@@std@@@std@@@std@@YAPEBV?$_Tree_val@U?$_Tree_simple_types@U?$pair@$$CBV?$basic_string@DU?$char_traits@D@std@@V?$allocator@D@2@@std@@G@std@@@std@@@0@AEBV10@@Z
	??$addressof@$$CBV?$_Vector_val@U?$_Simple_types@E@std@@@std@@@std@@YAPEBV?$_Vector_val@U?$_Simple_types@E@std@@@0@AEBV10@@Z
	??$addressof@$$CBV?$basic_string@DU?$char_traits@D@std@@V?$allocator@D@2@@std@@@boost@@YAPEBV?$basic_string@DU?$char_traits@D@std@@V?$allocator@D@2@@std@@AEBV12@@Z
	??$addressof@$$CBV?$vector@EV?$allocator@E@std@@@std@@@std@@YAPEBV?$vector@EV?$allocator@E@std@@@0@AEBV10@@Z
	??$addressof@E@std@@YAPEAEAEAE@Z
	??$addressof@PEAD@std@@YAPEAPEADAEAPEAD@Z
	??$addressof@PEAU?$_Tree_node@U?$pair@$$CBV?$basic_string@DU?$char_traits@D@std@@V?$allocator@D@2@@std@@G@std@@PEAX@std@@@std@@YAPEAPEAU?$_Tree_node@U?$pair@$$CBV?$basic_string@DU?$char_traits@D@std@@V?$allocator@D@2@@std@@G@std@@PEAX@0@AEAPEAU10@@Z
	??$addressof@U?$pair@$$CBV?$basic_string@DU?$char_traits@D@std@@V?$allocator@D@2@@std@@G@std@@@std@@YAPEAU?$pair@$$CBV?$basic_string@DU?$char_traits@D@std@@V?$allocator@D@2@@std@@G@0@AEAU10@@Z
	??$addressof@UScheduledCallback@ManualRuntime@vanetza@@@boost@@YAPEAUScheduledCallback@ManualRuntime@vanetza@@AEAU123@@Z
	??$addressof@U_Container_base12@std@@@std@@YAPEAU_Container_base12@0@AEAU10@@Z
	??$addressof@U_Container_proxy@std@@@std@@YAPEAU_Container_proxy@0@AEAU10@@Z
	??$addressof@V?$_String_val@U?$_Simple_types@D@std@@@std@@@std@@YAPEAV?$_String_val@U?$_Simple_types@D@std@@@0@AEAV10@@Z
	??$addressof@V?$_Tree_val@U?$_Tree_simple_types@U?$pair@$$CBV?$basic_string@DU?$char_traits@D@std@@V?$allocator@D@2@@std@@G@std@@@std@@@std@@@std@@YAPEAV?$_Tree_val@U?$_Tree_simple_types@U?$pair@$$CBV?$basic_string@DU?$char_traits@D@std@@V?$allocator@D@2@@std@@G@std@@@std@@@0@AEAV10@@Z
	??$addressof@V?$_Vector_val@U?$_Simple_types@E@std@@@std@@@std@@YAPEAV?$_Vector_val@U?$_Simple_types@E@std@@@0@AEAV10@@Z
	??$addressof@V?$basic_string@DU?$char_traits@D@std@@V?$allocator@D@2@@std@@@std@@YAPEAV?$basic_string@DU?$char_traits@D@std@@V?$allocator@D@2@@0@AEAV10@@Z
	??$addressof@V?$unique_ptr@Ubyte_buffer@convertible@vanetza@@U?$default_delete@Ubyte_buffer@convertible@vanetza@@@std@@@std@@@std@@YAPEAV?$unique_ptr@Ubyte_buffer@convertible@vanetza@@U?$default_delete@Ubyte_buffer@convertible@vanetza@@@std@@@0@AEAV10@@Z
	??$addressof@V?$vector@EV?$allocator@E@std@@@std@@@std@@YAPEAV?$vector@EV?$allocator@E@std@@@0@AEAV10@@Z
	??$adl_swap@U?$equal_to@PEBX@std@@@detail@multi_index@boost@@YAXAEAU?$equal_to@PEBX@std@@0@Z
	??$adl_swap@U?$hash@PEBX@boost@@@detail@multi_index@boost@@YAXAEAU?$hash@PEBX@2@0@Z
	??$adl_swap@U?$less@V?$time_point@VClock@vanetza@@V?$duration@_JU?$ratio@$00$0PECEA@@std@@@chrono@std@@@chrono@std@@@std@@@detail@multi_index@boost@@YAXAEAU?$less@V?$time_point@VClock@vanetza@@V?$duration@_JU?$ratio@$00$0PECEA@@std@@@chrono@std@@@chrono@std@@@std@@0@Z
	??$adl_swap@U?$member@UScheduledCallback@ManualRuntime@vanetza@@PEBX$0EI@@multi_index@boost@@@detail@multi_index@boost@@YAXAEAU?$member@UScheduledCallback@ManualRuntime@vanetza@@PEBX$0EI@@12@0@Z
	??$adl_swap@U?$member@UScheduledCallback@ManualRuntime@vanetza@@V?$time_point@VClock@vanetza@@V?$duration@_JU?$ratio@$00$0PECEA@@std@@@chrono@std@@@chrono@std@@$0A@@multi_index@boost@@@detail@multi_index@boost@@YAXAEAU?$member@UScheduledCallback@ManualRuntime@vanetza@@V?$time_point@VClock@vanetza@@V?$duration@_JU?$ratio@$00$0PECEA@@std@@@chrono@std@@@chrono@std@@$0A@@12@0@Z
	??$advance@PEAE_J@std@@YAXAEAPEAE_J@Z
	??$advance@PEB_K_J@std@@YAXAEAPEB_K_J@Z
	??$advance@V?$_Vector_const_iterator@V?$_Vector_val@U?$_Simple_types@E@std@@@std@@@std@@_J@std@@YAXAEAV?$_Vector_const_iterator@V?$_Vector_val@U?$_Simple_types@E@std@@@std@@@0@_J@Z
	??$assign@PEAE$0A@@?$vector@EV?$allocator@E@std@@@std@@QEAAXPEAE0@Z
	??$assign@V?$_String_const_iterator@V?$_String_val@U?$_Simple_types@D@std@@@std@@@std@@$0A@@?$basic_string@DU?$char_traits@D@std@@V?$allocator@D@2@@std@@QEAAAEAV01@V?$_String_const_iterator@V?$_String_val@U?$_Simple_types@D@std@@@std@@@1@0@Z
	??$assign@V?$_String_const_iterator@V?$_String_val@U?$_Simple_types@D@std@@@std@@@std@@V?$basic_string@DU?$char_traits@D@std@@V?$allocator@D@2@@2@@?$assign_or_plus_equal@Urandom_access_iterator_tag@std@@@tokenizer_detail@boost@@SAXV?$_String_const_iterator@V?$_String_val@U?$_Simple_types@D@std@@@std@@@std@@0AEAV?$basic_string@DU?$char_traits@D@std@@V?$allocator@D@2@@4@@Z
	??$back_inserter@V?$vector@EV?$allocator@E@std@@@std@@@std@@YA?AV?$back_insert_iterator@V?$vector@EV?$allocator@E@std@@@std@@@0@AEAV?$vector@EV?$allocator@E@std@@@0@@Z
	??$clear@V?$basic_string@DU?$char_traits@D@std@@V?$allocator@D@2@@std@@@?$assign_or_plus_equal@Urandom_access_iterator_tag@std@@@tokenizer_detail@boost@@SAXAEAV?$basic_string@DU?$char_traits@D@std@@V?$allocator@D@2@@std@@@Z
	??$construct@E$$V@?$_Default_allocator_traits@V?$allocator@E@std@@@std@@SAXAEAV?$allocator@E@1@QEAE@Z
	??$construct@EAEAE@?$_Default_allocator_traits@V?$allocator@E@std@@@std@@SAXAEAV?$allocator@E@1@QEAEAEAE@Z
	??$construct@EE@?$_Default_allocator_traits@V?$allocator@E@std@@@std@@SAXAEAV?$allocator@E@1@QEAE$$QEAE@Z
	??$construct@U?$pair@$$CBV?$basic_string@DU?$char_traits@D@std@@V?$allocator@D@2@@std@@G@std@@AEBU12@@?$_Default_allocator_traits@V?$allocator@U?$_Tree_node@U?$pair@$$CBV?$basic_string@DU?$char_traits@D@std@@V?$allocator@D@2@@std@@G@std@@PEAX@std@@@std@@@std@@SAXAEAV?$allocator@U?$_Tree_node@U?$pair@$$CBV?$basic_string@DU?$char_traits@D@std@@V?$allocator@D@2@@std@@G@std@@PEAX@std@@@1@QEAU?$pair@$$CBV?$basic_string@DU?$char_traits@D@std@@V?$allocator@D@2@@std@@G@1@AEBU31@@Z
	??$construct@UScheduledCallback@ManualRuntime@vanetza@@U123@@?$_Default_allocator_traits@V?$allocator@U?$ordered_index_node@Unull_augment_policy@detail@multi_index@boost@@U?$hashed_index_node@U?$index_node_base@UScheduledCallback@ManualRuntime@vanetza@@V?$allocator@UScheduledCallback@ManualRuntime@vanetza@@@std@@@detail@multi_index@boost@@@234@@detail@multi_index@boost@@@std@@@std@@SAXAEAV?$allocator@U?$ordered_index_node@Unull_augment_policy@detail@multi_index@boost@@U?$hashed_index_node@U?$index_node_base@UScheduledCallback@ManualRuntime@vanetza@@V?$allocator@UScheduledCallback@ManualRuntime@vanetza@@@std@@@detail@multi_index@boost@@@234@@detail@multi_index@boost@@@1@QEAUScheduledCallback@ManualRuntime@vanetza@@$$QEAU345@@Z
	??$copy@PEAU?$ordered_index_node_impl@Unull_augment_policy@detail@multi_index@boost@@V?$allocator@D@std@@@detail@multi_index@boost@@@null_augment_policy@detail@multi_index@boost@@SAXPEAU?$ordered_index_node_impl@Unull_augment_policy@detail@multi_index@boost@@V?$allocator@D@std@@@123@0@Z
	??$copy@PEBDV?$back_insert_iterator@V?$vector@EV?$allocator@E@std@@@std@@@std@@@std@@YA?AV?$back_insert_iterator@V?$vector@EV?$allocator@E@std@@@std@@@0@PEBD0V10@@Z
	??$copy@V?$_String_const_iterator@V?$_String_val@U?$_Simple_types@D@std@@@std@@@std@@V?$back_insert_iterator@V?$vector@EV?$allocator@E@std@@@std@@@2@@std@@YA?AV?$back_insert_iterator@V?$vector@EV?$allocator@E@std@@@std@@@0@V?$_String_const_iterator@V?$_String_val@U?$_Simple_types@D@std@@@std@@@0@0V10@@Z
	??$copy@V?$_Vector_const_iterator@V?$_Vector_val@U?$_Simple_types@E@std@@@std@@@std@@PEAD@std@@YAPEADV?$_Vector_const_iterator@V?$_Vector_val@U?$_Simple_types@E@std@@@std@@@0@0PEAD@Z
	??$dereference@V?$token_iterator@V?$char_separator@DU?$char_traits@D@std@@@boost@@V?$_String_const_iterator@V?$_String_val@U?$_Simple_types@D@std@@@std@@@std@@V?$basic_string@DU?$char_traits@D@std@@V?$allocator@D@2@@4@@boost@@@iterator_core_access@iterators@boost@@CAAEBV?$basic_string@DU?$char_traits@D@std@@V?$allocator@D@2@@std@@AEBV?$token_iterator@V?$char_separator@DU?$char_traits@D@std@@@boost@@V?$_String_const_iterator@V?$_String_val@U?$_Simple_types@D@std@@@std@@@std@@V?$basic_string@DU?$char_traits@D@std@@V?$allocator@D@2@@4@@2@@Z
	??$destroy@U?$pair@$$CBV?$basic_string@DU?$char_traits@D@std@@V?$allocator@D@2@@std@@G@std@@@?$_Default_allocator_traits@V?$allocator@U?$_Tree_node@U?$pair@$$CBV?$basic_string@DU?$char_traits@D@std@@V?$allocator@D@2@@std@@G@std@@PEAX@std@@@std@@@std@@SAXAEAV?$allocator@U?$_Tree_node@U?$pair@$$CBV?$basic_string@DU?$char_traits@D@std@@V?$allocator@D@2@@std@@G@std@@PEAX@std@@@1@QEAU?$pair@$$CBV?$basic_string@DU?$char_traits@D@std@@V?$allocator@D@2@@std@@G@1@@Z
	??$destroy@UScheduledCallback@ManualRuntime@vanetza@@@?$_Default_allocator_traits@V?$allocator@U?$ordered_index_node@Unull_augment_policy@detail@multi_index@boost@@U?$hashed_index_node@U?$index_node_base@UScheduledCallback@ManualRuntime@vanetza@@V?$allocator@UScheduledCallback@ManualRuntime@vanetza@@@std@@@detail@multi_index@boost@@@234@@detail@multi_index@boost@@@std@@@std@@SAXAEAV?$allocator@U?$ordered_index_node@Unull_augment_policy@detail@multi_index@boost@@U?$hashed_index_node@U?$index_node_base@UScheduledCallback@ManualRuntime@vanetza@@V?$allocator@UScheduledCallback@ManualRuntime@vanetza@@@std@@@detail@multi_index@boost@@@234@@detail@multi_index@boost@@@1@QEAUScheduledCallback@ManualRuntime@vanetza@@@Z
	??$distance@PEAE@std@@YA_JPEAE0@Z
	??$distance@PEB_K@std@@YA_JPEB_K0@Z
	??$distance@V?$_Vector_const_iterator@V?$_Vector_val@U?$_Simple_types@E@std@@@std@@@std@@@std@@YA_JV?$_Vector_const_iterator@V?$_Vector_val@U?$_Simple_types@E@std@@@std@@@0@0@Z
	??$emplace@UScheduledCallback@ManualRuntime@vanetza@@@?$ordered_index_impl@U?$member@UScheduledCallback@ManualRuntime@vanetza@@V?$time_point@VClock@vanetza@@V?$duration@_JU?$ratio@$00$0PECEA@@std@@@chrono@std@@@chrono@std@@$0A@@multi_index@boost@@U?$less@V?$time_point@VClock@vanetza@@V?$duration@_JU?$ratio@$00$0PECEA@@std@@@chrono@std@@@chrono@std@@@std@@U?$nth_layer@$00UScheduledCallback@ManualRuntime@vanetza@@U?$indexed_by@U?$ordered_non_unique@U?$tag@Uby_deadline@ManualRuntime@vanetza@@Una@mpl@boost@@U456@U456@U456@U456@U456@U456@U456@U456@U456@U456@U456@U456@U456@U456@U456@U456@U456@U456@@multi_index@boost@@U?$member@UScheduledCallback@ManualRuntime@vanetza@@V?$time_point@VClock@vanetza@@V?$duration@_JU?$ratio@$00$0PECEA@@std@@@chrono@std@@@chrono@std@@$0A@@23@Una@mpl@3@@multi_index@boost@@U?$hashed_non_unique@U?$tag@Uby_scope@ManualRuntime@vanetza@@Una@mpl@boost@@U456@U456@U456@U456@U456@U456@U456@U456@U456@U456@U456@U456@U456@U456@U456@U456@U456@U456@@multi_index@boost@@U?$member@UScheduledCallback@ManualRuntime@vanetza@@PEBX$0EI@@23@Una@mpl@3@U563@@23@Una@mpl@3@U563@U563@U563@U563@U563@U563@U563@U563@U563@U563@U563@U563@U563@U563@U563@U563@U563@@multi_index@boost@@V?$allocator@UScheduledCallback@ManualRuntime@vanetza@@@std@@@detail@23@U?$vector1@Uby_deadline@ManualRuntime@vanetza@@@mpl@3@Uordered_non_unique_tag@723@Unull_augment_policy@723@@detail@multi_index@boost@@QEAA?AU?$pair@V?$bidir_node_iterator@U?$ordered_index_node@Unull_augment_policy@detail@multi_index@boost@@U?$hashed_index_node@U?$index_node_base@UScheduledCallback@ManualRuntime@vanetza@@V?$allocator@UScheduledCallback@ManualRuntime@vanetza@@@std@@@detail@multi_index@boost@@@234@@detail@multi_index@boost@@@detail@multi_index@boost@@_N@std@@$$QEAUScheduledCallback@ManualRuntime@vanetza@@@Z
	??$emplace_@UScheduledCallback@ManualRuntime@vanetza@@@?$multi_index_container@UScheduledCallback@ManualRuntime@vanetza@@U?$indexed_by@U?$ordered_non_unique@U?$tag@Uby_deadline@ManualRuntime@vanetza@@Una@mpl@boost@@U456@U456@U456@U456@U456@U456@U456@U456@U456@U456@U456@U456@U456@U456@U456@U456@U456@U456@@multi_index@boost@@U?$member@UScheduledCallback@ManualRuntime@vanetza@@V?$time_point@VClock@vanetza@@V?$duration@_JU?$ratio@$00$0PECEA@@std@@@chrono@std@@@chrono@std@@$0A@@23@Una@mpl@3@@multi_index@boost@@U?$hashed_non_unique@U?$tag@Uby_scope@ManualRuntime@vanetza@@Una@mpl@boost@@U456@U456@U456@U456@U456@U456@U456@U456@U456@U456@U456@U456@U456@U456@U456@U456@U456@U456@@multi_index@boost@@U?$member@UScheduledCallback@ManualRuntime@vanetza@@PEBX$0EI@@23@Una@mpl@3@U563@@23@Una@mpl@3@U563@U563@U563@U563@U563@U563@U563@U563@U563@U563@U563@U563@U563@U563@U563@U563@U563@@multi_index@boost@@V?$allocator@UScheduledCallback@ManualRuntime@vanetza@@@std@@@multi_index@boost@@IEAA?AU?$pair@PEAU?$ordered_index_node@Unull_augment_policy@detail@multi_index@boost@@U?$hashed_index_node@U?$index_node_base@UScheduledCallback@ManualRuntime@vanetza@@V?$allocator@UScheduledCallback@ManualRuntime@vanetza@@@std@@@detail@multi_index@boost@@@234@@detail@multi_index@boost@@_N@std@@$$QEAUScheduledCallback@ManualRuntime@vanetza@@@Z
	??$emplace_back@E@?$vector@EV?$allocator@E@std@@@std@@QEAA?A_T$$QEAE@Z
	??$emplace_impl@UScheduledCallback@ManualRuntime@vanetza@@@?$ordered_index_impl@U?$member@UScheduledCallback@ManualRuntime@vanetza@@V?$time_point@VClock@vanetza@@V?$duration@_JU?$ratio@$00$0PECEA@@std@@@chrono@std@@@chrono@std@@$0A@@multi_index@boost@@U?$less@V?$time_point@VClock@vanetza@@V?$duration@_JU?$ratio@$00$0PECEA@@std@@@chrono@std@@@chrono@std@@@std@@U?$nth_layer@$00UScheduledCallback@ManualRuntime@vanetza@@U?$indexed_by@U?$ordered_non_unique@U?$tag@Uby_deadline@ManualRuntime@vanetza@@Una@mpl@boost@@U456@U456@U456@U456@U456@U456@U456@U456@U456@U456@U456@U456@U456@U456@U456@U456@U456@U456@@multi_index@boost@@U?$member@UScheduledCallback@ManualRuntime@vanetza@@V?$time_point@VClock@vanetza@@V?$duration@_JU?$ratio@$00$0PECEA@@std@@@chrono@std@@@chrono@std@@$0A@@23@Una@mpl@3@@multi_index@boost@@U?$hashed_non_unique@U?$tag@Uby_scope@ManualRuntime@vanetza@@Una@mpl@boost@@U456@U456@U456@U456@U456@U456@U456@U456@U456@U456@U456@U456@U456@U456@U456@U456@U456@U456@@multi_index@boost@@U?$member@UScheduledCallback@ManualRuntime@vanetza@@PEBX$0EI@@23@Una@mpl@3@U563@@23@Una@mpl@3@U563@U563@U563@U563@U563@U563@U563@U563@U563@U563@U563@U563@U563@U563@U563@U563@U563@@multi_index@boost@@V?$allocator@UScheduledCallback@ManualRuntime@vanetza@@@std@@@detail@23@U?$vector1@Uby_deadline@ManualRuntime@vanetza@@@mpl@3@Uordered_non_unique_tag@723@Unull_augment_policy@723@@detail@multi_index@boost@@AEAA?AU?$pair@V?$bidir_node_iterator@U?$ordered_index_node@Unull_augment_policy@detail@multi_index@boost@@U?$hashed_index_node@U?$index_node_base@UScheduledCallback@ManualRuntime@vanetza@@V?$allocator@UScheduledCallback@ManualRuntime@vanetza@@@std@@@detail@multi_index@boost@@@234@@detail@multi_index@boost@@@detail@multi_index@boost@@_N@std@@$$QEAUScheduledCallback@ManualRuntime@vanetza@@@Z
	??$equal@V?$token_iterator@V?$char_separator@DU?$char_traits@D@std@@@boost@@V?$_String_const_iterator@V?$_String_val@U?$_Simple_types@D@std@@@std@@@std@@V?$basic_string@DU?$char_traits@D@std@@V?$allocator@D@2@@4@@boost@@@?$token_iterator@V?$char_separator@DU?$char_traits@D@std@@@boost@@V?$_String_const_iterator@V?$_String_val@U?$_Simple_types@D@std@@@std@@@std@@V?$basic_string@DU?$char_traits@D@std@@V?$allocator@D@2@@4@@boost@@AEBA_NAEBV01@@Z
	??$equal@V?$token_iterator@V?$char_separator@DU?$char_traits@D@std@@@boost@@V?$_String_const_iterator@V?$_String_val@U?$_Simple_types@D@std@@@std@@@std@@V?$basic_string@DU?$char_traits@D@std@@V?$allocator@D@2@@4@@boost@@V12@@iterator_core_access@iterators@boost@@CA_NAEBV?$token_iterator@V?$char_separator@DU?$char_traits@D@std@@@boost@@V?$_String_const_iterator@V?$_String_val@U?$_Simple_types@D@std@@@std@@@std@@V?$basic_string@DU?$char_traits@D@std@@V?$allocator@D@2@@4@@2@0U?$bool_@$00@mpl@2@@Z
	??$equal_range@PEBX@?$hashed_index@U?$member@UScheduledCallback@ManualRuntime@vanetza@@PEBX$0EI@@multi_index@boost@@U?$hash@PEBX@3@U?$equal_to@PEBX@std@@U?$nth_layer@$01UScheduledCallback@ManualRuntime@vanetza@@U?$indexed_by@U?$ordered_non_unique@U?$tag@Uby_deadline@ManualRuntime@vanetza@@Una@mpl@boost@@U456@U456@U456@U456@U456@U456@U456@U456@U456@U456@U456@U456@U456@U456@U456@U456@U456@U456@@multi_index@boost@@U?$member@UScheduledCallback@ManualRuntime@vanetza@@V?$time_point@VClock@vanetza@@V?$duration@_JU?$ratio@$00$0PECEA@@std@@@chrono@std@@@chrono@std@@$0A@@23@Una@mpl@3@@multi_index@boost@@U?$hashed_non_unique@U?$tag@Uby_scope@ManualRuntime@vanetza@@Una@mpl@boost@@U456@U456@U456@U456@U456@U456@U456@U456@U456@U456@U456@U456@U456@U456@U456@U456@U456@U456@@multi_index@boost@@U?$member@UScheduledCallback@ManualRuntime@vanetza@@PEBX$0EI@@23@Una@mpl@3@U563@@23@Una@mpl@3@U563@U563@U563@U563@U563@U563@U563@U563@U563@U563@U563@U563@U563@U563@U563@U563@U563@@multi_index@boost@@V?$allocator@UScheduledCallback@ManualRuntime@vanetza@@@std@@@detail@23@U?$vector1@Uby_scope@ManualRuntime@vanetza@@@mpl@3@Uhashed_non_unique_tag@823@@detail@multi_index@boost@@QEBA?AU?$pair@V?$hashed_index_iterator@U?$hashed_index_node@U?$index_node_base@UScheduledCallback@ManualRuntime@vanetza@@V?$allocator@UScheduledCallback@ManualRuntime@vanetza@@@std@@@detail@multi_index@boost@@@detail@multi_index@boost@@V?$bucket_array@V?$allocator@UScheduledCallback@ManualRuntime@vanetza@@@std@@@234@Uhashed_non_unique_tag@234@Uhashed_index_global_iterator_tag@234@@detail@multi_index@boost@@V1234@@std@@AEBQEBX@Z
	??$equal_range@PEBXU?$hash@PEBX@boost@@U?$equal_to@PEBX@std@@@?$hashed_index@U?$member@UScheduledCallback@ManualRuntime@vanetza@@PEBX$0EI@@multi_index@boost@@U?$hash@PEBX@3@U?$equal_to@PEBX@std@@U?$nth_layer@$01UScheduledCallback@ManualRuntime@vanetza@@U?$indexed_by@U?$ordered_non_unique@U?$tag@Uby_deadline@ManualRuntime@vanetza@@Una@mpl@boost@@U456@U456@U456@U456@U456@U456@U456@U456@U456@U456@U456@U456@U456@U456@U456@U456@U456@U456@@multi_index@boost@@U?$member@UScheduledCallback@ManualRuntime@vanetza@@V?$time_point@VClock@vanetza@@V?$duration@_JU?$ratio@$00$0PECEA@@std@@@chrono@std@@@chrono@std@@$0A@@23@Una@mpl@3@@multi_index@boost@@U?$hashed_non_unique@U?$tag@Uby_scope@ManualRuntime@vanetza@@Una@mpl@boost@@U456@U456@U456@U456@U456@U456@U456@U456@U456@U456@U456@U456@U456@U456@U456@U456@U456@U456@@multi_index@boost@@U?$member@UScheduledCallback@ManualRuntime@vanetza@@PEBX$0EI@@23@Una@mpl@3@U563@@23@Una@mpl@3@U563@U563@U563@U563@U563@U563@U563@U563@U563@U563@U563@U563@U563@U563@U563@U563@U563@@multi_index@boost@@V?$allocator@UScheduledCallback@ManualRuntime@vanetza@@@std@@@detail@23@U?$vector1@Uby_scope@ManualRuntime@vanetza@@@mpl@3@Uhashed_non_unique_tag@823@@detail@multi_index@boost@@AEBA?AU?$pair@V?$hashed_index_iterator@U?$hashed_index_node@U?$index_node_base@UScheduledCallback@ManualRuntime@vanetza@@V?$allocator@UScheduledCallback@ManualRuntime@vanetza@@@std@@@detail@multi_index@boost@@@detail@multi_index@boost@@V?$bucket_array@V?$allocator@UScheduledCallback@ManualRuntime@vanetza@@@std@@@234@Uhashed_non_unique_tag@234@Uhashed_index_global_iterator_tag@234@@detail@multi_index@boost@@V1234@@std@@AEBQEBXAEBU?$hash@PEBX@3@AEBU?$equal_to@PEBX@5@U?$bool_@$0A@@mpl@3@@Z
	??$equal_range@PEBXU?$hash@PEBX@boost@@U?$equal_to@PEBX@std@@@?$hashed_index@U?$member@UScheduledCallback@ManualRuntime@vanetza@@PEBX$0EI@@multi_index@boost@@U?$hash@PEBX@3@U?$equal_to@PEBX@std@@U?$nth_layer@$01UScheduledCallback@ManualRuntime@vanetza@@U?$indexed_by@U?$ordered_non_unique@U?$tag@Uby_deadline@ManualRuntime@vanetza@@Una@mpl@boost@@U456@U456@U456@U456@U456@U456@U456@U456@U456@U456@U456@U456@U456@U456@U456@U456@U456@U456@@multi_index@boost@@U?$member@UScheduledCallback@ManualRuntime@vanetza@@V?$time_point@VClock@vanetza@@V?$duration@_JU?$ratio@$00$0PECEA@@std@@@chrono@std@@@chrono@std@@$0A@@23@Una@mpl@3@@multi_index@boost@@U?$hashed_non_unique@U?$tag@Uby_scope@ManualRuntime@vanetza@@Una@mpl@boost@@U456@U456@U456@U456@U456@U456@U456@U456@U456@U456@U456@U456@U456@U456@U456@U456@U456@U456@@multi_index@boost@@U?$member@UScheduledCallback@ManualRuntime@vanetza@@PEBX$0EI@@23@Una@mpl@3@U563@@23@Una@mpl@3@U563@U563@U563@U563@U563@U563@U563@U563@U563@U563@U563@U563@U563@U563@U563@U563@U563@@multi_index@boost@@V?$allocator@UScheduledCallback@ManualRuntime@vanetza@@@std@@@detail@23@U?$vector1@Uby_scope@ManualRuntime@vanetza@@@mpl@3@Uhashed_non_unique_tag@823@@detail@multi_index@boost@@QEBA?AU?$pair@V?$hashed_index_iterator@U?$hashed_index_node@U?$index_node_base@UScheduledCallback@ManualRuntime@vanetza@@V?$allocator@UScheduledCallback@ManualRuntime@vanetza@@@std@@@detail@multi_index@boost@@@detail@multi_index@boost@@V?$bucket_array@V?$allocator@UScheduledCallback@ManualRuntime@vanetza@@@std@@@234@Uhashed_non_unique_tag@234@Uhashed_index_global_iterator_tag@234@@detail@multi_index@boost@@V1234@@std@@AEBQEBXAEBU?$hash@PEBX@3@AEBU?$equal_to@PEBX@5@@Z
	??$exchange@PEAE$$T@std@@YAPEAEAEAPEAE$$QEA$$T@Z
	??$exchange@PEAU?$_Tree_node@U?$pair@$$CBV?$basic_string@DU?$char_traits@D@std@@V?$allocator@D@2@@std@@G@std@@PEAX@std@@$$T@std@@YAPEAU?$_Tree_node@U?$pair@$$CBV?$basic_string@DU?$char_traits@D@std@@V?$allocator@D@2@@std@@G@std@@PEAX@0@AEAPEAU10@$$QEA$$T@Z
	??$exchange@PEAU?$_Tree_node@U?$pair@$$CBV?$basic_string@DU?$char_traits@D@std@@V?$allocator@D@2@@std@@G@std@@PEAX@std@@AEAPEAU12@@std@@YAPEAU?$_Tree_node@U?$pair@$$CBV?$basic_string@DU?$char_traits@D@std@@V?$allocator@D@2@@std@@G@std@@PEAX@0@AEAPEAU10@0@Z
	??$exchange@PEAU_Container_proxy@std@@$$T@std@@YAPEAU_Container_proxy@0@AEAPEAU10@$$QEA$$T@Z
	??$exchange@PEAUbyte_buffer@convertible@vanetza@@$$T@std@@YAPEAUbyte_buffer@convertible@vanetza@@AEAPEAU123@$$QEA$$T@Z
	??$exchange@PEAUbyte_buffer@convertible@vanetza@@AEAPEAU123@@std@@YAPEAUbyte_buffer@convertible@vanetza@@AEAPEAU123@0@Z
	??$exchange@PEAV_Facet_base@std@@$$T@std@@YAPEAV_Facet_base@0@AEAPEAV10@$$QEA$$T@Z
	??$exchange@PEAX$$T@std@@YAPEAXAEAPEAX$$QEA$$T@Z
	??$extract_@Uinvalidate_iterators@detail@multi_index@boost@@@?$hashed_index@U?$member@UScheduledCallback@ManualRuntime@vanetza@@PEBX$0EI@@multi_index@boost@@U?$hash@PEBX@3@U?$equal_to@PEBX@std@@U?$nth_layer@$01UScheduledCallback@ManualRuntime@vanetza@@U?$indexed_by@U?$ordered_non_unique@U?$tag@Uby_deadline@ManualRuntime@vanetza@@Una@mpl@boost@@U456@U456@U456@U456@U456@U456@U456@U456@U456@U456@U456@U456@U456@U456@U456@U456@U456@U456@@multi_index@boost@@U?$member@UScheduledCallback@ManualRuntime@vanetza@@V?$time_point@VClock@vanetza@@V?$duration@_JU?$ratio@$00$0PECEA@@std@@@chrono@std@@@chrono@std@@$0A@@23@Una@mpl@3@@multi_index@boost@@U?$hashed_non_unique@U?$tag@Uby_scope@ManualRuntime@vanetza@@Una@mpl@boost@@U456@U456@U456@U456@U456@U456@U456@U456@U456@U456@U456@U456@U456@U456@U456@U456@U456@U456@@multi_index@boost@@U?$member@UScheduledCallback@ManualRuntime@vanetza@@PEBX$0EI@@23@Una@mpl@3@U563@@23@Una@mpl@3@U563@U563@U563@U563@U563@U563@U563@U563@U563@U563@U563@U563@U563@U563@U563@U563@U563@@multi_index@boost@@V?$allocator@UScheduledCallback@ManualRuntime@vanetza@@@std@@@detail@23@U?$vector1@Uby_scope@ManualRuntime@vanetza@@@mpl@3@Uhashed_non_unique_tag@823@@detail@multi_index@boost@@IEAAXPEAU?$hashed_index_node@U?$index_node_base@UScheduledCallback@ManualRuntime@vanetza@@V?$allocator@UScheduledCallback@ManualRuntime@vanetza@@@std@@@detail@multi_index@boost@@@123@Uinvalidate_iterators@123@@Z
	??$extract_@Uinvalidate_iterators@detail@multi_index@boost@@@?$index_base@UScheduledCallback@ManualRuntime@vanetza@@U?$indexed_by@U?$ordered_non_unique@U?$tag@Uby_deadline@ManualRuntime@vanetza@@Una@mpl@boost@@U456@U456@U456@U456@U456@U456@U456@U456@U456@U456@U456@U456@U456@U456@U456@U456@U456@U456@@multi_index@boost@@U?$member@UScheduledCallback@ManualRuntime@vanetza@@V?$time_point@VClock@vanetza@@V?$duration@_JU?$ratio@$00$0PECEA@@std@@@chrono@std@@@chrono@std@@$0A@@23@Una@mpl@3@@multi_index@boost@@U?$hashed_non_unique@U?$tag@Uby_scope@ManualRuntime@vanetza@@Una@mpl@boost@@U456@U456@U456@U456@U456@U456@U456@U456@U456@U456@U456@U456@U456@U456@U456@U456@U456@U456@@multi_index@boost@@U?$member@UScheduledCallback@ManualRuntime@vanetza@@PEBX$0EI@@23@Una@mpl@3@U563@@23@Una@mpl@3@U563@U563@U563@U563@U563@U563@U563@U563@U563@U563@U563@U563@U563@U563@U563@U563@U563@@multi_index@boost@@V?$allocator@UScheduledCallback@ManualRuntime@vanetza@@@std@@@detail@multi_index@boost@@IEAAXPEAU?$index_node_base@UScheduledCallback@ManualRuntime@vanetza@@V?$allocator@UScheduledCallback@ManualRuntime@vanetza@@@std@@@123@Uinvalidate_iterators@123@@Z
	??$extract_@Uinvalidate_iterators@detail@multi_index@boost@@@?$ordered_index_impl@U?$member@UScheduledCallback@ManualRuntime@vanetza@@V?$time_point@VClock@vanetza@@V?$duration@_JU?$ratio@$00$0PECEA@@std@@@chrono@std@@@chrono@std@@$0A@@multi_index@boost@@U?$less@V?$time_point@VClock@vanetza@@V?$duration@_JU?$ratio@$00$0PECEA@@std@@@chrono@std@@@chrono@std@@@std@@U?$nth_layer@$00UScheduledCallback@ManualRuntime@vanetza@@U?$indexed_by@U?$ordered_non_unique@U?$tag@Uby_deadline@ManualRuntime@vanetza@@Una@mpl@boost@@U456@U456@U456@U456@U456@U456@U456@U456@U456@U456@U456@U456@U456@U456@U456@U456@U456@U456@@multi_index@boost@@U?$member@UScheduledCallback@ManualRuntime@vanetza@@V?$time_point@VClock@vanetza@@V?$duration@_JU?$ratio@$00$0PECEA@@std@@@chrono@std@@@chrono@std@@$0A@@23@Una@mpl@3@@multi_index@boost@@U?$hashed_non_unique@U?$tag@Uby_scope@ManualRuntime@vanetza@@Una@mpl@boost@@U456@U456@U456@U456@U456@U456@U456@U456@U456@U456@U456@U456@U456@U456@U456@U456@U456@U456@@multi_index@boost@@U?$member@UScheduledCallback@ManualRuntime@vanetza@@PEBX$0EI@@23@Una@mpl@3@U563@@23@Una@mpl@3@U563@U563@U563@U563@U563@U563@U563@U563@U563@U563@U563@U563@U563@U563@U563@U563@U563@@multi_index@boost@@V?$allocator@UScheduledCallback@ManualRuntime@vanetza@@@std@@@detail@23@U?$vector1@Uby_deadline@ManualRuntime@vanetza@@@mpl@3@Uordered_non_unique_tag@723@Unull_augment_policy@723@@detail@multi_index@boost@@IEAAXPEAU?$ordered_index_node@Unull_augment_policy@detail@multi_index@boost@@U?$hashed_index_node@U?$index_node_base@UScheduledCallback@ManualRuntime@vanetza@@V?$allocator@UScheduledCallback@ManualRuntime@vanetza@@@std@@@detail@multi_index@boost@@@234@@123@Uinvalidate_iterators@123@@Z
	??$final_emplace_@UScheduledCallback@ManualRuntime@vanetza@@@?$index_base@UScheduledCallback@ManualRuntime@vanetza@@U?$indexed_by@U?$ordered_non_unique@U?$tag@Uby_deadline@ManualRuntime@vanetza@@Una@mpl@boost@@U456@U456@U456@U456@U456@U456@U456@U456@U456@U456@U456@U456@U456@U456@U456@U456@U456@U456@@multi_index@boost@@U?$member@UScheduledCallback@ManualRuntime@vanetza@@V?$time_point@VClock@vanetza@@V?$duration@_JU?$ratio@$00$0PECEA@@std@@@chrono@std@@@chrono@std@@$0A@@23@Una@mpl@3@@multi_index@boost@@U?$hashed_non_unique@U?$tag@Uby_scope@ManualRuntime@vanetza@@Una@mpl@boost@@U456@U456@U456@U456@U456@U456@U456@U456@U456@U456@U456@U456@U456@U456@U456@U456@U456@U456@@multi_index@boost@@U?$member@UScheduledCallback@ManualRuntime@vanetza@@PEBX$0EI@@23@Una@mpl@3@U563@@23@Una@mpl@3@U563@U563@U563@U563@U563@U563@U563@U563@U563@U563@U563@U563@U563@U563@U563@U563@U563@@multi_index@boost@@V?$allocator@UScheduledCallback@ManualRuntime@vanetza@@@std@@@detail@multi_index@boost@@IEAA?AU?$pair@PEAU?$ordered_index_node@Unull_augment_policy@detail@multi_index@boost@@U?$hashed_index_node@U?$index_node_base@UScheduledCallback@ManualRuntime@vanetza@@V?$allocator@UScheduledCallback@ManualRuntime@vanetza@@@std@@@detail@multi_index@boost@@@234@@detail@multi_index@boost@@_N@std@@$$QEAUScheduledCallback@ManualRuntime@vanetza@@@Z
	??$forward@AEAE@std@@YAAEAEAEAE@Z
	??$forward@AEAPEAD@std@@YAAEAPEADAEAPEAD@Z
	??$forward@AEAPEAU?$_Tree_node@U?$pair@$$CBV?$basic_string@DU?$char_traits@D@std@@V?$allocator@D@2@@std@@G@std@@PEAX@std@@@std@@YAAEAPEAU?$_Tree_node@U?$pair@$$CBV?$basic_string@DU?$char_traits@D@std@@V?$allocator@D@2@@std@@G@std@@PEAX@0@AEAPEAU10@@Z
	??$forward@AEAPEAU?$hashed_index_node_impl@V?$allocator@D@std@@@detail@multi_index@boost@@@std@@YAAEAPEAU?$hashed_index_node_impl@V?$allocator@D@std@@@detail@multi_index@boost@@AEAPEAU1234@@Z
	??$forward@AEAPEAU?$ordered_index_node@Unull_augment_policy@detail@multi_index@boost@@U?$hashed_index_node@U?$index_node_base@UScheduledCallback@ManualRuntime@vanetza@@V?$allocator@UScheduledCallback@ManualRuntime@vanetza@@@std@@@detail@multi_index@boost@@@234@@detail@multi_index@boost@@@std@@YAAEAPEAU?$ordered_index_node@Unull_augment_policy@detail@multi_index@boost@@U?$hashed_index_node@U?$index_node_base@UScheduledCallback@ManualRuntime@vanetza@@V?$allocator@UScheduledCallback@ManualRuntime@vanetza@@@std@@@detail@multi_index@boost@@@234@@detail@multi_index@boost@@AEAPEAU1234@@Z
	??$forward@AEAPEAUbyte_buffer@convertible@vanetza@@@std@@YAAEAPEAUbyte_buffer@convertible@vanetza@@AEAPEAU123@@Z
	??$forward@AEAPEAV_Facet_base@std@@@std@@YAAEAPEAV_Facet_base@0@AEAPEAV10@@Z
	??$forward@AEAPEB_K@std@@YAAEAPEB_KAEAPEB_K@Z
	??$forward@AEAY03$$CBD@std@@YAAEAY03$$CBDAEAY03$$CBD@Z
	??$forward@AEAY04$$CBD@std@@YAAEAY04$$CBDAEAY04$$CBD@Z
	??$forward@AEAY05$$CBD@std@@YAAEAY05$$CBDAEAY05$$CBD@Z
	??$forward@AEAY06$$CBD@std@@YAAEAY06$$CBDAEAY06$$CBD@Z
	??$forward@AEAY07$$CBD@std@@YAAEAY07$$CBDAEAY07$$CBD@Z
	??$forward@AEAY08$$CBD@std@@YAAEAY08$$CBDAEAY08$$CBD@Z
	??$forward@AEAY09$$CBD@std@@YAAEAY09$$CBDAEAY09$$CBD@Z
	??$forward@AEA_N@std@@YAAEA_NAEA_N@Z
	??$forward@AEBQEAD@std@@YAAEBQEADAEBQEAD@Z
	??$forward@AEBQEAU?$_Tree_node@U?$pair@$$CBV?$basic_string@DU?$char_traits@D@std@@V?$allocator@D@2@@std@@G@std@@PEAX@std@@@std@@YAAEBQEAU?$_Tree_node@U?$pair@$$CBV?$basic_string@DU?$char_traits@D@std@@V?$allocator@D@2@@std@@G@std@@PEAX@0@AEBQEAU10@@Z
	??$forward@AEBU?$less@V?$basic_string@DU?$char_traits@D@std@@V?$allocator@D@2@@std@@@std@@@std@@YAAEBU?$less@V?$basic_string@DU?$char_traits@D@std@@V?$allocator@D@2@@std@@@0@AEBU10@@Z
	??$forward@AEBU?$pair@$$CBV?$basic_string@DU?$char_traits@D@std@@V?$allocator@D@2@@std@@G@std@@@std@@YAAEBU?$pair@$$CBV?$basic_string@DU?$char_traits@D@std@@V?$allocator@D@2@@std@@G@0@AEBU10@@Z
	??$forward@AEBV?$allocator@D@std@@@std@@YAAEBV?$allocator@D@0@AEBV10@@Z
	??$forward@AEBV?$allocator@E@std@@@std@@YAAEBV?$allocator@E@0@AEBV10@@Z
	??$forward@E@std@@YA$$QEAEAEAE@Z
	??$forward@G@std@@YA$$QEAGAEAG@Z
	??$forward@PEAD@std@@YA$$QEAPEADAEAPEAD@Z
	??$forward@PEAE@std@@YA$$QEAPEAEAEAPEAE@Z
	??$forward@PEAU_Container_base12@std@@@std@@YA$$QEAPEAU_Container_base12@0@AEAPEAU10@@Z
	??$forward@PEAUbyte_buffer@convertible@vanetza@@@std@@YA$$QEAPEAUbyte_buffer@convertible@vanetza@@AEAPEAU123@@Z
	??$forward@U?$default_delete@Ubyte_buffer@convertible@vanetza@@@std@@@std@@YA$$QEAU?$default_delete@Ubyte_buffer@convertible@vanetza@@@0@AEAU10@@Z
	??$forward@UScheduledCallback@ManualRuntime@vanetza@@@std@@YA$$QEAUScheduledCallback@ManualRuntime@vanetza@@AEAU123@@Z
	??$forward@U_Zero_then_variadic_args_t@std@@@std@@YA$$QEAU_Zero_then_variadic_args_t@0@AEAU10@@Z
	??$forward@V?$allocator@D@std@@@std@@YA$$QEAV?$allocator@D@0@AEAV10@@Z
	??$forward@V?$allocator@E@std@@@std@@YA$$QEAV?$allocator@E@0@AEAV10@@Z
	??$forward@V?$back_insert_iterator@V?$vector@EV?$allocator@E@std@@@std@@@std@@@std@@YA$$QEAV?$back_insert_iterator@V?$vector@EV?$allocator@E@std@@@std@@@0@AEAV10@@Z
	??$forward@V?$bidir_node_iterator@U?$ordered_index_node@Unull_augment_policy@detail@multi_index@boost@@U?$hashed_index_node@U?$index_node_base@UScheduledCallback@ManualRuntime@vanetza@@V?$allocator@UScheduledCallback@ManualRuntime@vanetza@@@std@@@detail@multi_index@boost@@@234@@detail@multi_index@boost@@@detail@multi_index@boost@@@std@@YA$$QEAV?$bidir_node_iterator@U?$ordered_index_node@Unull_augment_policy@detail@multi_index@boost@@U?$hashed_index_node@U?$index_node_base@UScheduledCallback@ManualRuntime@vanetza@@V?$allocator@UScheduledCallback@ManualRuntime@vanetza@@@std@@@detail@multi_index@boost@@@234@@detail@multi_index@boost@@@detail@multi_index@boost@@AEAV1234@@Z
	??$forward@V?$hashed_index_iterator@U?$hashed_index_node@U?$index_node_base@UScheduledCallback@ManualRuntime@vanetza@@V?$allocator@UScheduledCallback@ManualRuntime@vanetza@@@std@@@detail@multi_index@boost@@@detail@multi_index@boost@@V?$bucket_array@V?$allocator@UScheduledCallback@ManualRuntime@vanetza@@@std@@@234@Uhashed_non_unique_tag@234@Uhashed_index_global_iterator_tag@234@@detail@multi_index@boost@@@std@@YA$$QEAV?$hashed_index_iterator@U?$hashed_index_node@U?$index_node_base@UScheduledCallback@ManualRuntime@vanetza@@V?$allocator@UScheduledCallback@ManualRuntime@vanetza@@@std@@@detail@multi_index@boost@@@detail@multi_index@boost@@V?$bucket_array@V?$allocator@UScheduledCallback@ManualRuntime@vanetza@@@std@@@234@Uhashed_non_unique_tag@234@Uhashed_index_global_iterator_tag@234@@detail@multi_index@boost@@AEAV1234@@Z
	??$forward@V?$time_point@VClock@vanetza@@V?$duration@_JU?$ratio@$00$0PECEA@@std@@@chrono@std@@@chrono@std@@@std@@YA$$QEAV?$time_point@VClock@vanetza@@V?$duration@_JU?$ratio@$00$0PECEA@@std@@@chrono@std@@@chrono@0@AEAV120@@Z
	??$forward@_N@std@@YA$$QEA_NAEA_N@Z
	??$generate@V?$_Vector_iterator@V?$_Vector_val@U?$_Simple_types@E@std@@@std@@@std@@V?$function@$$A6AEXZ@2@@std@@YAXV?$_Vector_iterator@V?$_Vector_val@U?$_Simple_types@E@std@@@std@@@0@0V?$function@$$A6AEXZ@0@@Z
	??$get@$00U?$member@UScheduledCallback@ManualRuntime@vanetza@@V?$time_point@VClock@vanetza@@V?$duration@_JU?$ratio@$00$0PECEA@@std@@@chrono@std@@@chrono@std@@$0A@@multi_index@boost@@U?$cons@U?$less@V?$time_point@VClock@vanetza@@V?$duration@_JU?$ratio@$00$0PECEA@@std@@@chrono@std@@@chrono@std@@@std@@Unull_type@tuples@boost@@@tuples@3@@tuples@boost@@YAAEBU?$less@V?$time_point@VClock@vanetza@@V?$duration@_JU?$ratio@$00$0PECEA@@std@@@chrono@std@@@chrono@std@@@std@@AEBU?$cons@U?$member@UScheduledCallback@ManualRuntime@vanetza@@V?$time_point@VClock@vanetza@@V?$duration@_JU?$ratio@$00$0PECEA@@std@@@chrono@std@@@chrono@std@@$0A@@multi_index@boost@@U?$cons@U?$less@V?$time_point@VClock@vanetza@@V?$duration@_JU?$ratio@$00$0PECEA@@std@@@chrono@std@@@chrono@std@@@std@@Unull_type@tuples@boost@@@tuples@3@@01@@Z
	??$get@$00_KU?$cons@U?$member@UScheduledCallback@ManualRuntime@vanetza@@PEBX$0EI@@multi_index@boost@@U?$cons@U?$hash@PEBX@boost@@U?$cons@U?$equal_to@PEBX@std@@Unull_type@tuples@boost@@@tuples@2@@tuples@3@@tuples@boost@@@tuples@boost@@YAAEBU?$member@UScheduledCallback@ManualRuntime@vanetza@@PEBX$0EI@@multi_index@1@AEBU?$cons@_KU?$cons@U?$member@UScheduledCallback@ManualRuntime@vanetza@@PEBX$0EI@@multi_index@boost@@U?$cons@U?$hash@PEBX@boost@@U?$cons@U?$equal_to@PEBX@std@@Unull_type@tuples@boost@@@tuples@2@@tuples@3@@tuples@boost@@@01@@Z
	??$get@$01_KU?$cons@U?$member@UScheduledCallback@ManualRuntime@vanetza@@PEBX$0EI@@multi_index@boost@@U?$cons@U?$hash@PEBX@boost@@U?$cons@U?$equal_to@PEBX@std@@Unull_type@tuples@boost@@@tuples@2@@tuples@3@@tuples@boost@@@tuples@boost@@YAAEBU?$hash@PEBX@1@AEBU?$cons@_KU?$cons@U?$member@UScheduledCallback@ManualRuntime@vanetza@@PEBX$0EI@@multi_index@boost@@U?$cons@U?$hash@PEBX@boost@@U?$cons@U?$equal_to@PEBX@std@@Unull_type@tuples@boost@@@tuples@2@@tuples@3@@tuples@boost@@@01@@Z
	??$get@$02_KU?$cons@U?$member@UScheduledCallback@ManualRuntime@vanetza@@PEBX$0EI@@multi_index@boost@@U?$cons@U?$hash@PEBX@boost@@U?$cons@U?$equal_to@PEBX@std@@Unull_type@tuples@boost@@@tuples@2@@tuples@3@@tuples@boost@@@tuples@boost@@YAAEBU?$equal_to@PEBX@std@@AEBU?$cons@_KU?$cons@U?$member@UScheduledCallback@ManualRuntime@vanetza@@PEBX$0EI@@multi_index@boost@@U?$cons@U?$hash@PEBX@boost@@U?$cons@U?$equal_to@PEBX@std@@Unull_type@tuples@boost@@@tuples@2@@tuples@3@@tuples@boost@@@01@@Z
	??$get@$0A@U?$member@UScheduledCallback@ManualRuntime@vanetza@@V?$time_point@VClock@vanetza@@V?$duration@_JU?$ratio@$00$0PECEA@@std@@@chrono@std@@@chrono@std@@$0A@@multi_index@boost@@U?$cons@U?$less@V?$time_point@VClock@vanetza@@V?$duration@_JU?$ratio@$00$0PECEA@@std@@@chrono@std@@@chrono@std@@@std@@Unull_type@tuples@boost@@@tuples@3@@tuples@boost@@YAAEBU?$member@UScheduledCallback@ManualRuntime@vanetza@@V?$time_point@VClock@vanetza@@V?$duration@_JU?$ratio@$00$0PECEA@@std@@@chrono@std@@@chrono@std@@$0A@@multi_index@1@AEBU?$cons@U?$member@UScheduledCallback@ManualRuntime@vanetza@@V?$time_point@VClock@vanetza@@V?$duration@_JU?$ratio@$00$0PECEA@@std@@@chrono@std@@@chrono@std@@$0A@@multi_index@boost@@U?$cons@U?$less@V?$time_point@VClock@vanetza@@V?$duration@_JU?$ratio@$00$0PECEA@@std@@@chrono@std@@@chrono@std@@@std@@Unull_type@tuples@boost@@@tuples@3@@01@@Z
	??$get@$0A@_KU?$cons@U?$member@UScheduledCallback@ManualRuntime@vanetza@@PEBX$0EI@@multi_index@boost@@U?$cons@U?$hash@PEBX@boost@@U?$cons@U?$equal_to@PEBX@std@@Unull_type@tuples@boost@@@tuples@2@@tuples@3@@tuples@boost@@@tuples@boost@@YAAEB_KAEBU?$cons@_KU?$cons@U?$member@UScheduledCallback@ManualRuntime@vanetza@@PEBX$0EI@@multi_index@boost@@U?$cons@U?$hash@PEBX@boost@@U?$cons@U?$equal_to@PEBX@std@@Unull_type@tuples@boost@@@tuples@2@@tuples@3@@tuples@boost@@@01@@Z
	??$get@Uby_deadline@ManualRuntime@vanetza@@@?$multi_index_container@UScheduledCallback@ManualRuntime@vanetza@@U?$indexed_by@U?$ordered_non_unique@U?$tag@Uby_deadline@ManualRuntime@vanetza@@Una@mpl@boost@@U456@U456@U456@U456@U456@U456@U456@U456@U456@U456@U456@U456@U456@U456@U456@U456@U456@U456@@multi_index@boost@@U?$member@UScheduledCallback@ManualRuntime@vanetza@@V?$time_point@VClock@vanetza@@V?$duration@_JU?$ratio@$00$0PECEA@@std@@@chrono@std@@@chrono@std@@$0A@@23@Una@mpl@3@@multi_index@boost@@U?$hashed_non_unique@U?$tag@Uby_scope@ManualRuntime@vanetza@@Una@mpl@boost@@U456@U456@U456@U456@U456@U456@U456@U456@U456@U456@U456@U456@U456@U456@U456@U456@U456@U456@@multi_index@boost@@U?$member@UScheduledCallback@ManualRuntime@vanetza@@PEBX$0EI@@23@Una@mpl@3@U563@@23@Una@mpl@3@U563@U563@U563@U563@U563@U563@U563@U563@U563@U563@U563@U563@U563@U563@U563@U563@U563@@multi_index@boost@@V?$allocator@UScheduledCallback@ManualRuntime@vanetza@@@std@@@multi_index@boost@@QEAAAEAV?$ordered_index@U?$member@UScheduledCallback@ManualRuntime@vanetza@@V?$time_point@VClock@vanetza@@V?$duration@_JU?$ratio@$00$0PECEA@@std@@@chrono@std@@@chrono@std@@$0A@@multi_index@boost@@U?$less@V?$time_point@VClock@vanetza@@V?$duration@_JU?$ratio@$00$0PECEA@@std@@@chrono@std@@@chrono@std@@@std@@U?$nth_layer@$00UScheduledCallback@ManualRuntime@vanetza@@U?$indexed_by@U?$ordered_non_unique@U?$tag@Uby_deadline@ManualRuntime@vanetza@@Una@mpl@boost@@U456@U456@U456@U456@U456@U456@U456@U456@U456@U456@U456@U456@U456@U456@U456@U456@U456@U456@@multi_index@boost@@U?$member@UScheduledCallback@ManualRuntime@vanetza@@V?$time_point@VClock@vanetza@@V?$duration@_JU?$ratio@$00$0PECEA@@std@@@chrono@std@@@chrono@std@@$0A@@23@Una@mpl@3@@multi_index@boost@@U?$hashed_non_unique@U?$tag@Uby_scope@ManualRuntime@vanetza@@Una@mpl@boost@@U456@U456@U456@U456@U456@U456@U456@U456@U456@U456@U456@U456@U456@U456@U456@U456@U456@U456@@multi_index@boost@@U?$member@UScheduledCallback@ManualRuntime@vanetza@@PEBX$0EI@@23@Una@mpl@3@U563@@23@Una@mpl@3@U563@U563@U563@U563@U563@U563@U563@U563@U563@U563@U563@U563@U563@U563@U563@U563@U563@@multi_index@boost@@V?$allocator@UScheduledCallback@ManualRuntime@vanetza@@@std@@@detail@23@U?$vector1@Uby_deadline@ManualRuntime@vanetza@@@mpl@3@Uordered_non_unique_tag@723@Unull_augment_policy@723@@detail@12@XZ
	??$get@Uby_deadline@ManualRuntime@vanetza@@@?$multi_index_container@UScheduledCallback@ManualRuntime@vanetza@@U?$indexed_by@U?$ordered_non_unique@U?$tag@Uby_deadline@ManualRuntime@vanetza@@Una@mpl@boost@@U456@U456@U456@U456@U456@U456@U456@U456@U456@U456@U456@U456@U456@U456@U456@U456@U456@U456@@multi_index@boost@@U?$member@UScheduledCallback@ManualRuntime@vanetza@@V?$time_point@VClock@vanetza@@V?$duration@_JU?$ratio@$00$0PECEA@@std@@@chrono@std@@@chrono@std@@$0A@@23@Una@mpl@3@@multi_index@boost@@U?$hashed_non_unique@U?$tag@Uby_scope@ManualRuntime@vanetza@@Una@mpl@boost@@U456@U456@U456@U456@U456@U456@U456@U456@U456@U456@U456@U456@U456@U456@U456@U456@U456@U456@@multi_index@boost@@U?$member@UScheduledCallback@ManualRuntime@vanetza@@PEBX$0EI@@23@Una@mpl@3@U563@@23@Una@mpl@3@U563@U563@U563@U563@U563@U563@U563@U563@U563@U563@U563@U563@U563@U563@U563@U563@U563@@multi_index@boost@@V?$allocator@UScheduledCallback@ManualRuntime@vanetza@@@std@@@multi_index@boost@@QEBAAEBV?$ordered_index@U?$member@UScheduledCallback@ManualRuntime@vanetza@@V?$time_point@VClock@vanetza@@V?$duration@_JU?$ratio@$00$0PECEA@@std@@@chrono@std@@@chrono@std@@$0A@@multi_index@boost@@U?$less@V?$time_point@VClock@vanetza@@V?$duration@_JU?$ratio@$00$0PECEA@@std@@@chrono@std@@@chrono@std@@@std@@U?$nth_layer@$00UScheduledCallback@ManualRuntime@vanetza@@U?$indexed_by@U?$ordered_non_unique@U?$tag@Uby_deadline@ManualRuntime@vanetza@@Una@mpl@boost@@U456@U456@U456@U456@U456@U456@U456@U456@U456@U456@U456@U456@U456@U456@U456@U456@U456@U456@@multi_index@boost@@U?$member@UScheduledCallback@ManualRuntime@vanetza@@V?$time_point@VClock@vanetza@@V?$duration@_JU?$ratio@$00$0PECEA@@std@@@chrono@std@@@chrono@std@@$0A@@23@Una@mpl@3@@multi_index@boost@@U?$hashed_non_unique@U?$tag@Uby_scope@ManualRuntime@vanetza@@Una@mpl@boost@@U456@U456@U456@U456@U456@U456@U456@U456@U456@U456@U456@U456@U456@U456@U456@U456@U456@U456@@multi_index@boost@@U?$member@UScheduledCallback@ManualRuntime@vanetza@@PEBX$0EI@@23@Una@mpl@3@U563@@23@Una@mpl@3@U563@U563@U563@U563@U563@U563@U563@U563@U563@U563@U563@U563@U563@U563@U563@U563@U563@@multi_index@boost@@V?$allocator@UScheduledCallback@ManualRuntime@vanetza@@@std@@@detail@23@U?$vector1@Uby_deadline@ManualRuntime@vanetza@@@mpl@3@Uordered_non_unique_tag@723@Unull_augment_policy@723@@detail@12@XZ
	??$get@Uby_scope@ManualRuntime@vanetza@@@?$multi_index_container@UScheduledCallback@ManualRuntime@vanetza@@U?$indexed_by@U?$ordered_non_unique@U?$tag@Uby_deadline@ManualRuntime@vanetza@@Una@mpl@boost@@U456@U456@U456@U456@U456@U456@U456@U456@U456@U456@U456@U456@U456@U456@U456@U456@U456@U456@@multi_index@boost@@U?$member@UScheduledCallback@ManualRuntime@vanetza@@V?$time_point@VClock@vanetza@@V?$duration@_JU?$ratio@$00$0PECEA@@std@@@chrono@std@@@chrono@std@@$0A@@23@Una@mpl@3@@multi_index@boost@@U?$hashed_non_unique@U?$tag@Uby_scope@ManualRuntime@vanetza@@Una@mpl@boost@@U456@U456@U456@U456@U456@U456@U456@U456@U456@U456@U456@U456@U456@U456@U456@U456@U456@U456@@multi_index@boost@@U?$member@UScheduledCallback@ManualRuntime@vanetza@@PEBX$0EI@@23@Una@mpl@3@U563@@23@Una@mpl@3@U563@U563@U563@U563@U563@U563@U563@U563@U563@U563@U563@U563@U563@U563@U563@U563@U563@@multi_index@boost@@V?$allocator@UScheduledCallback@ManualRuntime@vanetza@@@std@@@multi_index@boost@@QEAAAEAV?$hashed_index@U?$member@UScheduledCallback@ManualRuntime@vanetza@@PEBX$0EI@@multi_index@boost@@U?$hash@PEBX@3@U?$equal_to@PEBX@std@@U?$nth_layer@$01UScheduledCallback@ManualRuntime@vanetza@@U?$indexed_by@U?$ordered_non_unique@U?$tag@Uby_deadline@ManualRuntime@vanetza@@Una@mpl@boost@@U456@U456@U456@U456@U456@U456@U456@U456@U456@U456@U456@U456@U456@U456@U456@U456@U456@U456@@multi_index@boost@@U?$member@UScheduledCallback@ManualRuntime@vanetza@@V?$time_point@VClock@vanetza@@V?$duration@_JU?$ratio@$00$0PECEA@@std@@@chrono@std@@@chrono@std@@$0A@@23@Una@mpl@3@@multi_index@boost@@U?$hashed_non_unique@U?$tag@Uby_scope@ManualRuntime@vanetza@@Una@mpl@boost@@U456@U456@U456@U456@U456@U456@U456@U456@U456@U456@U456@U456@U456@U456@U456@U456@U456@U456@@multi_index@boost@@U?$member@UScheduledCallback@ManualRuntime@vanetza@@PEBX$0EI@@23@Una@mpl@3@U563@@23@Una@mpl@3@U563@U563@U563@U563@U563@U563@U563@U563@U563@U563@U563@U563@U563@U563@U563@U563@U563@@multi_index@boost@@V?$allocator@UScheduledCallback@ManualRuntime@vanetza@@@std@@@detail@23@U?$vector1@Uby_scope@ManualRuntime@vanetza@@@mpl@3@Uhashed_non_unique_tag@823@@detail@12@XZ
	??$hash_value@$$CBX@boost@@YA_KAEBQEBX@Z
	??$increment@Uhashed_non_unique_tag@detail@multi_index@boost@@@?$hashed_index_node@U?$index_node_base@UScheduledCallback@ManualRuntime@vanetza@@V?$allocator@UScheduledCallback@ManualRuntime@vanetza@@@std@@@detail@multi_index@boost@@@detail@multi_index@boost@@SAXAEAPEAU0123@@Z
	??$increment@V?$token_iterator@V?$char_separator@DU?$char_traits@D@std@@@boost@@V?$_String_const_iterator@V?$_String_val@U?$_Simple_types@D@std@@@std@@@std@@V?$basic_string@DU?$char_traits@D@std@@V?$allocator@D@2@@4@@boost@@@iterator_core_access@iterators@boost@@CAXAEAV?$token_iterator@V?$char_separator@DU?$char_traits@D@std@@@boost@@V?$_String_const_iterator@V?$_String_val@U?$_Simple_types@D@std@@@std@@@std@@V?$basic_string@DU?$char_traits@D@std@@V?$allocator@D@2@@4@@2@@Z
	??$insert@PEBU?$pair@$$CBV?$basic_string@DU?$char_traits@D@std@@V?$allocator@D@2@@std@@G@std@@@?$_Tree@V?$_Tmap_traits@V?$basic_string@DU?$char_traits@D@std@@V?$allocator@D@2@@std@@GU?$less@V?$basic_string@DU?$char_traits@D@std@@V?$allocator@D@2@@std@@@2@V?$allocator@U?$pair@$$CBV?$basic_string@DU?$char_traits@D@std@@V?$allocator@D@2@@std@@G@std@@@2@$0A@@std@@@std@@QEAAXPEBU?$pair@$$CBV?$basic_string@DU?$char_traits@D@std@@V?$allocator@D@2@@std@@G@1@0@Z
	??$insert_@Uemplaced_tag@detail@multi_index@boost@@@?$hashed_index@U?$member@UScheduledCallback@ManualRuntime@vanetza@@PEBX$0EI@@multi_index@boost@@U?$hash@PEBX@3@U?$equal_to@PEBX@std@@U?$nth_layer@$01UScheduledCallback@ManualRuntime@vanetza@@U?$indexed_by@U?$ordered_non_unique@U?$tag@Uby_deadline@ManualRuntime@vanetza@@Una@mpl@boost@@U456@U456@U456@U456@U456@U456@U456@U456@U456@U456@U456@U456@U456@U456@U456@U456@U456@U456@@multi_index@boost@@U?$member@UScheduledCallback@ManualRuntime@vanetza@@V?$time_point@VClock@vanetza@@V?$duration@_JU?$ratio@$00$0PECEA@@std@@@chrono@std@@@chrono@std@@$0A@@23@Una@mpl@3@@multi_index@boost@@U?$hashed_non_unique@U?$tag@Uby_scope@ManualRuntime@vanetza@@Una@mpl@boost@@U456@U456@U456@U456@U456@U456@U456@U456@U456@U456@U456@U456@U456@U456@U456@U456@U456@U456@@multi_index@boost@@U?$member@UScheduledCallback@ManualRuntime@vanetza@@PEBX$0EI@@23@Una@mpl@3@U563@@23@Una@mpl@3@U563@U563@U563@U563@U563@U563@U563@U563@U563@U563@U563@U563@U563@U563@U563@U563@U563@@multi_index@boost@@V?$allocator@UScheduledCallback@ManualRuntime@vanetza@@@std@@@detail@23@U?$vector1@Uby_scope@ManualRuntime@vanetza@@@mpl@3@Uhashed_non_unique_tag@823@@detail@multi_index@boost@@IEAAPEAU?$ordered_index_node@Unull_augment_policy@detail@multi_index@boost@@U?$hashed_index_node@U?$index_node_base@UScheduledCallback@ManualRuntime@vanetza@@V?$allocator@UScheduledCallback@ManualRuntime@vanetza@@@std@@@detail@multi_index@boost@@@234@@123@AEBUScheduledCallback@ManualRuntime@vanetza@@AEAPEAU4123@Uemplaced_tag@123@@Z
	??$insert_@Uemplaced_tag@detail@multi_index@boost@@@?$ordered_index_impl@U?$member@UScheduledCallback@ManualRuntime@vanetza@@V?$time_point@VClock@vanetza@@V?$duration@_JU?$ratio@$00$0PECEA@@std@@@chrono@std@@@chrono@std@@$0A@@multi_index@boost@@U?$less@V?$time_point@VClock@vanetza@@V?$duration@_JU?$ratio@$00$0PECEA@@std@@@chrono@std@@@chrono@std@@@std@@U?$nth_layer@$00UScheduledCallback@ManualRuntime@vanetza@@U?$indexed_by@U?$ordered_non_unique@U?$tag@Uby_deadline@ManualRuntime@vanetza@@Una@mpl@boost@@U456@U456@U456@U456@U456@U456@U456@U456@U456@U456@U456@U456@U456@U456@U456@U456@U456@U456@@multi_index@boost@@U?$member@UScheduledCallback@ManualRuntime@vanetza@@V?$time_point@VClock@vanetza@@V?$duration@_JU?$ratio@$00$0PECEA@@std@@@chrono@std@@@chrono@std@@$0A@@23@Una@mpl@3@@multi_index@boost@@U?$hashed_non_unique@U?$tag@Uby_scope@ManualRuntime@vanetza@@Una@mpl@boost@@U456@U456@U456@U456@U456@U456@U456@U456@U456@U456@U456@U456@U456@U456@U456@U456@U456@U456@@multi_index@boost@@U?$member@UScheduledCallback@ManualRuntime@vanetza@@PEBX$0EI@@23@Una@mpl@3@U563@@23@Una@mpl@3@U563@U563@U563@U563@U563@U563@U563@U563@U563@U563@U563@U563@U563@U563@U563@U563@U563@@multi_index@boost@@V?$allocator@UScheduledCallback@ManualRuntime@vanetza@@@std@@@detail@23@U?$vector1@Uby_deadline@ManualRuntime@vanetza@@@mpl@3@Uordered_non_unique_tag@723@Unull_augment_policy@723@@detail@multi_index@boost@@IEAAPEAU?$ordered_index_node@Unull_augment_policy@detail@multi_index@boost@@U?$hashed_index_node@U?$index_node_base@UScheduledCallback@ManualRuntime@vanetza@@V?$allocator@UScheduledCallback@ManualRuntime@vanetza@@@std@@@detail@multi_index@boost@@@234@@123@AEBUScheduledCallback@ManualRuntime@vanetza@@AEAPEAU4123@Uemplaced_tag@123@@Z
	??$left_unlink@Udefault_assigner@detail@multi_index@boost@@@?$hashed_index_node_alg@U?$hashed_index_node_impl@V?$allocator@D@std@@@detail@multi_index@boost@@Uhashed_non_unique_tag@234@@detail@multi_index@boost@@CAXPEAU?$hashed_index_node_impl@V?$allocator@D@std@@@123@AEAUdefault_assigner@123@@Z
	??$left_unlink_first_of_bucket@Udefault_assigner@detail@multi_index@boost@@@?$hashed_index_node_alg@U?$hashed_index_node_impl@V?$allocator@D@std@@@detail@multi_index@boost@@Uhashed_non_unique_tag@234@@detail@multi_index@boost@@CAXPEAU?$hashed_index_node_impl@V?$allocator@D@std@@@123@AEAUdefault_assigner@123@@Z
	??$left_unlink_last_of_group@Udefault_assigner@detail@multi_index@boost@@@?$hashed_index_node_alg@U?$hashed_index_node_impl@V?$allocator@D@std@@@detail@multi_index@boost@@Uhashed_non_unique_tag@234@@detail@multi_index@boost@@CAXPEAU?$hashed_index_node_impl@V?$allocator@D@std@@@123@AEAUdefault_assigner@123@@Z
	??$lexical_cast@GV?$basic_string@DU?$char_traits@D@std@@V?$allocator@D@2@@std@@@boost@@YAGAEBV?$basic_string@DU?$char_traits@D@std@@V?$allocator@D@2@@std@@@Z
	??$lexical_cast@HV?$basic_string@DU?$char_traits@D@std@@V?$allocator@D@2@@std@@@boost@@YAHAEBV?$basic_string@DU?$char_traits@D@std@@V?$allocator@D@2@@std@@@Z
	??$lexical_cast@_JV?$basic_string@DU?$char_traits@D@std@@V?$allocator@D@2@@std@@@boost@@YA_JAEBV?$basic_string@DU?$char_traits@D@std@@V?$allocator@D@2@@std@@@Z
	??$lower_bound@PEB_K_K@std@@YAPEB_KPEB_K0AEB_K@Z
	??$lower_bound@PEB_K_KU?$less@X@std@@@std@@YAPEB_KPEB_KQEB_KAEB_KU?$less@X@0@@Z
	??$make_pair@AEAPEAU?$hashed_index_node_impl@V?$allocator@D@std@@@detail@multi_index@boost@@_N@std@@YA?AU?$pair@PEAU?$hashed_index_node_impl@V?$allocator@D@std@@@detail@multi_index@boost@@_N@0@AEAPEAU?$hashed_index_node_impl@V?$allocator@D@std@@@detail@multi_index@boost@@$$QEA_N@Z
	??$max@_K@std@@YAAEB_KAEB_K0@Z
	??$min@N@std@@YAAEBNAEBN0@Z
	??$min@_J@std@@YAAEB_JAEB_J0@Z
	??$min@_K@std@@YAAEB_KAEB_K0@Z
	??$month_str_to_ushort@Vgreg_month@gregorian@boost@@@date_time@boost@@YAGAEBV?$basic_string@DU?$char_traits@D@std@@V?$allocator@D@2@@std@@@Z
	??$move@AEAE@std@@YA$$QEAEAEAE@Z
	??$move@AEAM@std@@YA$$QEAMAEAM@Z
	??$move@AEAPEAU?$hashed_index_base_node_impl@V?$allocator@D@std@@@detail@multi_index@boost@@@std@@YA$$QEAPEAU?$hashed_index_base_node_impl@V?$allocator@D@std@@@detail@multi_index@boost@@AEAPEAU1234@@Z
	??$move@AEAPEAU?$ordered_index_node@Unull_augment_policy@detail@multi_index@boost@@U?$hashed_index_node@U?$index_node_base@UScheduledCallback@ManualRuntime@vanetza@@V?$allocator@UScheduledCallback@ManualRuntime@vanetza@@@std@@@detail@multi_index@boost@@@234@@detail@multi_index@boost@@@std@@YA$$QEAPEAU?$ordered_index_node@Unull_augment_policy@detail@multi_index@boost@@U?$hashed_index_node@U?$index_node_base@UScheduledCallback@ManualRuntime@vanetza@@V?$allocator@UScheduledCallback@ManualRuntime@vanetza@@@std@@@detail@multi_index@boost@@@234@@detail@multi_index@boost@@AEAPEAU1234@@Z
	??$move@AEAU?$equal_to@PEBX@std@@@std@@YA$$QEAU?$equal_to@PEBX@0@AEAU10@@Z
	??$move@AEAU?$hash@PEBX@boost@@@std@@YA$$QEAU?$hash@PEBX@boost@@AEAU12@@Z
	??$move@AEAU?$less@V?$time_point@VClock@vanetza@@V?$duration@_JU?$ratio@$00$0PECEA@@std@@@chrono@std@@@chrono@std@@@std@@@std@@YA$$QEAU?$less@V?$time_point@VClock@vanetza@@V?$duration@_JU?$ratio@$00$0PECEA@@std@@@chrono@std@@@chrono@std@@@0@AEAU10@@Z
	??$move@AEAU?$member@UScheduledCallback@ManualRuntime@vanetza@@PEBX$0EI@@multi_index@boost@@@std@@YA$$QEAU?$member@UScheduledCallback@ManualRuntime@vanetza@@PEBX$0EI@@multi_index@boost@@AEAU123@@Z
	??$move@AEAU?$member@UScheduledCallback@ManualRuntime@vanetza@@V?$time_point@VClock@vanetza@@V?$duration@_JU?$ratio@$00$0PECEA@@std@@@chrono@std@@@chrono@std@@$0A@@multi_index@boost@@@std@@YA$$QEAU?$member@UScheduledCallback@ManualRuntime@vanetza@@V?$time_point@VClock@vanetza@@V?$duration@_JU?$ratio@$00$0PECEA@@std@@@chrono@std@@@chrono@std@@$0A@@multi_index@boost@@AEAU123@@Z
	??$move@AEAUScheduledCallback@ManualRuntime@vanetza@@@boost@@YA$$QEAUScheduledCallback@ManualRuntime@vanetza@@AEAU123@@Z
	??$move@AEAV?$allocator@D@std@@@std@@YA$$QEAV?$allocator@D@0@AEAV10@@Z
	??$move@AEAV?$allocator@E@std@@@std@@YA$$QEAV?$allocator@E@0@AEAV10@@Z
	??$move@AEAV?$basic_string@DU?$char_traits@D@std@@V?$allocator@D@2@@std@@@std@@YA$$QEAV?$basic_string@DU?$char_traits@D@std@@V?$allocator@D@2@@0@AEAV10@@Z
	??$move@AEAV?$function@$$A6AXV?$time_point@VClock@vanetza@@V?$duration@_JU?$ratio@$00$0PECEA@@std@@@chrono@std@@@chrono@std@@@Z@std@@@std@@YA$$QEAV?$function@$$A6AXV?$time_point@VClock@vanetza@@V?$duration@_JU?$ratio@$00$0PECEA@@std@@@chrono@std@@@chrono@std@@@Z@0@AEAV10@@Z
	??$move@AEAV?$vector@EV?$allocator@E@std@@@std@@@std@@YA$$QEAV?$vector@EV?$allocator@E@std@@@0@AEAV10@@Z
	??$move@AEA_K@std@@YA$$QEA_KAEA_K@Z
	??$next@PEAE@std@@YAPEAEPEAE_J@Z
	??$next@PEB_K@std@@YAPEB_KPEB_K_J@Z
	??$parse_date@Vdate@gregorian@boost@@@date_time@boost@@YA?AVdate@gregorian@1@AEBV?$basic_string@DU?$char_traits@D@std@@V?$allocator@D@2@@std@@H@Z
	??$parse_delimited_time@Vptime@posix_time@boost@@@date_time@boost@@YA?AVptime@posix_time@1@AEBV?$basic_string@DU?$char_traits@D@std@@V?$allocator@D@2@@std@@D@Z
	??$parse_delimited_time_duration@Vtime_duration@posix_time@boost@@@date_time@boost@@YA?AVtime_duration@posix_time@1@AEBV?$basic_string@DU?$char_traits@D@std@@V?$allocator@D@2@@std@@@Z
	??$plus_equal@V?$basic_string@DU?$char_traits@D@std@@V?$allocator@D@2@@std@@D@?$assign_or_plus_equal@Urandom_access_iterator_tag@std@@@tokenizer_detail@boost@@SAXAEAV?$basic_string@DU?$char_traits@D@std@@V?$allocator@D@2@@std@@AEBD@Z
	??$power@H@date_time@boost@@YAHHH@Z
	??$raw_ptr@PEAU?$hashed_index_base_node_impl@V?$allocator@D@std@@@detail@multi_index@boost@@@detail@multi_index@boost@@YAPEAU?$hashed_index_base_node_impl@V?$allocator@D@std@@@012@AEBQEAU3012@U?$bool_@$00@mpl@2@@Z
	??$raw_ptr@PEAU?$hashed_index_base_node_impl@V?$allocator@D@std@@@detail@multi_index@boost@@PEAU1234@@detail@multi_index@boost@@YAPEAU?$hashed_index_base_node_impl@V?$allocator@D@std@@@012@AEBQEAU3012@@Z
	??$raw_ptr@PEAU?$hashed_index_node_impl@V?$allocator@D@std@@@detail@multi_index@boost@@@detail@multi_index@boost@@YAPEAU?$hashed_index_node_impl@V?$allocator@D@std@@@012@AEBQEAU3012@U?$bool_@$00@mpl@2@@Z
	??$raw_ptr@PEAU?$hashed_index_node_impl@V?$allocator@D@std@@@detail@multi_index@boost@@PEAU1234@@detail@multi_index@boost@@YAPEAU?$hashed_index_node_impl@V?$allocator@D@std@@@012@AEBQEAU3012@@Z
	??$raw_ptr@PEAU?$ordered_index_node_impl@Unull_augment_policy@detail@multi_index@boost@@V?$allocator@D@std@@@detail@multi_index@boost@@@detail@multi_index@boost@@YAPEAU?$ordered_index_node_impl@Unull_augment_policy@detail@multi_index@boost@@V?$allocator@D@std@@@012@AEBQEAU3012@U?$bool_@$00@mpl@2@@Z
	??$raw_ptr@PEAU?$ordered_index_node_impl@Unull_augment_policy@detail@multi_index@boost@@V?$allocator@D@std@@@detail@multi_index@boost@@PEAU1234@@detail@multi_index@boost@@YAPEAU?$ordered_index_node_impl@Unull_augment_policy@detail@multi_index@boost@@V?$allocator@D@std@@@012@AEBQEAU3012@@Z
	??$remove@PEAU?$ordered_index_node_impl@Unull_augment_policy@detail@multi_index@boost@@V?$allocator@D@std@@@detail@multi_index@boost@@@null_augment_policy@detail@multi_index@boost@@SAXPEAU?$ordered_index_node_impl@Unull_augment_policy@detail@multi_index@boost@@V?$allocator@D@std@@@123@0@Z
	??$right_unlink@Udefault_assigner@detail@multi_index@boost@@@?$hashed_index_node_alg@U?$hashed_index_node_impl@V?$allocator@D@std@@@detail@multi_index@boost@@Uhashed_non_unique_tag@234@@detail@multi_index@boost@@CAXPEAU?$hashed_index_node_impl@V?$allocator@D@std@@@123@AEAUdefault_assigner@123@@Z
	??$right_unlink_first_of_group@Udefault_assigner@detail@multi_index@boost@@@?$hashed_index_node_alg@U?$hashed_index_node_impl@V?$allocator@D@std@@@detail@multi_index@boost@@Uhashed_non_unique_tag@234@@detail@multi_index@boost@@CAXPEAU?$hashed_index_node_impl@V?$allocator@D@std@@@123@AEAUdefault_assigner@123@@Z
	??$right_unlink_last_of_bucket@Udefault_assigner@detail@multi_index@boost@@@?$hashed_index_node_alg@U?$hashed_index_node_impl@V?$allocator@D@std@@@detail@multi_index@boost@@Uhashed_non_unique_tag@234@@detail@multi_index@boost@@CAXPEAU?$hashed_index_node_impl@V?$allocator@D@std@@@123@AEAUdefault_assigner@123@@Z
	??$rotate_left@PEAU?$ordered_index_node_impl@Unull_augment_policy@detail@multi_index@boost@@V?$allocator@D@std@@@detail@multi_index@boost@@@null_augment_policy@detail@multi_index@boost@@SAXPEAU?$ordered_index_node_impl@Unull_augment_policy@detail@multi_index@boost@@V?$allocator@D@std@@@123@0@Z
	??$rotate_right@PEAU?$ordered_index_node_impl@Unull_augment_policy@detail@multi_index@boost@@V?$allocator@D@std@@@detail@multi_index@boost@@@null_augment_policy@detail@multi_index@boost@@SAXPEAU?$ordered_index_node_impl@Unull_augment_policy@detail@multi_index@boost@@V?$allocator@D@std@@@123@0@Z
	??$shr_signed@H@?$lexical_ostream_limited_src@DU?$char_traits@D@std@@@detail@boost@@AEAA_NAEAH@Z
	??$shr_signed@_J@?$lexical_ostream_limited_src@DU?$char_traits@D@std@@@detail@boost@@AEAA_NAEA_J@Z
	??$shr_unsigned@G@?$lexical_ostream_limited_src@DU?$char_traits@D@std@@@detail@boost@@AEAA_NAEAG@Z
	??$str_from_delimited_time_duration@Vtime_duration@posix_time@boost@@D@date_time@boost@@YA?AVtime_duration@posix_time@1@AEBV?$basic_string@DU?$char_traits@D@std@@V?$allocator@D@2@@std@@@Z
	??$swap@M$0A@@std@@YAXAEAM0@Z
	??$swap@PEAU?$hashed_index_base_node_impl@V?$allocator@D@std@@@detail@multi_index@boost@@$0A@@std@@YAXAEAPEAU?$hashed_index_base_node_impl@V?$allocator@D@std@@@detail@multi_index@boost@@0@Z
	??$swap@PEAU?$ordered_index_node@Unull_augment_policy@detail@multi_index@boost@@U?$hashed_index_node@U?$index_node_base@UScheduledCallback@ManualRuntime@vanetza@@V?$allocator@UScheduledCallback@ManualRuntime@vanetza@@@std@@@detail@multi_index@boost@@@234@@detail@multi_index@boost@@$0A@@std@@YAXAEAPEAU?$ordered_index_node@Unull_augment_policy@detail@multi_index@boost@@U?$hashed_index_node@U?$index_node_base@UScheduledCallback@ManualRuntime@vanetza@@V?$allocator@UScheduledCallback@ManualRuntime@vanetza@@@std@@@detail@multi_index@boost@@@234@@detail@multi_index@boost@@0@Z
	??$swap@U?$equal_to@PEBX@std@@$0A@@std@@YAXAEAU?$equal_to@PEBX@0@0@Z
	??$swap@U?$hash@PEBX@boost@@$0A@@std@@YAXAEAU?$hash@PEBX@boost@@0@Z
	??$swap@U?$integral_constant@_N$0A@@boost@@@?$bucket_array@V?$allocator@UScheduledCallback@ManualRuntime@vanetza@@@std@@@detail@multi_index@boost@@QEAAXAEAV0123@U?$integral_constant@_N$0A@@3@@Z
	??$swap@U?$less@V?$time_point@VClock@vanetza@@V?$duration@_JU?$ratio@$00$0PECEA@@std@@@chrono@std@@@chrono@std@@@std@@$0A@@std@@YAXAEAU?$less@V?$time_point@VClock@vanetza@@V?$duration@_JU?$ratio@$00$0PECEA@@std@@@chrono@std@@@chrono@std@@@0@0@Z
	??$swap@U?$member@UScheduledCallback@ManualRuntime@vanetza@@PEBX$0EI@@multi_index@boost@@$0A@@std@@YAXAEAU?$member@UScheduledCallback@ManualRuntime@vanetza@@PEBX$0EI@@multi_index@boost@@0@Z
	??$swap@U?$member@UScheduledCallback@ManualRuntime@vanetza@@V?$time_point@VClock@vanetza@@V?$duration@_JU?$ratio@$00$0PECEA@@std@@@chrono@std@@@chrono@std@@$0A@@multi_index@boost@@$0A@@std@@YAXAEAU?$member@UScheduledCallback@ManualRuntime@vanetza@@V?$time_point@VClock@vanetza@@V?$duration@_JU?$ratio@$00$0PECEA@@std@@@chrono@std@@@chrono@std@@$0A@@multi_index@boost@@0@Z
	??$swap@UScheduledCallback@ManualRuntime@vanetza@@U?$indexed_by@U?$ordered_non_unique@U?$tag@Uby_deadline@ManualRuntime@vanetza@@Una@mpl@boost@@U456@U456@U456@U456@U456@U456@U456@U456@U456@U456@U456@U456@U456@U456@U456@U456@U456@U456@@multi_index@boost@@U?$member@UScheduledCallback@ManualRuntime@vanetza@@V?$time_point@VClock@vanetza@@V?$duration@_JU?$ratio@$00$0PECEA@@std@@@chrono@std@@@chrono@std@@$0A@@23@Una@mpl@3@@multi_index@boost@@U?$hashed_non_unique@U?$tag@Uby_scope@ManualRuntime@vanetza@@Una@mpl@boost@@U456@U456@U456@U456@U456@U456@U456@U456@U456@U456@U456@U456@U456@U456@U456@U456@U456@U456@@multi_index@boost@@U?$member@UScheduledCallback@ManualRuntime@vanetza@@PEBX$0EI@@23@Una@mpl@3@U563@@23@Una@mpl@3@U563@U563@U563@U563@U563@U563@U563@U563@U563@U563@U563@U563@U563@U563@U563@U563@U563@@multi_index@boost@@V?$allocator@UScheduledCallback@ManualRuntime@vanetza@@@std@@@multi_index@boost@@YAXAEAV?$multi_index_container@UScheduledCallback@ManualRuntime@vanetza@@U?$indexed_by@U?$ordered_non_unique@U?$tag@Uby_deadline@ManualRuntime@vanetza@@Una@mpl@boost@@U456@U456@U456@U456@U456@U456@U456@U456@U456@U456@U456@U456@U456@U456@U456@U456@U456@U456@@multi_index@boost@@U?$member@UScheduledCallback@ManualRuntime@vanetza@@V?$time_point@VClock@vanetza@@V?$duration@_JU?$ratio@$00$0PECEA@@std@@@chrono@std@@@chrono@std@@$0A@@23@Una@mpl@3@@multi_index@boost@@U?$hashed_non_unique@U?$tag@Uby_scope@ManualRuntime@vanetza@@Una@mpl@boost@@U456@U456@U456@U456@U456@U456@U456@U456@U456@U456@U456@U456@U456@U456@U456@U456@U456@U456@@multi_index@boost@@U?$member@UScheduledCallback@ManualRuntime@vanetza@@PEBX$0EI@@23@Una@mpl@3@U563@@23@Una@mpl@3@U563@U563@U563@U563@U563@U563@U563@U563@U563@U563@U563@U563@U563@U563@U563@U563@U563@@multi_index@boost@@V?$allocator@UScheduledCallback@ManualRuntime@vanetza@@@std@@@01@0@Z
	??$swap@_K$0A@@std@@YAXAEA_K0@Z
	??$swap_@U?$integral_constant@_N$0A@@boost@@@?$hashed_index@U?$member@UScheduledCallback@ManualRuntime@vanetza@@PEBX$0EI@@multi_index@boost@@U?$hash@PEBX@3@U?$equal_to@PEBX@std@@U?$nth_layer@$01UScheduledCallback@ManualRuntime@vanetza@@U?$indexed_by@U?$ordered_non_unique@U?$tag@Uby_deadline@ManualRuntime@vanetza@@Una@mpl@boost@@U456@U456@U456@U456@U456@U456@U456@U456@U456@U456@U456@U456@U456@U456@U456@U456@U456@U456@@multi_index@boost@@U?$member@UScheduledCallback@ManualRuntime@vanetza@@V?$time_point@VClock@vanetza@@V?$duration@_JU?$ratio@$00$0PECEA@@std@@@chrono@std@@@chrono@std@@$0A@@23@Una@mpl@3@@multi_index@boost@@U?$hashed_non_unique@U?$tag@Uby_scope@ManualRuntime@vanetza@@Una@mpl@boost@@U456@U456@U456@U456@U456@U456@U456@U456@U456@U456@U456@U456@U456@U456@U456@U456@U456@U456@@multi_index@boost@@U?$member@UScheduledCallback@ManualRuntime@vanetza@@PEBX$0EI@@23@Una@mpl@3@U563@@23@Una@mpl@3@U563@U563@U563@U563@U563@U563@U563@U563@U563@U563@U563@U563@U563@U563@U563@U563@U563@@multi_index@boost@@V?$allocator@UScheduledCallback@ManualRuntime@vanetza@@@std@@@detail@23@U?$vector1@Uby_scope@ManualRuntime@vanetza@@@mpl@3@Uhashed_non_unique_tag@823@@detail@multi_index@boost@@IEAAXAEAV0123@U?$integral_constant@_N$0A@@3@@Z
	??$swap_@U?$integral_constant@_N$0A@@boost@@@?$index_base@UScheduledCallback@ManualRuntime@vanetza@@U?$indexed_by@U?$ordered_non_unique@U?$tag@Uby_deadline@ManualRuntime@vanetza@@Una@mpl@boost@@U456@U456@U456@U456@U456@U456@U456@U456@U456@U456@U456@U456@U456@U456@U456@U456@U456@U456@@multi_index@boost@@U?$member@UScheduledCallback@ManualRuntime@vanetza@@V?$time_point@VClock@vanetza@@V?$duration@_JU?$ratio@$00$0PECEA@@std@@@chrono@std@@@chrono@std@@$0A@@23@Una@mpl@3@@multi_index@boost@@U?$hashed_non_unique@U?$tag@Uby_scope@ManualRuntime@vanetza@@Una@mpl@boost@@U456@U456@U456@U456@U456@U456@U456@U456@U456@U456@U456@U456@U456@U456@U456@U456@U456@U456@@multi_index@boost@@U?$member@UScheduledCallback@ManualRuntime@vanetza@@PEBX$0EI@@23@Una@mpl@3@U563@@23@Una@mpl@3@U563@U563@U563@U563@U563@U563@U563@U563@U563@U563@U563@U563@U563@U563@U563@U563@U563@@multi_index@boost@@V?$allocator@UScheduledCallback@ManualRuntime@vanetza@@@std@@@detail@multi_index@boost@@IEAAXAEAV0123@U?$integral_constant@_N$0A@@3@@Z
	??$swap_@U?$integral_constant@_N$0A@@boost@@@?$ordered_index_impl@U?$member@UScheduledCallback@ManualRuntime@vanetza@@V?$time_point@VClock@vanetza@@V?$duration@_JU?$ratio@$00$0PECEA@@std@@@chrono@std@@@chrono@std@@$0A@@multi_index@boost@@U?$less@V?$time_point@VClock@vanetza@@V?$duration@_JU?$ratio@$00$0PECEA@@std@@@chrono@std@@@chrono@std@@@std@@U?$nth_layer@$00UScheduledCallback@ManualRuntime@vanetza@@U?$indexed_by@U?$ordered_non_unique@U?$tag@Uby_deadline@ManualRuntime@vanetza@@Una@mpl@boost@@U456@U456@U456@U456@U456@U456@U456@U456@U456@U456@U456@U456@U456@U456@U456@U456@U456@U456@@multi_index@boost@@U?$member@UScheduledCallback@ManualRuntime@vanetza@@V?$time_point@VClock@vanetza@@V?$duration@_JU?$ratio@$00$0PECEA@@std@@@chrono@std@@@chrono@std@@$0A@@23@Una@mpl@3@@multi_index@boost@@U?$hashed_non_unique@U?$tag@Uby_scope@ManualRuntime@vanetza@@Una@mpl@boost@@U456@U456@U456@U456@U456@U456@U456@U456@U456@U456@U456@U456@U456@U456@U456@U456@U456@U456@@multi_index@boost@@U?$member@UScheduledCallback@ManualRuntime@vanetza@@PEBX$0EI@@23@Una@mpl@3@U563@@23@Una@mpl@3@U563@U563@U563@U563@U563@U563@U563@U563@U563@U563@U563@U563@U563@U563@U563@U563@U563@@multi_index@boost@@V?$allocator@UScheduledCallback@ManualRuntime@vanetza@@@std@@@detail@23@U?$vector1@Uby_deadline@ManualRuntime@vanetza@@@mpl@3@Uordered_non_unique_tag@723@Unull_augment_policy@723@@detail@multi_index@boost@@IEAAXAEAV0123@U?$integral_constant@_N$0A@@3@@Z
	??$throw_bad_cast@V?$basic_string@DU?$char_traits@D@std@@V?$allocator@D@2@@std@@G@detail@conversion@boost@@YAXXZ
	??$throw_bad_cast@V?$basic_string@DU?$char_traits@D@std@@V?$allocator@D@2@@std@@H@detail@conversion@boost@@YAXXZ
	??$throw_bad_cast@V?$basic_string@DU?$char_traits@D@std@@V?$allocator@D@2@@std@@_J@detail@conversion@boost@@YAXXZ
	??$throw_exception@Ubad_day_of_month@gregorian@boost@@@boost@@YAXAEBUbad_day_of_month@gregorian@0@@Z
	??$throw_exception@Ubad_month@gregorian@boost@@@boost@@YAXAEBUbad_month@gregorian@0@@Z
	??$throw_exception@Ubad_year@gregorian@boost@@@boost@@YAXAEBUbad_year@gregorian@0@@Z
	??$throw_exception@Vbad_lexical_cast@boost@@@boost@@YAXAEBVbad_lexical_cast@0@@Z
	??$tolower@D@std@@YADDAEBVlocale@0@@Z
	??$try_lexical_convert@GV?$basic_string@DU?$char_traits@D@std@@V?$allocator@D@2@@std@@@detail@conversion@boost@@YA_NAEBV?$basic_string@DU?$char_traits@D@std@@V?$allocator@D@2@@std@@AEAG@Z
	??$try_lexical_convert@HV?$basic_string@DU?$char_traits@D@std@@V?$allocator@D@2@@std@@@detail@conversion@boost@@YA_NAEBV?$basic_string@DU?$char_traits@D@std@@V?$allocator@D@2@@std@@AEAH@Z
	??$try_lexical_convert@_JV?$basic_string@DU?$char_traits@D@std@@V?$allocator@D@2@@std@@@detail@conversion@boost@@YA_NAEBV?$basic_string@DU?$char_traits@D@std@@V?$allocator@D@2@@std@@AEA_J@Z
	??$unlink@Udefault_assigner@detail@multi_index@boost@@@?$hashed_index_node_alg@U?$hashed_index_node_impl@V?$allocator@D@std@@@detail@multi_index@boost@@Uhashed_non_unique_tag@234@@detail@multi_index@boost@@SAXPEAU?$hashed_index_node_impl@V?$allocator@D@std@@@123@AEAUdefault_assigner@123@@Z
	??$unlink_last_but_one_of_group@Udefault_assigner@detail@multi_index@boost@@@?$hashed_index_node_alg@U?$hashed_index_node_impl@V?$allocator@D@std@@@detail@multi_index@boost@@Uhashed_non_unique_tag@234@@detail@multi_index@boost@@CAXPEAU?$hashed_index_node_impl@V?$allocator@D@std@@@123@AEAUdefault_assigner@123@@Z
	??$unlink_second_of_group@Udefault_assigner@detail@multi_index@boost@@@?$hashed_index_node_alg@U?$hashed_index_node_impl@V?$allocator@D@std@@@detail@multi_index@boost@@Uhashed_non_unique_tag@234@@detail@multi_index@boost@@CAXPEAU?$hashed_index_node_impl@V?$allocator@D@std@@@123@AEAUdefault_assigner@123@@Z
	??$unused_var@W4dst_flags@date_time@boost@@@?$counted_time_system@U?$counted_time_rep@Vmillisec_posix_time_system_config@posix_time@boost@@@date_time@boost@@@date_time@boost@@SAXAEBW4dst_flags@12@@Z
	??$use_facet@V?$ctype@D@std@@@std@@YAAEBV?$ctype@D@0@AEBVlocale@0@@Z
	??$use_facet@V?$numpunct@D@std@@@std@@YAAEBV?$numpunct@D@0@AEBVlocale@0@@Z
	??0?$_Alloc_construct_ptr@V?$allocator@U?$_Tree_node@U?$pair@$$CBV?$basic_string@DU?$char_traits@D@std@@V?$allocator@D@2@@std@@G@std@@PEAX@std@@@std@@@std@@QEAA@AEAV?$allocator@U?$_Tree_node@U?$pair@$$CBV?$basic_string@DU?$char_traits@D@std@@V?$allocator@D@2@@std@@G@std@@PEAX@std@@@1@@Z
	??0?$_Container_proxy_ptr12@V?$allocator@U_Container_proxy@std@@@std@@@std@@QEAA@AEAV?$allocator@U_Container_proxy@std@@@1@AEAU_Container_base12@1@@Z
	??0?$_Func_base@E$$V@std@@QEAA@XZ
	??0?$_Func_class@E$$V@std@@QEAA@XZ
	??0?$_Func_class@XV?$time_point@VClock@vanetza@@V?$duration@_JU?$ratio@$00$0PECEA@@std@@@chrono@std@@@chrono@std@@@std@@QEAA@XZ
	??0?$_String_const_iterator@V?$_String_val@U?$_Simple_types@D@std@@@std@@@std@@QEAA@AEBV01@@Z
	??0?$_String_const_iterator@V?$_String_val@U?$_Simple_types@D@std@@@std@@@std@@QEAA@PEBDPEBU_Container_base12@1@@Z
	??0?$_String_val@U?$_Simple_types@D@std@@@std@@QEAA@XZ
	??0?$_Tree@V?$_Tmap_traits@V?$basic_string@DU?$char_traits@D@std@@V?$allocator@D@2@@std@@GU?$less@V?$basic_string@DU?$char_traits@D@std@@V?$allocator@D@2@@std@@@2@V?$allocator@U?$pair@$$CBV?$basic_string@DU?$char_traits@D@std@@V?$allocator@D@2@@std@@G@std@@@2@$0A@@std@@@std@@QEAA@AEBU?$less@V?$basic_string@DU?$char_traits@D@std@@V?$allocator@D@2@@std@@@1@@Z
	??0?$_Tree_const_iterator@V?$_Tree_val@U?$_Tree_simple_types@U?$pair@$$CBV?$basic_string@DU?$char_traits@D@std@@V?$allocator@D@2@@std@@G@std@@@std@@@std@@@std@@QEAA@$$QEAV01@@Z
	??0?$_Tree_const_iterator@V?$_Tree_val@U?$_Tree_simple_types@U?$pair@$$CBV?$basic_string@DU?$char_traits@D@std@@V?$allocator@D@2@@std@@G@std@@@std@@@std@@@std@@QEAA@PEAU?$_Tree_node@U?$pair@$$CBV?$basic_string@DU?$char_traits@D@std@@V?$allocator@D@2@@std@@G@std@@PEAX@1@PEBV?$_Tree_val@U?$_Tree_simple_types@U?$pair@$$CBV?$basic_string@DU?$char_traits@D@std@@V?$allocator@D@2@@std@@G@std@@@std@@@1@@Z
	??0?$_Tree_iterator@V?$_Tree_val@U?$_Tree_simple_types@U?$pair@$$CBV?$basic_string@DU?$char_traits@D@std@@V?$allocator@D@2@@std@@G@std@@@std@@@std@@@std@@QEAA@PEAU?$_Tree_node@U?$pair@$$CBV?$basic_string@DU?$char_traits@D@std@@V?$allocator@D@2@@std@@G@std@@PEAX@1@PEBV?$_Tree_val@U?$_Tree_simple_types@U?$pair@$$CBV?$basic_string@DU?$char_traits@D@std@@V?$allocator@D@2@@std@@G@std@@@std@@@1@@Z
	??0?$_Tree_temp_node_alloc@V?$allocator@U?$_Tree_node@U?$pair@$$CBV?$basic_string@DU?$char_traits@D@std@@V?$allocator@D@2@@std@@G@std@@PEAX@std@@@std@@@std@@QEAA@AEAV?$allocator@U?$_Tree_node@U?$pair@$$CBV?$basic_string@DU?$char_traits@D@std@@V?$allocator@D@2@@std@@G@std@@PEAX@std@@@1@@Z
	??0?$_Tree_unchecked_const_iterator@V?$_Tree_val@U?$_Tree_simple_types@U?$pair@$$CBV?$basic_string@DU?$char_traits@D@std@@V?$allocator@D@2@@std@@G@std@@@std@@@std@@U_Iterator_base0@2@@std@@QEAA@PEAU?$_Tree_node@U?$pair@$$CBV?$basic_string@DU?$char_traits@D@std@@V?$allocator@D@2@@std@@G@std@@PEAX@1@PEBV?$_Tree_val@U?$_Tree_simple_types@U?$pair@$$CBV?$basic_string@DU?$char_traits@D@std@@V?$allocator@D@2@@std@@G@std@@@std@@@1@@Z
	??0?$_Tree_unchecked_const_iterator@V?$_Tree_val@U?$_Tree_simple_types@U?$pair@$$CBV?$basic_string@DU?$char_traits@D@std@@V?$allocator@D@2@@std@@G@std@@@std@@@std@@U_Iterator_base12@2@@std@@QEAA@$$QEAV01@@Z
	??0?$_Tree_unchecked_const_iterator@V?$_Tree_val@U?$_Tree_simple_types@U?$pair@$$CBV?$basic_string@DU?$char_traits@D@std@@V?$allocator@D@2@@std@@G@std@@@std@@@std@@U_Iterator_base12@2@@std@@QEAA@PEAU?$_Tree_node@U?$pair@$$CBV?$basic_string@DU?$char_traits@D@std@@V?$allocator@D@2@@std@@G@std@@PEAX@1@PEBV?$_Tree_val@U?$_Tree_simple_types@U?$pair@$$CBV?$basic_string@DU?$char_traits@D@std@@V?$allocator@D@2@@std@@G@std@@@std@@@1@@Z
	??0?$_Tree_val@U?$_Tree_simple_types@U?$pair@$$CBV?$basic_string@DU?$char_traits@D@std@@V?$allocator@D@2@@std@@G@std@@@std@@@std@@QEAA@XZ
	??0?$_Uninitialized_backout_al@V?$allocator@E@std@@@std@@QEAA@PEAEAEAV?$allocator@E@1@@Z
	??0?$_Vector_const_iterator@V?$_Vector_val@U?$_Simple_types@E@std@@@std@@@std@@QEAA@$$QEAV01@@Z
	??0?$_Vector_const_iterator@V?$_Vector_val@U?$_Simple_types@E@std@@@std@@@std@@QEAA@AEBV01@@Z
	??0?$_Vector_const_iterator@V?$_Vector_val@U?$_Simple_types@E@std@@@std@@@std@@QEAA@PEAEPEBU_Container_base12@1@@Z
	??0?$_Vector_iterator@V?$_Vector_val@U?$_Simple_types@E@std@@@std@@@std@@QEAA@AEBV01@@Z
	??0?$_Vector_iterator@V?$_Vector_val@U?$_Simple_types@E@std@@@std@@@std@@QEAA@PEAEPEBU_Container_base12@1@@Z
	??0?$_Vector_val@U?$_Simple_types@E@std@@@std@@QEAA@PEAE00@Z
	??0?$_Vector_val@U?$_Simple_types@E@std@@@std@@QEAA@XZ
	??0?$allocator@D@std@@QEAA@XZ
	??0?$allocator@E@std@@QEAA@XZ
	??0?$allocator@U?$_Tree_node@U?$pair@$$CBV?$basic_string@DU?$char_traits@D@std@@V?$allocator@D@2@@std@@G@std@@PEAX@std@@@std@@QEAA@XZ
	??0?$allocator@UScheduledCallback@ManualRuntime@vanetza@@@std@@QEAA@XZ
	??0?$auto_space@PEAU?$hashed_index_node_impl@V?$allocator@D@std@@@detail@multi_index@boost@@V?$allocator@UScheduledCallback@ManualRuntime@vanetza@@@std@@@detail@multi_index@boost@@QEAA@AEBV?$allocator@UScheduledCallback@ManualRuntime@vanetza@@@std@@_K@Z
	??0?$auto_space@U?$hashed_index_base_node_impl@V?$allocator@D@std@@@detail@multi_index@boost@@V?$allocator@UScheduledCallback@ManualRuntime@vanetza@@@std@@@detail@multi_index@boost@@QEAA@AEBV?$allocator@UScheduledCallback@ManualRuntime@vanetza@@@std@@_K@Z
	??0?$auto_space@_KV?$allocator@UScheduledCallback@ManualRuntime@vanetza@@@std@@@detail@multi_index@boost@@QEAA@AEBV?$allocator@UScheduledCallback@ManualRuntime@vanetza@@@std@@_K@Z
	??0?$back_insert_iterator@V?$vector@EV?$allocator@E@std@@@std@@@std@@QEAA@AEAV?$vector@EV?$allocator@E@std@@@1@@Z
	??0?$base_time@Vptime@posix_time@boost@@V?$counted_time_system@U?$counted_time_rep@Vmillisec_posix_time_system_config@posix_time@boost@@@date_time@boost@@@date_time@3@@date_time@boost@@QEAA@AEBU?$counted_time_rep@Vmillisec_posix_time_system_config@posix_time@boost@@@12@@Z
	??0?$base_time@Vptime@posix_time@boost@@V?$counted_time_system@U?$counted_time_rep@Vmillisec_posix_time_system_config@posix_time@boost@@@date_time@boost@@@date_time@3@@date_time@boost@@QEAA@AEBVdate@gregorian@2@AEBVtime_duration@posix_time@2@W4dst_flags@12@@Z
	??0?$basic_string@DU?$char_traits@D@std@@V?$allocator@D@2@@std@@QEAA@$$QEAV01@@Z
	??0?$basic_string@DU?$char_traits@D@std@@V?$allocator@D@2@@std@@QEAA@AEBV01@@Z
	??0?$basic_string@DU?$char_traits@D@std@@V?$allocator@D@2@@std@@QEAA@AEBV01@_K1AEBV?$allocator@D@1@@Z
	??0?$basic_string@DU?$char_traits@D@std@@V?$allocator@D@2@@std@@QEAA@QEBD@Z
	??0?$basic_string@DU?$char_traits@D@std@@V?$allocator@D@2@@std@@QEAA@XZ
	??0?$bidir_node_iterator@U?$ordered_index_node@Unull_augment_policy@detail@multi_index@boost@@U?$hashed_index_node@U?$index_node_base@UScheduledCallback@ManualRuntime@vanetza@@V?$allocator@UScheduledCallback@ManualRuntime@vanetza@@@std@@@detail@multi_index@boost@@@234@@detail@multi_index@boost@@@detail@multi_index@boost@@QEAA@PEAU?$ordered_index_node@Unull_augment_policy@detail@multi_index@boost@@U?$hashed_index_node@U?$index_node_base@UScheduledCallback@ManualRuntime@vanetza@@V?$allocator@UScheduledCallback@ManualRuntime@vanetza@@@std@@@detail@multi_index@boost@@@234@@123@@Z
	??0?$bucket_array@V?$allocator@UScheduledCallback@ManualRuntime@vanetza@@@std@@@detail@multi_index@boost@@QEAA@AEBV?$allocator@UScheduledCallback@ManualRuntime@vanetza@@@std@@PEAU?$hashed_index_node_impl@V?$allocator@D@std@@@123@_K@Z
	??0?$byte_buffer_impl@$$T@convertible@vanetza@@QEAA@XZ
	??0?$byte_buffer_impl@V?$basic_string@DU?$char_traits@D@std@@V?$allocator@D@2@@std@@@convertible@vanetza@@QEAA@$$QEAV?$basic_string@DU?$char_traits@D@std@@V?$allocator@D@2@@std@@@Z
	??0?$byte_buffer_impl@V?$basic_string@DU?$char_traits@D@std@@V?$allocator@D@2@@std@@@convertible@vanetza@@QEAA@AEBV?$basic_string@DU?$char_traits@D@std@@V?$allocator@D@2@@std@@@Z
	??0?$byte_buffer_impl@V?$vector@EV?$allocator@E@std@@@std@@@convertible@vanetza@@QEAA@$$QEAV?$vector@EV?$allocator@E@std@@@std@@@Z
	??0?$char_separator@DU?$char_traits@D@std@@@boost@@QEAA@AEBV01@@Z
	??0?$char_separator@DU?$char_traits@D@std@@@boost@@QEAA@PEBD0W4empty_token_policy@1@@Z
	??0?$cons@U?$equal_to@PEBX@std@@Unull_type@tuples@boost@@@tuples@boost@@QEAA@XZ
	??0?$cons@U?$hash@PEBX@boost@@U?$cons@U?$equal_to@PEBX@std@@Unull_type@tuples@boost@@@tuples@2@@tuples@boost@@QEAA@XZ
	??0?$cons@U?$less@V?$time_point@VClock@vanetza@@V?$duration@_JU?$ratio@$00$0PECEA@@std@@@chrono@std@@@chrono@std@@@std@@Unull_type@tuples@boost@@@tuples@boost@@QEAA@XZ
	??0?$cons@U?$member@UScheduledCallback@ManualRuntime@vanetza@@PEBX$0EI@@multi_index@boost@@U?$cons@U?$hash@PEBX@boost@@U?$cons@U?$equal_to@PEBX@std@@Unull_type@tuples@boost@@@tuples@2@@tuples@3@@tuples@boost@@QEAA@XZ
	??0?$cons@U?$member@UScheduledCallback@ManualRuntime@vanetza@@V?$time_point@VClock@vanetza@@V?$duration@_JU?$ratio@$00$0PECEA@@std@@@chrono@std@@@chrono@std@@$0A@@multi_index@boost@@U?$cons@U?$less@V?$time_point@VClock@vanetza@@V?$duration@_JU?$ratio@$00$0PECEA@@std@@@chrono@std@@@chrono@std@@@std@@Unull_type@tuples@boost@@@tuples@3@@tuples@boost@@QEAA@XZ
	??0?$cons@V?$tuple@U?$member@UScheduledCallback@ManualRuntime@vanetza@@V?$time_point@VClock@vanetza@@V?$duration@_JU?$ratio@$00$0PECEA@@std@@@chrono@std@@@chrono@std@@$0A@@multi_index@boost@@U?$less@V?$time_point@VClock@vanetza@@V?$duration@_JU?$ratio@$00$0PECEA@@std@@@chrono@std@@@chrono@std@@@std@@Unull_type@tuples@3@U673@U673@U673@U673@U673@U673@U673@@tuples@boost@@U?$cons@V?$tuple@_KU?$member@UScheduledCallback@ManualRuntime@vanetza@@PEBX$0EI@@multi_index@boost@@U?$hash@PEBX@3@U?$equal_to@PEBX@std@@Unull_type@tuples@3@U783@U783@U783@U783@U783@@tuples@boost@@Unull_type@23@@23@@tuples@boost@@QEAA@XZ
	??0?$cons@V?$tuple@_KU?$member@UScheduledCallback@ManualRuntime@vanetza@@PEBX$0EI@@multi_index@boost@@U?$hash@PEBX@3@U?$equal_to@PEBX@std@@Unull_type@tuples@3@U783@U783@U783@U783@U783@@tuples@boost@@Unull_type@23@@tuples@boost@@QEAA@XZ
	??0?$cons@_KU?$cons@U?$member@UScheduledCallback@ManualRuntime@vanetza@@PEBX$0EI@@multi_index@boost@@U?$cons@U?$hash@PEBX@boost@@U?$cons@U?$equal_to@PEBX@std@@Unull_type@tuples@boost@@@tuples@2@@tuples@3@@tuples@boost@@@tuples@boost@@QEAA@XZ
	??0?$constrained_value@V?$simple_exception_policy@G$00$0BP@Ubad_day_of_month@gregorian@boost@@@CV@boost@@@CV@boost@@QEAA@G@Z
	??0?$constrained_value@V?$simple_exception_policy@G$00$0M@Ubad_month@gregorian@boost@@@CV@boost@@@CV@boost@@QEAA@G@Z
	??0?$constrained_value@V?$simple_exception_policy@G$0FHI@$0CHAP@Ubad_year@gregorian@boost@@@CV@boost@@@CV@boost@@QEAA@G@Z
	??0?$counted_time_rep@Vmillisec_posix_time_system_config@posix_time@boost@@@date_time@boost@@QEAA@AEBVdate@gregorian@2@AEBVtime_duration@posix_time@2@@Z
	??0?$counted_time_rep@Vmillisec_posix_time_system_config@posix_time@boost@@@date_time@boost@@QEAA@V?$int_adapter@_J@12@@Z
	??0?$counted_time_rep@Vmillisec_posix_time_system_config@posix_time@boost@@@date_time@boost@@QEAA@_J@Z
	??0?$date@V0gregorian@boost@@Vgregorian_calendar@12@Vdate_duration@12@@date_time@boost@@QEAA@Vgreg_year@gregorian@2@Vgreg_month@42@Vgreg_day@42@@Z
	??0?$function@$$A6AXV?$time_point@VClock@vanetza@@V?$duration@_JU?$ratio@$00$0PECEA@@std@@@chrono@std@@@chrono@std@@@Z@std@@QEAA@$$QEAV01@@Z
	??0?$function@$$A6AXV?$time_point@VClock@vanetza@@V?$duration@_JU?$ratio@$00$0PECEA@@std@@@chrono@std@@@chrono@std@@@Z@std@@QEAA@AEBV01@@Z
	??0?$hashed_index@U?$member@UScheduledCallback@ManualRuntime@vanetza@@PEBX$0EI@@multi_index@boost@@U?$hash@PEBX@3@U?$equal_to@PEBX@std@@U?$nth_layer@$01UScheduledCallback@ManualRuntime@vanetza@@U?$indexed_by@U?$ordered_non_unique@U?$tag@Uby_deadline@ManualRuntime@vanetza@@Una@mpl@boost@@U456@U456@U456@U456@U456@U456@U456@U456@U456@U456@U456@U456@U456@U456@U456@U456@U456@U456@@multi_index@boost@@U?$member@UScheduledCallback@ManualRuntime@vanetza@@V?$time_point@VClock@vanetza@@V?$duration@_JU?$ratio@$00$0PECEA@@std@@@chrono@std@@@chrono@std@@$0A@@23@Una@mpl@3@@multi_index@boost@@U?$hashed_non_unique@U?$tag@Uby_scope@ManualRuntime@vanetza@@Una@mpl@boost@@U456@U456@U456@U456@U456@U456@U456@U456@U456@U456@U456@U456@U456@U456@U456@U456@U456@U456@@multi_index@boost@@U?$member@UScheduledCallback@ManualRuntime@vanetza@@PEBX$0EI@@23@Una@mpl@3@U563@@23@Una@mpl@3@U563@U563@U563@U563@U563@U563@U563@U563@U563@U563@U563@U563@U563@U563@U563@U563@U563@@multi_index@boost@@V?$allocator@UScheduledCallback@ManualRuntime@vanetza@@@std@@@detail@23@U?$vector1@Uby_scope@ManualRuntime@vanetza@@@mpl@3@Uhashed_non_unique_tag@823@@detail@multi_index@boost@@IEAA@AEBU?$cons@V?$tuple@_KU?$member@UScheduledCallback@ManualRuntime@vanetza@@PEBX$0EI@@multi_index@boost@@U?$hash@PEBX@3@U?$equal_to@PEBX@std@@Unull_type@tuples@3@U783@U783@U783@U783@U783@@tuples@boost@@Unull_type@23@@tuples@3@AEBV?$allocator@UScheduledCallback@ManualRuntime@vanetza@@@std@@@Z
	??0?$hashed_index_iterator@U?$hashed_index_node@U?$index_node_base@UScheduledCallback@ManualRuntime@vanetza@@V?$allocator@UScheduledCallback@ManualRuntime@vanetza@@@std@@@detail@multi_index@boost@@@detail@multi_index@boost@@V?$bucket_array@V?$allocator@UScheduledCallback@ManualRuntime@vanetza@@@std@@@234@Uhashed_non_unique_tag@234@Uhashed_index_global_iterator_tag@234@@detail@multi_index@boost@@QEAA@PEAU?$hashed_index_node@U?$index_node_base@UScheduledCallback@ManualRuntime@vanetza@@V?$allocator@UScheduledCallback@ManualRuntime@vanetza@@@std@@@detail@multi_index@boost@@@123@@Z
	??0?$header_holder@PEAU?$ordered_index_node@Unull_augment_policy@detail@multi_index@boost@@U?$hashed_index_node@U?$index_node_base@UScheduledCallback@ManualRuntime@vanetza@@V?$allocator@UScheduledCallback@ManualRuntime@vanetza@@@std@@@detail@multi_index@boost@@@234@@detail@multi_index@boost@@V?$multi_index_container@UScheduledCallback@ManualRuntime@vanetza@@U?$indexed_by@U?$ordered_non_unique@U?$tag@Uby_deadline@ManualRuntime@vanetza@@Una@mpl@boost@@U456@U456@U456@U456@U456@U456@U456@U456@U456@U456@U456@U456@U456@U456@U456@U456@U456@U456@@multi_index@boost@@U?$member@UScheduledCallback@ManualRuntime@vanetza@@V?$time_point@VClock@vanetza@@V?$duration@_JU?$ratio@$00$0PECEA@@std@@@chrono@std@@@chrono@std@@$0A@@23@Una@mpl@3@@multi_index@boost@@U?$hashed_non_unique@U?$tag@Uby_scope@ManualRuntime@vanetza@@Una@mpl@boost@@U456@U456@U456@U456@U456@U456@U456@U456@U456@U456@U456@U456@U456@U456@U456@U456@U456@U456@@multi_index@boost@@U?$member@UScheduledCallback@ManualRuntime@vanetza@@PEBX$0EI@@23@Una@mpl@3@U563@@23@Una@mpl@3@U563@U563@U563@U563@U563@U563@U563@U563@U563@U563@U563@U563@U563@U563@U563@U563@U563@@multi_index@boost@@V?$allocator@UScheduledCallback@ManualRuntime@vanetza@@@std@@@34@@detail@multi_index@boost@@QEAA@XZ
	??0?$index_base@UScheduledCallback@ManualRuntime@vanetza@@U?$indexed_by@U?$ordered_non_unique@U?$tag@Uby_deadline@ManualRuntime@vanetza@@Una@mpl@boost@@U456@U456@U456@U456@U456@U456@U456@U456@U456@U456@U456@U456@U456@U456@U456@U456@U456@U456@@multi_index@boost@@U?$member@UScheduledCallback@ManualRuntime@vanetza@@V?$time_point@VClock@vanetza@@V?$duration@_JU?$ratio@$00$0PECEA@@std@@@chrono@std@@@chrono@std@@$0A@@23@Una@mpl@3@@multi_index@boost@@U?$hashed_non_unique@U?$tag@Uby_scope@ManualRuntime@vanetza@@Una@mpl@boost@@U456@U456@U456@U456@U456@U456@U456@U456@U456@U456@U456@U456@U456@U456@U456@U456@U456@U456@@multi_index@boost@@U?$member@UScheduledCallback@ManualRuntime@vanetza@@PEBX$0EI@@23@Una@mpl@3@U563@@23@Una@mpl@3@U563@U563@U563@U563@U563@U563@U563@U563@U563@U563@U563@U563@U563@U563@U563@U563@U563@@multi_index@boost@@V?$allocator@UScheduledCallback@ManualRuntime@vanetza@@@std@@@detail@multi_index@boost@@IEAA@AEBUnull_type@tuples@3@AEBV?$allocator@UScheduledCallback@ManualRuntime@vanetza@@@std@@@Z
	??0?$initializer_list@U?$pair@$$CBV?$basic_string@DU?$char_traits@D@std@@V?$allocator@D@2@@std@@G@std@@@std@@QEAA@PEBU?$pair@$$CBV?$basic_string@DU?$char_traits@D@std@@V?$allocator@D@2@@std@@G@1@0@Z
	??0?$int_adapter@I@date_time@boost@@QEAA@I@Z
	??0?$int_adapter@_J@date_time@boost@@QEAA@_J@Z
	??0?$lcast_ret_unsigned@U?$char_traits@D@std@@GD@detail@boost@@QEAA@AEAGQEBDPEBD@Z
	??0?$lcast_ret_unsigned@U?$char_traits@D@std@@ID@detail@boost@@QEAA@AEAIQEBDPEBD@Z
	??0?$lcast_ret_unsigned@U?$char_traits@D@std@@_KD@detail@boost@@QEAA@AEA_KQEBDPEBD@Z
	??0?$lexical_istream_limited_src@DU?$char_traits@D@std@@$0A@$01@detail@boost@@QEAA@XZ
	??0?$lexical_ostream_limited_src@DU?$char_traits@D@std@@@detail@boost@@QEAA@PEBD0@Z
	??0?$map@V?$basic_string@DU?$char_traits@D@std@@V?$allocator@D@2@@std@@GU?$less@V?$basic_string@DU?$char_traits@D@std@@V?$allocator@D@2@@std@@@2@V?$allocator@U?$pair@$$CBV?$basic_string@DU?$char_traits@D@std@@V?$allocator@D@2@@std@@G@std@@@2@@std@@QEAA@V?$initializer_list@U?$pair@$$CBV?$basic_string@DU?$char_traits@D@std@@V?$allocator@D@2@@std@@G@std@@@1@@Z
	??0?$mersenne_twister@I$0CA@$0CHA@$0BIN@$0BP@$0JJAILANP@$0L@$06$0JNCMFGIA@$0P@$0OPMGAAAA@$0BC@@std@@QEAA@III@Z
	??0?$mersenne_twister_engine@I$0CA@$0CHA@$0BIN@$0BP@$0JJAILANP@$0L@$0PPPPPPPP@$06$0JNCMFGIA@$0P@$0OPMGAAAA@$0BC@$0GMAHIJGF@@std@@QEAA@XZ
	??0?$multi_index_container@UScheduledCallback@ManualRuntime@vanetza@@U?$indexed_by@U?$ordered_non_unique@U?$tag@Uby_deadline@ManualRuntime@vanetza@@Una@mpl@boost@@U456@U456@U456@U456@U456@U456@U456@U456@U456@U456@U456@U456@U456@U456@U456@U456@U456@U456@@multi_index@boost@@U?$member@UScheduledCallback@ManualRuntime@vanetza@@V?$time_point@VClock@vanetza@@V?$duration@_JU?$ratio@$00$0PECEA@@std@@@chrono@std@@@chrono@std@@$0A@@23@Una@mpl@3@@multi_index@boost@@U?$hashed_non_unique@U?$tag@Uby_scope@ManualRuntime@vanetza@@Una@mpl@boost@@U456@U456@U456@U456@U456@U456@U456@U456@U456@U456@U456@U456@U456@U456@U456@U456@U456@U456@@multi_index@boost@@U?$member@UScheduledCallback@ManualRuntime@vanetza@@PEBX$0EI@@23@Una@mpl@3@U563@@23@Una@mpl@3@U563@U563@U563@U563@U563@U563@U563@U563@U563@U563@U563@U563@U563@U563@U563@U563@U563@@multi_index@boost@@V?$allocator@UScheduledCallback@ManualRuntime@vanetza@@@std@@@multi_index@boost@@QEAA@XZ
	??0?$numpunct@D@std@@QEAA@AEBV_Locinfo@1@_K_N@Z
	??0?$ordered_index@U?$member@UScheduledCallback@ManualRuntime@vanetza@@V?$time_point@VClock@vanetza@@V?$duration@_JU?$ratio@$00$0PECEA@@std@@@chrono@std@@@chrono@std@@$0A@@multi_index@boost@@U?$less@V?$time_point@VClock@vanetza@@V?$duration@_JU?$ratio@$00$0PECEA@@std@@@chrono@std@@@chrono@std@@@std@@U?$nth_layer@$00UScheduledCallback@ManualRuntime@vanetza@@U?$indexed_by@U?$ordered_non_unique@U?$tag@Uby_deadline@ManualRuntime@vanetza@@Una@mpl@boost@@U456@U456@U456@U456@U456@U456@U456@U456@U456@U456@U456@U456@U456@U456@U456@U456@U456@U456@@multi_index@boost@@U?$member@UScheduledCallback@ManualRuntime@vanetza@@V?$time_point@VClock@vanetza@@V?$duration@_JU?$ratio@$00$0PECEA@@std@@@chrono@std@@@chrono@std@@$0A@@23@Una@mpl@3@@multi_index@boost@@U?$hashed_non_unique@U?$tag@Uby_scope@ManualRuntime@vanetza@@Una@mpl@boost@@U456@U456@U456@U456@U456@U456@U456@U456@U456@U456@U456@U456@U456@U456@U456@U456@U456@U456@@multi_index@boost@@U?$member@UScheduledCallback@ManualRuntime@vanetza@@PEBX$0EI@@23@Una@mpl@3@U563@@23@Una@mpl@3@U563@U563@U563@U563@U563@U563@U563@U563@U563@U563@U563@U563@U563@U563@U563@U563@U563@@multi_index@boost@@V?$allocator@UScheduledCallback@ManualRuntime@vanetza@@@std@@@detail@23@U?$vector1@Uby_deadline@ManualRuntime@vanetza@@@mpl@3@Uordered_non_unique_tag@723@Unull_augment_policy@723@@detail@multi_index@boost@@IEAA@AEBU?$cons@V?$tuple@U?$member@UScheduledCallback@ManualRuntime@vanetza@@V?$time_point@VClock@vanetza@@V?$duration@_JU?$ratio@$00$0PECEA@@std@@@chrono@std@@@chrono@std@@$0A@@multi_index@boost@@U?$less@V?$time_point@VClock@vanetza@@V?$duration@_JU?$ratio@$00$0PECEA@@std@@@chrono@std@@@chrono@std@@@std@@Unull_type@tuples@3@U673@U673@U673@U673@U673@U673@U673@@tuples@boost@@U?$cons@V?$tuple@_KU?$member@UScheduledCallback@ManualRuntime@vanetza@@PEBX$0EI@@multi_index@boost@@U?$hash@PEBX@3@U?$equal_to@PEBX@std@@Unull_type@tuples@3@U783@U783@U783@U783@U783@@tuples@boost@@Unull_type@23@@23@@tuples@3@AEBV?$allocator@UScheduledCallback@ManualRuntime@vanetza@@@std@@@Z
	??0?$ordered_index_impl@U?$member@UScheduledCallback@ManualRuntime@vanetza@@V?$time_point@VClock@vanetza@@V?$duration@_JU?$ratio@$00$0PECEA@@std@@@chrono@std@@@chrono@std@@$0A@@multi_index@boost@@U?$less@V?$time_point@VClock@vanetza@@V?$duration@_JU?$ratio@$00$0PECEA@@std@@@chrono@std@@@chrono@std@@@std@@U?$nth_layer@$00UScheduledCallback@ManualRuntime@vanetza@@U?$indexed_by@U?$ordered_non_unique@U?$tag@Uby_deadline@ManualRuntime@vanetza@@Una@mpl@boost@@U456@U456@U456@U456@U456@U456@U456@U456@U456@U456@U456@U456@U456@U456@U456@U456@U456@U456@@multi_index@boost@@U?$member@UScheduledCallback@ManualRuntime@vanetza@@V?$time_point@VClock@vanetza@@V?$duration@_JU?$ratio@$00$0PECEA@@std@@@chrono@std@@@chrono@std@@$0A@@23@Una@mpl@3@@multi_index@boost@@U?$hashed_non_unique@U?$tag@Uby_scope@ManualRuntime@vanetza@@Una@mpl@boost@@U456@U456@U456@U456@U456@U456@U456@U456@U456@U456@U456@U456@U456@U456@U456@U456@U456@U456@@multi_index@boost@@U?$member@UScheduledCallback@ManualRuntime@vanetza@@PEBX$0EI@@23@Una@mpl@3@U563@@23@Una@mpl@3@U563@U563@U563@U563@U563@U563@U563@U563@U563@U563@U563@U563@U563@U563@U563@U563@U563@@multi_index@boost@@V?$allocator@UScheduledCallback@ManualRuntime@vanetza@@@std@@@detail@23@U?$vector1@Uby_deadline@ManualRuntime@vanetza@@@mpl@3@Uordered_non_unique_tag@723@Unull_augment_policy@723@@detail@multi_index@boost@@IEAA@AEBU?$cons@V?$tuple@U?$member@UScheduledCallback@ManualRuntime@vanetza@@V?$time_point@VClock@vanetza@@V?$duration@_JU?$ratio@$00$0PECEA@@std@@@chrono@std@@@chrono@std@@$0A@@multi_index@boost@@U?$less@V?$time_point@VClock@vanetza@@V?$duration@_JU?$ratio@$00$0PECEA@@std@@@chrono@std@@@chrono@std@@@std@@Unull_type@tuples@3@U673@U673@U673@U673@U673@U673@U673@@tuples@boost@@U?$cons@V?$tuple@_KU?$member@UScheduledCallback@ManualRuntime@vanetza@@PEBX$0EI@@multi_index@boost@@U?$hash@PEBX@3@U?$equal_to@PEBX@std@@Unull_type@tuples@3@U783@U783@U783@U783@U783@@tuples@boost@@Unull_type@23@@23@@tuples@3@AEBV?$allocator@UScheduledCallback@ManualRuntime@vanetza@@@std@@@Z
	??0?$pair@$$CBV?$basic_string@DU?$char_traits@D@std@@V?$allocator@D@2@@std@@G@std@@QEAA@AEBU01@@Z
	??0?$refcount_ptr@Uerror_info_container@exception_detail@boost@@@exception_detail@boost@@QEAA@AEBV012@@Z
	??0?$refcount_ptr@Uerror_info_container@exception_detail@boost@@@exception_detail@boost@@QEAA@XZ
	??0?$time_duration@V0posix_time@boost@@V?$time_resolution_traits@Utime_resolution_traits_adapted64_impl@date_time@boost@@$04$0PECEA@$05_J@date_time@2@@date_time@boost@@IEAA@V?$int_adapter@_J@12@@Z
	??0?$time_duration@V0posix_time@boost@@V?$time_resolution_traits@Utime_resolution_traits_adapted64_impl@date_time@boost@@$04$0PECEA@$05_J@date_time@2@@date_time@boost@@QEAA@W4special_values@12@@Z
	??0?$time_duration@V0posix_time@boost@@V?$time_resolution_traits@Utime_resolution_traits_adapted64_impl@date_time@boost@@$04$0PECEA@$05_J@date_time@2@@date_time@boost@@QEAA@_J000@Z
	??0?$time_point@VClock@vanetza@@V?$duration@_JU?$ratio@$00$0PECEA@@std@@@chrono@std@@@chrono@std@@QEAA@AEBV?$duration@_JU?$ratio@$00$0PECEA@@std@@@12@@Z
	??0?$token_iterator@V?$char_separator@DU?$char_traits@D@std@@@boost@@V?$_String_const_iterator@V?$_String_val@U?$_Simple_types@D@std@@@std@@@std@@V?$basic_string@DU?$char_traits@D@std@@V?$allocator@D@2@@4@@boost@@QEAA@V?$char_separator@DU?$char_traits@D@std@@@1@V?$_String_const_iterator@V?$_String_val@U?$_Simple_types@D@std@@@std@@@std@@1@Z
	??0?$tuple@U?$member@UScheduledCallback@ManualRuntime@vanetza@@V?$time_point@VClock@vanetza@@V?$duration@_JU?$ratio@$00$0PECEA@@std@@@chrono@std@@@chrono@std@@$0A@@multi_index@boost@@U?$less@V?$time_point@VClock@vanetza@@V?$duration@_JU?$ratio@$00$0PECEA@@std@@@chrono@std@@@chrono@std@@@std@@Unull_type@tuples@3@U673@U673@U673@U673@U673@U673@U673@@tuples@boost@@QEAA@XZ
	??0?$tuple@_KU?$member@UScheduledCallback@ManualRuntime@vanetza@@PEBX$0EI@@multi_index@boost@@U?$hash@PEBX@3@U?$equal_to@PEBX@std@@Unull_type@tuples@3@U783@U783@U783@U783@U783@@tuples@boost@@QEAA@XZ
	??0?$vector@EV?$allocator@E@std@@@std@@QEAA@$$QEAV01@@Z
	??0?$vector@EV?$allocator@E@std@@@std@@QEAA@XZ
	??0?$vector@EV?$allocator@E@std@@@std@@QEAA@_KAEBV?$allocator@E@1@@Z
	??0?$wrapexcept@Ubad_day_of_month@gregorian@boost@@@boost@@QEAA@AEBU01@@Z
	??0?$wrapexcept@Ubad_day_of_month@gregorian@boost@@@boost@@QEAA@AEBUbad_day_of_month@gregorian@1@@Z
	??0?$wrapexcept@Ubad_month@gregorian@boost@@@boost@@QEAA@AEBU01@@Z
	??0?$wrapexcept@Ubad_month@gregorian@boost@@@boost@@QEAA@AEBUbad_month@gregorian@1@@Z
	??0?$wrapexcept@Ubad_year@gregorian@boost@@@boost@@QEAA@AEBU01@@Z
	??0?$wrapexcept@Ubad_year@gregorian@boost@@@boost@@QEAA@AEBUbad_year@gregorian@1@@Z
	??0?$wrapexcept@Vbad_lexical_cast@boost@@@boost@@QEAA@AEBU01@@Z
	??0?$wrapexcept@Vbad_lexical_cast@boost@@@boost@@QEAA@AEBVbad_lexical_cast@1@@Z
	??0?$year_month_day_base@Vgreg_year@gregorian@boost@@Vgreg_month@23@Vgreg_day@23@@date_time@boost@@QEAA@Vgreg_year@gregorian@2@Vgreg_month@42@Vgreg_day@42@@Z
	??0ByteBufferConvertible@vanetza@@QEAA@AEBV01@@Z
	??0Exception@InputArchive@vanetza@@QEAA@AEBV012@@Z
	??0Exception@InputArchive@vanetza@@QEAA@PEBD@Z
	??0Exception@OutputArchive@vanetza@@QEAA@AEBV012@@Z
	??0Exception@OutputArchive@vanetza@@QEAA@PEBD@Z
	??0InputArchive@vanetza@@QEAA@AEAV?$basic_istream@DU?$char_traits@D@std@@@std@@@Z
	??0InputArchive@vanetza@@QEAA@AEAV?$basic_streambuf@DU?$char_traits@D@std@@@std@@@Z
	??0ManualRuntime@vanetza@@QEAA@V?$time_point@VClock@vanetza@@V?$duration@_JU?$ratio@$00$0PECEA@@std@@@chrono@std@@@chrono@std@@@Z
	??0OutputArchive@vanetza@@QEAA@AEAV?$basic_ostream@DU?$char_traits@D@std@@@std@@@Z
	??0OutputArchive@vanetza@@QEAA@AEAV?$basic_streambuf@DU?$char_traits@D@std@@@std@@@Z
	??0Runtime@vanetza@@QEAA@XZ
	??0ScheduledCallback@ManualRuntime@vanetza@@QEAA@$$QEAU012@@Z
	??0ScheduledCallback@ManualRuntime@vanetza@@QEAA@V?$time_point@VClock@vanetza@@V?$duration@_JU?$ratio@$00$0PECEA@@std@@@chrono@std@@@chrono@std@@AEBV?$function@$$A6AXV?$time_point@VClock@vanetza@@V?$duration@_JU?$ratio@$00$0PECEA@@std@@@chrono@std@@@chrono@std@@@Z@5@PEBX@Z
	??0UnitInterval@vanetza@@QEAA@N@Z
	??0UnitInterval@vanetza@@QEAA@XZ
	??0_Basic_container_proxy_ptr12@std@@IEAA@XZ
	??0_Bxty@?$_String_val@U?$_Simple_types@D@std@@@std@@QEAA@XZ
	??0_Container_base12@std@@QEAA@XZ
	??0_Container_proxy@std@@QEAA@PEAU_Container_base12@1@@Z
	??0_Iterator_base12@std@@QEAA@AEBU01@@Z
	??0_Iterator_base12@std@@QEAA@XZ
	??0bad_alloc@std@@AEAA@QEBD@Z
	??0bad_alloc@std@@QEAA@AEBV01@@Z
	??0bad_array_new_length@std@@QEAA@AEBV01@@Z
	??0bad_array_new_length@std@@QEAA@XZ
	??0bad_cast@std@@QEAA@AEBV01@@Z
	??0bad_cast@std@@QEAA@XZ
	??0bad_day_of_month@gregorian@boost@@QEAA@AEBU012@@Z
	??0bad_day_of_month@gregorian@boost@@QEAA@AEBV?$basic_string@DU?$char_traits@D@std@@V?$allocator@D@2@@std@@@Z
	??0bad_day_of_month@gregorian@boost@@QEAA@XZ
	??0bad_lexical_cast@boost@@QEAA@AEBV01@@Z
	??0bad_lexical_cast@boost@@QEAA@AEBVtype_info@@0@Z
	??0bad_month@gregorian@boost@@QEAA@AEBU012@@Z
	??0bad_month@gregorian@boost@@QEAA@XZ
	??0bad_year@gregorian@boost@@QEAA@AEBU012@@Z
	??0bad_year@gregorian@boost@@QEAA@XZ
	??0byte_buffer@convertible@vanetza@@QEAA@XZ
	??0byte_buffer_sink@vanetza@@QEAA@AEAV?$vector@EV?$allocator@E@std@@@std@@@Z
	??0byte_buffer_source@vanetza@@QEAA@AEBV?$vector@EV?$allocator@E@std@@@std@@@Z
	??0byte_buffer_source@vanetza@@QEAA@V?$_Vector_const_iterator@V?$_Vector_val@U?$_Simple_types@E@std@@@std@@@std@@0@Z
	??0byte_buffer_source@vanetza@@QEAA@V?$iterator_range@V?$_Vector_const_iterator@V?$_Vector_val@U?$_Simple_types@E@std@@@std@@@std@@@boost@@@Z
	??0byte_view_iterator@vanetza@@QEAA@AEBV?$_Vector_const_iterator@V?$_Vector_val@U?$_Simple_types@E@std@@@std@@@std@@@Z
	??0byte_view_range@vanetza@@QEAA@$$QEAV?$vector@EV?$allocator@E@std@@@std@@@Z
	??0byte_view_range@vanetza@@QEAA@AEBV?$_Vector_const_iterator@V?$_Vector_val@U?$_Simple_types@E@std@@@std@@@std@@0@Z
	??0byte_view_range@vanetza@@QEAA@AEBVbyte_view_iterator@1@0@Z
	??0clone_base@exception_detail@boost@@QEAA@AEBV012@@Z
	??0clone_base@exception_detail@boost@@QEAA@XZ
	??0color_ref@?$ordered_index_node_compressed_base@Unull_augment_policy@detail@multi_index@boost@@V?$allocator@D@std@@@detail@multi_index@boost@@QEAA@PEA_K@Z
	??0date@gregorian@boost@@QEAA@Vgreg_year@12@Vgreg_month@12@Vgreg_day@12@@Z
	??0do_not_construct_out_stream_t@detail@boost@@QEAA@PEAUdo_not_construct_out_buffer_t@12@@Z
	??0exception@boost@@IEAA@XZ
	??0exception@boost@@QEAA@AEBV01@@Z
	??0exception@std@@QEAA@AEBV01@@Z
	??0exception@std@@QEAA@QEBD@Z
	??0exception@std@@QEAA@QEBDH@Z
	??0greg_day@gregorian@boost@@QEAA@G@Z
	??0greg_month@gregorian@boost@@QEAA@G@Z
	??0greg_year@gregorian@boost@@QEAA@G@Z
	??0link_info@?$ordered_index_impl@U?$member@UScheduledCallback@ManualRuntime@vanetza@@V?$time_point@VClock@vanetza@@V?$duration@_JU?$ratio@$00$0PECEA@@std@@@chrono@std@@@chrono@std@@$0A@@multi_index@boost@@U?$less@V?$time_point@VClock@vanetza@@V?$duration@_JU?$ratio@$00$0PECEA@@std@@@chrono@std@@@chrono@std@@@std@@U?$nth_layer@$00UScheduledCallback@ManualRuntime@vanetza@@U?$indexed_by@U?$ordered_non_unique@U?$tag@Uby_deadline@ManualRuntime@vanetza@@Una@mpl@boost@@U456@U456@U456@U456@U456@U456@U456@U456@U456@U456@U456@U456@U456@U456@U456@U456@U456@U456@@multi_index@boost@@U?$member@UScheduledCallback@ManualRuntime@vanetza@@V?$time_point@VClock@vanetza@@V?$duration@_JU?$ratio@$00$0PECEA@@std@@@chrono@std@@@chrono@std@@$0A@@23@Una@mpl@3@@multi_index@boost@@U?$hashed_non_unique@U?$tag@Uby_scope@ManualRuntime@vanetza@@Una@mpl@boost@@U456@U456@U456@U456@U456@U456@U456@U456@U456@U456@U456@U456@U456@U456@U456@U456@U456@U456@@multi_index@boost@@U?$member@UScheduledCallback@ManualRuntime@vanetza@@PEBX$0EI@@23@Una@mpl@3@U563@@23@Una@mpl@3@U563@U563@U563@U563@U563@U563@U563@U563@U563@U563@U563@U563@U563@U563@U563@U563@U563@@multi_index@boost@@V?$allocator@UScheduledCallback@ManualRuntime@vanetza@@@std@@@detail@23@U?$vector1@Uby_deadline@ManualRuntime@vanetza@@@mpl@3@Uordered_non_unique_tag@723@Unull_augment_policy@723@@detail@multi_index@boost@@QEAA@XZ
	??0link_info_non_unique@?$hashed_index@U?$member@UScheduledCallback@ManualRuntime@vanetza@@PEBX$0EI@@multi_index@boost@@U?$hash@PEBX@3@U?$equal_to@PEBX@std@@U?$nth_layer@$01UScheduledCallback@ManualRuntime@vanetza@@U?$indexed_by@U?$ordered_non_unique@U?$tag@Uby_deadline@ManualRuntime@vanetza@@Una@mpl@boost@@U456@U456@U456@U456@U456@U456@U456@U456@U456@U456@U456@U456@U456@U456@U456@U456@U456@U456@@multi_index@boost@@U?$member@UScheduledCallback@ManualRuntime@vanetza@@V?$time_point@VClock@vanetza@@V?$duration@_JU?$ratio@$00$0PECEA@@std@@@chrono@std@@@chrono@std@@$0A@@23@Una@mpl@3@@multi_index@boost@@U?$hashed_non_unique@U?$tag@Uby_scope@ManualRuntime@vanetza@@Una@mpl@boost@@U456@U456@U456@U456@U456@U456@U456@U456@U456@U456@U456@U456@U456@U456@U456@U456@U456@U456@@multi_index@boost@@U?$member@UScheduledCallback@ManualRuntime@vanetza@@PEBX$0EI@@23@Una@mpl@3@U563@@23@Una@mpl@3@U563@U563@U563@U563@U563@U563@U563@U563@U563@U563@U563@U563@U563@U563@U563@U563@U563@@multi_index@boost@@V?$allocator@UScheduledCallback@ManualRuntime@vanetza@@@std@@@detail@23@U?$vector1@Uby_scope@ManualRuntime@vanetza@@@mpl@3@Uhashed_non_unique_tag@823@@detail@multi_index@boost@@QEAA@PEAU?$hashed_index_base_node_impl@V?$allocator@D@std@@@234@@Z
	??0locale@std@@QEAA@AEBV01@@Z
	??0locale@std@@QEAA@XZ
	??0logic_error@std@@QEAA@AEBV01@@Z
	??0logic_error@std@@QEAA@PEBD@Z
	??0out_of_range@std@@QEAA@AEBV01@@Z
	??0out_of_range@std@@QEAA@AEBV?$basic_string@DU?$char_traits@D@std@@V?$allocator@D@2@@1@@Z
	??0parent_ref@?$ordered_index_node_compressed_base@Unull_augment_policy@detail@multi_index@boost@@V?$allocator@D@std@@@detail@multi_index@boost@@QEAA@AEBU01234@@Z
	??0parent_ref@?$ordered_index_node_compressed_base@Unull_augment_policy@detail@multi_index@boost@@V?$allocator@D@std@@@detail@multi_index@boost@@QEAA@PEA_K@Z
	??0ptime@posix_time@boost@@QEAA@AEBU?$counted_time_rep@Vmillisec_posix_time_system_config@posix_time@boost@@@date_time@2@@Z
	??0ptime@posix_time@boost@@QEAA@Vdate@gregorian@2@Vtime_duration@12@@Z
	??0runtime_error@std@@QEAA@AEBV01@@Z
	??0runtime_error@std@@QEAA@PEBD@Z
	??0time_duration@posix_time@boost@@IEAA@V?$int_adapter@_J@date_time@2@@Z
	??0time_duration@posix_time@boost@@QEAA@W4special_values@date_time@2@@Z
	??0time_duration@posix_time@boost@@QEAA@_J000@Z
	??1?$_Alloc_construct_ptr@V?$allocator@U?$_Tree_node@U?$pair@$$CBV?$basic_string@DU?$char_traits@D@std@@V?$allocator@D@2@@std@@G@std@@PEAX@std@@@std@@@std@@QEAA@XZ
	??1?$_Compressed_pair@V?$allocator@D@std@@V?$_String_val@U?$_Simple_types@D@std@@@2@$00@std@@QEAA@XZ
	??1?$_Container_proxy_ptr12@V?$allocator@U_Container_proxy@std@@@std@@@std@@QEAA@XZ
	??1?$_Func_class@E$$V@std@@QEAA@XZ
	??1?$_Func_class@XV?$time_point@VClock@vanetza@@V?$duration@_JU?$ratio@$00$0PECEA@@std@@@chrono@std@@@chrono@std@@@std@@QEAA@XZ
	??1?$_String_const_iterator@V?$_String_val@U?$_Simple_types@D@std@@@std@@@std@@QEAA@XZ
	??1?$_String_val@U?$_Simple_types@D@std@@@std@@QEAA@XZ
	??1?$_Tidy_guard@V?$numpunct@D@std@@@std@@QEAA@XZ
	??1?$_Tidy_guard@V?$vector@EV?$allocator@E@std@@@std@@@std@@QEAA@XZ
	??1?$_Tree@V?$_Tmap_traits@V?$basic_string@DU?$char_traits@D@std@@V?$allocator@D@2@@std@@GU?$less@V?$basic_string@DU?$char_traits@D@std@@V?$allocator@D@2@@std@@@2@V?$allocator@U?$pair@$$CBV?$basic_string@DU?$char_traits@D@std@@V?$allocator@D@2@@std@@G@std@@@2@$0A@@std@@@std@@QEAA@XZ
	??1?$_Tree_const_iterator@V?$_Tree_val@U?$_Tree_simple_types@U?$pair@$$CBV?$basic_string@DU?$char_traits@D@std@@V?$allocator@D@2@@std@@G@std@@@std@@@std@@@std@@QEAA@XZ
	??1?$_Tree_iterator@V?$_Tree_val@U?$_Tree_simple_types@U?$pair@$$CBV?$basic_string@DU?$char_traits@D@std@@V?$allocator@D@2@@std@@G@std@@@std@@@std@@@std@@QEAA@XZ
	??1?$_Tree_temp_node@V?$allocator@U?$_Tree_node@U?$pair@$$CBV?$basic_string@DU?$char_traits@D@std@@V?$allocator@D@2@@std@@G@std@@PEAX@std@@@std@@@std@@QEAA@XZ
	??1?$_Tree_temp_node_alloc@V?$allocator@U?$_Tree_node@U?$pair@$$CBV?$basic_string@DU?$char_traits@D@std@@V?$allocator@D@2@@std@@G@std@@PEAX@std@@@std@@@std@@QEAA@XZ
	??1?$_Tree_unchecked_const_iterator@V?$_Tree_val@U?$_Tree_simple_types@U?$pair@$$CBV?$basic_string@DU?$char_traits@D@std@@V?$allocator@D@2@@std@@G@std@@@std@@@std@@U_Iterator_base12@2@@std@@QEAA@XZ
	??1?$_Uninitialized_backout_al@V?$allocator@E@std@@@std@@QEAA@XZ
	??1?$_Vector_const_iterator@V?$_Vector_val@U?$_Simple_types@E@std@@@std@@@std@@QEAA@XZ
	??1?$_Vector_iterator@V?$_Vector_val@U?$_Simple_types@E@std@@@std@@@std@@QEAA@XZ
	??1?$auto_space@PEAU?$hashed_index_node_impl@V?$allocator@D@std@@@detail@multi_index@boost@@V?$allocator@UScheduledCallback@ManualRuntime@vanetza@@@std@@@detail@multi_index@boost@@QEAA@XZ
	??1?$auto_space@U?$hashed_index_base_node_impl@V?$allocator@D@std@@@detail@multi_index@boost@@V?$allocator@UScheduledCallback@ManualRuntime@vanetza@@@std@@@detail@multi_index@boost@@QEAA@XZ
	??1?$auto_space@_KV?$allocator@UScheduledCallback@ManualRuntime@vanetza@@@std@@@detail@multi_index@boost@@QEAA@XZ
	??1?$basic_string@DU?$char_traits@D@std@@V?$allocator@D@2@@std@@QEAA@XZ
	??1?$bucket_array@V?$allocator@UScheduledCallback@ManualRuntime@vanetza@@@std@@@detail@multi_index@boost@@QEAA@XZ
	??1?$byte_buffer_impl@$$T@convertible@vanetza@@UEAA@XZ
	??1?$byte_buffer_impl@V?$basic_string@DU?$char_traits@D@std@@V?$allocator@D@2@@std@@@convertible@vanetza@@UEAA@XZ
	??1?$byte_buffer_impl@V?$vector@EV?$allocator@E@std@@@std@@@convertible@vanetza@@UEAA@XZ
	??1?$char_separator@DU?$char_traits@D@std@@@boost@@QEAA@XZ
	??1?$function@$$A6AEXZ@std@@QEAA@XZ
	??1?$function@$$A6AXV?$time_point@VClock@vanetza@@V?$duration@_JU?$ratio@$00$0PECEA@@std@@@chrono@std@@@chrono@std@@@Z@std@@QEAA@XZ
	??1?$hashed_index@U?$member@UScheduledCallback@ManualRuntime@vanetza@@PEBX$0EI@@multi_index@boost@@U?$hash@PEBX@3@U?$equal_to@PEBX@std@@U?$nth_layer@$01UScheduledCallback@ManualRuntime@vanetza@@U?$indexed_by@U?$ordered_non_unique@U?$tag@Uby_deadline@ManualRuntime@vanetza@@Una@mpl@boost@@U456@U456@U456@U456@U456@U456@U456@U456@U456@U456@U456@U456@U456@U456@U456@U456@U456@U456@@multi_index@boost@@U?$member@UScheduledCallback@ManualRuntime@vanetza@@V?$time_point@VClock@vanetza@@V?$duration@_JU?$ratio@$00$0PECEA@@std@@@chrono@std@@@chrono@std@@$0A@@23@Una@mpl@3@@multi_index@boost@@U?$hashed_non_unique@U?$tag@Uby_scope@ManualRuntime@vanetza@@Una@mpl@boost@@U456@U456@U456@U456@U456@U456@U456@U456@U456@U456@U456@U456@U456@U456@U456@U456@U456@U456@@multi_index@boost@@U?$member@UScheduledCallback@ManualRuntime@vanetza@@PEBX$0EI@@23@Una@mpl@3@U563@@23@Una@mpl@3@U563@U563@U563@U563@U563@U563@U563@U563@U563@U563@U563@U563@U563@U563@U563@U563@U563@@multi_index@boost@@V?$allocator@UScheduledCallback@ManualRuntime@vanetza@@@std@@@detail@23@U?$vector1@Uby_scope@ManualRuntime@vanetza@@@mpl@3@Uhashed_non_unique_tag@823@@detail@multi_index@boost@@IEAA@XZ
	??1?$header_holder@PEAU?$ordered_index_node@Unull_augment_policy@detail@multi_index@boost@@U?$hashed_index_node@U?$index_node_base@UScheduledCallback@ManualRuntime@vanetza@@V?$allocator@UScheduledCallback@ManualRuntime@vanetza@@@std@@@detail@multi_index@boost@@@234@@detail@multi_index@boost@@V?$multi_index_container@UScheduledCallback@ManualRuntime@vanetza@@U?$indexed_by@U?$ordered_non_unique@U?$tag@Uby_deadline@ManualRuntime@vanetza@@Una@mpl@boost@@U456@U456@U456@U456@U456@U456@U456@U456@U456@U456@U456@U456@U456@U456@U456@U456@U456@U456@@multi_index@boost@@U?$member@UScheduledCallback@ManualRuntime@vanetza@@V?$time_point@VClock@vanetza@@V?$duration@_JU?$ratio@$00$0PECEA@@std@@@chrono@std@@@chrono@std@@$0A@@23@Una@mpl@3@@multi_index@boost@@U?$hashed_non_unique@U?$tag@Uby_scope@ManualRuntime@vanetza@@Una@mpl@boost@@U456@U456@U456@U456@U456@U456@U456@U456@U456@U456@U456@U456@U456@U456@U456@U456@U456@U456@@multi_index@boost@@U?$member@UScheduledCallback@ManualRuntime@vanetza@@PEBX$0EI@@23@Una@mpl@3@U563@@23@Una@mpl@3@U563@U563@U563@U563@U563@U563@U563@U563@U563@U563@U563@U563@U563@U563@U563@U563@U563@@multi_index@boost@@V?$allocator@UScheduledCallback@ManualRuntime@vanetza@@@std@@@34@@detail@multi_index@boost@@QEAA@XZ
	??1?$iterator_range@V?$_Vector_const_iterator@V?$_Vector_val@U?$_Simple_types@E@std@@@std@@@std@@@boost@@QEAA@XZ
	??1?$iterator_range_base@V?$_Vector_const_iterator@V?$_Vector_val@U?$_Simple_types@E@std@@@std@@@std@@Ubidirectional_traversal_tag@iterators@boost@@@iterator_range_detail@boost@@QEAA@XZ
	??1?$iterator_range_base@V?$_Vector_const_iterator@V?$_Vector_val@U?$_Simple_types@E@std@@@std@@@std@@Uincrementable_traversal_tag@iterators@boost@@@iterator_range_detail@boost@@QEAA@XZ
	??1?$iterator_range_base@V?$_Vector_const_iterator@V?$_Vector_val@U?$_Simple_types@E@std@@@std@@@std@@Urandom_access_traversal_tag@iterators@boost@@@iterator_range_detail@boost@@QEAA@XZ
	??1?$map@V?$basic_string@DU?$char_traits@D@std@@V?$allocator@D@2@@std@@GU?$less@V?$basic_string@DU?$char_traits@D@std@@V?$allocator@D@2@@std@@@2@V?$allocator@U?$pair@$$CBV?$basic_string@DU?$char_traits@D@std@@V?$allocator@D@2@@std@@G@std@@@2@@std@@QEAA@XZ
	??1?$multi_index_container@UScheduledCallback@ManualRuntime@vanetza@@U?$indexed_by@U?$ordered_non_unique@U?$tag@Uby_deadline@ManualRuntime@vanetza@@Una@mpl@boost@@U456@U456@U456@U456@U456@U456@U456@U456@U456@U456@U456@U456@U456@U456@U456@U456@U456@U456@@multi_index@boost@@U?$member@UScheduledCallback@ManualRuntime@vanetza@@V?$time_point@VClock@vanetza@@V?$duration@_JU?$ratio@$00$0PECEA@@std@@@chrono@std@@@chrono@std@@$0A@@23@Una@mpl@3@@multi_index@boost@@U?$hashed_non_unique@U?$tag@Uby_scope@ManualRuntime@vanetza@@Una@mpl@boost@@U456@U456@U456@U456@U456@U456@U456@U456@U456@U456@U456@U456@U456@U456@U456@U456@U456@U456@@multi_index@boost@@U?$member@UScheduledCallback@ManualRuntime@vanetza@@PEBX$0EI@@23@Una@mpl@3@U563@@23@Una@mpl@3@U563@U563@U563@U563@U563@U563@U563@U563@U563@U563@U563@U563@U563@U563@U563@U563@U563@@multi_index@boost@@V?$allocator@UScheduledCallback@ManualRuntime@vanetza@@@std@@@multi_index@boost@@QEAA@XZ
	??1?$numpunct@D@std@@MEAA@XZ
	??1?$ordered_index@U?$member@UScheduledCallback@ManualRuntime@vanetza@@V?$time_point@VClock@vanetza@@V?$duration@_JU?$ratio@$00$0PECEA@@std@@@chrono@std@@@chrono@std@@$0A@@multi_index@boost@@U?$less@V?$time_point@VClock@vanetza@@V?$duration@_JU?$ratio@$00$0PECEA@@std@@@chrono@std@@@chrono@std@@@std@@U?$nth_layer@$00UScheduledCallback@ManualRuntime@vanetza@@U?$indexed_by@U?$ordered_non_unique@U?$tag@Uby_deadline@ManualRuntime@vanetza@@Una@mpl@boost@@U456@U456@U456@U456@U456@U456@U456@U456@U456@U456@U456@U456@U456@U456@U456@U456@U456@U456@@multi_index@boost@@U?$member@UScheduledCallback@ManualRuntime@vanetza@@V?$time_point@VClock@vanetza@@V?$duration@_JU?$ratio@$00$0PECEA@@std@@@chrono@std@@@chrono@std@@$0A@@23@Una@mpl@3@@multi_index@boost@@U?$hashed_non_unique@U?$tag@Uby_scope@ManualRuntime@vanetza@@Una@mpl@boost@@U456@U456@U456@U456@U456@U456@U456@U456@U456@U456@U456@U456@U456@U456@U456@U456@U456@U456@@multi_index@boost@@U?$member@UScheduledCallback@ManualRuntime@vanetza@@PEBX$0EI@@23@Una@mpl@3@U563@@23@Una@mpl@3@U563@U563@U563@U563@U563@U563@U563@U563@U563@U563@U563@U563@U563@U563@U563@U563@U563@@multi_index@boost@@V?$allocator@UScheduledCallback@ManualRuntime@vanetza@@@std@@@detail@23@U?$vector1@Uby_deadline@ManualRuntime@vanetza@@@mpl@3@Uordered_non_unique_tag@723@Unull_augment_policy@723@@detail@multi_index@boost@@QEAA@XZ
	??1?$ordered_index_impl@U?$member@UScheduledCallback@ManualRuntime@vanetza@@V?$time_point@VClock@vanetza@@V?$duration@_JU?$ratio@$00$0PECEA@@std@@@chrono@std@@@chrono@std@@$0A@@multi_index@boost@@U?$less@V?$time_point@VClock@vanetza@@V?$duration@_JU?$ratio@$00$0PECEA@@std@@@chrono@std@@@chrono@std@@@std@@U?$nth_layer@$00UScheduledCallback@ManualRuntime@vanetza@@U?$indexed_by@U?$ordered_non_unique@U?$tag@Uby_deadline@ManualRuntime@vanetza@@Una@mpl@boost@@U456@U456@U456@U456@U456@U456@U456@U456@U456@U456@U456@U456@U456@U456@U456@U456@U456@U456@@multi_index@boost@@U?$member@UScheduledCallback@ManualRuntime@vanetza@@V?$time_point@VClock@vanetza@@V?$duration@_JU?$ratio@$00$0PECEA@@std@@@chrono@std@@@chrono@std@@$0A@@23@Una@mpl@3@@multi_index@boost@@U?$hashed_non_unique@U?$tag@Uby_scope@ManualRuntime@vanetza@@Una@mpl@boost@@U456@U456@U456@U456@U456@U456@U456@U456@U456@U456@U456@U456@U456@U456@U456@U456@U456@U456@@multi_index@boost@@U?$member@UScheduledCallback@ManualRuntime@vanetza@@PEBX$0EI@@23@Una@mpl@3@U563@@23@Una@mpl@3@U563@U563@U563@U563@U563@U563@U563@U563@U563@U563@U563@U563@U563@U563@U563@U563@U563@@multi_index@boost@@V?$allocator@UScheduledCallback@ManualRuntime@vanetza@@@std@@@detail@23@U?$vector1@Uby_deadline@ManualRuntime@vanetza@@@mpl@3@Uordered_non_unique_tag@723@Unull_augment_policy@723@@detail@multi_index@boost@@IEAA@XZ
	??1?$pair@$$CBV?$basic_string@DU?$char_traits@D@std@@V?$allocator@D@2@@std@@G@std@@QEAA@XZ
	??1?$refcount_ptr@Uerror_info_container@exception_detail@boost@@@exception_detail@boost@@QEAA@XZ
	??1?$token_iterator@V?$char_separator@DU?$char_traits@D@std@@@boost@@V?$_String_const_iterator@V?$_String_val@U?$_Simple_types@D@std@@@std@@@std@@V?$basic_string@DU?$char_traits@D@std@@V?$allocator@D@2@@4@@boost@@QEAA@XZ
	??1?$tokenizer@V?$char_separator@DU?$char_traits@D@std@@@boost@@V?$_String_const_iterator@V?$_String_val@U?$_Simple_types@D@std@@@std@@@std@@V?$basic_string@DU?$char_traits@D@std@@V?$allocator@D@2@@4@@boost@@QEAA@XZ
	??1?$unique_ptr@Ubyte_buffer@convertible@vanetza@@U?$default_delete@Ubyte_buffer@convertible@vanetza@@@std@@@std@@QEAA@XZ
	??1?$unique_ptr@V_Facet_base@std@@U?$default_delete@V_Facet_base@std@@@2@@std@@QEAA@XZ
	??1?$vector@EV?$allocator@E@std@@@std@@QEAA@XZ
	??1?$wrapexcept@Ubad_day_of_month@gregorian@boost@@@boost@@UEAA@XZ
	??1?$wrapexcept@Ubad_month@gregorian@boost@@@boost@@UEAA@XZ
	??1?$wrapexcept@Ubad_year@gregorian@boost@@@boost@@UEAA@XZ
	??1?$wrapexcept@Vbad_lexical_cast@boost@@@boost@@UEAA@XZ
	??1Exception@InputArchive@vanetza@@UEAA@XZ
	??1Exception@OutputArchive@vanetza@@UEAA@XZ
	??1ManualRuntime@vanetza@@UEAA@XZ
	??1Runtime@vanetza@@UEAA@XZ
	??1ScheduledCallback@ManualRuntime@vanetza@@QEAA@XZ
	??1_Bxty@?$_String_val@U?$_Simple_types@D@std@@@std@@QEAA@XZ
	??1_Iterator_base12@std@@QEAA@XZ
	??1bad_alloc@std@@UEAA@XZ
	??1bad_array_new_length@std@@UEAA@XZ
	??1bad_cast@std@@UEAA@XZ
	??1bad_day_of_month@gregorian@boost@@UEAA@XZ
	??1bad_lexical_cast@boost@@UEAA@XZ
	??1bad_month@gregorian@boost@@UEAA@XZ
	??1bad_year@gregorian@boost@@UEAA@XZ
	??1byte_buffer@convertible@vanetza@@UEAA@XZ
	??1clone_base@exception_detail@boost@@UEAA@XZ
	??1deleter@?$wrapexcept@Ubad_day_of_month@gregorian@boost@@@boost@@QEAA@XZ
	??1deleter@?$wrapexcept@Ubad_month@gregorian@boost@@@boost@@QEAA@XZ
	??1deleter@?$wrapexcept@Ubad_year@gregorian@boost@@@boost@@QEAA@XZ
	??1deleter@?$wrapexcept@Vbad_lexical_cast@boost@@@boost@@QEAA@XZ
	??1exception@boost@@MEAA@XZ
	??1exception@std@@UEAA@XZ
	??1locale@std@@QEAA@XZ
	??1logic_error@std@@UEAA@XZ
	??1out_of_range@std@@UEAA@XZ
	??1runtime_error@std@@UEAA@XZ
	??2@YAPEAX_KPEAX@Z
	??4?$_String_const_iterator@V?$_String_val@U?$_Simple_types@D@std@@@std@@@std@@QEAAAEAV01@AEBV01@@Z
	??4?$back_insert_iterator@V?$vector@EV?$allocator@E@std@@@std@@@std@@QEAAAEAV01@$$QEAE@Z
	??4?$basic_string@DU?$char_traits@D@std@@V?$allocator@D@2@@std@@QEAAAEAV01@$$QEAV01@@Z
	??4?$basic_string@DU?$char_traits@D@std@@V?$allocator@D@2@@std@@QEAAAEAV01@QEBD@Z
	??4?$refcount_ptr@Uerror_info_container@exception_detail@boost@@@exception_detail@boost@@QEAAAEAV012@AEBV012@@Z
	??4?$vector@EV?$allocator@E@std@@@std@@QEAAAEAV01@AEBV01@@Z
	??4ByteBufferConvertible@vanetza@@QEAAAEAV01@AEBV01@@Z
	??4_Iterator_base12@std@@QEAAAEAU01@AEBU01@@Z
	??4color_ref@?$ordered_index_node_compressed_base@Unull_augment_policy@detail@multi_index@boost@@V?$allocator@D@std@@@detail@multi_index@boost@@QEAAAEAU01234@AEBU01234@@Z
	??4color_ref@?$ordered_index_node_compressed_base@Unull_augment_policy@detail@multi_index@boost@@V?$allocator@D@std@@@detail@multi_index@boost@@QEAAAEAU01234@W4ordered_index_color@234@@Z
	??4parent_ref@?$ordered_index_node_compressed_base@Unull_augment_policy@detail@multi_index@boost@@V?$allocator@D@std@@@detail@multi_index@boost@@QEAAAEAU01234@AEBU01234@@Z
	??4parent_ref@?$ordered_index_node_compressed_base@Unull_augment_policy@detail@multi_index@boost@@V?$allocator@D@std@@@detail@multi_index@boost@@QEAAAEAU01234@PEAU?$ordered_index_node_impl@Unull_augment_policy@detail@multi_index@boost@@V?$allocator@D@std@@@234@@Z
	??5?$lexical_ostream_limited_src@DU?$char_traits@D@std@@@detail@boost@@QEAA_NAEAG@Z
	??5?$lexical_ostream_limited_src@DU?$char_traits@D@std@@@detail@boost@@QEAA_NAEAH@Z
	??5?$lexical_ostream_limited_src@DU?$char_traits@D@std@@@detail@boost@@QEAA_NAEA_J@Z
	??8?$_String_const_iterator@V?$_String_val@U?$_Simple_types@D@std@@@std@@@std@@QEBA_NAEBV01@@Z
	??8?$_Tree_const_iterator@V?$_Tree_val@U?$_Tree_simple_types@U?$pair@$$CBV?$basic_string@DU?$char_traits@D@std@@V?$allocator@D@2@@std@@G@std@@@std@@@std@@@std@@QEBA_NAEBV01@@Z
	??8?$_Vector_const_iterator@V?$_Vector_val@U?$_Simple_types@E@std@@@std@@@std@@QEBA_NAEBV01@@Z
	??8UnitInterval@vanetza@@QEBA_NAEBV01@@Z
	??8locale@std@@QEBA_NAEBV01@@Z
	??9?$_String_const_iterator@V?$_String_val@U?$_Simple_types@D@std@@@std@@@std@@QEBA_NAEBV01@@Z
	??9?$_Tree_const_iterator@V?$_Tree_val@U?$_Tree_simple_types@U?$pair@$$CBV?$basic_string@DU?$char_traits@D@std@@V?$allocator@D@2@@std@@G@std@@@std@@@std@@@std@@QEBA_NAEBV01@@Z
	??9byte_view_iterator@vanetza@@QEBA_NAEBV01@@Z
	??9operators_impl@boost@@YA_NAEBV?$bidir_node_iterator@U?$ordered_index_node@Unull_augment_policy@detail@multi_index@boost@@U?$hashed_index_node@U?$index_node_base@UScheduledCallback@ManualRuntime@vanetza@@V?$allocator@UScheduledCallback@ManualRuntime@vanetza@@@std@@@detail@multi_index@boost@@@234@@detail@multi_index@boost@@@detail@multi_index@1@0@Z
	??9operators_impl@boost@@YA_NAEBV?$hashed_index_iterator@U?$hashed_index_node@U?$index_node_base@UScheduledCallback@ManualRuntime@vanetza@@V?$allocator@UScheduledCallback@ManualRuntime@vanetza@@@std@@@detail@multi_index@boost@@@detail@multi_index@boost@@V?$bucket_array@V?$allocator@UScheduledCallback@ManualRuntime@vanetza@@@std@@@234@Uhashed_non_unique_tag@234@Uhashed_index_global_iterator_tag@234@@detail@multi_index@1@0@Z
	??A?$basic_string@DU?$char_traits@D@std@@V?$allocator@D@2@@std@@QEAAAEAD_K@Z
	??A?$basic_string@DU?$char_traits@D@std@@V?$allocator@D@2@@std@@QEBAAEBD_K@Z
	??Abyte_view_iterator@vanetza@@QEAAAEBE_J@Z
	??Abyte_view_range@vanetza@@QEBAE_K@Z
	??B?$integral_constant@_N$00@boost@@QEBAAEBU?$bool_@$00@mpl@1@XZ
	??Bcolor_ref@?$ordered_index_node_compressed_base@Unull_augment_policy@detail@multi_index@boost@@V?$allocator@D@std@@@detail@multi_index@boost@@QEBA?AW4ordered_index_color@234@XZ
	??Bgreg_day@gregorian@boost@@QEBAGXZ
	??Bgreg_month@gregorian@boost@@QEBAGXZ
	??Bgreg_year@gregorian@boost@@QEBAGXZ
	??Blink_info_non_unique@?$hashed_index@U?$member@UScheduledCallback@ManualRuntime@vanetza@@PEBX$0EI@@multi_index@boost@@U?$hash@PEBX@3@U?$equal_to@PEBX@std@@U?$nth_layer@$01UScheduledCallback@ManualRuntime@vanetza@@U?$indexed_by@U?$ordered_non_unique@U?$tag@Uby_deadline@ManualRuntime@vanetza@@Una@mpl@boost@@U456@U456@U456@U456@U456@U456@U456@U456@U456@U456@U456@U456@U456@U456@U456@U456@U456@U456@@multi_index@boost@@U?$member@UScheduledCallback@ManualRuntime@vanetza@@V?$time_point@VClock@vanetza@@V?$duration@_JU?$ratio@$00$0PECEA@@std@@@chrono@std@@@chrono@std@@$0A@@23@Una@mpl@3@@multi_index@boost@@U?$hashed_non_unique@U?$tag@Uby_scope@ManualRuntime@vanetza@@Una@mpl@boost@@U456@U456@U456@U456@U456@U456@U456@U456@U456@U456@U456@U456@U456@U456@U456@U456@U456@U456@@multi_index@boost@@U?$member@UScheduledCallback@ManualRuntime@vanetza@@PEBX$0EI@@23@Una@mpl@3@U563@@23@Una@mpl@3@U563@U563@U563@U563@U563@U563@U563@U563@U563@U563@U563@U563@U563@U563@U563@U563@U563@@multi_index@boost@@V?$allocator@UScheduledCallback@ManualRuntime@vanetza@@@std@@@detail@23@U?$vector1@Uby_scope@ManualRuntime@vanetza@@@mpl@3@Uhashed_non_unique_tag@823@@detail@multi_index@boost@@QEBAAEBQEAU?$hashed_index_base_node_impl@V?$allocator@D@std@@@234@XZ
	??Bparent_ref@?$ordered_index_node_compressed_base@Unull_augment_policy@detail@multi_index@boost@@V?$allocator@D@std@@@detail@multi_index@boost@@QEBAPEAU?$ordered_index_node_impl@Unull_augment_policy@detail@multi_index@boost@@V?$allocator@D@std@@@234@XZ
	??C?$_Tree_const_iterator@V?$_Tree_val@U?$_Tree_simple_types@U?$pair@$$CBV?$basic_string@DU?$char_traits@D@std@@V?$allocator@D@2@@std@@G@std@@@std@@@std@@@std@@QEBAPEBU?$pair@$$CBV?$basic_string@DU?$char_traits@D@std@@V?$allocator@D@2@@std@@G@1@XZ
	??C?$dereferenceable@V?$bidir_node_iterator@U?$ordered_index_node@Unull_augment_policy@detail@multi_index@boost@@U?$hashed_index_node@U?$index_node_base@UScheduledCallback@ManualRuntime@vanetza@@V?$allocator@UScheduledCallback@ManualRuntime@vanetza@@@std@@@detail@multi_index@boost@@@234@@detail@multi_index@boost@@@detail@multi_index@boost@@PEBUScheduledCallback@ManualRuntime@vanetza@@U?$decrementable@V?$bidir_node_iterator@U?$ordered_index_node@Unull_augment_policy@detail@multi_index@boost@@U?$hashed_index_node@U?$index_node_base@UScheduledCallback@ManualRuntime@vanetza@@V?$allocator@UScheduledCallback@ManualRuntime@vanetza@@@std@@@detail@multi_index@boost@@@234@@detail@multi_index@boost@@@detail@multi_index@boost@@U?$iterator_helper@Ubidirectional_iterator_tag@std@@UScheduledCallback@ManualRuntime@vanetza@@_JPEBU345@AEBU345@@operators_impl@4@@operators_impl@4@@operators_impl@boost@@QEBAPEBUScheduledCallback@ManualRuntime@vanetza@@XZ
	??C?$iterator_facade_base@V?$token_iterator@V?$char_separator@DU?$char_traits@D@std@@@boost@@V?$_String_const_iterator@V?$_String_val@U?$_Simple_types@D@std@@@std@@@std@@V?$basic_string@DU?$char_traits@D@std@@V?$allocator@D@2@@4@@boost@@V?$basic_string@DU?$char_traits@D@std@@V?$allocator@D@2@@std@@Uforward_traversal_tag@iterators@2@AEBV34@_J$0A@$0A@@detail@iterators@boost@@QEBAPEBV?$basic_string@DU?$char_traits@D@std@@V?$allocator@D@2@@std@@XZ
	??C?$unique_ptr@Ubyte_buffer@convertible@vanetza@@U?$default_delete@Ubyte_buffer@convertible@vanetza@@@std@@@std@@QEBAPEAUbyte_buffer@convertible@vanetza@@XZ
	??Cparent_ref@?$ordered_index_node_compressed_base@Unull_augment_policy@detail@multi_index@boost@@V?$allocator@D@std@@@detail@multi_index@boost@@QEBAPEAU?$ordered_index_node_impl@Unull_augment_policy@detail@multi_index@boost@@V?$allocator@D@std@@@234@XZ
	??D?$_String_const_iterator@V?$_String_val@U?$_Simple_types@D@std@@@std@@@std@@QEBAAEBDXZ
	??D?$_Tree_const_iterator@V?$_Tree_val@U?$_Tree_simple_types@U?$pair@$$CBV?$basic_string@DU?$char_traits@D@std@@V?$allocator@D@2@@std@@G@std@@@std@@@std@@@std@@QEBAAEBU?$pair@$$CBV?$basic_string@DU?$char_traits@D@std@@V?$allocator@D@2@@std@@G@1@XZ
	??D?$_Vector_const_iterator@V?$_Vector_val@U?$_Simple_types@E@std@@@std@@@std@@QEBAAEBEXZ
	??D?$back_insert_iterator@V?$vector@EV?$allocator@E@std@@@std@@@std@@QEAAAEAV01@XZ
	??D?$bidir_node_iterator@U?$ordered_index_node@Unull_augment_policy@detail@multi_index@boost@@U?$hashed_index_node@U?$index_node_base@UScheduledCallback@ManualRuntime@vanetza@@V?$allocator@UScheduledCallback@ManualRuntime@vanetza@@@std@@@detail@multi_index@boost@@@234@@detail@multi_index@boost@@@detail@multi_index@boost@@QEBAAEBUScheduledCallback@ManualRuntime@vanetza@@XZ
	??D?$int_adapter@_J@date_time@boost@@QEBA?AV012@H@Z
	??D?$iterator_facade_base@V?$token_iterator@V?$char_separator@DU?$char_traits@D@std@@@boost@@V?$_String_const_iterator@V?$_String_val@U?$_Simple_types@D@std@@@std@@@std@@V?$basic_string@DU?$char_traits@D@std@@V?$allocator@D@2@@4@@boost@@V?$basic_string@DU?$char_traits@D@std@@V?$allocator@D@2@@std@@Uforward_traversal_tag@iterators@2@AEBV34@_J$0A@$0A@@detail@iterators@boost@@QEBAAEBV?$basic_string@DU?$char_traits@D@std@@V?$allocator@D@2@@std@@XZ
	??E?$_String_const_iterator@V?$_String_val@U?$_Simple_types@D@std@@@std@@@std@@QEAAAEAV01@XZ
	??E?$_Tree_unchecked_const_iterator@V?$_Tree_val@U?$_Tree_simple_types@U?$pair@$$CBV?$basic_string@DU?$char_traits@D@std@@V?$allocator@D@2@@std@@G@std@@@std@@@std@@U_Iterator_base0@2@@std@@QEAAAEAV01@XZ
	??E?$back_insert_iterator@V?$vector@EV?$allocator@E@std@@@std@@@std@@QEAAAEAV01@XZ
	??E?$bidir_node_iterator@U?$ordered_index_node@Unull_augment_policy@detail@multi_index@boost@@U?$hashed_index_node@U?$index_node_base@UScheduledCallback@ManualRuntime@vanetza@@V?$allocator@UScheduledCallback@ManualRuntime@vanetza@@@std@@@detail@multi_index@boost@@@234@@detail@multi_index@boost@@@detail@multi_index@boost@@QEAAAEAV0123@XZ
	??E?$hashed_index_iterator@U?$hashed_index_node@U?$index_node_base@UScheduledCallback@ManualRuntime@vanetza@@V?$allocator@UScheduledCallback@ManualRuntime@vanetza@@@std@@@detail@multi_index@boost@@@detail@multi_index@boost@@V?$bucket_array@V?$allocator@UScheduledCallback@ManualRuntime@vanetza@@@std@@@234@Uhashed_non_unique_tag@234@Uhashed_index_global_iterator_tag@234@@detail@multi_index@boost@@QEAAAEAV0123@XZ
	??E?$iterator_facade_base@V?$token_iterator@V?$char_separator@DU?$char_traits@D@std@@@boost@@V?$_String_const_iterator@V?$_String_val@U?$_Simple_types@D@std@@@std@@@std@@V?$basic_string@DU?$char_traits@D@std@@V?$allocator@D@2@@4@@boost@@V?$basic_string@DU?$char_traits@D@std@@V?$allocator@D@2@@std@@Uforward_traversal_tag@iterators@2@AEBV34@_J$0A@$0A@@detail@iterators@boost@@QEAAAEAV?$token_iterator@V?$char_separator@DU?$char_traits@D@std@@@boost@@V?$_String_const_iterator@V?$_String_val@U?$_Simple_types@D@std@@@std@@@std@@V?$basic_string@DU?$char_traits@D@std@@V?$allocator@D@2@@4@@3@XZ
	??Eoperators_impl@boost@@YA?AV?$bidir_node_iterator@U?$ordered_index_node@Unull_augment_policy@detail@multi_index@boost@@U?$hashed_index_node@U?$index_node_base@UScheduledCallback@ManualRuntime@vanetza@@V?$allocator@UScheduledCallback@ManualRuntime@vanetza@@@std@@@detail@multi_index@boost@@@234@@detail@multi_index@boost@@@detail@multi_index@1@AEAV2341@H@Z
	??Eoperators_impl@boost@@YA?AV?$hashed_index_iterator@U?$hashed_index_node@U?$index_node_base@UScheduledCallback@ManualRuntime@vanetza@@V?$allocator@UScheduledCallback@ManualRuntime@vanetza@@@std@@@detail@multi_index@boost@@@detail@multi_index@boost@@V?$bucket_array@V?$allocator@UScheduledCallback@ManualRuntime@vanetza@@@std@@@234@Uhashed_non_unique_tag@234@Uhashed_index_global_iterator_tag@234@@detail@multi_index@1@AEAV2341@H@Z
	??F?$_Tree_unchecked_const_iterator@V?$_Tree_val@U?$_Tree_simple_types@U?$pair@$$CBV?$basic_string@DU?$char_traits@D@std@@V?$allocator@D@2@@std@@G@std@@@std@@@std@@U_Iterator_base0@2@@std@@QEAAAEAV01@XZ
	??G?$_Vector_const_iterator@V?$_Vector_val@U?$_Simple_types@E@std@@@std@@@std@@QEBA_JAEBV01@@Z
	??G?$base_time@Vptime@posix_time@boost@@V?$counted_time_system@U?$counted_time_rep@Vmillisec_posix_time_system_config@posix_time@boost@@@date_time@boost@@@date_time@3@@date_time@boost@@QEBA?AVtime_duration@posix_time@2@AEBVptime@42@@Z
	??G?$time_duration@V0posix_time@boost@@V?$time_resolution_traits@Utime_resolution_traits_adapted64_impl@date_time@boost@@$04$0PECEA@$05_J@date_time@2@@date_time@boost@@QEBA?AVtime_duration@posix_time@2@XZ
	??Gbyte_view_iterator@vanetza@@QEBA_JAEBV01@@Z
	??H?$_Vector_const_iterator@V?$_Vector_val@U?$_Simple_types@E@std@@@std@@@std@@QEBA?AV01@_J@Z
	??H?$base_time@Vptime@posix_time@boost@@V?$counted_time_system@U?$counted_time_rep@Vmillisec_posix_time_system_config@posix_time@boost@@@date_time@boost@@@date_time@3@@date_time@boost@@QEBA?AVptime@posix_time@2@AEBVtime_duration@42@@Z
	??M?$int_adapter@_J@date_time@boost@@QEBA_NAEBH@Z
	??MUnitInterval@vanetza@@QEBA_NAEBV01@@Z
	??O?$int_adapter@_J@date_time@boost@@QEBA_NAEBV012@@Z
	??R<lambda_66f57f934f28d61049862f64df852ff0>@@QEBA@QEAD_KQEBD@Z
	??R?$_Func_class@E$$V@std@@QEBAEXZ
	??R?$_Func_class@XV?$time_point@VClock@vanetza@@V?$duration@_JU?$ratio@$00$0PECEA@@std@@@chrono@std@@@chrono@std@@@std@@QEBAXV?$time_point@VClock@vanetza@@V?$duration@_JU?$ratio@$00$0PECEA@@std@@@chrono@std@@@chrono@1@@Z
	??R?$default_delete@Ubyte_buffer@convertible@vanetza@@@std@@QEBAXPEAUbyte_buffer@convertible@vanetza@@@Z
	??R?$default_delete@V_Facet_base@std@@@std@@QEBAXPEAV_Facet_base@1@@Z
	??R?$equal_to@PEBX@std@@QEBA_NAEBQEBX0@Z
	??R?$hash@PEBX@boost@@QEBA_KPEBX@Z
	??R?$less@V?$basic_string@DU?$char_traits@D@std@@V?$allocator@D@2@@std@@@std@@QEBA_NAEBV?$basic_string@DU?$char_traits@D@std@@V?$allocator@D@2@@1@0@Z
	??R?$less@V?$time_point@VClock@vanetza@@V?$duration@_JU?$ratio@$00$0PECEA@@std@@@chrono@std@@@chrono@std@@@std@@QEBA_NAEBV?$time_point@VClock@vanetza@@V?$duration@_JU?$ratio@$00$0PECEA@@std@@@chrono@std@@@chrono@1@0@Z
	??R?$mersenne_twister@I$0CA@$0CHA@$0BIN@$0BP@$0JJAILANP@$0L@$06$0JNCMFGIA@$0P@$0OPMGAAAA@$0BC@@std@@QEAAIXZ
	??R?$non_const_member_base@UScheduledCallback@ManualRuntime@vanetza@@PEBX$0EI@@detail@multi_index@boost@@QEBAAEAPEBXAEAUScheduledCallback@ManualRuntime@vanetza@@@Z
	??R?$non_const_member_base@UScheduledCallback@ManualRuntime@vanetza@@PEBX$0EI@@detail@multi_index@boost@@QEBAAEBQEBXAEBUScheduledCallback@ManualRuntime@vanetza@@@Z
	??R?$non_const_member_base@UScheduledCallback@ManualRuntime@vanetza@@V?$time_point@VClock@vanetza@@V?$duration@_JU?$ratio@$00$0PECEA@@std@@@chrono@std@@@chrono@std@@$0A@@detail@multi_index@boost@@QEBAAEAV?$time_point@VClock@vanetza@@V?$duration@_JU?$ratio@$00$0PECEA@@std@@@chrono@std@@@chrono@std@@AEAUScheduledCallback@ManualRuntime@vanetza@@@Z
	??R?$non_const_member_base@UScheduledCallback@ManualRuntime@vanetza@@V?$time_point@VClock@vanetza@@V?$duration@_JU?$ratio@$00$0PECEA@@std@@@chrono@std@@@chrono@std@@$0A@@detail@multi_index@boost@@QEBAAEBV?$time_point@VClock@vanetza@@V?$duration@_JU?$ratio@$00$0PECEA@@std@@@chrono@std@@@chrono@std@@AEBUScheduledCallback@ManualRuntime@vanetza@@@Z
	??XUnitInterval@vanetza@@QEAAAEAV01@AEBV01@@Z
	??XUnitInterval@vanetza@@QEAAAEAV01@N@Z
	??Y?$_Vector_const_iterator@V?$_Vector_val@U?$_Simple_types@E@std@@@std@@@std@@QEAAAEAV01@_J@Z
	??Y?$duration@_JU?$ratio@$00$0PECEA@@std@@@chrono@std@@QEAAAEAV012@AEBV012@@Z
	??Y?$time_point@VClock@vanetza@@V?$duration@_JU?$ratio@$00$0PECEA@@std@@@chrono@std@@@chrono@std@@QEAAAEAV012@AEBV?$duration@_JU?$ratio@$00$0PECEA@@std@@@12@@Z
	??YUnitInterval@vanetza@@QEAAAEAV01@AEBV01@@Z
	??YUnitInterval@vanetza@@QEAAAEAV01@N@Z
	??ZUnitInterval@vanetza@@QEAAAEAV01@AEBV01@@Z
	??ZUnitInterval@vanetza@@QEAAAEAV01@N@Z
	??_0UnitInterval@vanetza@@QEAAAEAV01@AEBV01@@Z
	??_0UnitInterval@vanetza@@QEAAAEAV01@N@Z
	??__Fmonth_map@?6???$month_str_to_ushort@Vgreg_month@gregorian@boost@@@date_time@boost@@YAGAEBV?$basic_string@DU?$char_traits@D@std@@V?$allocator@D@2@@std@@@Z@YAXXZ
	?_Adjust_manually_vector_aligned@std@@YAXAEAPEAXAEA_K@Z
	?_Adopt@_Iterator_base0@std@@QEAAXPEBX@Z
	?_Adopt@_Iterator_base12@std@@QEAAXPEBU_Container_base12@2@@Z
	?_Adopt_locked@_Iterator_base12@std@@AEAAXPEBU_Container_base12@2@@Z
	?_Adopt_unlocked@_Iterator_base12@std@@AEAAXPEBU_Container_base12@2@@Z
	?_Alloc_sentinel_and_proxy@?$_Tree@V?$_Tmap_traits@V?$basic_string@DU?$char_traits@D@std@@V?$allocator@D@2@@std@@GU?$less@V?$basic_string@DU?$char_traits@D@std@@V?$allocator@D@2@@std@@@2@V?$allocator@U?$pair@$$CBV?$basic_string@DU?$char_traits@D@std@@V?$allocator@D@2@@std@@G@std@@@2@$0A@@std@@@std@@IEAAXXZ
	?_Allocate@?$_Alloc_construct_ptr@V?$allocator@U?$_Tree_node@U?$pair@$$CBV?$basic_string@DU?$char_traits@D@std@@V?$allocator@D@2@@std@@G@std@@PEAX@std@@@std@@@std@@QEAAXXZ
	?_Allocate@_Default_allocate_traits@std@@SAPEAX_K@Z
	?_Assign_locked@_Iterator_base12@std@@AEAAXAEBU12@@Z
	?_Assign_unlocked@_Iterator_base12@std@@AEAAXAEBU12@@Z
	?_Buy_nonzero@?$vector@EV?$allocator@E@std@@@std@@AEAAX_K@Z
	?_Buy_raw@?$vector@EV?$allocator@E@std@@@std@@AEAAX_K@Z
	?_Calculate_growth@?$basic_string@DU?$char_traits@D@std@@V?$allocator@D@2@@std@@AEBA_K_K@Z
	?_Calculate_growth@?$basic_string@DU?$char_traits@D@std@@V?$allocator@D@2@@std@@CA_K_K00@Z
	?_Calculate_growth@?$vector@EV?$allocator@E@std@@@std@@AEBA_K_K@Z
	?_Change_array@?$vector@EV?$allocator@E@std@@@std@@AEAAXQEAE_K1@Z
	?_Check_grow_by_1@?$_Tree@V?$_Tmap_traits@V?$basic_string@DU?$char_traits@D@std@@V?$allocator@D@2@@std@@GU?$less@V?$basic_string@DU?$char_traits@D@std@@V?$allocator@D@2@@std@@@2@V?$allocator@U?$pair@$$CBV?$basic_string@DU?$char_traits@D@std@@V?$allocator@D@2@@std@@G@std@@@2@$0A@@std@@@std@@IEAAXXZ
	?_Check_offset@?$_String_val@U?$_Simple_types@D@std@@@std@@QEBAX_K@Z
	?_Check_offset_exclusive@?$_String_val@U?$_Simple_types@D@std@@@std@@QEBAX_K@Z
	?_Clamp_suffix_size@?$_String_val@U?$_Simple_types@D@std@@@std@@QEBA_K_K0@Z
	?_Clear_and_reserve_geometric@?$vector@EV?$allocator@E@std@@@std@@AEAAX_K@Z
	?_Compat@?$_String_const_iterator@V?$_String_val@U?$_Simple_types@D@std@@@std@@@std@@QEBAXAEBV12@@Z
	?_Compat@?$_Vector_const_iterator@V?$_Vector_val@U?$_Simple_types@E@std@@@std@@@std@@QEBAXAEBV12@@Z
	?_Empty@?$_Func_class@E$$V@std@@IEBA_NXZ
	?_Empty@?$_Func_class@XV?$time_point@VClock@vanetza@@V?$duration@_JU?$ratio@$00$0PECEA@@std@@@chrono@std@@@chrono@std@@@std@@IEBA_NXZ
	?_Extract@?$_In_place_key_extract_map@V?$basic_string@DU?$char_traits@D@std@@V?$allocator@D@2@@std@@U?$pair@$$CBV?$basic_string@DU?$char_traits@D@std@@V?$allocator@D@2@@std@@G@2@@std@@SAAEBV?$basic_string@DU?$char_traits@D@std@@V?$allocator@D@2@@2@AEBU?$pair@$$CBV?$basic_string@DU?$char_traits@D@std@@V?$allocator@D@2@@std@@G@2@@Z
	?_Get_first@?$_Compressed_pair@U?$default_delete@Ubyte_buffer@convertible@vanetza@@@std@@PEAUbyte_buffer@convertible@vanetza@@$00@std@@QEAAAEAU?$default_delete@Ubyte_buffer@convertible@vanetza@@@2@XZ
	?_Get_first@?$_Compressed_pair@U?$default_delete@V_Facet_base@std@@@std@@PEAV_Facet_base@2@$00@std@@QEAAAEAU?$default_delete@V_Facet_base@std@@@2@XZ
	?_Get_first@?$_Compressed_pair@U?$less@V?$basic_string@DU?$char_traits@D@std@@V?$allocator@D@2@@std@@@std@@V?$_Compressed_pair@V?$allocator@U?$_Tree_node@U?$pair@$$CBV?$basic_string@DU?$char_traits@D@std@@V?$allocator@D@2@@std@@G@std@@PEAX@std@@@std@@V?$_Tree_val@U?$_Tree_simple_types@U?$pair@$$CBV?$basic_string@DU?$char_traits@D@std@@V?$allocator@D@2@@std@@G@std@@@std@@@2@$00@2@$00@std@@QEBAAEBU?$less@V?$basic_string@DU?$char_traits@D@std@@V?$allocator@D@2@@std@@@2@XZ
	?_Get_first@?$_Compressed_pair@V?$allocator@D@std@@V?$_String_val@U?$_Simple_types@D@std@@@2@$00@std@@QEAAAEAV?$allocator@D@2@XZ
	?_Get_first@?$_Compressed_pair@V?$allocator@D@std@@V?$_String_val@U?$_Simple_types@D@std@@@2@$00@std@@QEBAAEBV?$allocator@D@2@XZ
	?_Get_first@?$_Compressed_pair@V?$allocator@E@std@@V?$_Vector_val@U?$_Simple_types@E@std@@@2@$00@std@@QEAAAEAV?$allocator@E@2@XZ
	?_Get_first@?$_Compressed_pair@V?$allocator@E@std@@V?$_Vector_val@U?$_Simple_types@E@std@@@2@$00@std@@QEBAAEBV?$allocator@E@2@XZ
	?_Get_first@?$_Compressed_pair@V?$allocator@U?$_Tree_node@U?$pair@$$CBV?$basic_string@DU?$char_traits@D@std@@V?$allocator@D@2@@std@@G@std@@PEAX@std@@@std@@V?$_Tree_val@U?$_Tree_simple_types@U?$pair@$$CBV?$basic_string@DU?$char_traits@D@std@@V?$allocator@D@2@@std@@G@std@@@std@@@2@$00@std@@QEAAAEAV?$allocator@U?$_Tree_node@U?$pair@$$CBV?$basic_string@DU?$char_traits@D@std@@V?$allocator@D@2@@std@@G@std@@PEAX@std@@@2@XZ
	?_Get_first@?$_Compressed_pair@V?$allocator@U?$_Tree_node@U?$pair@$$CBV?$basic_string@DU?$char_traits@D@std@@V?$allocator@D@2@@std@@G@std@@PEAX@std@@@std@@V?$_Tree_val@U?$_Tree_simple_types@U?$pair@$$CBV?$basic_string@DU?$char_traits@D@std@@V?$allocator@D@2@@std@@G@std@@@std@@@2@$00@std@@QEBAAEBV?$allocator@U?$_Tree_node@U?$pair@$$CBV?$basic_string@DU?$char_traits@D@std@@V?$allocator@D@2@@std@@G@std@@PEAX@std@@@2@XZ
	?_Get_scary@?$_Tree@V?$_Tmap_traits@V?$basic_string@DU?$char_traits@D@std@@V?$allocator@D@2@@std@@GU?$less@V?$basic_string@DU?$char_traits@D@std@@V?$allocator@D@2@@std@@@2@V?$allocator@U?$pair@$$CBV?$basic_string@DU?$char_traits@D@std@@V?$allocator@D@2@@std@@G@std@@@2@$0A@@std@@@std@@IEAAPEAV?$_Tree_val@U?$_Tree_simple_types@U?$pair@$$CBV?$basic_string@DU?$char_traits@D@std@@V?$allocator@D@2@@std@@G@std@@@std@@@2@XZ
	?_Get_scary@?$_Tree@V?$_Tmap_traits@V?$basic_string@DU?$char_traits@D@std@@V?$allocator@D@2@@std@@GU?$less@V?$basic_string@DU?$char_traits@D@std@@V?$allocator@D@2@@std@@@2@V?$allocator@U?$pair@$$CBV?$basic_string@DU?$char_traits@D@std@@V?$allocator@D@2@@std@@G@std@@@2@$0A@@std@@@std@@IEBAPEBV?$_Tree_val@U?$_Tree_simple_types@U?$pair@$$CBV?$basic_string@DU?$char_traits@D@std@@V?$allocator@D@2@@std@@G@std@@@std@@@2@XZ
	?_Getal@?$_Tree@V?$_Tmap_traits@V?$basic_string@DU?$char_traits@D@std@@V?$allocator@D@2@@std@@GU?$less@V?$basic_string@DU?$char_traits@D@std@@V?$allocator@D@2@@std@@@2@V?$allocator@U?$pair@$$CBV?$basic_string@DU?$char_traits@D@std@@V?$allocator@D@2@@std@@G@std@@@2@$0A@@std@@@std@@IEAAAEAV?$allocator@U?$_Tree_node@U?$pair@$$CBV?$basic_string@DU?$char_traits@D@std@@V?$allocator@D@2@@std@@G@std@@PEAX@std@@@2@XZ
	?_Getal@?$_Tree@V?$_Tmap_traits@V?$basic_string@DU?$char_traits@D@std@@V?$allocator@D@2@@std@@GU?$less@V?$basic_string@DU?$char_traits@D@std@@V?$allocator@D@2@@std@@@2@V?$allocator@U?$pair@$$CBV?$basic_string@DU?$char_traits@D@std@@V?$allocator@D@2@@std@@G@std@@@2@$0A@@std@@@std@@IEBAAEBV?$allocator@U?$_Tree_node@U?$pair@$$CBV?$basic_string@DU?$char_traits@D@std@@V?$allocator@D@2@@std@@G@std@@PEAX@std@@@2@XZ
	?_Getal@?$basic_string@DU?$char_traits@D@std@@V?$allocator@D@2@@std@@AEAAAEAV?$allocator@D@2@XZ
	?_Getal@?$basic_string@DU?$char_traits@D@std@@V?$allocator@D@2@@std@@AEBAAEBV?$allocator@D@2@XZ
	?_Getal@?$vector@EV?$allocator@E@std@@@std@@AEAAAEAV?$allocator@E@2@XZ
	?_Getal@?$vector@EV?$allocator@E@std@@@std@@AEBAAEBV?$allocator@E@2@XZ
	?_Getcat@?$numpunct@D@std@@SA_KPEAPEBVfacet@locale@2@PEBV42@@Z
	?_Getcomp@?$_Tree@V?$_Tmap_traits@V?$basic_string@DU?$char_traits@D@std@@V?$allocator@D@2@@std@@GU?$less@V?$basic_string@DU?$char_traits@D@std@@V?$allocator@D@2@@std@@@2@V?$allocator@U?$pair@$$CBV?$basic_string@DU?$char_traits@D@std@@V?$allocator@D@2@@std@@G@std@@@2@$0A@@std@@@std@@IEBAAEBU?$less@V?$basic_string@DU?$char_traits@D@std@@V?$allocator@D@2@@std@@@2@XZ
	?_Getcont@_Iterator_base12@std@@QEBAPEBU_Container_base12@2@XZ
	?_Getfacet@locale@std@@QEBAPEBVfacet@12@_K@Z
	?_Getimpl@?$_Func_class@E$$V@std@@AEBAPEAV?$_Func_base@E$$V@2@XZ
	?_Getimpl@?$_Func_class@XV?$time_point@VClock@vanetza@@V?$duration@_JU?$ratio@$00$0PECEA@@std@@@chrono@std@@@chrono@std@@@std@@AEBAPEAV?$_Func_base@XV?$time_point@VClock@vanetza@@V?$duration@_JU?$ratio@$00$0PECEA@@std@@@chrono@std@@@chrono@std@@@2@XZ
	?_Init@?$numpunct@D@std@@IEAAXAEBV_Locinfo@2@_N@Z
	?_Insert_node@?$_Tree_val@U?$_Tree_simple_types@U?$pair@$$CBV?$basic_string@DU?$char_traits@D@std@@V?$allocator@D@2@@std@@G@std@@@std@@@std@@QEAAPEAU?$_Tree_node@U?$pair@$$CBV?$basic_string@DU?$char_traits@D@std@@V?$allocator@D@2@@std@@G@std@@PEAX@2@U?$_Tree_id@PEAU?$_Tree_node@U?$pair@$$CBV?$basic_string@DU?$char_traits@D@std@@V?$allocator@D@2@@std@@G@std@@PEAX@std@@@2@QEAU32@@Z
	?_Large_string_engaged@?$_String_val@U?$_Simple_types@D@std@@@std@@QEBA_NXZ
	?_Local@?$_Func_class@E$$V@std@@AEBA_NXZ
	?_Local@?$_Func_class@XV?$time_point@VClock@vanetza@@V?$duration@_JU?$ratio@$00$0PECEA@@std@@@chrono@std@@@chrono@std@@@std@@AEBA_NXZ
	?_Lrotate@?$_Tree_val@U?$_Tree_simple_types@U?$pair@$$CBV?$basic_string@DU?$char_traits@D@std@@V?$allocator@D@2@@std@@G@std@@@std@@@std@@QEAAXPEAU?$_Tree_node@U?$pair@$$CBV?$basic_string@DU?$char_traits@D@std@@V?$allocator@D@2@@std@@G@std@@PEAX@2@@Z
	?_Maklocwcs@std@@YAPEA_WPEB_W@Z
	?_Max@?$_Tree_val@U?$_Tree_simple_types@U?$pair@$$CBV?$basic_string@DU?$char_traits@D@std@@V?$allocator@D@2@@std@@G@std@@@std@@@std@@SAPEAU?$_Tree_node@U?$pair@$$CBV?$basic_string@DU?$char_traits@D@std@@V?$allocator@D@2@@std@@G@std@@PEAX@2@PEAU32@@Z
	?_Memcpy_val_from@?$basic_string@DU?$char_traits@D@std@@V?$allocator@D@2@@std@@AEAAXAEBV12@@Z
	?_Min@?$_Tree_val@U?$_Tree_simple_types@U?$pair@$$CBV?$basic_string@DU?$char_traits@D@std@@V?$allocator@D@2@@std@@G@std@@@std@@@std@@SAPEAU?$_Tree_node@U?$pair@$$CBV?$basic_string@DU?$char_traits@D@std@@V?$allocator@D@2@@std@@G@std@@PEAX@2@PEAU32@@Z
	?_Myptr@?$_String_val@U?$_Simple_types@D@std@@@std@@QEAAPEADXZ
	?_Myptr@?$_String_val@U?$_Simple_types@D@std@@@std@@QEBAPEBDXZ
	?_Orphan_all@_Container_base12@std@@QEAAXXZ
	?_Orphan_all_locked_v3@_Container_base12@std@@AEAAXXZ
	?_Orphan_all_unlocked_v3@_Container_base12@std@@AEAAXXZ
	?_Orphan_me_locked_v3@_Iterator_base12@std@@AEAAXXZ
	?_Orphan_me_unlocked_v3@_Iterator_base12@std@@AEAAXXZ
	?_Orphan_range@?$vector@EV?$allocator@E@std@@@std@@AEBAXPEAE0@Z
	?_Orphan_range_locked@?$vector@EV?$allocator@E@std@@@std@@AEBAXPEAE0@Z
	?_Orphan_range_unlocked@?$vector@EV?$allocator@E@std@@@std@@AEBAXPEAE0@Z
	?_Refill_lower@?$mersenne_twister@I$0CA@$0CHA@$0BIN@$0BP@$0JJAILANP@$0L@$06$0JNCMFGIA@$0P@$0OPMGAAAA@$0BC@@std@@IEAAXXZ
	?_Refill_upper@?$mersenne_twister@I$0CA@$0CHA@$0BIN@$0BP@$0JJAILANP@$0L@$06$0JNCMFGIA@$0P@$0OPMGAAAA@$0BC@@std@@IEAAXXZ
	?_Release@?$_Alloc_construct_ptr@V?$allocator@U?$_Tree_node@U?$pair@$$CBV?$basic_string@DU?$char_traits@D@std@@V?$allocator@D@2@@std@@G@std@@PEAX@std@@@std@@@std@@QEAAPEAU?$_Tree_node@U?$pair@$$CBV?$basic_string@DU?$char_traits@D@std@@V?$allocator@D@2@@std@@G@std@@PEAX@2@XZ
	?_Release@?$_Uninitialized_backout_al@V?$allocator@E@std@@@std@@QEAAPEAEXZ
	?_Release@_Basic_container_proxy_ptr12@std@@QEAAXXZ
	?_Reset_copy@?$_Func_class@XV?$time_point@VClock@vanetza@@V?$duration@_JU?$ratio@$00$0PECEA@@std@@@chrono@std@@@chrono@std@@@std@@IEAAXAEBV12@@Z
	?_Reset_move@?$_Func_class@XV?$time_point@VClock@vanetza@@V?$duration@_JU?$ratio@$00$0PECEA@@std@@@chrono@std@@@chrono@std@@@std@@IEAAX$$QEAV12@@Z
	?_Rrotate@?$_Tree_val@U?$_Tree_simple_types@U?$pair@$$CBV?$basic_string@DU?$char_traits@D@std@@V?$allocator@D@2@@std@@G@std@@@std@@@std@@QEAAXPEAU?$_Tree_node@U?$pair@$$CBV?$basic_string@DU?$char_traits@D@std@@V?$allocator@D@2@@std@@G@std@@PEAX@2@@Z
	?_Set@?$_Func_class@E$$V@std@@AEAAXPEAV?$_Func_base@E$$V@2@@Z
	?_Set@?$_Func_class@XV?$time_point@VClock@vanetza@@V?$duration@_JU?$ratio@$00$0PECEA@@std@@@chrono@std@@@chrono@std@@@std@@AEAAXPEAV?$_Func_base@XV?$time_point@VClock@vanetza@@V?$duration@_JU?$ratio@$00$0PECEA@@std@@@chrono@std@@@chrono@std@@@2@@Z
	?_Swap_proxy_and_iterators@?$basic_string@DU?$char_traits@D@std@@V?$allocator@D@2@@std@@AEAAXAEAV12@@Z
	?_Swap_proxy_and_iterators@_Container_base12@std@@QEAAXAEAU12@@Z
	?_Swap_proxy_and_iterators_locked@_Container_base12@std@@AEAAXAEAU12@@Z
	?_Swap_proxy_and_iterators_unlocked@_Container_base12@std@@AEAAXAEAU12@@Z
	?_Take_contents@?$basic_string@DU?$char_traits@D@std@@V?$allocator@D@2@@std@@AEAAXAEAV12@@Z
	?_Throw_bad_array_new_length@std@@YAXXZ
	?_Throw_bad_cast@std@@YAXXZ
	?_Throw_tree_length_error@std@@YAXXZ
	?_Tidy@?$_Func_class@E$$V@std@@IEAAXXZ
	?_Tidy@?$_Func_class@XV?$time_point@VClock@vanetza@@V?$duration@_JU?$ratio@$00$0PECEA@@std@@@chrono@std@@@chrono@std@@@std@@IEAAXXZ
	?_Tidy@?$numpunct@D@std@@AEAAXXZ
	?_Tidy@?$vector@EV?$allocator@E@std@@@std@@AEAAXXZ
	?_Tidy_deallocate@?$basic_string@DU?$char_traits@D@std@@V?$allocator@D@2@@std@@AEAAXXZ
	?_Tidy_init@?$basic_string@DU?$char_traits@D@std@@V?$allocator@D@2@@std@@AEAAXXZ
	?_Unwrapped@?$_String_const_iterator@V?$_String_val@U?$_Simple_types@D@std@@@std@@@std@@QEBAPEBDXZ
	?_Unwrapped@?$_Vector_const_iterator@V?$_Vector_val@U?$_Simple_types@E@std@@@std@@@std@@QEBAPEBEXZ
	?_Unwrapped@?$_Vector_iterator@V?$_Vector_val@U?$_Simple_types@E@std@@@std@@@std@@QEBAPEAEXZ
	?_Verify_offset@?$_Vector_const_iterator@V?$_Vector_val@U?$_Simple_types@E@std@@@std@@@std@@QEBAX_J@Z
	?_Verify_range@std@@YAXAEBV?$_String_const_iterator@V?$_String_val@U?$_Simple_types@D@std@@@std@@@1@0@Z
	?_Verify_range@std@@YAXAEBV?$_Vector_const_iterator@V?$_Vector_val@U?$_Simple_types@E@std@@@std@@@1@0@Z
	?_Xlen_string@std@@YAXXZ
	?_Xlength@?$vector@EV?$allocator@E@std@@@std@@CAXXZ
	?_Xran@?$_String_val@U?$_Simple_types@D@std@@@std@@SAXXZ
	?__empty_global_delete@@YAXPEAX@Z
	?__empty_global_delete@@YAXPEAXW4align_val_t@std@@@Z
	?__empty_global_delete@@YAXPEAX_K@Z
	?__empty_global_delete@@YAXPEAX_KW4align_val_t@std@@@Z
	?abs@@YANN@Z
	?add_ref@?$refcount_ptr@Uerror_info_container@exception_detail@boost@@@exception_detail@boost@@AEAAXXZ
	?add_time_duration@?$counted_time_system@U?$counted_time_rep@Vmillisec_posix_time_system_config@posix_time@boost@@@date_time@boost@@@date_time@boost@@SA?AU?$counted_time_rep@Vmillisec_posix_time_system_config@posix_time@boost@@@23@AEBU423@Vtime_duration@posix_time@3@@Z
	?adopt@?$refcount_ptr@Uerror_info_container@exception_detail@boost@@@exception_detail@boost@@QEAAXPEAUerror_info_container@23@@Z
	?after@?$hashed_index_node_alg@U?$hashed_index_node_impl@V?$allocator@D@std@@@detail@multi_index@boost@@Uhashed_non_unique_tag@234@@detail@multi_index@boost@@SAPEAU?$hashed_index_node_impl@V?$allocator@D@std@@@234@PEAU5234@@Z
	?allocate@?$_Default_allocator_traits@V?$allocator@PEAU?$hashed_index_node_impl@V?$allocator@D@std@@@detail@multi_index@boost@@@std@@@std@@SAPEAPEAU?$hashed_index_node_impl@V?$allocator@D@std@@@detail@multi_index@boost@@AEAV?$allocator@PEAU?$hashed_index_node_impl@V?$allocator@D@std@@@detail@multi_index@boost@@@2@_K@Z
	?allocate@?$_Default_allocator_traits@V?$allocator@U?$hashed_index_base_node_impl@V?$allocator@D@std@@@detail@multi_index@boost@@@std@@@std@@SAPEAU?$hashed_index_base_node_impl@V?$allocator@D@std@@@detail@multi_index@boost@@AEAV?$allocator@U?$hashed_index_base_node_impl@V?$allocator@D@std@@@detail@multi_index@boost@@@2@_K@Z
	?allocate@?$_Default_allocator_traits@V?$allocator@U?$ordered_index_node@Unull_augment_policy@detail@multi_index@boost@@U?$hashed_index_node@U?$index_node_base@UScheduledCallback@ManualRuntime@vanetza@@V?$allocator@UScheduledCallback@ManualRuntime@vanetza@@@std@@@detail@multi_index@boost@@@234@@detail@multi_index@boost@@@std@@@std@@SAPEAU?$ordered_index_node@Unull_augment_policy@detail@multi_index@boost@@U?$hashed_index_node@U?$index_node_base@UScheduledCallback@ManualRuntime@vanetza@@V?$allocator@UScheduledCallback@ManualRuntime@vanetza@@@std@@@detail@multi_index@boost@@@234@@detail@multi_index@boost@@AEAV?$allocator@U?$ordered_index_node@Unull_augment_policy@detail@multi_index@boost@@U?$hashed_index_node@U?$index_node_base@UScheduledCallback@ManualRuntime@vanetza@@V?$allocator@UScheduledCallback@ManualRuntime@vanetza@@@std@@@detail@multi_index@boost@@@234@@detail@multi_index@boost@@@2@_K@Z
	?allocate@?$_Default_allocator_traits@V?$allocator@_K@std@@@std@@SAPEA_KAEAV?$allocator@_K@2@_K@Z
	?allocate@?$allocator@D@std@@QEAAPEAD_K@Z
	?allocate@?$allocator@E@std@@QEAAPEAE_K@Z
	?allocate@?$allocator@U?$_Tree_node@U?$pair@$$CBV?$basic_string@DU?$char_traits@D@std@@V?$allocator@D@2@@std@@G@std@@PEAX@std@@@std@@QEAAPEAU?$_Tree_node@U?$pair@$$CBV?$basic_string@DU?$char_traits@D@std@@V?$allocator@D@2@@std@@G@std@@PEAX@2@_K@Z
	?allocate@?$allocator@U_Container_proxy@std@@@std@@QEAAPEAU_Container_proxy@2@_K@Z
	?allocate_node@?$multi_index_container@UScheduledCallback@ManualRuntime@vanetza@@U?$indexed_by@U?$ordered_non_unique@U?$tag@Uby_deadline@ManualRuntime@vanetza@@Una@mpl@boost@@U456@U456@U456@U456@U456@U456@U456@U456@U456@U456@U456@U456@U456@U456@U456@U456@U456@U456@@multi_index@boost@@U?$member@UScheduledCallback@ManualRuntime@vanetza@@V?$time_point@VClock@vanetza@@V?$duration@_JU?$ratio@$00$0PECEA@@std@@@chrono@std@@@chrono@std@@$0A@@23@Una@mpl@3@@multi_index@boost@@U?$hashed_non_unique@U?$tag@Uby_scope@ManualRuntime@vanetza@@Una@mpl@boost@@U456@U456@U456@U456@U456@U456@U456@U456@U456@U456@U456@U456@U456@U456@U456@U456@U456@U456@@multi_index@boost@@U?$member@UScheduledCallback@ManualRuntime@vanetza@@PEBX$0EI@@23@Una@mpl@3@U563@@23@Una@mpl@3@U563@U563@U563@U563@U563@U563@U563@U563@U563@U563@U563@U563@U563@U563@U563@U563@U563@@multi_index@boost@@V?$allocator@UScheduledCallback@ManualRuntime@vanetza@@@std@@@multi_index@boost@@IEAAPEAU?$ordered_index_node@Unull_augment_policy@detail@multi_index@boost@@U?$hashed_index_node@U?$index_node_base@UScheduledCallback@ManualRuntime@vanetza@@V?$allocator@UScheduledCallback@ManualRuntime@vanetza@@@std@@@detail@multi_index@boost@@@234@@detail@23@XZ
	?append_range@?$hashed_index_node_alg@U?$hashed_index_node_impl@V?$allocator@D@std@@@detail@multi_index@boost@@Uhashed_non_unique_tag@234@@detail@multi_index@boost@@SAXPEAU?$hashed_index_node_impl@V?$allocator@D@std@@@234@00@Z
	?apply@?$operator_arrow_dispatch@AEBV?$basic_string@DU?$char_traits@D@std@@V?$allocator@D@2@@std@@PEBV12@@detail@iterators@boost@@SAPEBV?$basic_string@DU?$char_traits@D@std@@V?$allocator@D@2@@std@@AEBV56@@Z
	?as_number@?$int_adapter@I@date_time@boost@@QEBAIXZ
	?as_number@?$int_adapter@_J@date_time@boost@@QEBA_JXZ
	?as_number@?$time_resolution_traits@Utime_resolution_traits_adapted64_impl@date_time@boost@@$04$0PECEA@$05_J@date_time@boost@@SA_JV?$int_adapter@_J@23@@Z
	?as_number@time_resolution_traits_adapted64_impl@date_time@boost@@SA_JV?$int_adapter@_J@23@@Z
	?assign@?$_Narrow_char_traits@DH@std@@SAXAEADAEBD@Z
	?assign@?$basic_string@DU?$char_traits@D@std@@V?$allocator@D@2@@std@@QEAAAEAV12@QEBD@Z
	?assign@?$basic_string@DU?$char_traits@D@std@@V?$allocator@D@2@@std@@QEAAAEAV12@QEBD_K@Z
	?assign@?$constrained_value@V?$simple_exception_policy@G$00$0BP@Ubad_day_of_month@gregorian@boost@@@CV@boost@@@CV@boost@@AEAAXG@Z
	?assign@?$constrained_value@V?$simple_exception_policy@G$00$0M@Ubad_month@gregorian@boost@@@CV@boost@@@CV@boost@@AEAAXG@Z
	?assign@?$constrained_value@V?$simple_exception_policy@G$0FHI@$0CHAP@Ubad_year@gregorian@boost@@@CV@boost@@@CV@boost@@AEAAXG@Z
	?at@?$basic_string@DU?$char_traits@D@std@@V?$allocator@D@2@@std@@QEAAAEAD_K@Z
	?at@?$basic_string@DU?$char_traits@D@std@@V?$allocator@D@2@@std@@QEBAAEBD_K@Z
	?at@?$bucket_array@V?$allocator@UScheduledCallback@ManualRuntime@vanetza@@@std@@@detail@multi_index@boost@@QEBAPEAU?$hashed_index_base_node_impl@V?$allocator@D@std@@@234@_K@Z
	?at@Clock@vanetza@@SA?AV?$time_point@VClock@vanetza@@V?$duration@_JU?$ratio@$00$0PECEA@@std@@@chrono@std@@@chrono@std@@AEBV?$basic_string@DU?$char_traits@D@std@@V?$allocator@D@2@@5@@Z
	?at@Clock@vanetza@@SA?AV?$time_point@VClock@vanetza@@V?$duration@_JU?$ratio@$00$0PECEA@@std@@@chrono@std@@@chrono@std@@AEBVptime@posix_time@boost@@@Z
	?at@Clock@vanetza@@SA?AVptime@posix_time@boost@@AEBV?$time_point@VClock@vanetza@@V?$duration@_JU?$ratio@$00$0PECEA@@std@@@chrono@std@@@chrono@std@@@Z
	?base_pointer_from@?$hashed_index_node_alg@U?$hashed_index_node_impl@V?$allocator@D@std@@@detail@multi_index@boost@@Uhashed_non_unique_tag@234@@detail@multi_index@boost@@CAPEAU?$hashed_index_base_node_impl@V?$allocator@D@std@@@234@PEAU?$hashed_index_node_impl@V?$allocator@D@std@@@234@@Z
	?base_pointer_from@?$hashed_index_node_impl@V?$allocator@D@std@@@detail@multi_index@boost@@SAPEAU?$hashed_index_base_node_impl@V?$allocator@D@std@@@234@PEAU1234@@Z
	?begin@?$basic_string@DU?$char_traits@D@std@@V?$allocator@D@2@@std@@QEBA?AV?$_String_const_iterator@V?$_String_val@U?$_Simple_types@D@std@@@std@@@2@XZ
	?begin@?$bucket_array@V?$allocator@UScheduledCallback@ManualRuntime@vanetza@@@std@@@detail@multi_index@boost@@QEBAPEAU?$hashed_index_base_node_impl@V?$allocator@D@std@@@234@XZ
	?begin@?$initializer_list@U?$pair@$$CBV?$basic_string@DU?$char_traits@D@std@@V?$allocator@D@2@@std@@G@std@@@std@@QEBAPEBU?$pair@$$CBV?$basic_string@DU?$char_traits@D@std@@V?$allocator@D@2@@std@@G@2@XZ
	?begin@?$iterator_range_base@V?$_Vector_const_iterator@V?$_Vector_val@U?$_Simple_types@E@std@@@std@@@std@@Uincrementable_traversal_tag@iterators@boost@@@iterator_range_detail@boost@@QEBA?AV?$_Vector_const_iterator@V?$_Vector_val@U?$_Simple_types@E@std@@@std@@@std@@XZ
	?begin@?$iterator_range_base@Vbyte_view_iterator@vanetza@@Uincrementable_traversal_tag@iterators@boost@@@iterator_range_detail@boost@@QEBA?AVbyte_view_iterator@vanetza@@XZ
	?begin@?$ordered_index_impl@U?$member@UScheduledCallback@ManualRuntime@vanetza@@V?$time_point@VClock@vanetza@@V?$duration@_JU?$ratio@$00$0PECEA@@std@@@chrono@std@@@chrono@std@@$0A@@multi_index@boost@@U?$less@V?$time_point@VClock@vanetza@@V?$duration@_JU?$ratio@$00$0PECEA@@std@@@chrono@std@@@chrono@std@@@std@@U?$nth_layer@$00UScheduledCallback@ManualRuntime@vanetza@@U?$indexed_by@U?$ordered_non_unique@U?$tag@Uby_deadline@ManualRuntime@vanetza@@Una@mpl@boost@@U456@U456@U456@U456@U456@U456@U456@U456@U456@U456@U456@U456@U456@U456@U456@U456@U456@U456@@multi_index@boost@@U?$member@UScheduledCallback@ManualRuntime@vanetza@@V?$time_point@VClock@vanetza@@V?$duration@_JU?$ratio@$00$0PECEA@@std@@@chrono@std@@@chrono@std@@$0A@@23@Una@mpl@3@@multi_index@boost@@U?$hashed_non_unique@U?$tag@Uby_scope@ManualRuntime@vanetza@@Una@mpl@boost@@U456@U456@U456@U456@U456@U456@U456@U456@U456@U456@U456@U456@U456@U456@U456@U456@U456@U456@@multi_index@boost@@U?$member@UScheduledCallback@ManualRuntime@vanetza@@PEBX$0EI@@23@Una@mpl@3@U563@@23@Una@mpl@3@U563@U563@U563@U563@U563@U563@U563@U563@U563@U563@U563@U563@U563@U563@U563@U563@U563@@multi_index@boost@@V?$allocator@UScheduledCallback@ManualRuntime@vanetza@@@std@@@detail@23@U?$vector1@Uby_deadline@ManualRuntime@vanetza@@@mpl@3@Uordered_non_unique_tag@723@Unull_augment_policy@723@@detail@multi_index@boost@@QEAA?AV?$bidir_node_iterator@U?$ordered_index_node@Unull_augment_policy@detail@multi_index@boost@@U?$hashed_index_node@U?$index_node_base@UScheduledCallback@ManualRuntime@vanetza@@V?$allocator@UScheduledCallback@ManualRuntime@vanetza@@@std@@@detail@multi_index@boost@@@234@@detail@multi_index@boost@@@234@XZ
	?begin@?$ordered_index_impl@U?$member@UScheduledCallback@ManualRuntime@vanetza@@V?$time_point@VClock@vanetza@@V?$duration@_JU?$ratio@$00$0PECEA@@std@@@chrono@std@@@chrono@std@@$0A@@multi_index@boost@@U?$less@V?$time_point@VClock@vanetza@@V?$duration@_JU?$ratio@$00$0PECEA@@std@@@chrono@std@@@chrono@std@@@std@@U?$nth_layer@$00UScheduledCallback@ManualRuntime@vanetza@@U?$indexed_by@U?$ordered_non_unique@U?$tag@Uby_deadline@ManualRuntime@vanetza@@Una@mpl@boost@@U456@U456@U456@U456@U456@U456@U456@U456@U456@U456@U456@U456@U456@U456@U456@U456@U456@U456@@multi_index@boost@@U?$member@UScheduledCallback@ManualRuntime@vanetza@@V?$time_point@VClock@vanetza@@V?$duration@_JU?$ratio@$00$0PECEA@@std@@@chrono@std@@@chrono@std@@$0A@@23@Una@mpl@3@@multi_index@boost@@U?$hashed_non_unique@U?$tag@Uby_scope@ManualRuntime@vanetza@@Una@mpl@boost@@U456@U456@U456@U456@U456@U456@U456@U456@U456@U456@U456@U456@U456@U456@U456@U456@U456@U456@@multi_index@boost@@U?$member@UScheduledCallback@ManualRuntime@vanetza@@PEBX$0EI@@23@Una@mpl@3@U563@@23@Una@mpl@3@U563@U563@U563@U563@U563@U563@U563@U563@U563@U563@U563@U563@U563@U563@U563@U563@U563@@multi_index@boost@@V?$allocator@UScheduledCallback@ManualRuntime@vanetza@@@std@@@detail@23@U?$vector1@Uby_deadline@ManualRuntime@vanetza@@@mpl@3@Uordered_non_unique_tag@723@Unull_augment_policy@723@@detail@multi_index@boost@@QEBA?AV?$bidir_node_iterator@U?$ordered_index_node@Unull_augment_policy@detail@multi_index@boost@@U?$hashed_index_node@U?$index_node_base@UScheduledCallback@ManualRuntime@vanetza@@V?$allocator@UScheduledCallback@ManualRuntime@vanetza@@@std@@@detail@multi_index@boost@@@234@@detail@multi_index@boost@@@234@XZ
	?begin@?$tokenizer@V?$char_separator@DU?$char_traits@D@std@@@boost@@V?$_String_const_iterator@V?$_String_val@U?$_Simple_types@D@std@@@std@@@std@@V?$basic_string@DU?$char_traits@D@std@@V?$allocator@D@2@@4@@boost@@QEBA?AV?$token_iterator@V?$char_separator@DU?$char_traits@D@std@@@boost@@V?$_String_const_iterator@V?$_String_val@U?$_Simple_types@D@std@@@std@@@std@@V?$basic_string@DU?$char_traits@D@std@@V?$allocator@D@2@@4@@2@XZ
	?begin@?$vector@EV?$allocator@E@std@@@std@@QEAA?AV?$_Vector_iterator@V?$_Vector_val@U?$_Simple_types@E@std@@@std@@@2@XZ
	?begin@?$vector@EV?$allocator@E@std@@@std@@QEBA?AV?$_Vector_const_iterator@V?$_Vector_val@U?$_Simple_types@E@std@@@std@@@2@XZ
	?bucket@?$hashed_index@U?$member@UScheduledCallback@ManualRuntime@vanetza@@PEBX$0EI@@multi_index@boost@@U?$hash@PEBX@3@U?$equal_to@PEBX@std@@U?$nth_layer@$01UScheduledCallback@ManualRuntime@vanetza@@U?$indexed_by@U?$ordered_non_unique@U?$tag@Uby_deadline@ManualRuntime@vanetza@@Una@mpl@boost@@U456@U456@U456@U456@U456@U456@U456@U456@U456@U456@U456@U456@U456@U456@U456@U456@U456@U456@@multi_index@boost@@U?$member@UScheduledCallback@ManualRuntime@vanetza@@V?$time_point@VClock@vanetza@@V?$duration@_JU?$ratio@$00$0PECEA@@std@@@chrono@std@@@chrono@std@@$0A@@23@Una@mpl@3@@multi_index@boost@@U?$hashed_non_unique@U?$tag@Uby_scope@ManualRuntime@vanetza@@Una@mpl@boost@@U456@U456@U456@U456@U456@U456@U456@U456@U456@U456@U456@U456@U456@U456@U456@U456@U456@U456@@multi_index@boost@@U?$member@UScheduledCallback@ManualRuntime@vanetza@@PEBX$0EI@@23@Una@mpl@3@U563@@23@Una@mpl@3@U563@U563@U563@U563@U563@U563@U563@U563@U563@U563@U563@U563@U563@U563@U563@U563@U563@@multi_index@boost@@V?$allocator@UScheduledCallback@ManualRuntime@vanetza@@@std@@@detail@23@U?$vector1@Uby_scope@ManualRuntime@vanetza@@@mpl@3@Uhashed_non_unique_tag@823@@detail@multi_index@boost@@QEBA_KQEBX@Z
	?bucket_count@?$hashed_index@U?$member@UScheduledCallback@ManualRuntime@vanetza@@PEBX$0EI@@multi_index@boost@@U?$hash@PEBX@3@U?$equal_to@PEBX@std@@U?$nth_layer@$01UScheduledCallback@ManualRuntime@vanetza@@U?$indexed_by@U?$ordered_non_unique@U?$tag@Uby_deadline@ManualRuntime@vanetza@@Una@mpl@boost@@U456@U456@U456@U456@U456@U456@U456@U456@U456@U456@U456@U456@U456@U456@U456@U456@U456@U456@@multi_index@boost@@U?$member@UScheduledCallback@ManualRuntime@vanetza@@V?$time_point@VClock@vanetza@@V?$duration@_JU?$ratio@$00$0PECEA@@std@@@chrono@std@@@chrono@std@@$0A@@23@Una@mpl@3@@multi_index@boost@@U?$hashed_non_unique@U?$tag@Uby_scope@ManualRuntime@vanetza@@Una@mpl@boost@@U456@U456@U456@U456@U456@U456@U456@U456@U456@U456@U456@U456@U456@U456@U456@U456@U456@U456@@multi_index@boost@@U?$member@UScheduledCallback@ManualRuntime@vanetza@@PEBX$0EI@@23@Una@mpl@3@U563@@23@Una@mpl@3@U563@U563@U563@U563@U563@U563@U563@U563@U563@U563@U563@U563@U563@U563@U563@U563@U563@@multi_index@boost@@V?$allocator@UScheduledCallback@ManualRuntime@vanetza@@@std@@@detail@23@U?$vector1@Uby_scope@ManualRuntime@vanetza@@@mpl@3@Uhashed_non_unique_tag@823@@detail@multi_index@boost@@QEBA_KXZ
	?buckets@?$bucket_array@V?$allocator@UScheduledCallback@ManualRuntime@vanetza@@@std@@@detail@multi_index@boost@@AEBAPEAU?$hashed_index_base_node_impl@V?$allocator@D@std@@@234@XZ
	?c_str@?$basic_string@DU?$char_traits@D@std@@V?$allocator@D@2@@std@@QEBAPEBDXZ
	?c_str@locale@std@@QEBAPEBDXZ
	?calculate_max_load@?$hashed_index@U?$member@UScheduledCallback@ManualRuntime@vanetza@@PEBX$0EI@@multi_index@boost@@U?$hash@PEBX@3@U?$equal_to@PEBX@std@@U?$nth_layer@$01UScheduledCallback@ManualRuntime@vanetza@@U?$indexed_by@U?$ordered_non_unique@U?$tag@Uby_deadline@ManualRuntime@vanetza@@Una@mpl@boost@@U456@U456@U456@U456@U456@U456@U456@U456@U456@U456@U456@U456@U456@U456@U456@U456@U456@U456@@multi_index@boost@@U?$member@UScheduledCallback@ManualRuntime@vanetza@@V?$time_point@VClock@vanetza@@V?$duration@_JU?$ratio@$00$0PECEA@@std@@@chrono@std@@@chrono@std@@$0A@@23@Una@mpl@3@@multi_index@boost@@U?$hashed_non_unique@U?$tag@Uby_scope@ManualRuntime@vanetza@@Una@mpl@boost@@U456@U456@U456@U456@U456@U456@U456@U456@U456@U456@U456@U456@U456@U456@U456@U456@U456@U456@@multi_index@boost@@U?$member@UScheduledCallback@ManualRuntime@vanetza@@PEBX$0EI@@23@Una@mpl@3@U563@@23@Una@mpl@3@U563@U563@U563@U563@U563@U563@U563@U563@U563@U563@U563@U563@U563@U563@U563@U563@U563@@multi_index@boost@@V?$allocator@UScheduledCallback@ManualRuntime@vanetza@@@std@@@detail@23@U?$vector1@Uby_scope@ManualRuntime@vanetza@@@mpl@3@Uhashed_non_unique_tag@823@@detail@multi_index@boost@@AEAAXXZ
	?call@?$apply@U?$cons@U?$member@UScheduledCallback@ManualRuntime@vanetza@@V?$time_point@VClock@vanetza@@V?$duration@_JU?$ratio@$00$0PECEA@@std@@@chrono@std@@@chrono@std@@$0A@@multi_index@boost@@U?$cons@U?$less@V?$time_point@VClock@vanetza@@V?$duration@_JU?$ratio@$00$0PECEA@@std@@@chrono@std@@@chrono@std@@@std@@Unull_type@tuples@boost@@@tuples@3@@tuples@boost@@@?$drop_front@$00@detail@tuples@boost@@SAAEBU?$cons@U?$less@V?$time_point@VClock@vanetza@@V?$duration@_JU?$ratio@$00$0PECEA@@std@@@chrono@std@@@chrono@std@@@std@@Unull_type@tuples@boost@@@45@AEBU?$cons@U?$member@UScheduledCallback@ManualRuntime@vanetza@@V?$time_point@VClock@vanetza@@V?$duration@_JU?$ratio@$00$0PECEA@@std@@@chrono@std@@@chrono@std@@$0A@@multi_index@boost@@U?$cons@U?$less@V?$time_point@VClock@vanetza@@V?$duration@_JU?$ratio@$00$0PECEA@@std@@@chrono@std@@@chrono@std@@@std@@Unull_type@tuples@boost@@@tuples@3@@45@@Z
	?call@?$apply@U?$cons@U?$member@UScheduledCallback@ManualRuntime@vanetza@@V?$time_point@VClock@vanetza@@V?$duration@_JU?$ratio@$00$0PECEA@@std@@@chrono@std@@@chrono@std@@$0A@@multi_index@boost@@U?$cons@U?$less@V?$time_point@VClock@vanetza@@V?$duration@_JU?$ratio@$00$0PECEA@@std@@@chrono@std@@@chrono@std@@@std@@Unull_type@tuples@boost@@@tuples@3@@tuples@boost@@@?$drop_front@$0A@@detail@tuples@boost@@SAAEBU?$cons@U?$member@UScheduledCallback@ManualRuntime@vanetza@@V?$time_point@VClock@vanetza@@V?$duration@_JU?$ratio@$00$0PECEA@@std@@@chrono@std@@@chrono@std@@$0A@@multi_index@boost@@U?$cons@U?$less@V?$time_point@VClock@vanetza@@V?$duration@_JU?$ratio@$00$0PECEA@@std@@@chrono@std@@@chrono@std@@@std@@Unull_type@tuples@boost@@@tuples@3@@45@AEBU645@@Z
	?call@?$apply@U?$cons@_KU?$cons@U?$member@UScheduledCallback@ManualRuntime@vanetza@@PEBX$0EI@@multi_index@boost@@U?$cons@U?$hash@PEBX@boost@@U?$cons@U?$equal_to@PEBX@std@@Unull_type@tuples@boost@@@tuples@2@@tuples@3@@tuples@boost@@@tuples@boost@@@?$drop_front@$00@detail@tuples@boost@@SAAEBU?$cons@U?$member@UScheduledCallback@ManualRuntime@vanetza@@PEBX$0EI@@multi_index@boost@@U?$cons@U?$hash@PEBX@boost@@U?$cons@U?$equal_to@PEBX@std@@Unull_type@tuples@boost@@@tuples@2@@tuples@3@@45@AEBU?$cons@_KU?$cons@U?$member@UScheduledCallback@ManualRuntime@vanetza@@PEBX$0EI@@multi_index@boost@@U?$cons@U?$hash@PEBX@boost@@U?$cons@U?$equal_to@PEBX@std@@Unull_type@tuples@boost@@@tuples@2@@tuples@3@@tuples@boost@@@45@@Z
	?call@?$apply@U?$cons@_KU?$cons@U?$member@UScheduledCallback@ManualRuntime@vanetza@@PEBX$0EI@@multi_index@boost@@U?$cons@U?$hash@PEBX@boost@@U?$cons@U?$equal_to@PEBX@std@@Unull_type@tuples@boost@@@tuples@2@@tuples@3@@tuples@boost@@@tuples@boost@@@?$drop_front@$01@detail@tuples@boost@@SAAEBU?$cons@U?$hash@PEBX@boost@@U?$cons@U?$equal_to@PEBX@std@@Unull_type@tuples@boost@@@tuples@2@@45@AEBU?$cons@_KU?$cons@U?$member@UScheduledCallback@ManualRuntime@vanetza@@PEBX$0EI@@multi_index@boost@@U?$cons@U?$hash@PEBX@boost@@U?$cons@U?$equal_to@PEBX@std@@Unull_type@tuples@boost@@@tuples@2@@tuples@3@@tuples@boost@@@45@@Z
	?call@?$apply@U?$cons@_KU?$cons@U?$member@UScheduledCallback@ManualRuntime@vanetza@@PEBX$0EI@@multi_index@boost@@U?$cons@U?$hash@PEBX@boost@@U?$cons@U?$equal_to@PEBX@std@@Unull_type@tuples@boost@@@tuples@2@@tuples@3@@tuples@boost@@@tuples@boost@@@?$drop_front@$02@detail@tuples@boost@@SAAEBU?$cons@U?$equal_to@PEBX@std@@Unull_type@tuples@boost@@@45@AEBU?$cons@_KU?$cons@U?$member@UScheduledCallback@ManualRuntime@vanetza@@PEBX$0EI@@multi_index@boost@@U?$cons@U?$hash@PEBX@boost@@U?$cons@U?$equal_to@PEBX@std@@Unull_type@tuples@boost@@@tuples@2@@tuples@3@@tuples@boost@@@45@@Z
	?call@?$apply@U?$cons@_KU?$cons@U?$member@UScheduledCallback@ManualRuntime@vanetza@@PEBX$0EI@@multi_index@boost@@U?$cons@U?$hash@PEBX@boost@@U?$cons@U?$equal_to@PEBX@std@@Unull_type@tuples@boost@@@tuples@2@@tuples@3@@tuples@boost@@@tuples@boost@@@?$drop_front@$0A@@detail@tuples@boost@@SAAEBU?$cons@_KU?$cons@U?$member@UScheduledCallback@ManualRuntime@vanetza@@PEBX$0EI@@multi_index@boost@@U?$cons@U?$hash@PEBX@boost@@U?$cons@U?$equal_to@PEBX@std@@Unull_type@tuples@boost@@@tuples@2@@tuples@3@@tuples@boost@@@45@AEBU645@@Z
	?cancel@ManualRuntime@vanetza@@UEAAXPEBX@Z
	?capacity@?$vector@EV?$allocator@E@std@@@std@@QEBA_KXZ
	?cbegin@?$lexical_istream_limited_src@DU?$char_traits@D@std@@$0A@$01@detail@boost@@QEBAPEBDXZ
	?cbegin@?$vector@EV?$allocator@E@std@@@std@@QEBA?AV?$_Vector_const_iterator@V?$_Vector_val@U?$_Simple_types@E@std@@@std@@@2@XZ
	?cend@?$lexical_istream_limited_src@DU?$char_traits@D@std@@$0A@$01@detail@boost@@QEBAPEBDXZ
	?cend@?$vector@EV?$allocator@E@std@@@std@@QEBA?AV?$_Vector_const_iterator@V?$_Vector_val@U?$_Simple_types@E@std@@@std@@@2@XZ
	?clamp@UnitInterval@vanetza@@AEAAAEAV12@XZ
	?clamp@UnitInterval@vanetza@@CANN@Z
	?clear@?$bucket_array@V?$allocator@UScheduledCallback@ManualRuntime@vanetza@@@std@@@detail@multi_index@boost@@QEAAXPEAU?$hashed_index_node_impl@V?$allocator@D@std@@@234@@Z
	?clear@?$vector@EV?$allocator@E@std@@@std@@QEAAXXZ
	?clone@?$wrapexcept@Ubad_day_of_month@gregorian@boost@@@boost@@UEBAPEBVclone_base@exception_detail@2@XZ
	?clone@?$wrapexcept@Ubad_month@gregorian@boost@@@boost@@UEBAPEBVclone_base@exception_detail@2@XZ
	?clone@?$wrapexcept@Ubad_year@gregorian@boost@@@boost@@UEBAPEBVclone_base@exception_detail@2@XZ
	?clone@?$wrapexcept@Vbad_lexical_cast@boost@@@boost@@UEBAPEBVclone_base@exception_detail@2@XZ
	?color@?$ordered_index_node@Unull_augment_policy@detail@multi_index@boost@@U?$hashed_index_node@U?$index_node_base@UScheduledCallback@ManualRuntime@vanetza@@V?$allocator@UScheduledCallback@ManualRuntime@vanetza@@@std@@@detail@multi_index@boost@@@234@@detail@multi_index@boost@@QEAA?AUcolor_ref@?$ordered_index_node_compressed_base@Unull_augment_policy@detail@multi_index@boost@@V?$allocator@D@std@@@234@XZ
	?color@?$ordered_index_node_compressed_base@Unull_augment_policy@detail@multi_index@boost@@V?$allocator@D@std@@@detail@multi_index@boost@@QEAA?AUcolor_ref@1234@XZ
	?compare@?$_Narrow_char_traits@DH@std@@SAHQEBD0_K@Z
	?compare@?$basic_string@DU?$char_traits@D@std@@V?$allocator@D@2@@std@@QEBAHAEBV12@@Z
	?compare@?$basic_string@DU?$char_traits@D@std@@V?$allocator@D@2@@std@@QEBAHQEBD@Z
	?compare@?$int_adapter@_J@date_time@boost@@AEBAHAEBV123@@Z
	?complement@UnitInterval@vanetza@@QEBA?AV12@XZ
	?construct_value@?$multi_index_container@UScheduledCallback@ManualRuntime@vanetza@@U?$indexed_by@U?$ordered_non_unique@U?$tag@Uby_deadline@ManualRuntime@vanetza@@Una@mpl@boost@@U456@U456@U456@U456@U456@U456@U456@U456@U456@U456@U456@U456@U456@U456@U456@U456@U456@U456@@multi_index@boost@@U?$member@UScheduledCallback@ManualRuntime@vanetza@@V?$time_point@VClock@vanetza@@V?$duration@_JU?$ratio@$00$0PECEA@@std@@@chrono@std@@@chrono@std@@$0A@@23@Una@mpl@3@@multi_index@boost@@U?$hashed_non_unique@U?$tag@Uby_scope@ManualRuntime@vanetza@@Una@mpl@boost@@U456@U456@U456@U456@U456@U456@U456@U456@U456@U456@U456@U456@U456@U456@U456@U456@U456@U456@@multi_index@boost@@U?$member@UScheduledCallback@ManualRuntime@vanetza@@PEBX$0EI@@23@Una@mpl@3@U563@@23@Una@mpl@3@U563@U563@U563@U563@U563@U563@U563@U563@U563@U563@U563@U563@U563@U563@U563@U563@U563@@multi_index@boost@@V?$allocator@UScheduledCallback@ManualRuntime@vanetza@@@std@@@multi_index@boost@@IEAAXPEAU?$ordered_index_node@Unull_augment_policy@detail@multi_index@boost@@U?$hashed_index_node@U?$index_node_base@UScheduledCallback@ManualRuntime@vanetza@@V?$allocator@UScheduledCallback@ManualRuntime@vanetza@@@std@@@detail@multi_index@boost@@@234@@detail@23@$$QEAUScheduledCallback@ManualRuntime@vanetza@@@Z
	?convert@?$byte_buffer_impl@$$T@convertible@vanetza@@UEBAXAEAV?$vector@EV?$allocator@E@std@@@std@@@Z
	?convert@?$byte_buffer_impl@V?$basic_string@DU?$char_traits@D@std@@V?$allocator@D@2@@std@@@convertible@vanetza@@UEBAXAEAV?$vector@EV?$allocator@E@std@@@std@@@Z
	?convert@?$byte_buffer_impl@V?$vector@EV?$allocator@E@std@@@std@@@convertible@vanetza@@UEBAXAEAV?$vector@EV?$allocator@E@std@@@std@@@Z
	?convert@?$lcast_ret_unsigned@U?$char_traits@D@std@@GD@detail@boost@@QEAA_NXZ
	?convert@?$lcast_ret_unsigned@U?$char_traits@D@std@@ID@detail@boost@@QEAA_NXZ
	?convert@?$lcast_ret_unsigned@U?$char_traits@D@std@@_KD@detail@boost@@QEAA_NXZ
	?convert@ByteBufferConvertible@vanetza@@QEBAXAEAV?$vector@EV?$allocator@E@std@@@std@@@Z
	?convert_to_lower@date_time@boost@@YA?AV?$basic_string@DU?$char_traits@D@std@@V?$allocator@D@2@@std@@V34@@Z
	?copy@?$_Char_traits@DH@std@@SAPEADQEADQEBD_K@Z
	?copy_boost_exception@exception_detail@boost@@YAXPEAVexception@2@PEBV32@@Z
	?copy_from@?$wrapexcept@Ubad_day_of_month@gregorian@boost@@@boost@@AEAAXPEBX@Z
	?copy_from@?$wrapexcept@Ubad_month@gregorian@boost@@@boost@@AEAAXPEBX@Z
	?copy_from@?$wrapexcept@Ubad_year@gregorian@boost@@@boost@@AEAAXPEBX@Z
	?copy_from@?$wrapexcept@Vbad_lexical_cast@boost@@@boost@@AEAAXPEBX@Z
	?count@?$duration@_JU?$ratio@$00$0PECEA@@std@@@chrono@std@@QEBA_JXZ
	?create_byte_view@vanetza@@YA?AVbyte_view_range@1@$$QEAV?$vector@EV?$allocator@E@std@@@std@@@Z
	?create_byte_view@vanetza@@YA?AVbyte_view_range@1@AEBV?$vector@EV?$allocator@E@std@@@std@@@Z
	?create_byte_view@vanetza@@YA?AVbyte_view_range@1@AEBVByteBufferConvertible@1@@Z
	?data@?$auto_space@PEAU?$hashed_index_node_impl@V?$allocator@D@std@@@detail@multi_index@boost@@V?$allocator@UScheduledCallback@ManualRuntime@vanetza@@@std@@@detail@multi_index@boost@@QEBAPEAPEAU?$hashed_index_node_impl@V?$allocator@D@std@@@234@XZ
	?data@?$auto_space@U?$hashed_index_base_node_impl@V?$allocator@D@std@@@detail@multi_index@boost@@V?$allocator@UScheduledCallback@ManualRuntime@vanetza@@@std@@@detail@multi_index@boost@@QEBAPEAU?$hashed_index_base_node_impl@V?$allocator@D@std@@@234@XZ
	?data@?$auto_space@_KV?$allocator@UScheduledCallback@ManualRuntime@vanetza@@@std@@@detail@multi_index@boost@@QEBAPEA_KXZ
	?data@?$basic_string@DU?$char_traits@D@std@@V?$allocator@D@2@@std@@QEBAPEBDXZ
	?data@byte_view_range@vanetza@@QEBAPEBEXZ
	?day_count@?$date@V0gregorian@boost@@Vgregorian_calendar@12@Vdate_duration@12@@date_time@boost@@QEBA?AV?$int_adapter@I@23@XZ
	?day_number@?$gregorian_calendar_base@U?$year_month_day_base@Vgreg_year@gregorian@boost@@Vgreg_month@23@Vgreg_day@23@@date_time@boost@@I@date_time@boost@@SAIAEBU?$year_month_day_base@Vgreg_year@gregorian@boost@@Vgreg_month@23@Vgreg_day@23@@23@@Z
	?day_number@date@gregorian@boost@@QEBAIXZ
	?deallocate@?$_Default_allocator_traits@V?$allocator@PEAU?$hashed_index_node_impl@V?$allocator@D@std@@@detail@multi_index@boost@@@std@@@std@@SAXAEAV?$allocator@PEAU?$hashed_index_node_impl@V?$allocator@D@std@@@detail@multi_index@boost@@@2@QEAPEAU?$hashed_index_node_impl@V?$allocator@D@std@@@detail@multi_index@boost@@_K@Z
	?deallocate@?$_Default_allocator_traits@V?$allocator@U?$_Tree_node@U?$pair@$$CBV?$basic_string@DU?$char_traits@D@std@@V?$allocator@D@2@@std@@G@std@@PEAX@std@@@std@@@std@@SAXAEAV?$allocator@U?$_Tree_node@U?$pair@$$CBV?$basic_string@DU?$char_traits@D@std@@V?$allocator@D@2@@std@@G@std@@PEAX@std@@@2@QEAU?$_Tree_node@U?$pair@$$CBV?$basic_string@DU?$char_traits@D@std@@V?$allocator@D@2@@std@@G@std@@PEAX@2@_K@Z
	?deallocate@?$_Default_allocator_traits@V?$allocator@U?$hashed_index_base_node_impl@V?$allocator@D@std@@@detail@multi_index@boost@@@std@@@std@@SAXAEAV?$allocator@U?$hashed_index_base_node_impl@V?$allocator@D@std@@@detail@multi_index@boost@@@2@QEAU?$hashed_index_base_node_impl@V?$allocator@D@std@@@detail@multi_index@boost@@_K@Z
	?deallocate@?$_Default_allocator_traits@V?$allocator@U?$ordered_index_node@Unull_augment_policy@detail@multi_index@boost@@U?$hashed_index_node@U?$index_node_base@UScheduledCallback@ManualRuntime@vanetza@@V?$allocator@UScheduledCallback@ManualRuntime@vanetza@@@std@@@detail@multi_index@boost@@@234@@detail@multi_index@boost@@@std@@@std@@SAXAEAV?$allocator@U?$ordered_index_node@Unull_augment_policy@detail@multi_index@boost@@U?$hashed_index_node@U?$index_node_base@UScheduledCallback@ManualRuntime@vanetza@@V?$allocator@UScheduledCallback@ManualRuntime@vanetza@@@std@@@detail@multi_index@boost@@@234@@detail@multi_index@boost@@@2@QEAU?$ordered_index_node@Unull_augment_policy@detail@multi_index@boost@@U?$hashed_index_node@U?$index_node_base@UScheduledCallback@ManualRuntime@vanetza@@V?$allocator@UScheduledCallback@ManualRuntime@vanetza@@@std@@@detail@multi_index@boost@@@234@@detail@multi_index@boost@@_K@Z
	?deallocate@?$_Default_allocator_traits@V?$allocator@U_Container_proxy@std@@@std@@@std@@SAXAEAV?$allocator@U_Container_proxy@std@@@2@QEAU_Container_proxy@2@_K@Z
	?deallocate@?$_Default_allocator_traits@V?$allocator@_K@std@@@std@@SAXAEAV?$allocator@_K@2@QEA_K_K@Z
	?deallocate@?$allocator@D@std@@QEAAXQEAD_K@Z
	?deallocate@?$allocator@E@std@@QEAAXQEAE_K@Z
	?deallocate@?$allocator@U?$_Tree_node@U?$pair@$$CBV?$basic_string@DU?$char_traits@D@std@@V?$allocator@D@2@@std@@G@std@@PEAX@std@@@std@@QEAAXQEAU?$_Tree_node@U?$pair@$$CBV?$basic_string@DU?$char_traits@D@std@@V?$allocator@D@2@@std@@G@std@@PEAX@2@_K@Z
	?deallocate_node@?$multi_index_container@UScheduledCallback@ManualRuntime@vanetza@@U?$indexed_by@U?$ordered_non_unique@U?$tag@Uby_deadline@ManualRuntime@vanetza@@Una@mpl@boost@@U456@U456@U456@U456@U456@U456@U456@U456@U456@U456@U456@U456@U456@U456@U456@U456@U456@U456@@multi_index@boost@@U?$member@UScheduledCallback@ManualRuntime@vanetza@@V?$time_point@VClock@vanetza@@V?$duration@_JU?$ratio@$00$0PECEA@@std@@@chrono@std@@@chrono@std@@$0A@@23@Una@mpl@3@@multi_index@boost@@U?$hashed_non_unique@U?$tag@Uby_scope@ManualRuntime@vanetza@@Una@mpl@boost@@U456@U456@U456@U456@U456@U456@U456@U456@U456@U456@U456@U456@U456@U456@U456@U456@U456@U456@@multi_index@boost@@U?$member@UScheduledCallback@ManualRuntime@vanetza@@PEBX$0EI@@23@Una@mpl@3@U563@@23@Una@mpl@3@U563@U563@U563@U563@U563@U563@U563@U563@U563@U563@U563@U563@U563@U563@U563@U563@U563@@multi_index@boost@@V?$allocator@UScheduledCallback@ManualRuntime@vanetza@@@std@@@multi_index@boost@@IEAAXPEAU?$ordered_index_node@Unull_augment_policy@detail@multi_index@boost@@U?$hashed_index_node@U?$index_node_base@UScheduledCallback@ManualRuntime@vanetza@@V?$allocator@UScheduledCallback@ManualRuntime@vanetza@@@std@@@detail@multi_index@boost@@@234@@detail@23@@Z
	?delete_all_nodes@?$ordered_index_impl@U?$member@UScheduledCallback@ManualRuntime@vanetza@@V?$time_point@VClock@vanetza@@V?$duration@_JU?$ratio@$00$0PECEA@@std@@@chrono@std@@@chrono@std@@$0A@@multi_index@boost@@U?$less@V?$time_point@VClock@vanetza@@V?$duration@_JU?$ratio@$00$0PECEA@@std@@@chrono@std@@@chrono@std@@@std@@U?$nth_layer@$00UScheduledCallback@ManualRuntime@vanetza@@U?$indexed_by@U?$ordered_non_unique@U?$tag@Uby_deadline@ManualRuntime@vanetza@@Una@mpl@boost@@U456@U456@U456@U456@U456@U456@U456@U456@U456@U456@U456@U456@U456@U456@U456@U456@U456@U456@@multi_index@boost@@U?$member@UScheduledCallback@ManualRuntime@vanetza@@V?$time_point@VClock@vanetza@@V?$duration@_JU?$ratio@$00$0PECEA@@std@@@chrono@std@@@chrono@std@@$0A@@23@Una@mpl@3@@multi_index@boost@@U?$hashed_non_unique@U?$tag@Uby_scope@ManualRuntime@vanetza@@Una@mpl@boost@@U456@U456@U456@U456@U456@U456@U456@U456@U456@U456@U456@U456@U456@U456@U456@U456@U456@U456@@multi_index@boost@@U?$member@UScheduledCallback@ManualRuntime@vanetza@@PEBX$0EI@@23@Una@mpl@3@U563@@23@Una@mpl@3@U563@U563@U563@U563@U563@U563@U563@U563@U563@U563@U563@U563@U563@U563@U563@U563@U563@@multi_index@boost@@V?$allocator@UScheduledCallback@ManualRuntime@vanetza@@@std@@@detail@23@U?$vector1@Uby_deadline@ManualRuntime@vanetza@@@mpl@3@Uordered_non_unique_tag@723@Unull_augment_policy@723@@detail@multi_index@boost@@AEAAXPEAU?$ordered_index_node@Unull_augment_policy@detail@multi_index@boost@@U?$hashed_index_node@U?$index_node_base@UScheduledCallback@ManualRuntime@vanetza@@V?$allocator@UScheduledCallback@ManualRuntime@vanetza@@@std@@@detail@multi_index@boost@@@234@@234@@Z
	?delete_all_nodes_@?$multi_index_container@UScheduledCallback@ManualRuntime@vanetza@@U?$indexed_by@U?$ordered_non_unique@U?$tag@Uby_deadline@ManualRuntime@vanetza@@Una@mpl@boost@@U456@U456@U456@U456@U456@U456@U456@U456@U456@U456@U456@U456@U456@U456@U456@U456@U456@U456@@multi_index@boost@@U?$member@UScheduledCallback@ManualRuntime@vanetza@@V?$time_point@VClock@vanetza@@V?$duration@_JU?$ratio@$00$0PECEA@@std@@@chrono@std@@@chrono@std@@$0A@@23@Una@mpl@3@@multi_index@boost@@U?$hashed_non_unique@U?$tag@Uby_scope@ManualRuntime@vanetza@@Una@mpl@boost@@U456@U456@U456@U456@U456@U456@U456@U456@U456@U456@U456@U456@U456@U456@U456@U456@U456@U456@@multi_index@boost@@U?$member@UScheduledCallback@ManualRuntime@vanetza@@PEBX$0EI@@23@Una@mpl@3@U563@@23@Una@mpl@3@U563@U563@U563@U563@U563@U563@U563@U563@U563@U563@U563@U563@U563@U563@U563@U563@U563@@multi_index@boost@@V?$allocator@UScheduledCallback@ManualRuntime@vanetza@@@std@@@multi_index@boost@@IEAAXXZ
	?delete_all_nodes_@?$ordered_index_impl@U?$member@UScheduledCallback@ManualRuntime@vanetza@@V?$time_point@VClock@vanetza@@V?$duration@_JU?$ratio@$00$0PECEA@@std@@@chrono@std@@@chrono@std@@$0A@@multi_index@boost@@U?$less@V?$time_point@VClock@vanetza@@V?$duration@_JU?$ratio@$00$0PECEA@@std@@@chrono@std@@@chrono@std@@@std@@U?$nth_layer@$00UScheduledCallback@ManualRuntime@vanetza@@U?$indexed_by@U?$ordered_non_unique@U?$tag@Uby_deadline@ManualRuntime@vanetza@@Una@mpl@boost@@U456@U456@U456@U456@U456@U456@U456@U456@U456@U456@U456@U456@U456@U456@U456@U456@U456@U456@@multi_index@boost@@U?$member@UScheduledCallback@ManualRuntime@vanetza@@V?$time_point@VClock@vanetza@@V?$duration@_JU?$ratio@$00$0PECEA@@std@@@chrono@std@@@chrono@std@@$0A@@23@Una@mpl@3@@multi_index@boost@@U?$hashed_non_unique@U?$tag@Uby_scope@ManualRuntime@vanetza@@Una@mpl@boost@@U456@U456@U456@U456@U456@U456@U456@U456@U456@U456@U456@U456@U456@U456@U456@U456@U456@U456@@multi_index@boost@@U?$member@UScheduledCallback@ManualRuntime@vanetza@@PEBX$0EI@@23@Una@mpl@3@U563@@23@Una@mpl@3@U563@U563@U563@U563@U563@U563@U563@U563@U563@U563@U563@U563@U563@U563@U563@U563@U563@@multi_index@boost@@V?$allocator@UScheduledCallback@ManualRuntime@vanetza@@@std@@@detail@23@U?$vector1@Uby_deadline@ManualRuntime@vanetza@@@mpl@3@Uordered_non_unique_tag@723@Unull_augment_policy@723@@detail@multi_index@boost@@IEAAXXZ
	?delete_node_@?$multi_index_container@UScheduledCallback@ManualRuntime@vanetza@@U?$indexed_by@U?$ordered_non_unique@U?$tag@Uby_deadline@ManualRuntime@vanetza@@Una@mpl@boost@@U456@U456@U456@U456@U456@U456@U456@U456@U456@U456@U456@U456@U456@U456@U456@U456@U456@U456@@multi_index@boost@@U?$member@UScheduledCallback@ManualRuntime@vanetza@@V?$time_point@VClock@vanetza@@V?$duration@_JU?$ratio@$00$0PECEA@@std@@@chrono@std@@@chrono@std@@$0A@@23@Una@mpl@3@@multi_index@boost@@U?$hashed_non_unique@U?$tag@Uby_scope@ManualRuntime@vanetza@@Una@mpl@boost@@U456@U456@U456@U456@U456@U456@U456@U456@U456@U456@U456@U456@U456@U456@U456@U456@U456@U456@@multi_index@boost@@U?$member@UScheduledCallback@ManualRuntime@vanetza@@PEBX$0EI@@23@Una@mpl@3@U563@@23@Una@mpl@3@U563@U563@U563@U563@U563@U563@U563@U563@U563@U563@U563@U563@U563@U563@U563@U563@U563@@multi_index@boost@@V?$allocator@UScheduledCallback@ManualRuntime@vanetza@@@std@@@multi_index@boost@@IEAAXPEAU?$ordered_index_node@Unull_augment_policy@detail@multi_index@boost@@U?$hashed_index_node@U?$index_node_base@UScheduledCallback@ManualRuntime@vanetza@@V?$allocator@UScheduledCallback@ManualRuntime@vanetza@@@std@@@detail@multi_index@boost@@@234@@detail@23@@Z
	?dereference@?$token_iterator@V?$char_separator@DU?$char_traits@D@std@@@boost@@V?$_String_const_iterator@V?$_String_val@U?$_Simple_types@D@std@@@std@@@std@@V?$basic_string@DU?$char_traits@D@std@@V?$allocator@D@2@@4@@boost@@AEBAAEBV?$basic_string@DU?$char_traits@D@std@@V?$allocator@D@2@@std@@XZ
	?derived@?$iterator_facade_base@V?$token_iterator@V?$char_separator@DU?$char_traits@D@std@@@boost@@V?$_String_const_iterator@V?$_String_val@U?$_Simple_types@D@std@@@std@@@std@@V?$basic_string@DU?$char_traits@D@std@@V?$allocator@D@2@@4@@boost@@V?$basic_string@DU?$char_traits@D@std@@V?$allocator@D@2@@std@@Uforward_traversal_tag@iterators@2@AEBV34@_J$0A@$0A@@detail@iterators@boost@@IEAAAEAV?$token_iterator@V?$char_separator@DU?$char_traits@D@std@@@boost@@V?$_String_const_iterator@V?$_String_val@U?$_Simple_types@D@std@@@std@@@std@@V?$basic_string@DU?$char_traits@D@std@@V?$allocator@D@2@@4@@4@XZ
	?derived@?$iterator_facade_base@V?$token_iterator@V?$char_separator@DU?$char_traits@D@std@@@boost@@V?$_String_const_iterator@V?$_String_val@U?$_Simple_types@D@std@@@std@@@std@@V?$basic_string@DU?$char_traits@D@std@@V?$allocator@D@2@@4@@boost@@V?$basic_string@DU?$char_traits@D@std@@V?$allocator@D@2@@std@@Uforward_traversal_tag@iterators@2@AEBV34@_J$0A@$0A@@detail@iterators@boost@@IEBAAEBV?$token_iterator@V?$char_separator@DU?$char_traits@D@std@@@boost@@V?$_String_const_iterator@V?$_String_val@U?$_Simple_types@D@std@@@std@@@std@@V?$basic_string@DU?$char_traits@D@std@@V?$allocator@D@2@@4@@4@XZ
	?destroy_value@?$multi_index_container@UScheduledCallback@ManualRuntime@vanetza@@U?$indexed_by@U?$ordered_non_unique@U?$tag@Uby_deadline@ManualRuntime@vanetza@@Una@mpl@boost@@U456@U456@U456@U456@U456@U456@U456@U456@U456@U456@U456@U456@U456@U456@U456@U456@U456@U456@@multi_index@boost@@U?$member@UScheduledCallback@ManualRuntime@vanetza@@V?$time_point@VClock@vanetza@@V?$duration@_JU?$ratio@$00$0PECEA@@std@@@chrono@std@@@chrono@std@@$0A@@23@Una@mpl@3@@multi_index@boost@@U?$hashed_non_unique@U?$tag@Uby_scope@ManualRuntime@vanetza@@Una@mpl@boost@@U456@U456@U456@U456@U456@U456@U456@U456@U456@U456@U456@U456@U456@U456@U456@U456@U456@U456@@multi_index@boost@@U?$member@UScheduledCallback@ManualRuntime@vanetza@@PEBX$0EI@@23@Una@mpl@3@U563@@23@Una@mpl@3@U563@U563@U563@U563@U563@U563@U563@U563@U563@U563@U563@U563@U563@U563@U563@U563@U563@@multi_index@boost@@V?$allocator@UScheduledCallback@ManualRuntime@vanetza@@@std@@@multi_index@boost@@IEAAXPEAU?$ordered_index_node@Unull_augment_policy@detail@multi_index@boost@@U?$hashed_index_node@U?$index_node_base@UScheduledCallback@ManualRuntime@vanetza@@V?$allocator@UScheduledCallback@ManualRuntime@vanetza@@@std@@@detail@multi_index@boost@@@234@@detail@23@@Z
	?do_decimal_point@?$numpunct@D@std@@MEBADXZ
	?do_falsename@?$numpunct@D@std@@MEBA?AV?$basic_string@DU?$char_traits@D@std@@V?$allocator@D@2@@2@XZ
	?do_grouping@?$numpunct@D@std@@MEBA?AV?$basic_string@DU?$char_traits@D@std@@V?$allocator@D@2@@2@XZ
	?do_thousands_sep@?$numpunct@D@std@@MEBADXZ
	?do_truename@?$numpunct@D@std@@MEBA?AV?$basic_string@DU?$char_traits@D@std@@V?$allocator@D@2@@2@XZ
	?duplicate@?$byte_buffer_impl@$$T@convertible@vanetza@@UEBA?AV?$unique_ptr@Ubyte_buffer@convertible@vanetza@@U?$default_delete@Ubyte_buffer@convertible@vanetza@@@std@@@std@@XZ
	?duplicate@byte_buffer@convertible@vanetza@@UEBA?AV?$unique_ptr@Ubyte_buffer@convertible@vanetza@@U?$default_delete@Ubyte_buffer@convertible@vanetza@@@std@@@std@@XZ
	?empty@?$ordered_index_impl@U?$member@UScheduledCallback@ManualRuntime@vanetza@@V?$time_point@VClock@vanetza@@V?$duration@_JU?$ratio@$00$0PECEA@@std@@@chrono@std@@@chrono@std@@$0A@@multi_index@boost@@U?$less@V?$time_point@VClock@vanetza@@V?$duration@_JU?$ratio@$00$0PECEA@@std@@@chrono@std@@@chrono@std@@@std@@U?$nth_layer@$00UScheduledCallback@ManualRuntime@vanetza@@U?$indexed_by@U?$ordered_non_unique@U?$tag@Uby_deadline@ManualRuntime@vanetza@@Una@mpl@boost@@U456@U456@U456@U456@U456@U456@U456@U456@U456@U456@U456@U456@U456@U456@U456@U456@U456@U456@@multi_index@boost@@U?$member@UScheduledCallback@ManualRuntime@vanetza@@V?$time_point@VClock@vanetza@@V?$duration@_JU?$ratio@$00$0PECEA@@std@@@chrono@std@@@chrono@std@@$0A@@23@Una@mpl@3@@multi_index@boost@@U?$hashed_non_unique@U?$tag@Uby_scope@ManualRuntime@vanetza@@Una@mpl@boost@@U456@U456@U456@U456@U456@U456@U456@U456@U456@U456@U456@U456@U456@U456@U456@U456@U456@U456@@multi_index@boost@@U?$member@UScheduledCallback@ManualRuntime@vanetza@@PEBX$0EI@@23@Una@mpl@3@U563@@23@Una@mpl@3@U563@U563@U563@U563@U563@U563@U563@U563@U563@U563@U563@U563@U563@U563@U563@U563@U563@@multi_index@boost@@V?$allocator@UScheduledCallback@ManualRuntime@vanetza@@@std@@@detail@23@U?$vector1@Uby_deadline@ManualRuntime@vanetza@@@mpl@3@Uordered_non_unique_tag@723@Unull_augment_policy@723@@detail@multi_index@boost@@QEBA_NXZ
	?empty_@?$multi_index_container@UScheduledCallback@ManualRuntime@vanetza@@U?$indexed_by@U?$ordered_non_unique@U?$tag@Uby_deadline@ManualRuntime@vanetza@@Una@mpl@boost@@U456@U456@U456@U456@U456@U456@U456@U456@U456@U456@U456@U456@U456@U456@U456@U456@U456@U456@@multi_index@boost@@U?$member@UScheduledCallback@ManualRuntime@vanetza@@V?$time_point@VClock@vanetza@@V?$duration@_JU?$ratio@$00$0PECEA@@std@@@chrono@std@@@chrono@std@@$0A@@23@Una@mpl@3@@multi_index@boost@@U?$hashed_non_unique@U?$tag@Uby_scope@ManualRuntime@vanetza@@Una@mpl@boost@@U456@U456@U456@U456@U456@U456@U456@U456@U456@U456@U456@U456@U456@U456@U456@U456@U456@U456@@multi_index@boost@@U?$member@UScheduledCallback@ManualRuntime@vanetza@@PEBX$0EI@@23@Una@mpl@3@U563@@23@Una@mpl@3@U563@U563@U563@U563@U563@U563@U563@U563@U563@U563@U563@U563@U563@U563@U563@U563@U563@@multi_index@boost@@V?$allocator@UScheduledCallback@ManualRuntime@vanetza@@@std@@@multi_index@boost@@IEBA_NXZ
	?empty_initialize@?$ordered_index_impl@U?$member@UScheduledCallback@ManualRuntime@vanetza@@V?$time_point@VClock@vanetza@@V?$duration@_JU?$ratio@$00$0PECEA@@std@@@chrono@std@@@chrono@std@@$0A@@multi_index@boost@@U?$less@V?$time_point@VClock@vanetza@@V?$duration@_JU?$ratio@$00$0PECEA@@std@@@chrono@std@@@chrono@std@@@std@@U?$nth_layer@$00UScheduledCallback@ManualRuntime@vanetza@@U?$indexed_by@U?$ordered_non_unique@U?$tag@Uby_deadline@ManualRuntime@vanetza@@Una@mpl@boost@@U456@U456@U456@U456@U456@U456@U456@U456@U456@U456@U456@U456@U456@U456@U456@U456@U456@U456@@multi_index@boost@@U?$member@UScheduledCallback@ManualRuntime@vanetza@@V?$time_point@VClock@vanetza@@V?$duration@_JU?$ratio@$00$0PECEA@@std@@@chrono@std@@@chrono@std@@$0A@@23@Una@mpl@3@@multi_index@boost@@U?$hashed_non_unique@U?$tag@Uby_scope@ManualRuntime@vanetza@@Una@mpl@boost@@U456@U456@U456@U456@U456@U456@U456@U456@U456@U456@U456@U456@U456@U456@U456@U456@U456@U456@@multi_index@boost@@U?$member@UScheduledCallback@ManualRuntime@vanetza@@PEBX$0EI@@23@Una@mpl@3@U563@@23@Una@mpl@3@U563@U563@U563@U563@U563@U563@U563@U563@U563@U563@U563@U563@U563@U563@U563@U563@U563@@multi_index@boost@@V?$allocator@UScheduledCallback@ManualRuntime@vanetza@@@std@@@detail@23@U?$vector1@Uby_deadline@ManualRuntime@vanetza@@@mpl@3@Uordered_non_unique_tag@723@Unull_augment_policy@723@@detail@multi_index@boost@@AEAAXXZ
	?end@?$_Tree@V?$_Tmap_traits@V?$basic_string@DU?$char_traits@D@std@@V?$allocator@D@2@@std@@GU?$less@V?$basic_string@DU?$char_traits@D@std@@V?$allocator@D@2@@std@@@2@V?$allocator@U?$pair@$$CBV?$basic_string@DU?$char_traits@D@std@@V?$allocator@D@2@@std@@G@std@@@2@$0A@@std@@@std@@QEAA?AV?$_Tree_iterator@V?$_Tree_val@U?$_Tree_simple_types@U?$pair@$$CBV?$basic_string@DU?$char_traits@D@std@@V?$allocator@D@2@@std@@G@std@@@std@@@std@@@2@XZ
	?end@?$basic_string@DU?$char_traits@D@std@@V?$allocator@D@2@@std@@QEBA?AV?$_String_const_iterator@V?$_String_val@U?$_Simple_types@D@std@@@std@@@2@XZ
	?end@?$bucket_array@V?$allocator@UScheduledCallback@ManualRuntime@vanetza@@@std@@@detail@multi_index@boost@@QEBAPEAU?$hashed_index_base_node_impl@V?$allocator@D@std@@@234@XZ
	?end@?$hashed_index@U?$member@UScheduledCallback@ManualRuntime@vanetza@@PEBX$0EI@@multi_index@boost@@U?$hash@PEBX@3@U?$equal_to@PEBX@std@@U?$nth_layer@$01UScheduledCallback@ManualRuntime@vanetza@@U?$indexed_by@U?$ordered_non_unique@U?$tag@Uby_deadline@ManualRuntime@vanetza@@Una@mpl@boost@@U456@U456@U456@U456@U456@U456@U456@U456@U456@U456@U456@U456@U456@U456@U456@U456@U456@U456@@multi_index@boost@@U?$member@UScheduledCallback@ManualRuntime@vanetza@@V?$time_point@VClock@vanetza@@V?$duration@_JU?$ratio@$00$0PECEA@@std@@@chrono@std@@@chrono@std@@$0A@@23@Una@mpl@3@@multi_index@boost@@U?$hashed_non_unique@U?$tag@Uby_scope@ManualRuntime@vanetza@@Una@mpl@boost@@U456@U456@U456@U456@U456@U456@U456@U456@U456@U456@U456@U456@U456@U456@U456@U456@U456@U456@@multi_index@boost@@U?$member@UScheduledCallback@ManualRuntime@vanetza@@PEBX$0EI@@23@Una@mpl@3@U563@@23@Una@mpl@3@U563@U563@U563@U563@U563@U563@U563@U563@U563@U563@U563@U563@U563@U563@U563@U563@U563@@multi_index@boost@@V?$allocator@UScheduledCallback@ManualRuntime@vanetza@@@std@@@detail@23@U?$vector1@Uby_scope@ManualRuntime@vanetza@@@mpl@3@Uhashed_non_unique_tag@823@@detail@multi_index@boost@@QEBA?AV?$hashed_index_iterator@U?$hashed_index_node@U?$index_node_base@UScheduledCallback@ManualRuntime@vanetza@@V?$allocator@UScheduledCallback@ManualRuntime@vanetza@@@std@@@detail@multi_index@boost@@@detail@multi_index@boost@@V?$bucket_array@V?$allocator@UScheduledCallback@ManualRuntime@vanetza@@@std@@@234@Uhashed_non_unique_tag@234@Uhashed_index_global_iterator_tag@234@@234@XZ
	?end@?$initializer_list@U?$pair@$$CBV?$basic_string@DU?$char_traits@D@std@@V?$allocator@D@2@@std@@G@std@@@std@@QEBAPEBU?$pair@$$CBV?$basic_string@DU?$char_traits@D@std@@V?$allocator@D@2@@std@@G@2@XZ
	?end@?$iterator_range_base@V?$_Vector_const_iterator@V?$_Vector_val@U?$_Simple_types@E@std@@@std@@@std@@Uincrementable_traversal_tag@iterators@boost@@@iterator_range_detail@boost@@QEBA?AV?$_Vector_const_iterator@V?$_Vector_val@U?$_Simple_types@E@std@@@std@@@std@@XZ
	?end@?$iterator_range_base@Vbyte_view_iterator@vanetza@@Uincrementable_traversal_tag@iterators@boost@@@iterator_range_detail@boost@@QEBA?AVbyte_view_iterator@vanetza@@XZ
	?end@?$ordered_index_impl@U?$member@UScheduledCallback@ManualRuntime@vanetza@@V?$time_point@VClock@vanetza@@V?$duration@_JU?$ratio@$00$0PECEA@@std@@@chrono@std@@@chrono@std@@$0A@@multi_index@boost@@U?$less@V?$time_point@VClock@vanetza@@V?$duration@_JU?$ratio@$00$0PECEA@@std@@@chrono@std@@@chrono@std@@@std@@U?$nth_layer@$00UScheduledCallback@ManualRuntime@vanetza@@U?$indexed_by@U?$ordered_non_unique@U?$tag@Uby_deadline@ManualRuntime@vanetza@@Una@mpl@boost@@U456@U456@U456@U456@U456@U456@U456@U456@U456@U456@U456@U456@U456@U456@U456@U456@U456@U456@@multi_index@boost@@U?$member@UScheduledCallback@ManualRuntime@vanetza@@V?$time_point@VClock@vanetza@@V?$duration@_JU?$ratio@$00$0PECEA@@std@@@chrono@std@@@chrono@std@@$0A@@23@Una@mpl@3@@multi_index@boost@@U?$hashed_non_unique@U?$tag@Uby_scope@ManualRuntime@vanetza@@Una@mpl@boost@@U456@U456@U456@U456@U456@U456@U456@U456@U456@U456@U456@U456@U456@U456@U456@U456@U456@U456@@multi_index@boost@@U?$member@UScheduledCallback@ManualRuntime@vanetza@@PEBX$0EI@@23@Una@mpl@3@U563@@23@Una@mpl@3@U563@U563@U563@U563@U563@U563@U563@U563@U563@U563@U563@U563@U563@U563@U563@U563@U563@@multi_index@boost@@V?$allocator@UScheduledCallback@ManualRuntime@vanetza@@@std@@@detail@23@U?$vector1@Uby_deadline@ManualRuntime@vanetza@@@mpl@3@Uordered_non_unique_tag@723@Unull_augment_policy@723@@detail@multi_index@boost@@QEAA?AV?$bidir_node_iterator@U?$ordered_index_node@Unull_augment_policy@detail@multi_index@boost@@U?$hashed_index_node@U?$index_node_base@UScheduledCallback@ManualRuntime@vanetza@@V?$allocator@UScheduledCallback@ManualRuntime@vanetza@@@std@@@detail@multi_index@boost@@@234@@detail@multi_index@boost@@@234@XZ
	?end@?$tokenizer@V?$char_separator@DU?$char_traits@D@std@@@boost@@V?$_String_const_iterator@V?$_String_val@U?$_Simple_types@D@std@@@std@@@std@@V?$basic_string@DU?$char_traits@D@std@@V?$allocator@D@2@@4@@boost@@QEBA?AV?$token_iterator@V?$char_separator@DU?$char_traits@D@std@@@boost@@V?$_String_const_iterator@V?$_String_val@U?$_Simple_types@D@std@@@std@@@std@@V?$basic_string@DU?$char_traits@D@std@@V?$allocator@D@2@@4@@2@XZ
	?end@?$vector@EV?$allocator@E@std@@@std@@QEAA?AV?$_Vector_iterator@V?$_Vector_val@U?$_Simple_types@E@std@@@std@@@2@XZ
	?end@?$vector@EV?$allocator@E@std@@@std@@QEBA?AV?$_Vector_const_iterator@V?$_Vector_val@U?$_Simple_types@E@std@@@std@@@2@XZ
	?end_of_month_day@?$gregorian_calendar_base@U?$year_month_day_base@Vgreg_year@gregorian@boost@@Vgreg_month@23@Vgreg_day@23@@date_time@boost@@I@date_time@boost@@SAGVgreg_year@gregorian@3@Vgreg_month@53@@Z
	?end_of_range@?$hashed_index@U?$member@UScheduledCallback@ManualRuntime@vanetza@@PEBX$0EI@@multi_index@boost@@U?$hash@PEBX@3@U?$equal_to@PEBX@std@@U?$nth_layer@$01UScheduledCallback@ManualRuntime@vanetza@@U?$indexed_by@U?$ordered_non_unique@U?$tag@Uby_deadline@ManualRuntime@vanetza@@Una@mpl@boost@@U456@U456@U456@U456@U456@U456@U456@U456@U456@U456@U456@U456@U456@U456@U456@U456@U456@U456@@multi_index@boost@@U?$member@UScheduledCallback@ManualRuntime@vanetza@@V?$time_point@VClock@vanetza@@V?$duration@_JU?$ratio@$00$0PECEA@@std@@@chrono@std@@@chrono@std@@$0A@@23@Una@mpl@3@@multi_index@boost@@U?$hashed_non_unique@U?$tag@Uby_scope@ManualRuntime@vanetza@@Una@mpl@boost@@U456@U456@U456@U456@U456@U456@U456@U456@U456@U456@U456@U456@U456@U456@U456@U456@U456@U456@@multi_index@boost@@U?$member@UScheduledCallback@ManualRuntime@vanetza@@PEBX$0EI@@23@Una@mpl@3@U563@@23@Una@mpl@3@U563@U563@U563@U563@U563@U563@U563@U563@U563@U563@U563@U563@U563@U563@U563@U563@U563@@multi_index@boost@@V?$allocator@UScheduledCallback@ManualRuntime@vanetza@@@std@@@detail@23@U?$vector1@Uby_scope@ManualRuntime@vanetza@@@mpl@3@Uhashed_non_unique_tag@823@@detail@multi_index@boost@@AEBAPEAU?$hashed_index_node_impl@V?$allocator@D@std@@@234@PEAU5234@@Z
	?end_of_range@?$hashed_index@U?$member@UScheduledCallback@ManualRuntime@vanetza@@PEBX$0EI@@multi_index@boost@@U?$hash@PEBX@3@U?$equal_to@PEBX@std@@U?$nth_layer@$01UScheduledCallback@ManualRuntime@vanetza@@U?$indexed_by@U?$ordered_non_unique@U?$tag@Uby_deadline@ManualRuntime@vanetza@@Una@mpl@boost@@U456@U456@U456@U456@U456@U456@U456@U456@U456@U456@U456@U456@U456@U456@U456@U456@U456@U456@@multi_index@boost@@U?$member@UScheduledCallback@ManualRuntime@vanetza@@V?$time_point@VClock@vanetza@@V?$duration@_JU?$ratio@$00$0PECEA@@std@@@chrono@std@@@chrono@std@@$0A@@23@Una@mpl@3@@multi_index@boost@@U?$hashed_non_unique@U?$tag@Uby_scope@ManualRuntime@vanetza@@Una@mpl@boost@@U456@U456@U456@U456@U456@U456@U456@U456@U456@U456@U456@U456@U456@U456@U456@U456@U456@U456@@multi_index@boost@@U?$member@UScheduledCallback@ManualRuntime@vanetza@@PEBX$0EI@@23@Una@mpl@3@U563@@23@Una@mpl@3@U563@U563@U563@U563@U563@U563@U563@U563@U563@U563@U563@U563@U563@U563@U563@U563@U563@@multi_index@boost@@V?$allocator@UScheduledCallback@ManualRuntime@vanetza@@@std@@@detail@23@U?$vector1@Uby_scope@ManualRuntime@vanetza@@@mpl@3@Uhashed_non_unique_tag@823@@detail@multi_index@boost@@AEBAPEAU?$hashed_index_node_impl@V?$allocator@D@std@@@234@PEAU5234@Uhashed_non_unique_tag@234@@Z
	?eof@?$_Narrow_char_traits@DH@std@@SAHXZ
	?epoch@Clock@vanetza@@SAAEBVptime@posix_time@boost@@XZ
	?epsilon@?$numeric_limits@N@std@@SANXZ
	?eq@?$_Narrow_char_traits@DH@std@@SA_NAEBD0@Z
	?erase@?$hashed_index@U?$member@UScheduledCallback@ManualRuntime@vanetza@@PEBX$0EI@@multi_index@boost@@U?$hash@PEBX@3@U?$equal_to@PEBX@std@@U?$nth_layer@$01UScheduledCallback@ManualRuntime@vanetza@@U?$indexed_by@U?$ordered_non_unique@U?$tag@Uby_deadline@ManualRuntime@vanetza@@Una@mpl@boost@@U456@U456@U456@U456@U456@U456@U456@U456@U456@U456@U456@U456@U456@U456@U456@U456@U456@U456@@multi_index@boost@@U?$member@UScheduledCallback@ManualRuntime@vanetza@@V?$time_point@VClock@vanetza@@V?$duration@_JU?$ratio@$00$0PECEA@@std@@@chrono@std@@@chrono@std@@$0A@@23@Una@mpl@3@@multi_index@boost@@U?$hashed_non_unique@U?$tag@Uby_scope@ManualRuntime@vanetza@@Una@mpl@boost@@U456@U456@U456@U456@U456@U456@U456@U456@U456@U456@U456@U456@U456@U456@U456@U456@U456@U456@@multi_index@boost@@U?$member@UScheduledCallback@ManualRuntime@vanetza@@PEBX$0EI@@23@Una@mpl@3@U563@@23@Una@mpl@3@U563@U563@U563@U563@U563@U563@U563@U563@U563@U563@U563@U563@U563@U563@U563@U563@U563@@multi_index@boost@@V?$allocator@UScheduledCallback@ManualRuntime@vanetza@@@std@@@detail@23@U?$vector1@Uby_scope@ManualRuntime@vanetza@@@mpl@3@Uhashed_non_unique_tag@823@@detail@multi_index@boost@@QEAA?AV?$hashed_index_iterator@U?$hashed_index_node@U?$index_node_base@UScheduledCallback@ManualRuntime@vanetza@@V?$allocator@UScheduledCallback@ManualRuntime@vanetza@@@std@@@detail@multi_index@boost@@@detail@multi_index@boost@@V?$bucket_array@V?$allocator@UScheduledCallback@ManualRuntime@vanetza@@@std@@@234@Uhashed_non_unique_tag@234@Uhashed_index_global_iterator_tag@234@@234@V5234@0@Z
	?erase@?$hashed_index@U?$member@UScheduledCallback@ManualRuntime@vanetza@@PEBX$0EI@@multi_index@boost@@U?$hash@PEBX@3@U?$equal_to@PEBX@std@@U?$nth_layer@$01UScheduledCallback@ManualRuntime@vanetza@@U?$indexed_by@U?$ordered_non_unique@U?$tag@Uby_deadline@ManualRuntime@vanetza@@Una@mpl@boost@@U456@U456@U456@U456@U456@U456@U456@U456@U456@U456@U456@U456@U456@U456@U456@U456@U456@U456@@multi_index@boost@@U?$member@UScheduledCallback@ManualRuntime@vanetza@@V?$time_point@VClock@vanetza@@V?$duration@_JU?$ratio@$00$0PECEA@@std@@@chrono@std@@@chrono@std@@$0A@@23@Una@mpl@3@@multi_index@boost@@U?$hashed_non_unique@U?$tag@Uby_scope@ManualRuntime@vanetza@@Una@mpl@boost@@U456@U456@U456@U456@U456@U456@U456@U456@U456@U456@U456@U456@U456@U456@U456@U456@U456@U456@@multi_index@boost@@U?$member@UScheduledCallback@ManualRuntime@vanetza@@PEBX$0EI@@23@Una@mpl@3@U563@@23@Una@mpl@3@U563@U563@U563@U563@U563@U563@U563@U563@U563@U563@U563@U563@U563@U563@U563@U563@U563@@multi_index@boost@@V?$allocator@UScheduledCallback@ManualRuntime@vanetza@@@std@@@detail@23@U?$vector1@Uby_scope@ManualRuntime@vanetza@@@mpl@3@Uhashed_non_unique_tag@823@@detail@multi_index@boost@@QEAA?AV?$hashed_index_iterator@U?$hashed_index_node@U?$index_node_base@UScheduledCallback@ManualRuntime@vanetza@@V?$allocator@UScheduledCallback@ManualRuntime@vanetza@@@std@@@detail@multi_index@boost@@@detail@multi_index@boost@@V?$bucket_array@V?$allocator@UScheduledCallback@ManualRuntime@vanetza@@@std@@@234@Uhashed_non_unique_tag@234@Uhashed_index_global_iterator_tag@234@@234@V5234@@Z
	?erase@?$ordered_index_impl@U?$member@UScheduledCallback@ManualRuntime@vanetza@@V?$time_point@VClock@vanetza@@V?$duration@_JU?$ratio@$00$0PECEA@@std@@@chrono@std@@@chrono@std@@$0A@@multi_index@boost@@U?$less@V?$time_point@VClock@vanetza@@V?$duration@_JU?$ratio@$00$0PECEA@@std@@@chrono@std@@@chrono@std@@@std@@U?$nth_layer@$00UScheduledCallback@ManualRuntime@vanetza@@U?$indexed_by@U?$ordered_non_unique@U?$tag@Uby_deadline@ManualRuntime@vanetza@@Una@mpl@boost@@U456@U456@U456@U456@U456@U456@U456@U456@U456@U456@U456@U456@U456@U456@U456@U456@U456@U456@@multi_index@boost@@U?$member@UScheduledCallback@ManualRuntime@vanetza@@V?$time_point@VClock@vanetza@@V?$duration@_JU?$ratio@$00$0PECEA@@std@@@chrono@std@@@chrono@std@@$0A@@23@Una@mpl@3@@multi_index@boost@@U?$hashed_non_unique@U?$tag@Uby_scope@ManualRuntime@vanetza@@Una@mpl@boost@@U456@U456@U456@U456@U456@U456@U456@U456@U456@U456@U456@U456@U456@U456@U456@U456@U456@U456@@multi_index@boost@@U?$member@UScheduledCallback@ManualRuntime@vanetza@@PEBX$0EI@@23@Una@mpl@3@U563@@23@Una@mpl@3@U563@U563@U563@U563@U563@U563@U563@U563@U563@U563@U563@U563@U563@U563@U563@U563@U563@@multi_index@boost@@V?$allocator@UScheduledCallback@ManualRuntime@vanetza@@@std@@@detail@23@U?$vector1@Uby_deadline@ManualRuntime@vanetza@@@mpl@3@Uordered_non_unique_tag@723@Unull_augment_policy@723@@detail@multi_index@boost@@QEAA?AV?$bidir_node_iterator@U?$ordered_index_node@Unull_augment_policy@detail@multi_index@boost@@U?$hashed_index_node@U?$index_node_base@UScheduledCallback@ManualRuntime@vanetza@@V?$allocator@UScheduledCallback@ManualRuntime@vanetza@@@std@@@detail@multi_index@boost@@@234@@detail@multi_index@boost@@@234@V5234@@Z
	?erase_@?$multi_index_container@UScheduledCallback@ManualRuntime@vanetza@@U?$indexed_by@U?$ordered_non_unique@U?$tag@Uby_deadline@ManualRuntime@vanetza@@Una@mpl@boost@@U456@U456@U456@U456@U456@U456@U456@U456@U456@U456@U456@U456@U456@U456@U456@U456@U456@U456@@multi_index@boost@@U?$member@UScheduledCallback@ManualRuntime@vanetza@@V?$time_point@VClock@vanetza@@V?$duration@_JU?$ratio@$00$0PECEA@@std@@@chrono@std@@@chrono@std@@$0A@@23@Una@mpl@3@@multi_index@boost@@U?$hashed_non_unique@U?$tag@Uby_scope@ManualRuntime@vanetza@@Una@mpl@boost@@U456@U456@U456@U456@U456@U456@U456@U456@U456@U456@U456@U456@U456@U456@U456@U456@U456@U456@@multi_index@boost@@U?$member@UScheduledCallback@ManualRuntime@vanetza@@PEBX$0EI@@23@Una@mpl@3@U563@@23@Una@mpl@3@U563@U563@U563@U563@U563@U563@U563@U563@U563@U563@U563@U563@U563@U563@U563@U563@U563@@multi_index@boost@@V?$allocator@UScheduledCallback@ManualRuntime@vanetza@@@std@@@multi_index@boost@@IEAAXPEAU?$ordered_index_node@Unull_augment_policy@detail@multi_index@boost@@U?$hashed_index_node@U?$index_node_base@UScheduledCallback@ManualRuntime@vanetza@@V?$allocator@UScheduledCallback@ManualRuntime@vanetza@@@std@@@detail@multi_index@boost@@@234@@detail@23@@Z
	?error_code@InputArchive@vanetza@@QEBA?AW4ErrorCode@12@XZ
	?fail@InputArchive@vanetza@@QEAAXW4ErrorCode@12@@Z
	?final@?$header_holder@PEAU?$ordered_index_node@Unull_augment_policy@detail@multi_index@boost@@U?$hashed_index_node@U?$index_node_base@UScheduledCallback@ManualRuntime@vanetza@@V?$allocator@UScheduledCallback@ManualRuntime@vanetza@@@std@@@detail@multi_index@boost@@@234@@detail@multi_index@boost@@V?$multi_index_container@UScheduledCallback@ManualRuntime@vanetza@@U?$indexed_by@U?$ordered_non_unique@U?$tag@Uby_deadline@ManualRuntime@vanetza@@Una@mpl@boost@@U456@U456@U456@U456@U456@U456@U456@U456@U456@U456@U456@U456@U456@U456@U456@U456@U456@U456@@multi_index@boost@@U?$member@UScheduledCallback@ManualRuntime@vanetza@@V?$time_point@VClock@vanetza@@V?$duration@_JU?$ratio@$00$0PECEA@@std@@@chrono@std@@@chrono@std@@$0A@@23@Una@mpl@3@@multi_index@boost@@U?$hashed_non_unique@U?$tag@Uby_scope@ManualRuntime@vanetza@@Una@mpl@boost@@U456@U456@U456@U456@U456@U456@U456@U456@U456@U456@U456@U456@U456@U456@U456@U456@U456@U456@@multi_index@boost@@U?$member@UScheduledCallback@ManualRuntime@vanetza@@PEBX$0EI@@23@Una@mpl@3@U563@@23@Una@mpl@3@U563@U563@U563@U563@U563@U563@U563@U563@U563@U563@U563@U563@U563@U563@U563@U563@U563@@multi_index@boost@@V?$allocator@UScheduledCallback@ManualRuntime@vanetza@@@std@@@34@@detail@multi_index@boost@@AEAAAEAV?$multi_index_container@UScheduledCallback@ManualRuntime@vanetza@@U?$indexed_by@U?$ordered_non_unique@U?$tag@Uby_deadline@ManualRuntime@vanetza@@Una@mpl@boost@@U456@U456@U456@U456@U456@U456@U456@U456@U456@U456@U456@U456@U456@U456@U456@U456@U456@U456@@multi_index@boost@@U?$member@UScheduledCallback@ManualRuntime@vanetza@@V?$time_point@VClock@vanetza@@V?$duration@_JU?$ratio@$00$0PECEA@@std@@@chrono@std@@@chrono@std@@$0A@@23@Una@mpl@3@@multi_index@boost@@U?$hashed_non_unique@U?$tag@Uby_scope@ManualRuntime@vanetza@@Una@mpl@boost@@U456@U456@U456@U456@U456@U456@U456@U456@U456@U456@U456@U456@U456@U456@U456@U456@U456@U456@@multi_index@boost@@U?$member@UScheduledCallback@ManualRuntime@vanetza@@PEBX$0EI@@23@Una@mpl@3@U563@@23@Una@mpl@3@U563@U563@U563@U563@U563@U563@U563@U563@U563@U563@U563@U563@U563@U563@U563@U563@U563@@multi_index@boost@@V?$allocator@UScheduledCallback@ManualRuntime@vanetza@@@std@@@34@XZ
	?final@?$index_base@UScheduledCallback@ManualRuntime@vanetza@@U?$indexed_by@U?$ordered_non_unique@U?$tag@Uby_deadline@ManualRuntime@vanetza@@Una@mpl@boost@@U456@U456@U456@U456@U456@U456@U456@U456@U456@U456@U456@U456@U456@U456@U456@U456@U456@U456@@multi_index@boost@@U?$member@UScheduledCallback@ManualRuntime@vanetza@@V?$time_point@VClock@vanetza@@V?$duration@_JU?$ratio@$00$0PECEA@@std@@@chrono@std@@@chrono@std@@$0A@@23@Una@mpl@3@@multi_index@boost@@U?$hashed_non_unique@U?$tag@Uby_scope@ManualRuntime@vanetza@@Una@mpl@boost@@U456@U456@U456@U456@U456@U456@U456@U456@U456@U456@U456@U456@U456@U456@U456@U456@U456@U456@@multi_index@boost@@U?$member@UScheduledCallback@ManualRuntime@vanetza@@PEBX$0EI@@23@Una@mpl@3@U563@@23@Una@mpl@3@U563@U563@U563@U563@U563@U563@U563@U563@U563@U563@U563@U563@U563@U563@U563@U563@U563@@multi_index@boost@@V?$allocator@UScheduledCallback@ManualRuntime@vanetza@@@std@@@detail@multi_index@boost@@IEAAAEAV?$multi_index_container@UScheduledCallback@ManualRuntime@vanetza@@U?$indexed_by@U?$ordered_non_unique@U?$tag@Uby_deadline@ManualRuntime@vanetza@@Una@mpl@boost@@U456@U456@U456@U456@U456@U456@U456@U456@U456@U456@U456@U456@U456@U456@U456@U456@U456@U456@@multi_index@boost@@U?$member@UScheduledCallback@ManualRuntime@vanetza@@V?$time_point@VClock@vanetza@@V?$duration@_JU?$ratio@$00$0PECEA@@std@@@chrono@std@@@chrono@std@@$0A@@23@Una@mpl@3@@multi_index@boost@@U?$hashed_non_unique@U?$tag@Uby_scope@ManualRuntime@vanetza@@Una@mpl@boost@@U456@U456@U456@U456@U456@U456@U456@U456@U456@U456@U456@U456@U456@U456@U456@U456@U456@U456@@multi_index@boost@@U?$member@UScheduledCallback@ManualRuntime@vanetza@@PEBX$0EI@@23@Una@mpl@3@U563@@23@Una@mpl@3@U563@U563@U563@U563@U563@U563@U563@U563@U563@U563@U563@U563@U563@U563@U563@U563@U563@@multi_index@boost@@V?$allocator@UScheduledCallback@ManualRuntime@vanetza@@@std@@@34@XZ
	?final@?$index_base@UScheduledCallback@ManualRuntime@vanetza@@U?$indexed_by@U?$ordered_non_unique@U?$tag@Uby_deadline@ManualRuntime@vanetza@@Una@mpl@boost@@U456@U456@U456@U456@U456@U456@U456@U456@U456@U456@U456@U456@U456@U456@U456@U456@U456@U456@@multi_index@boost@@U?$member@UScheduledCallback@ManualRuntime@vanetza@@V?$time_point@VClock@vanetza@@V?$duration@_JU?$ratio@$00$0PECEA@@std@@@chrono@std@@@chrono@std@@$0A@@23@Una@mpl@3@@multi_index@boost@@U?$hashed_non_unique@U?$tag@Uby_scope@ManualRuntime@vanetza@@Una@mpl@boost@@U456@U456@U456@U456@U456@U456@U456@U456@U456@U456@U456@U456@U456@U456@U456@U456@U456@U456@@multi_index@boost@@U?$member@UScheduledCallback@ManualRuntime@vanetza@@PEBX$0EI@@23@Una@mpl@3@U563@@23@Una@mpl@3@U563@U563@U563@U563@U563@U563@U563@U563@U563@U563@U563@U563@U563@U563@U563@U563@U563@@multi_index@boost@@V?$allocator@UScheduledCallback@ManualRuntime@vanetza@@@std@@@detail@multi_index@boost@@IEBAAEBV?$multi_index_container@UScheduledCallback@ManualRuntime@vanetza@@U?$indexed_by@U?$ordered_non_unique@U?$tag@Uby_deadline@ManualRuntime@vanetza@@Una@mpl@boost@@U456@U456@U456@U456@U456@U456@U456@U456@U456@U456@U456@U456@U456@U456@U456@U456@U456@U456@@multi_index@boost@@U?$member@UScheduledCallback@ManualRuntime@vanetza@@V?$time_point@VClock@vanetza@@V?$duration@_JU?$ratio@$00$0PECEA@@std@@@chrono@std@@@chrono@std@@$0A@@23@Una@mpl@3@@multi_index@boost@@U?$hashed_non_unique@U?$tag@Uby_scope@ManualRuntime@vanetza@@Una@mpl@boost@@U456@U456@U456@U456@U456@U456@U456@U456@U456@U456@U456@U456@U456@U456@U456@U456@U456@U456@@multi_index@boost@@U?$member@UScheduledCallback@ManualRuntime@vanetza@@PEBX$0EI@@23@Una@mpl@3@U563@@23@Una@mpl@3@U563@U563@U563@U563@U563@U563@U563@U563@U563@U563@U563@U563@U563@U563@U563@U563@U563@@multi_index@boost@@V?$allocator@UScheduledCallback@ManualRuntime@vanetza@@@std@@@34@XZ
	?final_delete_node_@?$index_base@UScheduledCallback@ManualRuntime@vanetza@@U?$indexed_by@U?$ordered_non_unique@U?$tag@Uby_deadline@ManualRuntime@vanetza@@Una@mpl@boost@@U456@U456@U456@U456@U456@U456@U456@U456@U456@U456@U456@U456@U456@U456@U456@U456@U456@U456@@multi_index@boost@@U?$member@UScheduledCallback@ManualRuntime@vanetza@@V?$time_point@VClock@vanetza@@V?$duration@_JU?$ratio@$00$0PECEA@@std@@@chrono@std@@@chrono@std@@$0A@@23@Una@mpl@3@@multi_index@boost@@U?$hashed_non_unique@U?$tag@Uby_scope@ManualRuntime@vanetza@@Una@mpl@boost@@U456@U456@U456@U456@U456@U456@U456@U456@U456@U456@U456@U456@U456@U456@U456@U456@U456@U456@@multi_index@boost@@U?$member@UScheduledCallback@ManualRuntime@vanetza@@PEBX$0EI@@23@Una@mpl@3@U563@@23@Una@mpl@3@U563@U563@U563@U563@U563@U563@U563@U563@U563@U563@U563@U563@U563@U563@U563@U563@U563@@multi_index@boost@@V?$allocator@UScheduledCallback@ManualRuntime@vanetza@@@std@@@detail@multi_index@boost@@IEAAXPEAU?$ordered_index_node@Unull_augment_policy@detail@multi_index@boost@@U?$hashed_index_node@U?$index_node_base@UScheduledCallback@ManualRuntime@vanetza@@V?$allocator@UScheduledCallback@ManualRuntime@vanetza@@@std@@@detail@multi_index@boost@@@234@@234@@Z
	?final_empty_@?$index_base@UScheduledCallback@ManualRuntime@vanetza@@U?$indexed_by@U?$ordered_non_unique@U?$tag@Uby_deadline@ManualRuntime@vanetza@@Una@mpl@boost@@U456@U456@U456@U456@U456@U456@U456@U456@U456@U456@U456@U456@U456@U456@U456@U456@U456@U456@@multi_index@boost@@U?$member@UScheduledCallback@ManualRuntime@vanetza@@V?$time_point@VClock@vanetza@@V?$duration@_JU?$ratio@$00$0PECEA@@std@@@chrono@std@@@chrono@std@@$0A@@23@Una@mpl@3@@multi_index@boost@@U?$hashed_non_unique@U?$tag@Uby_scope@ManualRuntime@vanetza@@Una@mpl@boost@@U456@U456@U456@U456@U456@U456@U456@U456@U456@U456@U456@U456@U456@U456@U456@U456@U456@U456@@multi_index@boost@@U?$member@UScheduledCallback@ManualRuntime@vanetza@@PEBX$0EI@@23@Una@mpl@3@U563@@23@Una@mpl@3@U563@U563@U563@U563@U563@U563@U563@U563@U563@U563@U563@U563@U563@U563@U563@U563@U563@@multi_index@boost@@V?$allocator@UScheduledCallback@ManualRuntime@vanetza@@@std@@@detail@multi_index@boost@@IEBA_NXZ
	?final_erase_@?$index_base@UScheduledCallback@ManualRuntime@vanetza@@U?$indexed_by@U?$ordered_non_unique@U?$tag@Uby_deadline@ManualRuntime@vanetza@@Una@mpl@boost@@U456@U456@U456@U456@U456@U456@U456@U456@U456@U456@U456@U456@U456@U456@U456@U456@U456@U456@@multi_index@boost@@U?$member@UScheduledCallback@ManualRuntime@vanetza@@V?$time_point@VClock@vanetza@@V?$duration@_JU?$ratio@$00$0PECEA@@std@@@chrono@std@@@chrono@std@@$0A@@23@Una@mpl@3@@multi_index@boost@@U?$hashed_non_unique@U?$tag@Uby_scope@ManualRuntime@vanetza@@Una@mpl@boost@@U456@U456@U456@U456@U456@U456@U456@U456@U456@U456@U456@U456@U456@U456@U456@U456@U456@U456@@multi_index@boost@@U?$member@UScheduledCallback@ManualRuntime@vanetza@@PEBX$0EI@@23@Una@mpl@3@U563@@23@Una@mpl@3@U563@U563@U563@U563@U563@U563@U563@U563@U563@U563@U563@U563@U563@U563@U563@U563@U563@@multi_index@boost@@V?$allocator@UScheduledCallback@ManualRuntime@vanetza@@@std@@@detail@multi_index@boost@@IEAAXPEAU?$ordered_index_node@Unull_augment_policy@detail@multi_index@boost@@U?$hashed_index_node@U?$index_node_base@UScheduledCallback@ManualRuntime@vanetza@@V?$allocator@UScheduledCallback@ManualRuntime@vanetza@@@std@@@detail@multi_index@boost@@@234@@234@@Z
	?final_header@?$index_base@UScheduledCallback@ManualRuntime@vanetza@@U?$indexed_by@U?$ordered_non_unique@U?$tag@Uby_deadline@ManualRuntime@vanetza@@Una@mpl@boost@@U456@U456@U456@U456@U456@U456@U456@U456@U456@U456@U456@U456@U456@U456@U456@U456@U456@U456@@multi_index@boost@@U?$member@UScheduledCallback@ManualRuntime@vanetza@@V?$time_point@VClock@vanetza@@V?$duration@_JU?$ratio@$00$0PECEA@@std@@@chrono@std@@@chrono@std@@$0A@@23@Una@mpl@3@@multi_index@boost@@U?$hashed_non_unique@U?$tag@Uby_scope@ManualRuntime@vanetza@@Una@mpl@boost@@U456@U456@U456@U456@U456@U456@U456@U456@U456@U456@U456@U456@U456@U456@U456@U456@U456@U456@@multi_index@boost@@U?$member@UScheduledCallback@ManualRuntime@vanetza@@PEBX$0EI@@23@Una@mpl@3@U563@@23@Una@mpl@3@U563@U563@U563@U563@U563@U563@U563@U563@U563@U563@U563@U563@U563@U563@U563@U563@U563@@multi_index@boost@@V?$allocator@UScheduledCallback@ManualRuntime@vanetza@@@std@@@detail@multi_index@boost@@IEBAPEAU?$ordered_index_node@Unull_augment_policy@detail@multi_index@boost@@U?$hashed_index_node@U?$index_node_base@UScheduledCallback@ManualRuntime@vanetza@@V?$allocator@UScheduledCallback@ManualRuntime@vanetza@@@std@@@detail@multi_index@boost@@@234@@234@XZ
	?final_size_@?$index_base@UScheduledCallback@ManualRuntime@vanetza@@U?$indexed_by@U?$ordered_non_unique@U?$tag@Uby_deadline@ManualRuntime@vanetza@@Una@mpl@boost@@U456@U456@U456@U456@U456@U456@U456@U456@U456@U456@U456@U456@U456@U456@U456@U456@U456@U456@@multi_index@boost@@U?$member@UScheduledCallback@ManualRuntime@vanetza@@V?$time_point@VClock@vanetza@@V?$duration@_JU?$ratio@$00$0PECEA@@std@@@chrono@std@@@chrono@std@@$0A@@23@Una@mpl@3@@multi_index@boost@@U?$hashed_non_unique@U?$tag@Uby_scope@ManualRuntime@vanetza@@Una@mpl@boost@@U456@U456@U456@U456@U456@U456@U456@U456@U456@U456@U456@U456@U456@U456@U456@U456@U456@U456@@multi_index@boost@@U?$member@UScheduledCallback@ManualRuntime@vanetza@@PEBX$0EI@@23@Una@mpl@3@U563@@23@Una@mpl@3@U563@U563@U563@U563@U563@U563@U563@U563@U563@U563@U563@U563@U563@U563@U563@U563@U563@@multi_index@boost@@V?$allocator@UScheduledCallback@ManualRuntime@vanetza@@@std@@@detail@multi_index@boost@@IEBA_KXZ
	?final_swap_@?$index_base@UScheduledCallback@ManualRuntime@vanetza@@U?$indexed_by@U?$ordered_non_unique@U?$tag@Uby_deadline@ManualRuntime@vanetza@@Una@mpl@boost@@U456@U456@U456@U456@U456@U456@U456@U456@U456@U456@U456@U456@U456@U456@U456@U456@U456@U456@@multi_index@boost@@U?$member@UScheduledCallback@ManualRuntime@vanetza@@V?$time_point@VClock@vanetza@@V?$duration@_JU?$ratio@$00$0PECEA@@std@@@chrono@std@@@chrono@std@@$0A@@23@Una@mpl@3@@multi_index@boost@@U?$hashed_non_unique@U?$tag@Uby_scope@ManualRuntime@vanetza@@Una@mpl@boost@@U456@U456@U456@U456@U456@U456@U456@U456@U456@U456@U456@U456@U456@U456@U456@U456@U456@U456@@multi_index@boost@@U?$member@UScheduledCallback@ManualRuntime@vanetza@@PEBX$0EI@@23@Una@mpl@3@U563@@23@Una@mpl@3@U563@U563@U563@U563@U563@U563@U563@U563@U563@U563@U563@U563@U563@U563@U563@U563@U563@@multi_index@boost@@V?$allocator@UScheduledCallback@ManualRuntime@vanetza@@@std@@@detail@multi_index@boost@@IEAAXAEAV?$multi_index_container@UScheduledCallback@ManualRuntime@vanetza@@U?$indexed_by@U?$ordered_non_unique@U?$tag@Uby_deadline@ManualRuntime@vanetza@@Una@mpl@boost@@U456@U456@U456@U456@U456@U456@U456@U456@U456@U456@U456@U456@U456@U456@U456@U456@U456@U456@@multi_index@boost@@U?$member@UScheduledCallback@ManualRuntime@vanetza@@V?$time_point@VClock@vanetza@@V?$duration@_JU?$ratio@$00$0PECEA@@std@@@chrono@std@@@chrono@std@@$0A@@23@Una@mpl@3@@multi_index@boost@@U?$hashed_non_unique@U?$tag@Uby_scope@ManualRuntime@vanetza@@Una@mpl@boost@@U456@U456@U456@U456@U456@U456@U456@U456@U456@U456@U456@U456@U456@U456@U456@U456@U456@U456@@multi_index@boost@@U?$member@UScheduledCallback@ManualRuntime@vanetza@@PEBX$0EI@@23@Una@mpl@3@U563@@23@Una@mpl@3@U563@U563@U563@U563@U563@U563@U563@U563@U563@U563@U563@U563@U563@U563@U563@U563@U563@@multi_index@boost@@V?$allocator@UScheduledCallback@ManualRuntime@vanetza@@@std@@@34@@Z
	?find@?$_Narrow_char_traits@DH@std@@SAPEBDQEBD_KAEBD@Z
	?find@?$_Tree@V?$_Tmap_traits@V?$basic_string@DU?$char_traits@D@std@@V?$allocator@D@2@@std@@GU?$less@V?$basic_string@DU?$char_traits@D@std@@V?$allocator@D@2@@std@@@2@V?$allocator@U?$pair@$$CBV?$basic_string@DU?$char_traits@D@std@@V?$allocator@D@2@@std@@G@std@@@2@$0A@@std@@@std@@QEAA?AV?$_Tree_iterator@V?$_Tree_val@U?$_Tree_simple_types@U?$pair@$$CBV?$basic_string@DU?$char_traits@D@std@@V?$allocator@D@2@@std@@G@std@@@std@@@std@@@2@AEBV?$basic_string@DU?$char_traits@D@std@@V?$allocator@D@2@@2@@Z
	?find@?$basic_string@DU?$char_traits@D@std@@V?$allocator@D@2@@std@@QEBA_KD_K@Z
	?find_bucket@?$hashed_index@U?$member@UScheduledCallback@ManualRuntime@vanetza@@PEBX$0EI@@multi_index@boost@@U?$hash@PEBX@3@U?$equal_to@PEBX@std@@U?$nth_layer@$01UScheduledCallback@ManualRuntime@vanetza@@U?$indexed_by@U?$ordered_non_unique@U?$tag@Uby_deadline@ManualRuntime@vanetza@@Una@mpl@boost@@U456@U456@U456@U456@U456@U456@U456@U456@U456@U456@U456@U456@U456@U456@U456@U456@U456@U456@@multi_index@boost@@U?$member@UScheduledCallback@ManualRuntime@vanetza@@V?$time_point@VClock@vanetza@@V?$duration@_JU?$ratio@$00$0PECEA@@std@@@chrono@std@@@chrono@std@@$0A@@23@Una@mpl@3@@multi_index@boost@@U?$hashed_non_unique@U?$tag@Uby_scope@ManualRuntime@vanetza@@Una@mpl@boost@@U456@U456@U456@U456@U456@U456@U456@U456@U456@U456@U456@U456@U456@U456@U456@U456@U456@U456@@multi_index@boost@@U?$member@UScheduledCallback@ManualRuntime@vanetza@@PEBX$0EI@@23@Una@mpl@3@U563@@23@Una@mpl@3@U563@U563@U563@U563@U563@U563@U563@U563@U563@U563@U563@U563@U563@U563@U563@U563@U563@@multi_index@boost@@V?$allocator@UScheduledCallback@ManualRuntime@vanetza@@@std@@@detail@23@U?$vector1@Uby_scope@ManualRuntime@vanetza@@@mpl@3@Uhashed_non_unique_tag@823@@detail@multi_index@boost@@AEBA_KAEBUScheduledCallback@ManualRuntime@vanetza@@@Z
	?frac_sec_per_day@?$counted_time_rep@Vmillisec_posix_time_system_config@posix_time@boost@@@date_time@boost@@SA_JXZ
	?from_impl@?$hashed_index_node@U?$index_node_base@UScheduledCallback@ManualRuntime@vanetza@@V?$allocator@UScheduledCallback@ManualRuntime@vanetza@@@std@@@detail@multi_index@boost@@@detail@multi_index@boost@@SAPEAU1234@PEAU?$hashed_index_node_impl@V?$allocator@D@std@@@234@@Z
	?from_impl@?$ordered_index_node@Unull_augment_policy@detail@multi_index@boost@@U?$hashed_index_node@U?$index_node_base@UScheduledCallback@ManualRuntime@vanetza@@V?$allocator@UScheduledCallback@ManualRuntime@vanetza@@@std@@@detail@multi_index@boost@@@234@@detail@multi_index@boost@@SAPEAU1234@PEAU?$ordered_index_node_impl@Unull_augment_policy@detail@multi_index@boost@@V?$allocator@D@std@@@234@@Z
	?from_special@?$int_adapter@_J@date_time@boost@@SA?AV123@W4special_values@23@@Z
	?get@?$refcount_ptr@Uerror_info_container@exception_detail@boost@@@exception_detail@boost@@QEBAPEAUerror_info_container@23@XZ
	?get_allocator@?$basic_string@DU?$char_traits@D@std@@V?$allocator@D@2@@std@@QEBA?AV?$allocator@D@2@XZ
	?get_allocator@?$hashed_index@U?$member@UScheduledCallback@ManualRuntime@vanetza@@PEBX$0EI@@multi_index@boost@@U?$hash@PEBX@3@U?$equal_to@PEBX@std@@U?$nth_layer@$01UScheduledCallback@ManualRuntime@vanetza@@U?$indexed_by@U?$ordered_non_unique@U?$tag@Uby_deadline@ManualRuntime@vanetza@@Una@mpl@boost@@U456@U456@U456@U456@U456@U456@U456@U456@U456@U456@U456@U456@U456@U456@U456@U456@U456@U456@@multi_index@boost@@U?$member@UScheduledCallback@ManualRuntime@vanetza@@V?$time_point@VClock@vanetza@@V?$duration@_JU?$ratio@$00$0PECEA@@std@@@chrono@std@@@chrono@std@@$0A@@23@Una@mpl@3@@multi_index@boost@@U?$hashed_non_unique@U?$tag@Uby_scope@ManualRuntime@vanetza@@Una@mpl@boost@@U456@U456@U456@U456@U456@U456@U456@U456@U456@U456@U456@U456@U456@U456@U456@U456@U456@U456@@multi_index@boost@@U?$member@UScheduledCallback@ManualRuntime@vanetza@@PEBX$0EI@@23@Una@mpl@3@U563@@23@Una@mpl@3@U563@U563@U563@U563@U563@U563@U563@U563@U563@U563@U563@U563@U563@U563@U563@U563@U563@@multi_index@boost@@V?$allocator@UScheduledCallback@ManualRuntime@vanetza@@@std@@@detail@23@U?$vector1@Uby_scope@ManualRuntime@vanetza@@@mpl@3@Uhashed_non_unique_tag@823@@detail@multi_index@boost@@QEBA?AV?$allocator@UScheduledCallback@ManualRuntime@vanetza@@@std@@XZ
	?get_allocator@?$multi_index_container@UScheduledCallback@ManualRuntime@vanetza@@U?$indexed_by@U?$ordered_non_unique@U?$tag@Uby_deadline@ManualRuntime@vanetza@@Una@mpl@boost@@U456@U456@U456@U456@U456@U456@U456@U456@U456@U456@U456@U456@U456@U456@U456@U456@U456@U456@@multi_index@boost@@U?$member@UScheduledCallback@ManualRuntime@vanetza@@V?$time_point@VClock@vanetza@@V?$duration@_JU?$ratio@$00$0PECEA@@std@@@chrono@std@@@chrono@std@@$0A@@23@Una@mpl@3@@multi_index@boost@@U?$hashed_non_unique@U?$tag@Uby_scope@ManualRuntime@vanetza@@Una@mpl@boost@@U456@U456@U456@U456@U456@U456@U456@U456@U456@U456@U456@U456@U456@U456@U456@U456@U456@U456@@multi_index@boost@@U?$member@UScheduledCallback@ManualRuntime@vanetza@@PEBX$0EI@@23@Una@mpl@3@U563@@23@Una@mpl@3@U563@U563@U563@U563@U563@U563@U563@U563@U563@U563@U563@U563@U563@U563@U563@U563@U563@@multi_index@boost@@V?$allocator@UScheduledCallback@ManualRuntime@vanetza@@@std@@@multi_index@boost@@QEBA?AV?$allocator@UScheduledCallback@ManualRuntime@vanetza@@@std@@XZ
	?get_deleter@?$unique_ptr@Ubyte_buffer@convertible@vanetza@@U?$default_delete@Ubyte_buffer@convertible@vanetza@@@std@@@std@@QEAAAEAU?$default_delete@Ubyte_buffer@convertible@vanetza@@@2@XZ
	?get_head@?$cons@V?$tuple@U?$member@UScheduledCallback@ManualRuntime@vanetza@@V?$time_point@VClock@vanetza@@V?$duration@_JU?$ratio@$00$0PECEA@@std@@@chrono@std@@@chrono@std@@$0A@@multi_index@boost@@U?$less@V?$time_point@VClock@vanetza@@V?$duration@_JU?$ratio@$00$0PECEA@@std@@@chrono@std@@@chrono@std@@@std@@Unull_type@tuples@3@U673@U673@U673@U673@U673@U673@U673@@tuples@boost@@U?$cons@V?$tuple@_KU?$member@UScheduledCallback@ManualRuntime@vanetza@@PEBX$0EI@@multi_index@boost@@U?$hash@PEBX@3@U?$equal_to@PEBX@std@@Unull_type@tuples@3@U783@U783@U783@U783@U783@@tuples@boost@@Unull_type@23@@23@@tuples@boost@@QEBAAEBV?$tuple@U?$member@UScheduledCallback@ManualRuntime@vanetza@@V?$time_point@VClock@vanetza@@V?$duration@_JU?$ratio@$00$0PECEA@@std@@@chrono@std@@@chrono@std@@$0A@@multi_index@boost@@U?$less@V?$time_point@VClock@vanetza@@V?$duration@_JU?$ratio@$00$0PECEA@@std@@@chrono@std@@@chrono@std@@@std@@Unull_type@tuples@3@U673@U673@U673@U673@U673@U673@U673@@23@XZ
	?get_head@?$cons@V?$tuple@_KU?$member@UScheduledCallback@ManualRuntime@vanetza@@PEBX$0EI@@multi_index@boost@@U?$hash@PEBX@3@U?$equal_to@PEBX@std@@Unull_type@tuples@3@U783@U783@U783@U783@U783@@tuples@boost@@Unull_type@23@@tuples@boost@@QEBAAEBV?$tuple@_KU?$member@UScheduledCallback@ManualRuntime@vanetza@@PEBX$0EI@@multi_index@boost@@U?$hash@PEBX@3@U?$equal_to@PEBX@std@@Unull_type@tuples@3@U783@U783@U783@U783@U783@@23@XZ
	?get_node@?$bidir_node_iterator@U?$ordered_index_node@Unull_augment_policy@detail@multi_index@boost@@U?$hashed_index_node@U?$index_node_base@UScheduledCallback@ManualRuntime@vanetza@@V?$allocator@UScheduledCallback@ManualRuntime@vanetza@@@std@@@detail@multi_index@boost@@@234@@detail@multi_index@boost@@@detail@multi_index@boost@@QEBAPEAU?$ordered_index_node@Unull_augment_policy@detail@multi_index@boost@@U?$hashed_index_node@U?$index_node_base@UScheduledCallback@ManualRuntime@vanetza@@V?$allocator@UScheduledCallback@ManualRuntime@vanetza@@@std@@@detail@multi_index@boost@@@234@@234@XZ
	?get_node@?$hashed_index_iterator@U?$hashed_index_node@U?$index_node_base@UScheduledCallback@ManualRuntime@vanetza@@V?$allocator@UScheduledCallback@ManualRuntime@vanetza@@@std@@@detail@multi_index@boost@@@detail@multi_index@boost@@V?$bucket_array@V?$allocator@UScheduledCallback@ManualRuntime@vanetza@@@std@@@234@Uhashed_non_unique_tag@234@Uhashed_index_global_iterator_tag@234@@detail@multi_index@boost@@QEBAPEAU?$hashed_index_node@U?$index_node_base@UScheduledCallback@ManualRuntime@vanetza@@V?$allocator@UScheduledCallback@ManualRuntime@vanetza@@@std@@@detail@multi_index@boost@@@234@XZ
	?get_rep@?$counted_time_rep@Vmillisec_posix_time_system_config@posix_time@boost@@@date_time@boost@@QEBA?AV?$int_adapter@_J@23@XZ
	?get_rep@?$time_duration@V0posix_time@boost@@V?$time_resolution_traits@Utime_resolution_traits_adapted64_impl@date_time@boost@@$04$0PECEA@$05_J@date_time@2@@date_time@boost@@QEBA?AV?$int_adapter@_J@23@XZ
	?get_tail@?$cons@V?$tuple@U?$member@UScheduledCallback@ManualRuntime@vanetza@@V?$time_point@VClock@vanetza@@V?$duration@_JU?$ratio@$00$0PECEA@@std@@@chrono@std@@@chrono@std@@$0A@@multi_index@boost@@U?$less@V?$time_point@VClock@vanetza@@V?$duration@_JU?$ratio@$00$0PECEA@@std@@@chrono@std@@@chrono@std@@@std@@Unull_type@tuples@3@U673@U673@U673@U673@U673@U673@U673@@tuples@boost@@U?$cons@V?$tuple@_KU?$member@UScheduledCallback@ManualRuntime@vanetza@@PEBX$0EI@@multi_index@boost@@U?$hash@PEBX@3@U?$equal_to@PEBX@std@@Unull_type@tuples@3@U783@U783@U783@U783@U783@@tuples@boost@@Unull_type@23@@23@@tuples@boost@@QEBAAEBU?$cons@V?$tuple@_KU?$member@UScheduledCallback@ManualRuntime@vanetza@@PEBX$0EI@@multi_index@boost@@U?$hash@PEBX@3@U?$equal_to@PEBX@std@@Unull_type@tuples@3@U783@U783@U783@U783@U783@@tuples@boost@@Unull_type@23@@23@XZ
	?get_tail@?$cons@V?$tuple@_KU?$member@UScheduledCallback@ManualRuntime@vanetza@@PEBX$0EI@@multi_index@boost@@U?$hash@PEBX@3@U?$equal_to@PEBX@std@@Unull_type@tuples@3@U783@U783@U783@U783@U783@@tuples@boost@@Unull_type@23@@tuples@boost@@QEBA?BUnull_type@23@XZ
	?get_time_rep@?$counted_time_system@U?$counted_time_rep@Vmillisec_posix_time_system_config@posix_time@boost@@@date_time@boost@@@date_time@boost@@SA?AU?$counted_time_rep@Vmillisec_posix_time_system_config@posix_time@boost@@@23@AEBVdate@gregorian@3@AEBVtime_duration@posix_time@3@W4dst_flags@23@@Z
	?grouping@?$numpunct@D@std@@QEBA?AV?$basic_string@DU?$char_traits@D@std@@V?$allocator@D@2@@2@XZ
	?header@?$hashed_index@U?$member@UScheduledCallback@ManualRuntime@vanetza@@PEBX$0EI@@multi_index@boost@@U?$hash@PEBX@3@U?$equal_to@PEBX@std@@U?$nth_layer@$01UScheduledCallback@ManualRuntime@vanetza@@U?$indexed_by@U?$ordered_non_unique@U?$tag@Uby_deadline@ManualRuntime@vanetza@@Una@mpl@boost@@U456@U456@U456@U456@U456@U456@U456@U456@U456@U456@U456@U456@U456@U456@U456@U456@U456@U456@@multi_index@boost@@U?$member@UScheduledCallback@ManualRuntime@vanetza@@V?$time_point@VClock@vanetza@@V?$duration@_JU?$ratio@$00$0PECEA@@std@@@chrono@std@@@chrono@std@@$0A@@23@Una@mpl@3@@multi_index@boost@@U?$hashed_non_unique@U?$tag@Uby_scope@ManualRuntime@vanetza@@Una@mpl@boost@@U456@U456@U456@U456@U456@U456@U456@U456@U456@U456@U456@U456@U456@U456@U456@U456@U456@U456@@multi_index@boost@@U?$member@UScheduledCallback@ManualRuntime@vanetza@@PEBX$0EI@@23@Una@mpl@3@U563@@23@Una@mpl@3@U563@U563@U563@U563@U563@U563@U563@U563@U563@U563@U563@U563@U563@U563@U563@U563@U563@@multi_index@boost@@V?$allocator@UScheduledCallback@ManualRuntime@vanetza@@@std@@@detail@23@U?$vector1@Uby_scope@ManualRuntime@vanetza@@@mpl@3@Uhashed_non_unique_tag@823@@detail@multi_index@boost@@AEBAPEAU?$hashed_index_node@U?$index_node_base@UScheduledCallback@ManualRuntime@vanetza@@V?$allocator@UScheduledCallback@ManualRuntime@vanetza@@@std@@@detail@multi_index@boost@@@234@XZ
	?header@?$multi_index_container@UScheduledCallback@ManualRuntime@vanetza@@U?$indexed_by@U?$ordered_non_unique@U?$tag@Uby_deadline@ManualRuntime@vanetza@@Una@mpl@boost@@U456@U456@U456@U456@U456@U456@U456@U456@U456@U456@U456@U456@U456@U456@U456@U456@U456@U456@@multi_index@boost@@U?$member@UScheduledCallback@ManualRuntime@vanetza@@V?$time_point@VClock@vanetza@@V?$duration@_JU?$ratio@$00$0PECEA@@std@@@chrono@std@@@chrono@std@@$0A@@23@Una@mpl@3@@multi_index@boost@@U?$hashed_non_unique@U?$tag@Uby_scope@ManualRuntime@vanetza@@Una@mpl@boost@@U456@U456@U456@U456@U456@U456@U456@U456@U456@U456@U456@U456@U456@U456@U456@U456@U456@U456@@multi_index@boost@@U?$member@UScheduledCallback@ManualRuntime@vanetza@@PEBX$0EI@@23@Una@mpl@3@U563@@23@Una@mpl@3@U563@U563@U563@U563@U563@U563@U563@U563@U563@U563@U563@U563@U563@U563@U563@U563@U563@@multi_index@boost@@V?$allocator@UScheduledCallback@ManualRuntime@vanetza@@@std@@@multi_index@boost@@IEBAPEAU?$ordered_index_node@Unull_augment_policy@detail@multi_index@boost@@U?$hashed_index_node@U?$index_node_base@UScheduledCallback@ManualRuntime@vanetza@@V?$allocator@UScheduledCallback@ManualRuntime@vanetza@@@std@@@detail@multi_index@boost@@@234@@detail@23@XZ
	?header@?$ordered_index_impl@U?$member@UScheduledCallback@ManualRuntime@vanetza@@V?$time_point@VClock@vanetza@@V?$duration@_JU?$ratio@$00$0PECEA@@std@@@chrono@std@@@chrono@std@@$0A@@multi_index@boost@@U?$less@V?$time_point@VClock@vanetza@@V?$duration@_JU?$ratio@$00$0PECEA@@std@@@chrono@std@@@chrono@std@@@std@@U?$nth_layer@$00UScheduledCallback@ManualRuntime@vanetza@@U?$indexed_by@U?$ordered_non_unique@U?$tag@Uby_deadline@ManualRuntime@vanetza@@Una@mpl@boost@@U456@U456@U456@U456@U456@U456@U456@U456@U456@U456@U456@U456@U456@U456@U456@U456@U456@U456@@multi_index@boost@@U?$member@UScheduledCallback@ManualRuntime@vanetza@@V?$time_point@VClock@vanetza@@V?$duration@_JU?$ratio@$00$0PECEA@@std@@@chrono@std@@@chrono@std@@$0A@@23@Una@mpl@3@@multi_index@boost@@U?$hashed_non_unique@U?$tag@Uby_scope@ManualRuntime@vanetza@@Una@mpl@boost@@U456@U456@U456@U456@U456@U456@U456@U456@U456@U456@U456@U456@U456@U456@U456@U456@U456@U456@@multi_index@boost@@U?$member@UScheduledCallback@ManualRuntime@vanetza@@PEBX$0EI@@23@Una@mpl@3@U563@@23@Una@mpl@3@U563@U563@U563@U563@U563@U563@U563@U563@U563@U563@U563@U563@U563@U563@U563@U563@U563@@multi_index@boost@@V?$allocator@UScheduledCallback@ManualRuntime@vanetza@@@std@@@detail@23@U?$vector1@Uby_deadline@ManualRuntime@vanetza@@@mpl@3@Uordered_non_unique_tag@723@Unull_augment_policy@723@@detail@multi_index@boost@@IEBAPEAU?$ordered_index_node@Unull_augment_policy@detail@multi_index@boost@@U?$hashed_index_node@U?$index_node_base@UScheduledCallback@ManualRuntime@vanetza@@V?$allocator@UScheduledCallback@ManualRuntime@vanetza@@@std@@@detail@multi_index@boost@@@234@@234@XZ
	?impl@?$hashed_index_node@U?$index_node_base@UScheduledCallback@ManualRuntime@vanetza@@V?$allocator@UScheduledCallback@ManualRuntime@vanetza@@@std@@@detail@multi_index@boost@@@detail@multi_index@boost@@QEAAPEAU?$hashed_index_node_impl@V?$allocator@D@std@@@234@XZ
	?impl@?$ordered_index_node@Unull_augment_policy@detail@multi_index@boost@@U?$hashed_index_node@U?$index_node_base@UScheduledCallback@ManualRuntime@vanetza@@V?$allocator@UScheduledCallback@ManualRuntime@vanetza@@@std@@@detail@multi_index@boost@@@234@@detail@multi_index@boost@@QEAAPEAU?$ordered_index_node_impl@Unull_augment_policy@detail@multi_index@boost@@V?$allocator@D@std@@@234@XZ
	?increment@?$hashed_index_iterator@U?$hashed_index_node@U?$index_node_base@UScheduledCallback@ManualRuntime@vanetza@@V?$allocator@UScheduledCallback@ManualRuntime@vanetza@@@std@@@detail@multi_index@boost@@@detail@multi_index@boost@@V?$bucket_array@V?$allocator@UScheduledCallback@ManualRuntime@vanetza@@@std@@@234@Uhashed_non_unique_tag@234@Uhashed_index_global_iterator_tag@234@@detail@multi_index@boost@@AEAAXUhashed_index_global_iterator_tag@234@@Z
	?increment@?$ordered_index_node@Unull_augment_policy@detail@multi_index@boost@@U?$hashed_index_node@U?$index_node_base@UScheduledCallback@ManualRuntime@vanetza@@V?$allocator@UScheduledCallback@ManualRuntime@vanetza@@@std@@@detail@multi_index@boost@@@234@@detail@multi_index@boost@@SAXAEAPEAU1234@@Z
	?increment@?$ordered_index_node_impl@Unull_augment_policy@detail@multi_index@boost@@V?$allocator@D@std@@@detail@multi_index@boost@@SAXAEAPEAU1234@@Z
	?increment@?$token_iterator@V?$char_separator@DU?$char_traits@D@std@@@boost@@V?$_String_const_iterator@V?$_String_val@U?$_Simple_types@D@std@@@std@@@std@@V?$basic_string@DU?$char_traits@D@std@@V?$allocator@D@2@@4@@boost@@AEAAXXZ
	?initialize@?$token_iterator@V?$char_separator@DU?$char_traits@D@std@@@boost@@V?$_String_const_iterator@V?$_String_val@U?$_Simple_types@D@std@@@std@@@std@@V?$basic_string@DU?$char_traits@D@std@@V?$allocator@D@2@@4@@boost@@AEAAXXZ
	?insert@?$_Tree@V?$_Tmap_traits@V?$basic_string@DU?$char_traits@D@std@@V?$allocator@D@2@@std@@GU?$less@V?$basic_string@DU?$char_traits@D@std@@V?$allocator@D@2@@std@@@2@V?$allocator@U?$pair@$$CBV?$basic_string@DU?$char_traits@D@std@@V?$allocator@D@2@@std@@G@std@@@2@$0A@@std@@@std@@QEAAXV?$initializer_list@U?$pair@$$CBV?$basic_string@DU?$char_traits@D@std@@V?$allocator@D@2@@std@@G@std@@@2@@Z
	?insert_@?$index_base@UScheduledCallback@ManualRuntime@vanetza@@U?$indexed_by@U?$ordered_non_unique@U?$tag@Uby_deadline@ManualRuntime@vanetza@@Una@mpl@boost@@U456@U456@U456@U456@U456@U456@U456@U456@U456@U456@U456@U456@U456@U456@U456@U456@U456@U456@@multi_index@boost@@U?$member@UScheduledCallback@ManualRuntime@vanetza@@V?$time_point@VClock@vanetza@@V?$duration@_JU?$ratio@$00$0PECEA@@std@@@chrono@std@@@chrono@std@@$0A@@23@Una@mpl@3@@multi_index@boost@@U?$hashed_non_unique@U?$tag@Uby_scope@ManualRuntime@vanetza@@Una@mpl@boost@@U456@U456@U456@U456@U456@U456@U456@U456@U456@U456@U456@U456@U456@U456@U456@U456@U456@U456@@multi_index@boost@@U?$member@UScheduledCallback@ManualRuntime@vanetza@@PEBX$0EI@@23@Una@mpl@3@U563@@23@Una@mpl@3@U563@U563@U563@U563@U563@U563@U563@U563@U563@U563@U563@U563@U563@U563@U563@U563@U563@@multi_index@boost@@V?$allocator@UScheduledCallback@ManualRuntime@vanetza@@@std@@@detail@multi_index@boost@@IEAAPEAU?$ordered_index_node@Unull_augment_policy@detail@multi_index@boost@@U?$hashed_index_node@U?$index_node_base@UScheduledCallback@ManualRuntime@vanetza@@V?$allocator@UScheduledCallback@ManualRuntime@vanetza@@@std@@@detail@multi_index@boost@@@234@@234@AEBUScheduledCallback@ManualRuntime@vanetza@@AEAPEAU5234@Uemplaced_tag@234@@Z
	?is_adapted@?$time_resolution_traits@Utime_resolution_traits_adapted64_impl@date_time@boost@@$04$0PECEA@$05_J@date_time@boost@@SA_NXZ
	?is_adapted@time_resolution_traits_adapted64_impl@date_time@boost@@SA_NXZ
	?is_dropped@?$char_separator@DU?$char_traits@D@std@@@boost@@AEBA_ND@Z
	?is_first_of_bucket@?$hashed_index_node_alg@U?$hashed_index_node_impl@V?$allocator@D@std@@@detail@multi_index@boost@@Uhashed_non_unique_tag@234@@detail@multi_index@boost@@SA_NPEAU?$hashed_index_node_impl@V?$allocator@D@std@@@234@@Z
	?is_good@InputArchive@vanetza@@QEBA_NXZ
	?is_inf@?$int_adapter@I@date_time@boost@@SA_NI@Z
	?is_infinity@?$date@V0gregorian@boost@@Vgregorian_calendar@12@Vdate_duration@12@@date_time@boost@@QEBA_NXZ
	?is_infinity@?$int_adapter@I@date_time@boost@@QEBA_NXZ
	?is_infinity@?$int_adapter@_J@date_time@boost@@QEBA_NXZ
	?is_kept@?$char_separator@DU?$char_traits@D@std@@@boost@@AEBA_ND@Z
	?is_last_of_bucket@?$hashed_index_node_alg@U?$hashed_index_node_impl@V?$allocator@D@std@@@detail@multi_index@boost@@Uhashed_non_unique_tag@234@@detail@multi_index@boost@@CA_NPEAU?$hashed_index_node_impl@V?$allocator@D@std@@@234@@Z
	?is_leap_year@?$gregorian_calendar_base@U?$year_month_day_base@Vgreg_year@gregorian@boost@@Vgreg_month@23@Vgreg_day@23@@date_time@boost@@I@date_time@boost@@SA_NVgreg_year@gregorian@3@@Z
	?is_nan@?$int_adapter@I@date_time@boost@@QEBA_NXZ
	?is_nan@?$int_adapter@_J@date_time@boost@@QEBA_NXZ
	?is_neg_inf@?$int_adapter@I@date_time@boost@@SA_NI@Z
	?is_neg_inf@?$int_adapter@_J@date_time@boost@@SA_N_J@Z
	?is_not_a_date@?$date@V0gregorian@boost@@Vgregorian_calendar@12@Vdate_duration@12@@date_time@boost@@QEBA_NXZ
	?is_not_a_number@?$int_adapter@I@date_time@boost@@SA_NI@Z
	?is_not_a_number@?$int_adapter@_J@date_time@boost@@SA_N_J@Z
	?is_pos_inf@?$int_adapter@I@date_time@boost@@SA_NI@Z
	?is_pos_inf@?$int_adapter@_J@date_time@boost@@SA_N_J@Z
	?is_special@?$counted_time_rep@Vmillisec_posix_time_system_config@posix_time@boost@@@date_time@boost@@QEBA_NXZ
	?is_special@?$int_adapter@I@date_time@boost@@QEBA_NXZ
	?is_special@?$int_adapter@_J@date_time@boost@@QEBA_NXZ
	?is_special@?$time_duration@V0posix_time@boost@@V?$time_resolution_traits@Utime_resolution_traits_adapted64_impl@date_time@boost@@$04$0PECEA@$05_J@date_time@2@@date_time@boost@@QEBA_NXZ
	?ispunct@?$traits_extension@U?$char_traits@D@std@@@tokenizer_detail@boost@@SA_ND@Z
	?ispunct@?$traits_extension_details@U?$char_traits@D@std@@$00@tokenizer_detail@boost@@SA_ND@Z
	?isspace@?$traits_extension@U?$char_traits@D@std@@@tokenizer_detail@boost@@SA_ND@Z
	?isspace@?$traits_extension_details@U?$char_traits@D@std@@$00@tokenizer_detail@boost@@SA_ND@Z
	?last_of_range@?$hashed_index@U?$member@UScheduledCallback@ManualRuntime@vanetza@@PEBX$0EI@@multi_index@boost@@U?$hash@PEBX@3@U?$equal_to@PEBX@std@@U?$nth_layer@$01UScheduledCallback@ManualRuntime@vanetza@@U?$indexed_by@U?$ordered_non_unique@U?$tag@Uby_deadline@ManualRuntime@vanetza@@Una@mpl@boost@@U456@U456@U456@U456@U456@U456@U456@U456@U456@U456@U456@U456@U456@U456@U456@U456@U456@U456@@multi_index@boost@@U?$member@UScheduledCallback@ManualRuntime@vanetza@@V?$time_point@VClock@vanetza@@V?$duration@_JU?$ratio@$00$0PECEA@@std@@@chrono@std@@@chrono@std@@$0A@@23@Una@mpl@3@@multi_index@boost@@U?$hashed_non_unique@U?$tag@Uby_scope@ManualRuntime@vanetza@@Una@mpl@boost@@U456@U456@U456@U456@U456@U456@U456@U456@U456@U456@U456@U456@U456@U456@U456@U456@U456@U456@@multi_index@boost@@U?$member@UScheduledCallback@ManualRuntime@vanetza@@PEBX$0EI@@23@Una@mpl@3@U563@@23@Una@mpl@3@U563@U563@U563@U563@U563@U563@U563@U563@U563@U563@U563@U563@U563@U563@U563@U563@U563@@multi_index@boost@@V?$allocator@UScheduledCallback@ManualRuntime@vanetza@@@std@@@detail@23@U?$vector1@Uby_scope@ManualRuntime@vanetza@@@mpl@3@Uhashed_non_unique_tag@823@@detail@multi_index@boost@@AEBAPEAU?$hashed_index_node_impl@V?$allocator@D@std@@@234@PEAU5234@@Z
	?last_of_range@?$hashed_index@U?$member@UScheduledCallback@ManualRuntime@vanetza@@PEBX$0EI@@multi_index@boost@@U?$hash@PEBX@3@U?$equal_to@PEBX@std@@U?$nth_layer@$01UScheduledCallback@ManualRuntime@vanetza@@U?$indexed_by@U?$ordered_non_unique@U?$tag@Uby_deadline@ManualRuntime@vanetza@@Una@mpl@boost@@U456@U456@U456@U456@U456@U456@U456@U456@U456@U456@U456@U456@U456@U456@U456@U456@U456@U456@@multi_index@boost@@U?$member@UScheduledCallback@ManualRuntime@vanetza@@V?$time_point@VClock@vanetza@@V?$duration@_JU?$ratio@$00$0PECEA@@std@@@chrono@std@@@chrono@std@@$0A@@23@Una@mpl@3@@multi_index@boost@@U?$hashed_non_unique@U?$tag@Uby_scope@ManualRuntime@vanetza@@Una@mpl@boost@@U456@U456@U456@U456@U456@U456@U456@U456@U456@U456@U456@U456@U456@U456@U456@U456@U456@U456@@multi_index@boost@@U?$member@UScheduledCallback@ManualRuntime@vanetza@@PEBX$0EI@@23@Una@mpl@3@U563@@23@Una@mpl@3@U563@U563@U563@U563@U563@U563@U563@U563@U563@U563@U563@U563@U563@U563@U563@U563@U563@@multi_index@boost@@V?$allocator@UScheduledCallback@ManualRuntime@vanetza@@@std@@@detail@23@U?$vector1@Uby_scope@ManualRuntime@vanetza@@@mpl@3@Uhashed_non_unique_tag@823@@detail@multi_index@boost@@AEBAPEAU?$hashed_index_node_impl@V?$allocator@D@std@@@234@PEAU5234@Uhashed_non_unique_tag@234@@Z
	?left@?$ordered_index_node@Unull_augment_policy@detail@multi_index@boost@@U?$hashed_index_node@U?$index_node_base@UScheduledCallback@ManualRuntime@vanetza@@V?$allocator@UScheduledCallback@ManualRuntime@vanetza@@@std@@@detail@multi_index@boost@@@234@@detail@multi_index@boost@@QEAAAEAPEAU?$ordered_index_node_impl@Unull_augment_policy@detail@multi_index@boost@@V?$allocator@D@std@@@234@XZ
	?left@?$ordered_index_node_compressed_base@Unull_augment_policy@detail@multi_index@boost@@V?$allocator@D@std@@@detail@multi_index@boost@@QEAAAEAPEAU?$ordered_index_node_impl@Unull_augment_policy@detail@multi_index@boost@@V?$allocator@D@std@@@234@XZ
	?leftmost@?$ordered_index_impl@U?$member@UScheduledCallback@ManualRuntime@vanetza@@V?$time_point@VClock@vanetza@@V?$duration@_JU?$ratio@$00$0PECEA@@std@@@chrono@std@@@chrono@std@@$0A@@multi_index@boost@@U?$less@V?$time_point@VClock@vanetza@@V?$duration@_JU?$ratio@$00$0PECEA@@std@@@chrono@std@@@chrono@std@@@std@@U?$nth_layer@$00UScheduledCallback@ManualRuntime@vanetza@@U?$indexed_by@U?$ordered_non_unique@U?$tag@Uby_deadline@ManualRuntime@vanetza@@Una@mpl@boost@@U456@U456@U456@U456@U456@U456@U456@U456@U456@U456@U456@U456@U456@U456@U456@U456@U456@U456@@multi_index@boost@@U?$member@UScheduledCallback@ManualRuntime@vanetza@@V?$time_point@VClock@vanetza@@V?$duration@_JU?$ratio@$00$0PECEA@@std@@@chrono@std@@@chrono@std@@$0A@@23@Una@mpl@3@@multi_index@boost@@U?$hashed_non_unique@U?$tag@Uby_scope@ManualRuntime@vanetza@@Una@mpl@boost@@U456@U456@U456@U456@U456@U456@U456@U456@U456@U456@U456@U456@U456@U456@U456@U456@U456@U456@@multi_index@boost@@U?$member@UScheduledCallback@ManualRuntime@vanetza@@PEBX$0EI@@23@Una@mpl@3@U563@@23@Una@mpl@3@U563@U563@U563@U563@U563@U563@U563@U563@U563@U563@U563@U563@U563@U563@U563@U563@U563@@multi_index@boost@@V?$allocator@UScheduledCallback@ManualRuntime@vanetza@@@std@@@detail@23@U?$vector1@Uby_deadline@ManualRuntime@vanetza@@@mpl@3@Uordered_non_unique_tag@723@Unull_augment_policy@723@@detail@multi_index@boost@@IEBAPEAU?$ordered_index_node@Unull_augment_policy@detail@multi_index@boost@@U?$hashed_index_node@U?$index_node_base@UScheduledCallback@ManualRuntime@vanetza@@V?$allocator@UScheduledCallback@ManualRuntime@vanetza@@@std@@@detail@multi_index@boost@@@234@@234@XZ
	?length@?$_Narrow_char_traits@DH@std@@SA_KQEBD@Z
	?length@?$basic_string@DU?$char_traits@D@std@@V?$allocator@D@2@@std@@QEBA_KXZ
	?link@?$hashed_index@U?$member@UScheduledCallback@ManualRuntime@vanetza@@PEBX$0EI@@multi_index@boost@@U?$hash@PEBX@3@U?$equal_to@PEBX@std@@U?$nth_layer@$01UScheduledCallback@ManualRuntime@vanetza@@U?$indexed_by@U?$ordered_non_unique@U?$tag@Uby_deadline@ManualRuntime@vanetza@@Una@mpl@boost@@U456@U456@U456@U456@U456@U456@U456@U456@U456@U456@U456@U456@U456@U456@U456@U456@U456@U456@@multi_index@boost@@U?$member@UScheduledCallback@ManualRuntime@vanetza@@V?$time_point@VClock@vanetza@@V?$duration@_JU?$ratio@$00$0PECEA@@std@@@chrono@std@@@chrono@std@@$0A@@23@Una@mpl@3@@multi_index@boost@@U?$hashed_non_unique@U?$tag@Uby_scope@ManualRuntime@vanetza@@Una@mpl@boost@@U456@U456@U456@U456@U456@U456@U456@U456@U456@U456@U456@U456@U456@U456@U456@U456@U456@U456@@multi_index@boost@@U?$member@UScheduledCallback@ManualRuntime@vanetza@@PEBX$0EI@@23@Una@mpl@3@U563@@23@Una@mpl@3@U563@U563@U563@U563@U563@U563@U563@U563@U563@U563@U563@U563@U563@U563@U563@U563@U563@@multi_index@boost@@V?$allocator@UScheduledCallback@ManualRuntime@vanetza@@@std@@@detail@23@U?$vector1@Uby_scope@ManualRuntime@vanetza@@@mpl@3@Uhashed_non_unique_tag@823@@detail@multi_index@boost@@AEAAXPEAU?$hashed_index_node@U?$index_node_base@UScheduledCallback@ManualRuntime@vanetza@@V?$allocator@UScheduledCallback@ManualRuntime@vanetza@@@std@@@detail@multi_index@boost@@@234@AEBUlink_info_non_unique@1234@@Z
	?link@?$hashed_index@U?$member@UScheduledCallback@ManualRuntime@vanetza@@PEBX$0EI@@multi_index@boost@@U?$hash@PEBX@3@U?$equal_to@PEBX@std@@U?$nth_layer@$01UScheduledCallback@ManualRuntime@vanetza@@U?$indexed_by@U?$ordered_non_unique@U?$tag@Uby_deadline@ManualRuntime@vanetza@@Una@mpl@boost@@U456@U456@U456@U456@U456@U456@U456@U456@U456@U456@U456@U456@U456@U456@U456@U456@U456@U456@@multi_index@boost@@U?$member@UScheduledCallback@ManualRuntime@vanetza@@V?$time_point@VClock@vanetza@@V?$duration@_JU?$ratio@$00$0PECEA@@std@@@chrono@std@@@chrono@std@@$0A@@23@Una@mpl@3@@multi_index@boost@@U?$hashed_non_unique@U?$tag@Uby_scope@ManualRuntime@vanetza@@Una@mpl@boost@@U456@U456@U456@U456@U456@U456@U456@U456@U456@U456@U456@U456@U456@U456@U456@U456@U456@U456@@multi_index@boost@@U?$member@UScheduledCallback@ManualRuntime@vanetza@@PEBX$0EI@@23@Una@mpl@3@U563@@23@Una@mpl@3@U563@U563@U563@U563@U563@U563@U563@U563@U563@U563@U563@U563@U563@U563@U563@U563@U563@@multi_index@boost@@V?$allocator@UScheduledCallback@ManualRuntime@vanetza@@@std@@@detail@23@U?$vector1@Uby_scope@ManualRuntime@vanetza@@@mpl@3@Uhashed_non_unique_tag@823@@detail@multi_index@boost@@AEAAXPEAU?$hashed_index_node@U?$index_node_base@UScheduledCallback@ManualRuntime@vanetza@@V?$allocator@UScheduledCallback@ManualRuntime@vanetza@@@std@@@detail@multi_index@boost@@@234@AEBUlink_info_non_unique@1234@Uhashed_non_unique_tag@234@@Z
	?link@?$hashed_index_node_alg@U?$hashed_index_node_impl@V?$allocator@D@std@@@detail@multi_index@boost@@Uhashed_non_unique_tag@234@@detail@multi_index@boost@@SAXPEAU?$hashed_index_node_impl@V?$allocator@D@std@@@234@00@Z
	?link@?$hashed_index_node_alg@U?$hashed_index_node_impl@V?$allocator@D@std@@@detail@multi_index@boost@@Uhashed_non_unique_tag@234@@detail@multi_index@boost@@SAXPEAU?$hashed_index_node_impl@V?$allocator@D@std@@@234@PEAU?$hashed_index_base_node_impl@V?$allocator@D@std@@@234@0@Z
	?link@?$ordered_index_node_impl@Unull_augment_policy@detail@multi_index@boost@@V?$allocator@D@std@@@detail@multi_index@boost@@SAXPEAU1234@W4ordered_index_side@234@00@Z
	?link_point@?$hashed_index@U?$member@UScheduledCallback@ManualRuntime@vanetza@@PEBX$0EI@@multi_index@boost@@U?$hash@PEBX@3@U?$equal_to@PEBX@std@@U?$nth_layer@$01UScheduledCallback@ManualRuntime@vanetza@@U?$indexed_by@U?$ordered_non_unique@U?$tag@Uby_deadline@ManualRuntime@vanetza@@Una@mpl@boost@@U456@U456@U456@U456@U456@U456@U456@U456@U456@U456@U456@U456@U456@U456@U456@U456@U456@U456@@multi_index@boost@@U?$member@UScheduledCallback@ManualRuntime@vanetza@@V?$time_point@VClock@vanetza@@V?$duration@_JU?$ratio@$00$0PECEA@@std@@@chrono@std@@@chrono@std@@$0A@@23@Una@mpl@3@@multi_index@boost@@U?$hashed_non_unique@U?$tag@Uby_scope@ManualRuntime@vanetza@@Una@mpl@boost@@U456@U456@U456@U456@U456@U456@U456@U456@U456@U456@U456@U456@U456@U456@U456@U456@U456@U456@@multi_index@boost@@U?$member@UScheduledCallback@ManualRuntime@vanetza@@PEBX$0EI@@23@Una@mpl@3@U563@@23@Una@mpl@3@U563@U563@U563@U563@U563@U563@U563@U563@U563@U563@U563@U563@U563@U563@U563@U563@U563@@multi_index@boost@@V?$allocator@UScheduledCallback@ManualRuntime@vanetza@@@std@@@detail@23@U?$vector1@Uby_scope@ManualRuntime@vanetza@@@mpl@3@Uhashed_non_unique_tag@823@@detail@multi_index@boost@@AEAA_NAEBUScheduledCallback@ManualRuntime@vanetza@@AEAUlink_info_non_unique@1234@@Z
	?link_point@?$hashed_index@U?$member@UScheduledCallback@ManualRuntime@vanetza@@PEBX$0EI@@multi_index@boost@@U?$hash@PEBX@3@U?$equal_to@PEBX@std@@U?$nth_layer@$01UScheduledCallback@ManualRuntime@vanetza@@U?$indexed_by@U?$ordered_non_unique@U?$tag@Uby_deadline@ManualRuntime@vanetza@@Una@mpl@boost@@U456@U456@U456@U456@U456@U456@U456@U456@U456@U456@U456@U456@U456@U456@U456@U456@U456@U456@@multi_index@boost@@U?$member@UScheduledCallback@ManualRuntime@vanetza@@V?$time_point@VClock@vanetza@@V?$duration@_JU?$ratio@$00$0PECEA@@std@@@chrono@std@@@chrono@std@@$0A@@23@Una@mpl@3@@multi_index@boost@@U?$hashed_non_unique@U?$tag@Uby_scope@ManualRuntime@vanetza@@Una@mpl@boost@@U456@U456@U456@U456@U456@U456@U456@U456@U456@U456@U456@U456@U456@U456@U456@U456@U456@U456@@multi_index@boost@@U?$member@UScheduledCallback@ManualRuntime@vanetza@@PEBX$0EI@@23@Una@mpl@3@U563@@23@Una@mpl@3@U563@U563@U563@U563@U563@U563@U563@U563@U563@U563@U563@U563@U563@U563@U563@U563@U563@@multi_index@boost@@V?$allocator@UScheduledCallback@ManualRuntime@vanetza@@@std@@@detail@23@U?$vector1@Uby_scope@ManualRuntime@vanetza@@@mpl@3@Uhashed_non_unique_tag@823@@detail@multi_index@boost@@AEAA_NAEBUScheduledCallback@ManualRuntime@vanetza@@AEAUlink_info_non_unique@1234@Uhashed_non_unique_tag@234@@Z
	?link_point@?$ordered_index_impl@U?$member@UScheduledCallback@ManualRuntime@vanetza@@V?$time_point@VClock@vanetza@@V?$duration@_JU?$ratio@$00$0PECEA@@std@@@chrono@std@@@chrono@std@@$0A@@multi_index@boost@@U?$less@V?$time_point@VClock@vanetza@@V?$duration@_JU?$ratio@$00$0PECEA@@std@@@chrono@std@@@chrono@std@@@std@@U?$nth_layer@$00UScheduledCallback@ManualRuntime@vanetza@@U?$indexed_by@U?$ordered_non_unique@U?$tag@Uby_deadline@ManualRuntime@vanetza@@Una@mpl@boost@@U456@U456@U456@U456@U456@U456@U456@U456@U456@U456@U456@U456@U456@U456@U456@U456@U456@U456@@multi_index@boost@@U?$member@UScheduledCallback@ManualRuntime@vanetza@@V?$time_point@VClock@vanetza@@V?$duration@_JU?$ratio@$00$0PECEA@@std@@@chrono@std@@@chrono@std@@$0A@@23@Una@mpl@3@@multi_index@boost@@U?$hashed_non_unique@U?$tag@Uby_scope@ManualRuntime@vanetza@@Una@mpl@boost@@U456@U456@U456@U456@U456@U456@U456@U456@U456@U456@U456@U456@U456@U456@U456@U456@U456@U456@@multi_index@boost@@U?$member@UScheduledCallback@ManualRuntime@vanetza@@PEBX$0EI@@23@Una@mpl@3@U563@@23@Una@mpl@3@U563@U563@U563@U563@U563@U563@U563@U563@U563@U563@U563@U563@U563@U563@U563@U563@U563@@multi_index@boost@@V?$allocator@UScheduledCallback@ManualRuntime@vanetza@@@std@@@detail@23@U?$vector1@Uby_deadline@ManualRuntime@vanetza@@@mpl@3@Uordered_non_unique_tag@723@Unull_augment_policy@723@@detail@multi_index@boost@@AEAA_NAEBV?$time_point@VClock@vanetza@@V?$duration@_JU?$ratio@$00$0PECEA@@std@@@chrono@std@@@chrono@std@@AEAUlink_info@1234@Uordered_non_unique_tag@234@@Z
	?link_range@?$hashed_index_node_alg@U?$hashed_index_node_impl@V?$allocator@D@std@@@detail@multi_index@boost@@Uhashed_non_unique_tag@234@@detail@multi_index@boost@@SAXPEAU?$hashed_index_node_impl@V?$allocator@D@std@@@234@0PEAU?$hashed_index_base_node_impl@V?$allocator@D@std@@@234@0@Z
	?load_binary@InputArchive@vanetza@@QEAAXPEAD_K@Z
	?load_binary@InputArchive@vanetza@@QEAAXPEAE_K@Z
	?main_convert_iteration@?$lcast_ret_unsigned@U?$char_traits@D@std@@GD@detail@boost@@AEAA_NXZ
	?main_convert_iteration@?$lcast_ret_unsigned@U?$char_traits@D@std@@ID@detail@boost@@AEAA_NXZ
	?main_convert_iteration@?$lcast_ret_unsigned@U?$char_traits@D@std@@_KD@detail@boost@@AEAA_NXZ
	?main_convert_loop@?$lcast_ret_unsigned@U?$char_traits@D@std@@GD@detail@boost@@AEAA_NXZ
	?main_convert_loop@?$lcast_ret_unsigned@U?$char_traits@D@std@@ID@detail@boost@@AEAA_NXZ
	?main_convert_loop@?$lcast_ret_unsigned@U?$char_traits@D@std@@_KD@detail@boost@@AEAA_NXZ
	?make_iterator@?$hashed_index@U?$member@UScheduledCallback@ManualRuntime@vanetza@@PEBX$0EI@@multi_index@boost@@U?$hash@PEBX@3@U?$equal_to@PEBX@std@@U?$nth_layer@$01UScheduledCallback@ManualRuntime@vanetza@@U?$indexed_by@U?$ordered_non_unique@U?$tag@Uby_deadline@ManualRuntime@vanetza@@Una@mpl@boost@@U456@U456@U456@U456@U456@U456@U456@U456@U456@U456@U456@U456@U456@U456@U456@U456@U456@U456@@multi_index@boost@@U?$member@UScheduledCallback@ManualRuntime@vanetza@@V?$time_point@VClock@vanetza@@V?$duration@_JU?$ratio@$00$0PECEA@@std@@@chrono@std@@@chrono@std@@$0A@@23@Una@mpl@3@@multi_index@boost@@U?$hashed_non_unique@U?$tag@Uby_scope@ManualRuntime@vanetza@@Una@mpl@boost@@U456@U456@U456@U456@U456@U456@U456@U456@U456@U456@U456@U456@U456@U456@U456@U456@U456@U456@@multi_index@boost@@U?$member@UScheduledCallback@ManualRuntime@vanetza@@PEBX$0EI@@23@Una@mpl@3@U563@@23@Una@mpl@3@U563@U563@U563@U563@U563@U563@U563@U563@U563@U563@U563@U563@U563@U563@U563@U563@U563@@multi_index@boost@@V?$allocator@UScheduledCallback@ManualRuntime@vanetza@@@std@@@detail@23@U?$vector1@Uby_scope@ManualRuntime@vanetza@@@mpl@3@Uhashed_non_unique_tag@823@@detail@multi_index@boost@@IEBA?AV?$hashed_index_iterator@U?$hashed_index_node@U?$index_node_base@UScheduledCallback@ManualRuntime@vanetza@@V?$allocator@UScheduledCallback@ManualRuntime@vanetza@@@std@@@detail@multi_index@boost@@@detail@multi_index@boost@@V?$bucket_array@V?$allocator@UScheduledCallback@ManualRuntime@vanetza@@@std@@@234@Uhashed_non_unique_tag@234@Uhashed_index_global_iterator_tag@234@@234@PEAU?$hashed_index_node@U?$index_node_base@UScheduledCallback@ManualRuntime@vanetza@@V?$allocator@UScheduledCallback@ManualRuntime@vanetza@@@std@@@detail@multi_index@boost@@@234@@Z
	?make_iterator@?$ordered_index_impl@U?$member@UScheduledCallback@ManualRuntime@vanetza@@V?$time_point@VClock@vanetza@@V?$duration@_JU?$ratio@$00$0PECEA@@std@@@chrono@std@@@chrono@std@@$0A@@multi_index@boost@@U?$less@V?$time_point@VClock@vanetza@@V?$duration@_JU?$ratio@$00$0PECEA@@std@@@chrono@std@@@chrono@std@@@std@@U?$nth_layer@$00UScheduledCallback@ManualRuntime@vanetza@@U?$indexed_by@U?$ordered_non_unique@U?$tag@Uby_deadline@ManualRuntime@vanetza@@Una@mpl@boost@@U456@U456@U456@U456@U456@U456@U456@U456@U456@U456@U456@U456@U456@U456@U456@U456@U456@U456@@multi_index@boost@@U?$member@UScheduledCallback@ManualRuntime@vanetza@@V?$time_point@VClock@vanetza@@V?$duration@_JU?$ratio@$00$0PECEA@@std@@@chrono@std@@@chrono@std@@$0A@@23@Una@mpl@3@@multi_index@boost@@U?$hashed_non_unique@U?$tag@Uby_scope@ManualRuntime@vanetza@@Una@mpl@boost@@U456@U456@U456@U456@U456@U456@U456@U456@U456@U456@U456@U456@U456@U456@U456@U456@U456@U456@@multi_index@boost@@U?$member@UScheduledCallback@ManualRuntime@vanetza@@PEBX$0EI@@23@Una@mpl@3@U563@@23@Una@mpl@3@U563@U563@U563@U563@U563@U563@U563@U563@U563@U563@U563@U563@U563@U563@U563@U563@U563@@multi_index@boost@@V?$allocator@UScheduledCallback@ManualRuntime@vanetza@@@std@@@detail@23@U?$vector1@Uby_deadline@ManualRuntime@vanetza@@@mpl@3@Uordered_non_unique_tag@723@Unull_augment_policy@723@@detail@multi_index@boost@@IEAA?AV?$bidir_node_iterator@U?$ordered_index_node@Unull_augment_policy@detail@multi_index@boost@@U?$hashed_index_node@U?$index_node_base@UScheduledCallback@ManualRuntime@vanetza@@V?$allocator@UScheduledCallback@ManualRuntime@vanetza@@@std@@@detail@multi_index@boost@@@234@@detail@multi_index@boost@@@234@PEAU?$ordered_index_node@Unull_augment_policy@detail@multi_index@boost@@U?$hashed_index_node@U?$index_node_base@UScheduledCallback@ManualRuntime@vanetza@@V?$allocator@UScheduledCallback@ManualRuntime@vanetza@@@std@@@detail@multi_index@boost@@@234@@234@@Z
	?make_iterator@?$ordered_index_impl@U?$member@UScheduledCallback@ManualRuntime@vanetza@@V?$time_point@VClock@vanetza@@V?$duration@_JU?$ratio@$00$0PECEA@@std@@@chrono@std@@@chrono@std@@$0A@@multi_index@boost@@U?$less@V?$time_point@VClock@vanetza@@V?$duration@_JU?$ratio@$00$0PECEA@@std@@@chrono@std@@@chrono@std@@@std@@U?$nth_layer@$00UScheduledCallback@ManualRuntime@vanetza@@U?$indexed_by@U?$ordered_non_unique@U?$tag@Uby_deadline@ManualRuntime@vanetza@@Una@mpl@boost@@U456@U456@U456@U456@U456@U456@U456@U456@U456@U456@U456@U456@U456@U456@U456@U456@U456@U456@@multi_index@boost@@U?$member@UScheduledCallback@ManualRuntime@vanetza@@V?$time_point@VClock@vanetza@@V?$duration@_JU?$ratio@$00$0PECEA@@std@@@chrono@std@@@chrono@std@@$0A@@23@Una@mpl@3@@multi_index@boost@@U?$hashed_non_unique@U?$tag@Uby_scope@ManualRuntime@vanetza@@Una@mpl@boost@@U456@U456@U456@U456@U456@U456@U456@U456@U456@U456@U456@U456@U456@U456@U456@U456@U456@U456@@multi_index@boost@@U?$member@UScheduledCallback@ManualRuntime@vanetza@@PEBX$0EI@@23@Una@mpl@3@U563@@23@Una@mpl@3@U563@U563@U563@U563@U563@U563@U563@U563@U563@U563@U563@U563@U563@U563@U563@U563@U563@@multi_index@boost@@V?$allocator@UScheduledCallback@ManualRuntime@vanetza@@@std@@@detail@23@U?$vector1@Uby_deadline@ManualRuntime@vanetza@@@mpl@3@Uordered_non_unique_tag@723@Unull_augment_policy@723@@detail@multi_index@boost@@IEBA?AV?$bidir_node_iterator@U?$ordered_index_node@Unull_augment_policy@detail@multi_index@boost@@U?$hashed_index_node@U?$index_node_base@UScheduledCallback@ManualRuntime@vanetza@@V?$allocator@UScheduledCallback@ManualRuntime@vanetza@@@std@@@detail@multi_index@boost@@@234@@detail@multi_index@boost@@@234@PEAU?$ordered_index_node@Unull_augment_policy@detail@multi_index@boost@@U?$hashed_index_node@U?$index_node_base@UScheduledCallback@ManualRuntime@vanetza@@V?$allocator@UScheduledCallback@ManualRuntime@vanetza@@@std@@@detail@multi_index@boost@@@234@@234@@Z
	?max@?$constrained_value@V?$simple_exception_policy@G$00$0BP@Ubad_day_of_month@gregorian@boost@@@CV@boost@@@CV@boost@@SAGXZ
	?max@?$constrained_value@V?$simple_exception_policy@G$00$0M@Ubad_month@gregorian@boost@@@CV@boost@@@CV@boost@@SAGXZ
	?max@?$constrained_value@V?$simple_exception_policy@G$0FHI@$0CHAP@Ubad_year@gregorian@boost@@@CV@boost@@@CV@boost@@SAGXZ
	?max@?$duration@_JU?$ratio@$00$0PECEA@@std@@@chrono@std@@SA?AV123@XZ
	?max@?$duration_values@_J@chrono@std@@SA_JXZ
	?max@?$int_adapter@_J@date_time@boost@@SA?AV123@XZ
	?max@?$numeric_limits@G@std@@SAGXZ
	?max@?$numeric_limits@H@std@@SAHXZ
	?max@?$numeric_limits@I@std@@SAIXZ
	?max@?$numeric_limits@_J@std@@SA_JXZ
	?max@?$numeric_limits@_K@std@@SA_KXZ
	?max@?$simple_exception_policy@G$00$0BP@Ubad_day_of_month@gregorian@boost@@@CV@boost@@SAGXZ
	?max@?$simple_exception_policy@G$00$0M@Ubad_month@gregorian@boost@@@CV@boost@@SAGXZ
	?max@?$simple_exception_policy@G$0FHI@$0CHAP@Ubad_year@gregorian@boost@@@CV@boost@@SAGXZ
	?max@?$time_point@VClock@vanetza@@V?$duration@_JU?$ratio@$00$0PECEA@@std@@@chrono@std@@@chrono@std@@SA?AV123@XZ
	?max_size@?$_Default_allocator_traits@V?$allocator@D@std@@@std@@SA_KAEBV?$allocator@D@2@@Z
	?max_size@?$_Default_allocator_traits@V?$allocator@E@std@@@std@@SA_KAEBV?$allocator@E@2@@Z
	?max_size@?$_Default_allocator_traits@V?$allocator@U?$_Tree_node@U?$pair@$$CBV?$basic_string@DU?$char_traits@D@std@@V?$allocator@D@2@@std@@G@std@@PEAX@std@@@std@@@std@@SA_KAEBV?$allocator@U?$_Tree_node@U?$pair@$$CBV?$basic_string@DU?$char_traits@D@std@@V?$allocator@D@2@@std@@G@std@@PEAX@std@@@2@@Z
	?max_size@?$_Tree@V?$_Tmap_traits@V?$basic_string@DU?$char_traits@D@std@@V?$allocator@D@2@@std@@GU?$less@V?$basic_string@DU?$char_traits@D@std@@V?$allocator@D@2@@std@@@2@V?$allocator@U?$pair@$$CBV?$basic_string@DU?$char_traits@D@std@@V?$allocator@D@2@@std@@G@std@@@2@$0A@@std@@@std@@QEBA_KXZ
	?max_size@?$basic_string@DU?$char_traits@D@std@@V?$allocator@D@2@@std@@QEBA_KXZ
	?max_size@?$vector@EV?$allocator@E@std@@@std@@QEBA_KXZ
	?maximum@?$ordered_index_node_impl@Unull_augment_policy@detail@multi_index@boost@@V?$allocator@D@std@@@detail@multi_index@boost@@SAPEAU1234@PEAU1234@@Z
	?mean@vanetza@@YA?AVUnitInterval@1@V21@0@Z
	?min@?$constrained_value@V?$simple_exception_policy@G$00$0BP@Ubad_day_of_month@gregorian@boost@@@CV@boost@@@CV@boost@@SAGXZ
	?min@?$constrained_value@V?$simple_exception_policy@G$00$0M@Ubad_month@gregorian@boost@@@CV@boost@@@CV@boost@@SAGXZ
	?min@?$constrained_value@V?$simple_exception_policy@G$0FHI@$0CHAP@Ubad_year@gregorian@boost@@@CV@boost@@@CV@boost@@SAGXZ
	?min@?$int_adapter@_J@date_time@boost@@SA?AV123@XZ
	?min@?$numeric_limits@I@std@@SAIXZ
	?min@?$numeric_limits@_J@std@@SA_JXZ
	?min@?$simple_exception_policy@G$00$0BP@Ubad_day_of_month@gregorian@boost@@@CV@boost@@SAGXZ
	?min@?$simple_exception_policy@G$00$0M@Ubad_month@gregorian@boost@@@CV@boost@@SAGXZ
	?min@?$simple_exception_policy@G$0FHI@$0CHAP@Ubad_year@gregorian@boost@@@CV@boost@@SAGXZ
	?minimum@?$ordered_index_node_impl@Unull_augment_policy@detail@multi_index@boost@@V?$allocator@D@std@@@detail@multi_index@boost@@SAPEAU1234@PEAU1234@@Z
	?move@?$_Char_traits@DH@std@@SAPEADQEADQEBD_K@Z
	?mult_div_specials@?$int_adapter@_J@date_time@boost@@AEBA?AV123@AEBH@Z
	?name@locale@std@@QEBA?AV?$basic_string@DU?$char_traits@D@std@@V?$allocator@D@2@@2@XZ
	?neg_infinity@?$int_adapter@I@date_time@boost@@SA?AV123@XZ
	?neg_infinity@?$int_adapter@_J@date_time@boost@@SA?AV123@XZ
	?next@?$hashed_index_node_impl@V?$allocator@D@std@@@detail@multi_index@boost@@QEAAAEAPEAU?$hashed_index_base_node_impl@V?$allocator@D@std@@@234@XZ
	?next@ManualRuntime@vanetza@@QEBA?AV?$time_point@VClock@vanetza@@V?$duration@_JU?$ratio@$00$0PECEA@@std@@@chrono@std@@@chrono@std@@XZ
	?next@invalidate_iterators@detail@multi_index@boost@@QEAAAEAU1234@XZ
	?next_to_inspect@?$hashed_index_node_alg@U?$hashed_index_node_impl@V?$allocator@D@std@@@detail@multi_index@boost@@Uhashed_non_unique_tag@234@@detail@multi_index@boost@@SAPEAU?$hashed_index_node_impl@V?$allocator@D@std@@@234@PEAU5234@@Z
	?not_a_number@?$int_adapter@I@date_time@boost@@SA?AV123@XZ
	?not_a_number@?$int_adapter@_J@date_time@boost@@SA?AV123@XZ
	?now@ManualRuntime@vanetza@@UEBA?AV?$time_point@VClock@vanetza@@V?$duration@_JU?$ratio@$00$0PECEA@@std@@@chrono@std@@@chrono@std@@XZ
	?num_fractional_digits@?$time_duration@V0posix_time@boost@@V?$time_resolution_traits@Utime_resolution_traits_adapted64_impl@date_time@boost@@$04$0PECEA@$05_J@date_time@2@@date_time@boost@@SAGXZ
	?num_fractional_digits@?$time_resolution_traits@Utime_resolution_traits_adapted64_impl@date_time@boost@@$04$0PECEA@$05_J@date_time@boost@@SAGXZ
	?on_error@?$simple_exception_policy@G$00$0BP@Ubad_day_of_month@gregorian@boost@@@CV@boost@@SAXGGW4violation_enum@23@@Z
	?on_error@?$simple_exception_policy@G$00$0M@Ubad_month@gregorian@boost@@@CV@boost@@SAXGGW4violation_enum@23@@Z
	?on_error@?$simple_exception_policy@G$0FHI@$0CHAP@Ubad_year@gregorian@boost@@@CV@boost@@SAXGGW4violation_enum@23@@Z
	?parent@?$ordered_index_node@Unull_augment_policy@detail@multi_index@boost@@U?$hashed_index_node@U?$index_node_base@UScheduledCallback@ManualRuntime@vanetza@@V?$allocator@UScheduledCallback@ManualRuntime@vanetza@@@std@@@detail@multi_index@boost@@@234@@detail@multi_index@boost@@QEAA?AUparent_ref@?$ordered_index_node_compressed_base@Unull_augment_policy@detail@multi_index@boost@@V?$allocator@D@std@@@234@XZ
	?parent@?$ordered_index_node_compressed_base@Unull_augment_policy@detail@multi_index@boost@@V?$allocator@D@std@@@detail@multi_index@boost@@QEAA?AUparent_ref@1234@XZ
	?peek_byte@InputArchive@vanetza@@QEAADXZ
	?pointer_from@?$hashed_index_node_alg@U?$hashed_index_node_impl@V?$allocator@D@std@@@detail@multi_index@boost@@Uhashed_non_unique_tag@234@@detail@multi_index@boost@@CAPEAU?$hashed_index_node_impl@V?$allocator@D@std@@@234@PEAU?$hashed_index_base_node_impl@V?$allocator@D@std@@@234@@Z
	?pointer_from@?$hashed_index_node_impl@V?$allocator@D@std@@@detail@multi_index@boost@@SAPEAU1234@PEAU?$hashed_index_base_node_impl@V?$allocator@D@std@@@234@@Z
	?pointer_to@?$pointer_traits@PEBU?$pair@$$CBV?$basic_string@DU?$char_traits@D@std@@V?$allocator@D@2@@std@@G@std@@@std@@SAPEBU?$pair@$$CBV?$basic_string@DU?$char_traits@D@std@@V?$allocator@D@2@@std@@G@2@AEBU32@@Z
	?pos_infinity@?$int_adapter@I@date_time@boost@@SA?AV123@XZ
	?pos_infinity@?$int_adapter@_J@date_time@boost@@SA?AV123@XZ
	?position@?$bucket_array@V?$allocator@UScheduledCallback@ManualRuntime@vanetza@@@std@@@detail@multi_index@boost@@QEBA_K_K@Z
	?position@?$bucket_array_base@$00@detail@multi_index@boost@@KA_K_K0@Z
	?prior@?$hashed_index_base_node_impl@V?$allocator@D@std@@@detail@multi_index@boost@@QEAAAEAPEAU?$hashed_index_node_impl@V?$allocator@D@std@@@234@XZ
	?push_back@?$vector@EV?$allocator@E@std@@@std@@QEAAX$$QEAE@Z
	?random_byte_generator@vanetza@@YA?AV?$function@$$A6AEXZ@std@@H@Z
	?random_byte_sequence@vanetza@@YA?AV?$vector@EV?$allocator@E@std@@@std@@_KH@Z
	?raw@byte_view_iterator@vanetza@@QEBAPEBEXZ
	?read@byte_buffer_source@vanetza@@QEAA_JPEAD_J@Z
	?rebalance@?$ordered_index_node_impl@Unull_augment_policy@detail@multi_index@boost@@V?$allocator@D@std@@@detail@multi_index@boost@@SAXPEAU1234@Uparent_ref@?$ordered_index_node_compressed_base@Unull_augment_policy@detail@multi_index@boost@@V?$allocator@D@std@@@234@@Z
	?rebalance_for_extract@?$ordered_index_node_impl@Unull_augment_policy@detail@multi_index@boost@@V?$allocator@D@std@@@detail@multi_index@boost@@SAPEAU1234@PEAU1234@Uparent_ref@?$ordered_index_node_compressed_base@Unull_augment_policy@detail@multi_index@boost@@V?$allocator@D@std@@@234@AEAPEAU1234@2@Z
	?release@?$refcount_ptr@Uerror_info_container@exception_detail@boost@@@exception_detail@boost@@AEAAXXZ
	?release@?$unique_ptr@Ubyte_buffer@convertible@vanetza@@U?$default_delete@Ubyte_buffer@convertible@vanetza@@@std@@@std@@QEAAPEAUbyte_buffer@convertible@vanetza@@XZ
	?release@?$unique_ptr@V_Facet_base@std@@U?$default_delete@V_Facet_base@std@@@2@@std@@QEAAPEAV_Facet_base@2@XZ
	?remaining_bytes@InputArchive@vanetza@@QEAA_KXZ
	?res_adjust@?$time_resolution_traits@Utime_resolution_traits_adapted64_impl@date_time@boost@@$04$0PECEA@$05_J@date_time@boost@@SA_JXZ
	?reserve_for_insert@?$hashed_index@U?$member@UScheduledCallback@ManualRuntime@vanetza@@PEBX$0EI@@multi_index@boost@@U?$hash@PEBX@3@U?$equal_to@PEBX@std@@U?$nth_layer@$01UScheduledCallback@ManualRuntime@vanetza@@U?$indexed_by@U?$ordered_non_unique@U?$tag@Uby_deadline@ManualRuntime@vanetza@@Una@mpl@boost@@U456@U456@U456@U456@U456@U456@U456@U456@U456@U456@U456@U456@U456@U456@U456@U456@U456@U456@@multi_index@boost@@U?$member@UScheduledCallback@ManualRuntime@vanetza@@V?$time_point@VClock@vanetza@@V?$duration@_JU?$ratio@$00$0PECEA@@std@@@chrono@std@@@chrono@std@@$0A@@23@Una@mpl@3@@multi_index@boost@@U?$hashed_non_unique@U?$tag@Uby_scope@ManualRuntime@vanetza@@Una@mpl@boost@@U456@U456@U456@U456@U456@U456@U456@U456@U456@U456@U456@U456@U456@U456@U456@U456@U456@U456@@multi_index@boost@@U?$member@UScheduledCallback@ManualRuntime@vanetza@@PEBX$0EI@@23@Una@mpl@3@U563@@23@Una@mpl@3@U563@U563@U563@U563@U563@U563@U563@U563@U563@U563@U563@U563@U563@U563@U563@U563@U563@@multi_index@boost@@V?$allocator@UScheduledCallback@ManualRuntime@vanetza@@@std@@@detail@23@U?$vector1@Uby_scope@ManualRuntime@vanetza@@@mpl@3@Uhashed_non_unique_tag@823@@detail@multi_index@boost@@AEAAX_K@Z
	?reset@?$char_separator@DU?$char_traits@D@std@@@boost@@QEAAXXZ
	?reset@?$unique_ptr@Ubyte_buffer@convertible@vanetza@@U?$default_delete@Ubyte_buffer@convertible@vanetza@@@std@@@std@@QEAAXPEAUbyte_buffer@convertible@vanetza@@@Z
	?reset@ManualRuntime@vanetza@@QEAAXV?$time_point@VClock@vanetza@@V?$duration@_JU?$ratio@$00$0PECEA@@std@@@chrono@std@@@chrono@std@@@Z
	?rethrow@?$wrapexcept@Ubad_day_of_month@gregorian@boost@@@boost@@UEBAXXZ
	?rethrow@?$wrapexcept@Ubad_month@gregorian@boost@@@boost@@UEBAXXZ
	?rethrow@?$wrapexcept@Ubad_year@gregorian@boost@@@boost@@UEBAXXZ
	?rethrow@?$wrapexcept@Vbad_lexical_cast@boost@@@boost@@UEBAXXZ
	?right@?$ordered_index_node@Unull_augment_policy@detail@multi_index@boost@@U?$hashed_index_node@U?$index_node_base@UScheduledCallback@ManualRuntime@vanetza@@V?$allocator@UScheduledCallback@ManualRuntime@vanetza@@@std@@@detail@multi_index@boost@@@234@@detail@multi_index@boost@@QEAAAEAPEAU?$ordered_index_node_impl@Unull_augment_policy@detail@multi_index@boost@@V?$allocator@D@std@@@234@XZ
	?right@?$ordered_index_node_compressed_base@Unull_augment_policy@detail@multi_index@boost@@V?$allocator@D@std@@@detail@multi_index@boost@@QEAAAEAPEAU?$ordered_index_node_impl@Unull_augment_policy@detail@multi_index@boost@@V?$allocator@D@std@@@234@XZ
	?root@?$ordered_index_impl@U?$member@UScheduledCallback@ManualRuntime@vanetza@@V?$time_point@VClock@vanetza@@V?$duration@_JU?$ratio@$00$0PECEA@@std@@@chrono@std@@@chrono@std@@$0A@@multi_index@boost@@U?$less@V?$time_point@VClock@vanetza@@V?$duration@_JU?$ratio@$00$0PECEA@@std@@@chrono@std@@@chrono@std@@@std@@U?$nth_layer@$00UScheduledCallback@ManualRuntime@vanetza@@U?$indexed_by@U?$ordered_non_unique@U?$tag@Uby_deadline@ManualRuntime@vanetza@@Una@mpl@boost@@U456@U456@U456@U456@U456@U456@U456@U456@U456@U456@U456@U456@U456@U456@U456@U456@U456@U456@@multi_index@boost@@U?$member@UScheduledCallback@ManualRuntime@vanetza@@V?$time_point@VClock@vanetza@@V?$duration@_JU?$ratio@$00$0PECEA@@std@@@chrono@std@@@chrono@std@@$0A@@23@Una@mpl@3@@multi_index@boost@@U?$hashed_non_unique@U?$tag@Uby_scope@ManualRuntime@vanetza@@Una@mpl@boost@@U456@U456@U456@U456@U456@U456@U456@U456@U456@U456@U456@U456@U456@U456@U456@U456@U456@U456@@multi_index@boost@@U?$member@UScheduledCallback@ManualRuntime@vanetza@@PEBX$0EI@@23@Una@mpl@3@U563@@23@Una@mpl@3@U563@U563@U563@U563@U563@U563@U563@U563@U563@U563@U563@U563@U563@U563@U563@U563@U563@@multi_index@boost@@V?$allocator@UScheduledCallback@ManualRuntime@vanetza@@@std@@@detail@23@U?$vector1@Uby_deadline@ManualRuntime@vanetza@@@mpl@3@Uordered_non_unique_tag@723@Unull_augment_policy@723@@detail@multi_index@boost@@IEBAPEAU?$ordered_index_node@Unull_augment_policy@detail@multi_index@boost@@U?$hashed_index_node@U?$index_node_base@UScheduledCallback@ManualRuntime@vanetza@@V?$allocator@UScheduledCallback@ManualRuntime@vanetza@@@std@@@detail@multi_index@boost@@@234@@234@XZ
	?rotate_left@?$ordered_index_node_impl@Unull_augment_policy@detail@multi_index@boost@@V?$allocator@D@std@@@detail@multi_index@boost@@SAXPEAU1234@Uparent_ref@?$ordered_index_node_compressed_base@Unull_augment_policy@detail@multi_index@boost@@V?$allocator@D@std@@@234@@Z
	?rotate_right@?$ordered_index_node_impl@Unull_augment_policy@detail@multi_index@boost@@V?$allocator@D@std@@@detail@multi_index@boost@@SAXPEAU1234@Uparent_ref@?$ordered_index_node_compressed_base@Unull_augment_policy@detail@multi_index@boost@@V?$allocator@D@std@@@234@@Z
	?save_binary@OutputArchive@vanetza@@QEAAXPEBD_K@Z
	?save_binary@OutputArchive@vanetza@@QEAAXPEBE_K@Z
	?schedule@ManualRuntime@vanetza@@UEAAXV?$duration@_JU?$ratio@$00$0PECEA@@std@@@chrono@std@@AEBV?$function@$$A6AXV?$time_point@VClock@vanetza@@V?$duration@_JU?$ratio@$00$0PECEA@@std@@@chrono@std@@@chrono@std@@@Z@5@PEBX@Z
	?schedule@ManualRuntime@vanetza@@UEAAXV?$time_point@VClock@vanetza@@V?$duration@_JU?$ratio@$00$0PECEA@@std@@@chrono@std@@@chrono@std@@AEBV?$function@$$A6AXV?$time_point@VClock@vanetza@@V?$duration@_JU?$ratio@$00$0PECEA@@std@@@chrono@std@@@chrono@std@@@Z@5@PEBX@Z
	?seed@?$mersenne_twister@I$0CA@$0CHA@$0BIN@$0BP@$0JJAILANP@$0L@$06$0JNCMFGIA@$0P@$0OPMGAAAA@$0BC@@std@@QEAAXII@Z
	?seed@?$mersenne_twister_engine@I$0CA@$0CHA@$0BIN@$0BP@$0JJAILANP@$0L@$0PPPPPPPP@$06$0JNCMFGIA@$0P@$0OPMGAAAA@$0BC@$0GMAHIJGF@@std@@QEAAXI@Z
	?select_on_container_copy_construction@?$_Default_allocator_traits@V?$allocator@D@std@@@std@@SA?AV?$allocator@D@2@AEBV32@@Z
	?size@?$basic_string@DU?$char_traits@D@std@@V?$allocator@D@2@@std@@QEBA_KXZ
	?size@?$bucket_array@V?$allocator@UScheduledCallback@ManualRuntime@vanetza@@@std@@@detail@multi_index@boost@@QEBA_KXZ
	?size@?$byte_buffer_impl@$$T@convertible@vanetza@@UEBA_KXZ
	?size@?$byte_buffer_impl@V?$basic_string@DU?$char_traits@D@std@@V?$allocator@D@2@@std@@@convertible@vanetza@@UEBA_KXZ
	?size@?$byte_buffer_impl@V?$vector@EV?$allocator@E@std@@@std@@@convertible@vanetza@@UEBA_KXZ
	?size@?$hashed_index@U?$member@UScheduledCallback@ManualRuntime@vanetza@@PEBX$0EI@@multi_index@boost@@U?$hash@PEBX@3@U?$equal_to@PEBX@std@@U?$nth_layer@$01UScheduledCallback@ManualRuntime@vanetza@@U?$indexed_by@U?$ordered_non_unique@U?$tag@Uby_deadline@ManualRuntime@vanetza@@Una@mpl@boost@@U456@U456@U456@U456@U456@U456@U456@U456@U456@U456@U456@U456@U456@U456@U456@U456@U456@U456@@multi_index@boost@@U?$member@UScheduledCallback@ManualRuntime@vanetza@@V?$time_point@VClock@vanetza@@V?$duration@_JU?$ratio@$00$0PECEA@@std@@@chrono@std@@@chrono@std@@$0A@@23@Una@mpl@3@@multi_index@boost@@U?$hashed_non_unique@U?$tag@Uby_scope@ManualRuntime@vanetza@@Una@mpl@boost@@U456@U456@U456@U456@U456@U456@U456@U456@U456@U456@U456@U456@U456@U456@U456@U456@U456@U456@@multi_index@boost@@U?$member@UScheduledCallback@ManualRuntime@vanetza@@PEBX$0EI@@23@Una@mpl@3@U563@@23@Una@mpl@3@U563@U563@U563@U563@U563@U563@U563@U563@U563@U563@U563@U563@U563@U563@U563@U563@U563@@multi_index@boost@@V?$allocator@UScheduledCallback@ManualRuntime@vanetza@@@std@@@detail@23@U?$vector1@Uby_scope@ManualRuntime@vanetza@@@mpl@3@Uhashed_non_unique_tag@823@@detail@multi_index@boost@@QEBA_KXZ
	?size@?$iterator_range_base@Vbyte_view_iterator@vanetza@@Urandom_access_traversal_tag@iterators@boost@@@iterator_range_detail@boost@@QEBA_KXZ
	?size@?$vector@EV?$allocator@E@std@@@std@@QEBA_KXZ
	?size_@?$multi_index_container@UScheduledCallback@ManualRuntime@vanetza@@U?$indexed_by@U?$ordered_non_unique@U?$tag@Uby_deadline@ManualRuntime@vanetza@@Una@mpl@boost@@U456@U456@U456@U456@U456@U456@U456@U456@U456@U456@U456@U456@U456@U456@U456@U456@U456@U456@@multi_index@boost@@U?$member@UScheduledCallback@ManualRuntime@vanetza@@V?$time_point@VClock@vanetza@@V?$duration@_JU?$ratio@$00$0PECEA@@std@@@chrono@std@@@chrono@std@@$0A@@23@Una@mpl@3@@multi_index@boost@@U?$hashed_non_unique@U?$tag@Uby_scope@ManualRuntime@vanetza@@Una@mpl@boost@@U456@U456@U456@U456@U456@U456@U456@U456@U456@U456@U456@U456@U456@U456@U456@U456@U456@U456@@multi_index@boost@@U?$member@UScheduledCallback@ManualRuntime@vanetza@@PEBX$0EI@@23@Una@mpl@3@U563@@23@Una@mpl@3@U563@U563@U563@U563@U563@U563@U563@U563@U563@U563@U563@U563@U563@U563@U563@U563@U563@@multi_index@boost@@V?$allocator@UScheduledCallback@ManualRuntime@vanetza@@@std@@@multi_index@boost@@IEBA_KXZ
	?size_index@?$bucket_array_base@$00@detail@multi_index@boost@@KA_K_K@Z
	?split@date_time@boost@@YA_NAEBV?$basic_string@DU?$char_traits@D@std@@V?$allocator@D@2@@std@@DAEAV34@1@Z
	?substr@?$basic_string@DU?$char_traits@D@std@@V?$allocator@D@2@@std@@QEBA?AV12@_K0@Z
	?subtract_times@?$counted_time_system@U?$counted_time_rep@Vmillisec_posix_time_system_config@posix_time@boost@@@date_time@boost@@@date_time@boost@@SA?AVtime_duration@posix_time@3@AEBU?$counted_time_rep@Vmillisec_posix_time_system_config@posix_time@boost@@@23@0@Z
	?swap@?$auto_space@U?$hashed_index_base_node_impl@V?$allocator@D@std@@@detail@multi_index@boost@@V?$allocator@UScheduledCallback@ManualRuntime@vanetza@@@std@@@detail@multi_index@boost@@QEAAXAEAU1234@@Z
	?swap@?$auto_space@U?$hashed_index_base_node_impl@V?$allocator@D@std@@@detail@multi_index@boost@@V?$allocator@UScheduledCallback@ManualRuntime@vanetza@@@std@@@detail@multi_index@boost@@QEAAXAEAU1234@U?$integral_constant@_N$0A@@4@@Z
	?swap@?$bucket_array@V?$allocator@UScheduledCallback@ManualRuntime@vanetza@@@std@@@detail@multi_index@boost@@QEAAXAEAV1234@@Z
	?swap@?$ordered_index_impl@U?$member@UScheduledCallback@ManualRuntime@vanetza@@V?$time_point@VClock@vanetza@@V?$duration@_JU?$ratio@$00$0PECEA@@std@@@chrono@std@@@chrono@std@@$0A@@multi_index@boost@@U?$less@V?$time_point@VClock@vanetza@@V?$duration@_JU?$ratio@$00$0PECEA@@std@@@chrono@std@@@chrono@std@@@std@@U?$nth_layer@$00UScheduledCallback@ManualRuntime@vanetza@@U?$indexed_by@U?$ordered_non_unique@U?$tag@Uby_deadline@ManualRuntime@vanetza@@Una@mpl@boost@@U456@U456@U456@U456@U456@U456@U456@U456@U456@U456@U456@U456@U456@U456@U456@U456@U456@U456@@multi_index@boost@@U?$member@UScheduledCallback@ManualRuntime@vanetza@@V?$time_point@VClock@vanetza@@V?$duration@_JU?$ratio@$00$0PECEA@@std@@@chrono@std@@@chrono@std@@$0A@@23@Una@mpl@3@@multi_index@boost@@U?$hashed_non_unique@U?$tag@Uby_scope@ManualRuntime@vanetza@@Una@mpl@boost@@U456@U456@U456@U456@U456@U456@U456@U456@U456@U456@U456@U456@U456@U456@U456@U456@U456@U456@@multi_index@boost@@U?$member@UScheduledCallback@ManualRuntime@vanetza@@PEBX$0EI@@23@Una@mpl@3@U563@@23@Una@mpl@3@U563@U563@U563@U563@U563@U563@U563@U563@U563@U563@U563@U563@U563@U563@U563@U563@U563@@multi_index@boost@@V?$allocator@UScheduledCallback@ManualRuntime@vanetza@@@std@@@detail@23@U?$vector1@Uby_deadline@ManualRuntime@vanetza@@@mpl@3@Uordered_non_unique_tag@723@Unull_augment_policy@723@@detail@multi_index@boost@@QEAAXAEAV?$ordered_index@U?$member@UScheduledCallback@ManualRuntime@vanetza@@V?$time_point@VClock@vanetza@@V?$duration@_JU?$ratio@$00$0PECEA@@std@@@chrono@std@@@chrono@std@@$0A@@multi_index@boost@@U?$less@V?$time_point@VClock@vanetza@@V?$duration@_JU?$ratio@$00$0PECEA@@std@@@chrono@std@@@chrono@std@@@std@@U?$nth_layer@$00UScheduledCallback@ManualRuntime@vanetza@@U?$indexed_by@U?$ordered_non_unique@U?$tag@Uby_deadline@ManualRuntime@vanetza@@Una@mpl@boost@@U456@U456@U456@U456@U456@U456@U456@U456@U456@U456@U456@U456@U456@U456@U456@U456@U456@U456@@multi_index@boost@@U?$member@UScheduledCallback@ManualRuntime@vanetza@@V?$time_point@VClock@vanetza@@V?$duration@_JU?$ratio@$00$0PECEA@@std@@@chrono@std@@@chrono@std@@$0A@@23@Una@mpl@3@@multi_index@boost@@U?$hashed_non_unique@U?$tag@Uby_scope@ManualRuntime@vanetza@@Una@mpl@boost@@U456@U456@U456@U456@U456@U456@U456@U456@U456@U456@U456@U456@U456@U456@U456@U456@U456@U456@@multi_index@boost@@U?$member@UScheduledCallback@ManualRuntime@vanetza@@PEBX$0EI@@23@Una@mpl@3@U563@@23@Una@mpl@3@U563@U563@U563@U563@U563@U563@U563@U563@U563@U563@U563@U563@U563@U563@U563@U563@U563@@multi_index@boost@@V?$allocator@UScheduledCallback@ManualRuntime@vanetza@@@std@@@detail@23@U?$vector1@Uby_deadline@ManualRuntime@vanetza@@@mpl@3@Uordered_non_unique_tag@723@Unull_augment_policy@723@@234@@Z
	?swap_@?$multi_index_container@UScheduledCallback@ManualRuntime@vanetza@@U?$indexed_by@U?$ordered_non_unique@U?$tag@Uby_deadline@ManualRuntime@vanetza@@Una@mpl@boost@@U456@U456@U456@U456@U456@U456@U456@U456@U456@U456@U456@U456@U456@U456@U456@U456@U456@U456@@multi_index@boost@@U?$member@UScheduledCallback@ManualRuntime@vanetza@@V?$time_point@VClock@vanetza@@V?$duration@_JU?$ratio@$00$0PECEA@@std@@@chrono@std@@@chrono@std@@$0A@@23@Una@mpl@3@@multi_index@boost@@U?$hashed_non_unique@U?$tag@Uby_scope@ManualRuntime@vanetza@@Una@mpl@boost@@U456@U456@U456@U456@U456@U456@U456@U456@U456@U456@U456@U456@U456@U456@U456@U456@U456@U456@@multi_index@boost@@U?$member@UScheduledCallback@ManualRuntime@vanetza@@PEBX$0EI@@23@Una@mpl@3@U563@@23@Una@mpl@3@U563@U563@U563@U563@U563@U563@U563@U563@U563@U563@U563@U563@U563@U563@U563@U563@U563@@multi_index@boost@@V?$allocator@UScheduledCallback@ManualRuntime@vanetza@@@std@@@multi_index@boost@@IEAAXAEAV123@@Z
	?swap_@?$multi_index_container@UScheduledCallback@ManualRuntime@vanetza@@U?$indexed_by@U?$ordered_non_unique@U?$tag@Uby_deadline@ManualRuntime@vanetza@@Una@mpl@boost@@U456@U456@U456@U456@U456@U456@U456@U456@U456@U456@U456@U456@U456@U456@U456@U456@U456@U456@@multi_index@boost@@U?$member@UScheduledCallback@ManualRuntime@vanetza@@V?$time_point@VClock@vanetza@@V?$duration@_JU?$ratio@$00$0PECEA@@std@@@chrono@std@@@chrono@std@@$0A@@23@Una@mpl@3@@multi_index@boost@@U?$hashed_non_unique@U?$tag@Uby_scope@ManualRuntime@vanetza@@Una@mpl@boost@@U456@U456@U456@U456@U456@U456@U456@U456@U456@U456@U456@U456@U456@U456@U456@U456@U456@U456@@multi_index@boost@@U?$member@UScheduledCallback@ManualRuntime@vanetza@@PEBX$0EI@@23@Una@mpl@3@U563@@23@Una@mpl@3@U563@U563@U563@U563@U563@U563@U563@U563@U563@U563@U563@U563@U563@U563@U563@U563@U563@@multi_index@boost@@V?$allocator@UScheduledCallback@ManualRuntime@vanetza@@@std@@@multi_index@boost@@IEAAXAEAV123@U?$integral_constant@_N$0A@@3@@Z
	?thousands_sep@?$numpunct@D@std@@QEBADXZ
	?throw_exception_assert_compatibility@boost@@YAXAEBVexception@std@@@Z
	?ticks@?$time_duration@V0posix_time@boost@@V?$time_resolution_traits@Utime_resolution_traits_adapted64_impl@date_time@boost@@$04$0PECEA@$05_J@date_time@2@@date_time@boost@@QEBA_JXZ
	?ticks_per_second@?$time_duration@V0posix_time@boost@@V?$time_resolution_traits@Utime_resolution_traits_adapted64_impl@date_time@boost@@$04$0PECEA@$05_J@date_time@2@@date_time@boost@@SA_JXZ
	?time_count@?$counted_time_rep@Vmillisec_posix_time_system_config@posix_time@boost@@@date_time@boost@@QEBA_JXZ
	?time_from_string@posix_time@boost@@YA?AVptime@12@AEBV?$basic_string@DU?$char_traits@D@std@@V?$allocator@D@2@@std@@@Z
	?time_since_epoch@?$time_point@VClock@vanetza@@V?$duration@_JU?$ratio@$00$0PECEA@@std@@@chrono@std@@@chrono@std@@QEBA?AV?$duration@_JU?$ratio@$00$0PECEA@@std@@@23@XZ
	?to_char_type@?$_Narrow_char_traits@DH@std@@SADAEBH@Z
	?to_special@?$int_adapter@_J@date_time@boost@@SA?AW4special_values@23@_J@Z
	?to_tick_count@?$time_resolution_traits@Utime_resolution_traits_adapted64_impl@date_time@boost@@$04$0PECEA@$05_J@date_time@boost@@SA_J_J000@Z
	?total_microseconds@?$time_duration@V0posix_time@boost@@V?$time_resolution_traits@Utime_resolution_traits_adapted64_impl@date_time@boost@@$04$0PECEA@$05_J@date_time@2@@date_time@boost@@QEBA_JXZ
	?trigger@ManualRuntime@vanetza@@AEAAXXZ
	?trigger@ManualRuntime@vanetza@@QEAAXV?$duration@_JU?$ratio@$00$0PECEA@@std@@@chrono@std@@@Z
	?trigger@ManualRuntime@vanetza@@QEAAXV?$time_point@VClock@vanetza@@V?$duration@_JU?$ratio@$00$0PECEA@@std@@@chrono@std@@@chrono@std@@@Z
	?try_convert@?$lexical_converter_impl@GV?$basic_string@DU?$char_traits@D@std@@V?$allocator@D@2@@std@@@detail@boost@@SA_NAEBV?$basic_string@DU?$char_traits@D@std@@V?$allocator@D@2@@std@@AEAG@Z
	?try_convert@?$lexical_converter_impl@HV?$basic_string@DU?$char_traits@D@std@@V?$allocator@D@2@@std@@@detail@boost@@SA_NAEBV?$basic_string@DU?$char_traits@D@std@@V?$allocator@D@2@@std@@AEAH@Z
	?try_convert@?$lexical_converter_impl@_JV?$basic_string@DU?$char_traits@D@std@@V?$allocator@D@2@@std@@@detail@boost@@SA_NAEBV?$basic_string@DU?$char_traits@D@std@@V?$allocator@D@2@@std@@AEA_J@Z
	?unchecked_rehash@?$hashed_index@U?$member@UScheduledCallback@ManualRuntime@vanetza@@PEBX$0EI@@multi_index@boost@@U?$hash@PEBX@3@U?$equal_to@PEBX@std@@U?$nth_layer@$01UScheduledCallback@ManualRuntime@vanetza@@U?$indexed_by@U?$ordered_non_unique@U?$tag@Uby_deadline@ManualRuntime@vanetza@@Una@mpl@boost@@U456@U456@U456@U456@U456@U456@U456@U456@U456@U456@U456@U456@U456@U456@U456@U456@U456@U456@@multi_index@boost@@U?$member@UScheduledCallback@ManualRuntime@vanetza@@V?$time_point@VClock@vanetza@@V?$duration@_JU?$ratio@$00$0PECEA@@std@@@chrono@std@@@chrono@std@@$0A@@23@Una@mpl@3@@multi_index@boost@@U?$hashed_non_unique@U?$tag@Uby_scope@ManualRuntime@vanetza@@Una@mpl@boost@@U456@U456@U456@U456@U456@U456@U456@U456@U456@U456@U456@U456@U456@U456@U456@U456@U456@U456@@multi_index@boost@@U?$member@UScheduledCallback@ManualRuntime@vanetza@@PEBX$0EI@@23@Una@mpl@3@U563@@23@Una@mpl@3@U563@U563@U563@U563@U563@U563@U563@U563@U563@U563@U563@U563@U563@U563@U563@U563@U563@@multi_index@boost@@V?$allocator@UScheduledCallback@ManualRuntime@vanetza@@@std@@@detail@23@U?$vector1@Uby_scope@ManualRuntime@vanetza@@@mpl@3@Uhashed_non_unique_tag@823@@detail@multi_index@boost@@AEAAX_K@Z
	?unchecked_rehash@?$hashed_index@U?$member@UScheduledCallback@ManualRuntime@vanetza@@PEBX$0EI@@multi_index@boost@@U?$hash@PEBX@3@U?$equal_to@PEBX@std@@U?$nth_layer@$01UScheduledCallback@ManualRuntime@vanetza@@U?$indexed_by@U?$ordered_non_unique@U?$tag@Uby_deadline@ManualRuntime@vanetza@@Una@mpl@boost@@U456@U456@U456@U456@U456@U456@U456@U456@U456@U456@U456@U456@U456@U456@U456@U456@U456@U456@@multi_index@boost@@U?$member@UScheduledCallback@ManualRuntime@vanetza@@V?$time_point@VClock@vanetza@@V?$duration@_JU?$ratio@$00$0PECEA@@std@@@chrono@std@@@chrono@std@@$0A@@23@Una@mpl@3@@multi_index@boost@@U?$hashed_non_unique@U?$tag@Uby_scope@ManualRuntime@vanetza@@Una@mpl@boost@@U456@U456@U456@U456@U456@U456@U456@U456@U456@U456@U456@U456@U456@U456@U456@U456@U456@U456@@multi_index@boost@@U?$member@UScheduledCallback@ManualRuntime@vanetza@@PEBX$0EI@@23@Una@mpl@3@U563@@23@Una@mpl@3@U563@U563@U563@U563@U563@U563@U563@U563@U563@U563@U563@U563@U563@U563@U563@U563@U563@@multi_index@boost@@V?$allocator@UScheduledCallback@ManualRuntime@vanetza@@@std@@@detail@23@U?$vector1@Uby_scope@ManualRuntime@vanetza@@@mpl@3@Uhashed_non_unique_tag@823@@detail@multi_index@boost@@AEAAX_KUhashed_non_unique_tag@234@@Z
	?unlink@?$hashed_index@U?$member@UScheduledCallback@ManualRuntime@vanetza@@PEBX$0EI@@multi_index@boost@@U?$hash@PEBX@3@U?$equal_to@PEBX@std@@U?$nth_layer@$01UScheduledCallback@ManualRuntime@vanetza@@U?$indexed_by@U?$ordered_non_unique@U?$tag@Uby_deadline@ManualRuntime@vanetza@@Una@mpl@boost@@U456@U456@U456@U456@U456@U456@U456@U456@U456@U456@U456@U456@U456@U456@U456@U456@U456@U456@@multi_index@boost@@U?$member@UScheduledCallback@ManualRuntime@vanetza@@V?$time_point@VClock@vanetza@@V?$duration@_JU?$ratio@$00$0PECEA@@std@@@chrono@std@@@chrono@std@@$0A@@23@Una@mpl@3@@multi_index@boost@@U?$hashed_non_unique@U?$tag@Uby_scope@ManualRuntime@vanetza@@Una@mpl@boost@@U456@U456@U456@U456@U456@U456@U456@U456@U456@U456@U456@U456@U456@U456@U456@U456@U456@U456@@multi_index@boost@@U?$member@UScheduledCallback@ManualRuntime@vanetza@@PEBX$0EI@@23@Una@mpl@3@U563@@23@Una@mpl@3@U563@U563@U563@U563@U563@U563@U563@U563@U563@U563@U563@U563@U563@U563@U563@U563@U563@@multi_index@boost@@V?$allocator@UScheduledCallback@ManualRuntime@vanetza@@@std@@@detail@23@U?$vector1@Uby_scope@ManualRuntime@vanetza@@@mpl@3@Uhashed_non_unique_tag@823@@detail@multi_index@boost@@AEAAXPEAU?$hashed_index_node@U?$index_node_base@UScheduledCallback@ManualRuntime@vanetza@@V?$allocator@UScheduledCallback@ManualRuntime@vanetza@@@std@@@detail@multi_index@boost@@@234@@Z
	?unlink@?$hashed_index_node_alg@U?$hashed_index_node_impl@V?$allocator@D@std@@@detail@multi_index@boost@@Uhashed_non_unique_tag@234@@detail@multi_index@boost@@SAXPEAU?$hashed_index_node_impl@V?$allocator@D@std@@@234@@Z
	?unlink_last_group@?$hashed_index_node_alg@U?$hashed_index_node_impl@V?$allocator@D@std@@@detail@multi_index@boost@@Uhashed_non_unique_tag@234@@detail@multi_index@boost@@SA?AU?$pair@PEAU?$hashed_index_node_impl@V?$allocator@D@std@@@detail@multi_index@boost@@_N@std@@PEAU?$hashed_index_node_impl@V?$allocator@D@std@@@234@@Z
	?unlink_range@?$hashed_index_node_alg@U?$hashed_index_node_impl@V?$allocator@D@std@@@detail@multi_index@boost@@Uhashed_non_unique_tag@234@@detail@multi_index@boost@@SAXPEAU?$hashed_index_node_impl@V?$allocator@D@std@@@234@0@Z
	?value@?$index_node_base@UScheduledCallback@ManualRuntime@vanetza@@V?$allocator@UScheduledCallback@ManualRuntime@vanetza@@@std@@@detail@multi_index@boost@@QEAAAEAUScheduledCallback@ManualRuntime@vanetza@@XZ
	?value@UnitInterval@vanetza@@QEBANXZ
	?what@bad_lexical_cast@boost@@UEBAPEBDXZ
	?what@exception@std@@UEBAPEBDXZ
	?write@byte_buffer_sink@vanetza@@QEAA_JPEBD_J@Z
	wmemcpy
