EXPORTS 
	??_R0?AU?$wrapexcept@Ubad_day_of_month@gregorian@boost@@@boost@@@8 	 DATA
	??_R0?AU?$wrapexcept@Ubad_day_of_year@gregorian@boost@@@boost@@@8 	 DATA
	??_R0?AU?$wrapexcept@Ubad_month@gregorian@boost@@@boost@@@8 	 DATA
	??_R0?AU?$wrapexcept@Ubad_weekday@gregorian@boost@@@boost@@@8 	 DATA
	??_R0?AU?$wrapexcept@Ubad_year@gregorian@boost@@@boost@@@8 	 DATA
	??_R0?AU?$wrapexcept@Vbad_format_string@io@boost@@@boost@@@8 	 DATA
	??_R0?AU?$wrapexcept@Vout_of_range@std@@@boost@@@8 	 DATA
	??_R0?AU?$wrapexcept@Vtoo_few_args@io@boost@@@boost@@@8 	 DATA
	??_R0?AU?$wrapexcept@Vtoo_many_args@io@boost@@@boost@@@8 	 DATA
	??_R0?AU_Crt_new_delete@std@@@8 	 DATA
	??_R0?AUbad_day_of_month@gregorian@boost@@@8 	 DATA
	??_R0?AUbad_day_of_year@gregorian@boost@@@8 	 DATA
	??_R0?AUbad_month@gregorian@boost@@@8 	 DATA
	??_R0?AUbad_weekday@gregorian@boost@@@8 	 DATA
	??_R0?AUbad_year@gregorian@boost@@@8 	 DATA
	??_R0?AV?$_Iosb@H@std@@@8 	 DATA
	??_R0?AV?$base_from_member@V?$shared_ptr@V?$basic_altstringbuf@DU?$char_traits@D@std@@V?$allocator@D@2@@io@boost@@@boost@@$0A@@boost@@@8 	 DATA
	??_R0?AV?$basic_altstringbuf@DU?$char_traits@D@std@@V?$allocator@D@2@@io@boost@@@8 	 DATA
	??_R0?AV?$basic_ios@DU?$char_traits@D@std@@@std@@@8 	 DATA
	??_R0?AV?$basic_iostream@DU?$char_traits@D@std@@@std@@@8 	 DATA
	??_R0?AV?$basic_istream@DU?$char_traits@D@std@@@std@@@8 	 DATA
	??_R0?AV?$basic_oaltstringstream@DU?$char_traits@D@std@@V?$allocator@D@2@@io@boost@@@8 	 DATA
	??_R0?AV?$basic_ostream@DU?$char_traits@D@std@@@std@@@8 	 DATA
	??_R0?AV?$basic_ostringstream@DU?$char_traits@D@std@@V?$allocator@D@2@@std@@@8 	 DATA
	??_R0?AV?$basic_streambuf@DU?$char_traits@D@std@@@std@@@8 	 DATA
	??_R0?AV?$basic_stringbuf@DU?$char_traits@D@std@@V?$allocator@D@2@@std@@@8 	 DATA
	??_R0?AV?$basic_stringstream@DU?$char_traits@D@std@@V?$allocator@D@2@@std@@@8 	 DATA
	??_R0?AV?$date_facet@Vdate@gregorian@boost@@DV?$ostreambuf_iterator@DU?$char_traits@D@std@@@std@@@date_time@boost@@@8 	 DATA
	??_R0?AV?$numpunct@D@std@@@8 	 DATA
	??_R0?AV?$sp_counted_impl_pd@PEAV?$basic_altstringbuf@DU?$char_traits@D@std@@V?$allocator@D@2@@io@boost@@VNo_Op@?$basic_oaltstringstream@DU?$char_traits@D@std@@V?$allocator@D@2@@23@@detail@boost@@@8 	 DATA
	??_R0?AV?$time_facet@Vptime@posix_time@boost@@DV?$ostreambuf_iterator@DU?$char_traits@D@std@@@std@@@date_time@boost@@@8 	 DATA
	??_R0?AVNo_Op@?$basic_oaltstringstream@DU?$char_traits@D@std@@V?$allocator@D@2@@io@boost@@@8 	 DATA
	??_R0?AV_Facet_base@std@@@8 	 DATA
	??_R0?AVbad_alloc@std@@@8 	 DATA
	??_R0?AVbad_array_new_length@std@@@8 	 DATA
	??_R0?AVbad_cast@std@@@8 	 DATA
	??_R0?AVbad_format_string@io@boost@@@8 	 DATA
	??_R0?AVclone_base@exception_detail@boost@@@8 	 DATA
	??_R0?AVexception@boost@@@8 	 DATA
	??_R0?AVexception@std@@@8 	 DATA
	??_R0?AVfacet@locale@std@@@8 	 DATA
	??_R0?AVformat_error@io@boost@@@8 	 DATA
	??_R0?AVios_base@std@@@8 	 DATA
	??_R0?AVlogic_error@std@@@8 	 DATA
	??_R0?AVout_of_range@std@@@8 	 DATA
	??_R0?AVsp_counted_base@detail@boost@@@8 	 DATA
	??_R0?AVtoo_few_args@io@boost@@@8 	 DATA
	??_R0?AVtoo_many_args@io@boost@@@8 	 DATA
	?_Psave@?$_Facetptr@V?$ctype@D@std@@@std@@2PEBVfacet@locale@2@EB 	 DATA
	?_Psave@?$_Facetptr@V?$date_facet@Vdate@gregorian@boost@@DV?$ostreambuf_iterator@DU?$char_traits@D@std@@@std@@@date_time@boost@@@std@@2PEBVfacet@locale@2@EB 	 DATA
	?_Psave@?$_Facetptr@V?$numpunct@D@std@@@std@@2PEBVfacet@locale@2@EB 	 DATA
	?_Psave@?$_Facetptr@V?$time_facet@Vptime@posix_time@boost@@DV?$ostreambuf_iterator@DU?$char_traits@D@std@@@std@@@date_time@boost@@@std@@2PEBVfacet@locale@2@EB 	 DATA
	?_Psave@?$_Facetptr@V?$time_put@DV?$ostreambuf_iterator@DU?$char_traits@D@std@@@std@@@std@@@std@@2PEBVfacet@locale@2@EB 	 DATA
	?default_time_duration_format@?$time_facet@Vptime@posix_time@boost@@DV?$ostreambuf_iterator@DU?$char_traits@D@std@@@std@@@date_time@boost@@2PEBDEB 	 DATA
	?default_time_format@?$time_facet@Vptime@posix_time@boost@@DV?$ostreambuf_iterator@DU?$char_traits@D@std@@@std@@@date_time@boost@@2PEBDEB 	 DATA
	?duration_sign_negative_only@?$time_facet@Vptime@posix_time@boost@@DV?$ostreambuf_iterator@DU?$char_traits@D@std@@@std@@@date_time@boost@@2PEBDEB 	 DATA
	?fractional_seconds_format@?$time_facet@Vptime@posix_time@boost@@DV?$ostreambuf_iterator@DU?$char_traits@D@std@@@std@@@date_time@boost@@2PEBDEB 	 DATA
	?fractional_seconds_or_none_format@?$time_facet@Vptime@posix_time@boost@@DV?$ostreambuf_iterator@DU?$char_traits@D@std@@@std@@@date_time@boost@@2PEBDEB 	 DATA
	?id@?$date_facet@Vdate@gregorian@boost@@DV?$ostreambuf_iterator@DU?$char_traits@D@std@@@std@@@date_time@boost@@2V0locale@std@@A 	 DATA
	?id@?$time_facet@Vptime@posix_time@boost@@DV?$ostreambuf_iterator@DU?$char_traits@D@std@@@std@@@date_time@boost@@2V0locale@std@@A 	 DATA
	?iso_time_format_extended_specifier@?$time_facet@Vptime@posix_time@boost@@DV?$ostreambuf_iterator@DU?$char_traits@D@std@@@std@@@date_time@boost@@2PEBDEB 	 DATA
	?iso_time_format_specifier@?$time_facet@Vptime@posix_time@boost@@DV?$ostreambuf_iterator@DU?$char_traits@D@std@@@std@@@date_time@boost@@2PEBDEB 	 DATA
	?posix_zone_string_format@?$time_facet@Vptime@posix_time@boost@@DV?$ostreambuf_iterator@DU?$char_traits@D@std@@@std@@@date_time@boost@@2PEBDEB 	 DATA
	?seconds_format@?$time_facet@Vptime@posix_time@boost@@DV?$ostreambuf_iterator@DU?$char_traits@D@std@@@std@@@date_time@boost@@2PEBDEB 	 DATA
	?seconds_with_fractional_seconds_format@?$time_facet@Vptime@posix_time@boost@@DV?$ostreambuf_iterator@DU?$char_traits@D@std@@@std@@@date_time@boost@@2PEBDEB 	 DATA
	?zone_abbrev_format@?$time_facet@Vptime@posix_time@boost@@DV?$ostreambuf_iterator@DU?$char_traits@D@std@@@std@@@date_time@boost@@2PEBDEB 	 DATA
	?zone_iso_extended_format@?$time_facet@Vptime@posix_time@boost@@DV?$ostreambuf_iterator@DU?$char_traits@D@std@@@std@@@date_time@boost@@2PEBDEB 	 DATA
	?zone_iso_format@?$time_facet@Vptime@posix_time@boost@@DV?$ostreambuf_iterator@DU?$char_traits@D@std@@@std@@@date_time@boost@@2PEBDEB 	 DATA
	?zone_name_format@?$time_facet@Vptime@posix_time@boost@@DV?$ostreambuf_iterator@DU?$char_traits@D@std@@@std@@@date_time@boost@@2PEBDEB 	 DATA
	??$?0$$CBI@?$put_holder@DU?$char_traits@D@std@@@detail@io@boost@@QEAA@AEBI@Z
	??$?0$$CBN@?$put_holder@DU?$char_traits@D@std@@@detail@io@boost@@QEAA@AEBN@Z
	??$?0$$V@?$_Compressed_pair@V?$allocator@D@std@@V?$_Deque_val@U?$_Deque_simple_types@D@std@@@2@$00@std@@QEAA@U_Zero_then_variadic_args_t@1@@Z
	??$?0$$V@?$_Compressed_pair@V?$allocator@D@std@@V?$_String_val@U?$_Simple_types@D@std@@@2@$00@std@@QEAA@U_Zero_then_variadic_args_t@1@@Z
	??$?0$$V@?$_Compressed_pair@V?$allocator@I@std@@V?$_Vector_val@U?$_Simple_types@I@std@@@2@$00@std@@QEAA@U_Zero_then_variadic_args_t@1@@Z
	??$?0$$V@?$_Compressed_pair@V?$allocator@U?$format_item@DU?$char_traits@D@std@@V?$allocator@D@2@@detail@io@boost@@@std@@V?$_Vector_val@U?$_Simple_types@U?$format_item@DU?$char_traits@D@std@@V?$allocator@D@2@@detail@io@boost@@@std@@@2@$00@std@@QEAA@U_Zero_then_variadic_args_t@1@@Z
	??$?0$$V@?$_Compressed_pair@V?$allocator@V?$basic_string@DU?$char_traits@D@std@@V?$allocator@D@2@@std@@@std@@V?$_Vector_val@U?$_Simple_types@V?$basic_string@DU?$char_traits@D@std@@V?$allocator@D@2@@std@@@std@@@2@$00@std@@QEAA@U_Zero_then_variadic_args_t@1@@Z
	??$?0AEAPEAV?$basic_altstringbuf@DU?$char_traits@D@std@@V?$allocator@D@2@@io@boost@@VNo_Op@?$basic_oaltstringstream@DU?$char_traits@D@std@@V?$allocator@D@2@@12@X@?$base_from_member@V?$shared_ptr@V?$basic_altstringbuf@DU?$char_traits@D@std@@V?$allocator@D@2@@io@boost@@@boost@@$0A@@boost@@IEAA@AEAPEAV?$basic_altstringbuf@DU?$char_traits@D@std@@V?$allocator@D@2@@io@1@$$QEAVNo_Op@?$basic_oaltstringstream@DU?$char_traits@D@std@@V?$allocator@D@2@@31@@Z
	??$?0AEAPEAV_Facet_base@std@@@?$_Compressed_pair@U?$default_delete@V_Facet_base@std@@@std@@PEAV_Facet_base@2@$00@std@@QEAA@U_Zero_then_variadic_args_t@1@AEAPEAV_Facet_base@1@@Z
	??$?0AEBV?$allocator@D@std@@$$V@?$_Compressed_pair@V?$allocator@D@std@@V?$_String_val@U?$_Simple_types@D@std@@@2@$00@std@@QEAA@U_One_then_variadic_args_t@1@AEBV?$allocator@D@1@@Z
	??$?0D@?$allocator@PEAD@std@@QEAA@AEBV?$allocator@D@1@@Z
	??$?0D@?$allocator@U_Container_proxy@std@@@std@@QEAA@AEBV?$allocator@D@1@@Z
	??$?0I@?$allocator@U_Container_proxy@std@@@std@@QEAA@AEBV?$allocator@I@1@@Z
	??$?0PEAV?$basic_altstringbuf@DU?$char_traits@D@std@@V?$allocator@D@2@@io@boost@@VNo_Op@?$basic_oaltstringstream@DU?$char_traits@D@std@@V?$allocator@D@2@@12@@shared_count@detail@boost@@QEAA@PEAV?$basic_altstringbuf@DU?$char_traits@D@std@@V?$allocator@D@2@@io@2@VNo_Op@?$basic_oaltstringstream@DU?$char_traits@D@std@@V?$allocator@D@2@@42@@Z
	??$?0PEBD@?$iterator_range@PEBD@boost@@QEAA@PEBD0@Z
	??$?0PEBD@?$iterator_range_base@PEBDUbidirectional_traversal_tag@iterators@boost@@@iterator_range_detail@boost@@IEAA@PEBD0@Z
	??$?0PEBD@?$iterator_range_base@PEBDUincrementable_traversal_tag@iterators@boost@@@iterator_range_detail@boost@@IEAA@PEBD0@Z
	??$?0PEBD@?$iterator_range_base@PEBDUrandom_access_traversal_tag@iterators@boost@@@iterator_range_detail@boost@@IEAA@PEBD0@Z
	??$?0U?$default_delete@V_Facet_base@std@@@std@@$0A@@?$unique_ptr@V_Facet_base@std@@U?$default_delete@V_Facet_base@std@@@2@@std@@QEAA@PEAV_Facet_base@1@@Z
	??$?0U?$format_item@DU?$char_traits@D@std@@V?$allocator@D@2@@detail@io@boost@@@?$allocator@U_Container_proxy@std@@@std@@QEAA@AEBV?$allocator@U?$format_item@DU?$char_traits@D@std@@V?$allocator@D@2@@detail@io@boost@@@1@@Z
	??$?0V?$_Deque_unchecked_iterator@V?$_Deque_val@U?$_Deque_simple_types@D@std@@@std@@@std@@$0A@@?$basic_string@DU?$char_traits@D@std@@V?$allocator@D@2@@std@@QEAA@V?$_Deque_unchecked_iterator@V?$_Deque_val@U?$_Deque_simple_types@D@std@@@std@@@1@0AEBV?$allocator@D@1@@Z
	??$?0V?$_String_const_iterator@V?$_String_val@U?$_Simple_types@D@std@@@std@@@std@@@?$iterator_range@V?$_String_const_iterator@V?$_String_val@U?$_Simple_types@D@std@@@std@@@std@@@boost@@QEAA@V?$_String_const_iterator@V?$_String_val@U?$_Simple_types@D@std@@@std@@@std@@0@Z
	??$?0V?$_String_const_iterator@V?$_String_val@U?$_Simple_types@D@std@@@std@@@std@@@?$iterator_range_base@V?$_String_const_iterator@V?$_String_val@U?$_Simple_types@D@std@@@std@@@std@@Ubidirectional_traversal_tag@iterators@boost@@@iterator_range_detail@boost@@IEAA@V?$_String_const_iterator@V?$_String_val@U?$_Simple_types@D@std@@@std@@@std@@0@Z
	??$?0V?$_String_const_iterator@V?$_String_val@U?$_Simple_types@D@std@@@std@@@std@@@?$iterator_range_base@V?$_String_const_iterator@V?$_String_val@U?$_Simple_types@D@std@@@std@@@std@@Uincrementable_traversal_tag@iterators@boost@@@iterator_range_detail@boost@@IEAA@V?$_String_const_iterator@V?$_String_val@U?$_Simple_types@D@std@@@std@@@std@@0@Z
	??$?0V?$_String_const_iterator@V?$_String_val@U?$_Simple_types@D@std@@@std@@@std@@@?$iterator_range_base@V?$_String_const_iterator@V?$_String_val@U?$_Simple_types@D@std@@@std@@@std@@Urandom_access_traversal_tag@iterators@boost@@@iterator_range_detail@boost@@IEAA@V?$_String_const_iterator@V?$_String_val@U?$_Simple_types@D@std@@@std@@@std@@0@Z
	??$?0V?$_String_iterator@V?$_String_val@U?$_Simple_types@D@std@@@std@@@std@@@?$iterator_range@V?$_String_iterator@V?$_String_val@U?$_Simple_types@D@std@@@std@@@std@@@boost@@QEAA@V?$_String_iterator@V?$_String_val@U?$_Simple_types@D@std@@@std@@@std@@0@Z
	??$?0V?$_String_iterator@V?$_String_val@U?$_Simple_types@D@std@@@std@@@std@@@?$iterator_range_base@V?$_String_iterator@V?$_String_val@U?$_Simple_types@D@std@@@std@@@std@@Ubidirectional_traversal_tag@iterators@boost@@@iterator_range_detail@boost@@IEAA@V?$_String_iterator@V?$_String_val@U?$_Simple_types@D@std@@@std@@@std@@0@Z
	??$?0V?$_String_iterator@V?$_String_val@U?$_Simple_types@D@std@@@std@@@std@@@?$iterator_range_base@V?$_String_iterator@V?$_String_val@U?$_Simple_types@D@std@@@std@@@std@@Uincrementable_traversal_tag@iterators@boost@@@iterator_range_detail@boost@@IEAA@V?$_String_iterator@V?$_String_val@U?$_Simple_types@D@std@@@std@@@std@@0@Z
	??$?0V?$_String_iterator@V?$_String_val@U?$_Simple_types@D@std@@@std@@@std@@@?$iterator_range_base@V?$_String_iterator@V?$_String_val@U?$_Simple_types@D@std@@@std@@@std@@Urandom_access_traversal_tag@iterators@boost@@@iterator_range_detail@boost@@IEAA@V?$_String_iterator@V?$_String_val@U?$_Simple_types@D@std@@@std@@@std@@0@Z
	??$?0V?$allocator@D@std@@$$V@?$_Compressed_pair@V?$allocator@D@std@@V?$_String_val@U?$_Simple_types@D@std@@@2@$00@std@@QEAA@U_One_then_variadic_args_t@1@$$QEAV?$allocator@D@1@@Z
	??$?0V?$allocator@V?$basic_string@DU?$char_traits@D@std@@V?$allocator@D@2@@std@@@std@@$$V@?$_Compressed_pair@V?$allocator@V?$basic_string@DU?$char_traits@D@std@@V?$allocator@D@2@@std@@@std@@V?$_Vector_val@U?$_Simple_types@V?$basic_string@DU?$char_traits@D@std@@V?$allocator@D@2@@std@@@std@@@2@$00@std@@QEAA@U_One_then_variadic_args_t@1@$$QEAV?$allocator@V?$basic_string@DU?$char_traits@D@std@@V?$allocator@D@2@@std@@@1@@Z
	??$?0V?$basic_altstringbuf@DU?$char_traits@D@std@@V?$allocator@D@2@@io@boost@@VNo_Op@?$basic_oaltstringstream@DU?$char_traits@D@std@@V?$allocator@D@2@@12@@?$shared_ptr@V?$basic_altstringbuf@DU?$char_traits@D@std@@V?$allocator@D@2@@io@boost@@@boost@@QEAA@PEAV?$basic_altstringbuf@DU?$char_traits@D@std@@V?$allocator@D@2@@io@1@VNo_Op@?$basic_oaltstringstream@DU?$char_traits@D@std@@V?$allocator@D@2@@31@@Z
	??$?0V?$basic_string@DU?$char_traits@D@std@@V?$allocator@D@2@@std@@@?$allocator@U_Container_proxy@std@@@std@@QEAA@AEBV?$allocator@V?$basic_string@DU?$char_traits@D@std@@V?$allocator@D@2@@std@@@1@@Z
	??$?0V?$basic_string@DU?$char_traits@D@std@@V?$allocator@D@2@@std@@@?$iterator_range@V?$_String_const_iterator@V?$_String_val@U?$_Simple_types@D@std@@@std@@@std@@@boost@@QEAA@AEBV?$basic_string@DU?$char_traits@D@std@@V?$allocator@D@2@@std@@Uconst_range_tag@iterator_range_detail@1@@Z
	??$?0V?$date_facet@Vdate@gregorian@boost@@DV?$ostreambuf_iterator@DU?$char_traits@D@std@@@std@@@date_time@boost@@@locale@std@@QEAA@AEBV01@PEBV?$date_facet@Vdate@gregorian@boost@@DV?$ostreambuf_iterator@DU?$char_traits@D@std@@@std@@@date_time@boost@@@Z
	??$?0V?$iterator_range@PEBD@boost@@@?$first_finderF@PEBDUis_equal@algorithm@boost@@@detail@algorithm@boost@@QEAA@AEBV?$iterator_range@PEBD@3@Uis_equal@23@@Z
	??$?0V?$iterator_range@PEBD@boost@@@?$iterator_range@PEBD@boost@@QEAA@AEBV01@Uconst_range_tag@iterator_range_detail@1@@Z
	??$?0V?$iterator_range@V?$_String_const_iterator@V?$_String_val@U?$_Simple_types@D@std@@@std@@@std@@@boost@@@?$first_finderF@V?$_String_const_iterator@V?$_String_val@U?$_Simple_types@D@std@@@std@@@std@@Uis_equal@algorithm@boost@@@detail@algorithm@boost@@QEAA@AEBV?$iterator_range@V?$_String_const_iterator@V?$_String_val@U?$_Simple_types@D@std@@@std@@@std@@@3@Uis_equal@23@@Z
	??$?0V?$iterator_range@V?$_String_iterator@V?$_String_val@U?$_Simple_types@D@std@@@std@@@std@@@boost@@@?$iterator_range@V?$_String_const_iterator@V?$_String_val@U?$_Simple_types@D@std@@@std@@@std@@@boost@@QEAA@AEAV?$iterator_range@V?$_String_iterator@V?$_String_val@U?$_Simple_types@D@std@@@std@@@std@@@1@PEAX@Z
	??$?0V?$iterator_range@V?$_String_iterator@V?$_String_val@U?$_Simple_types@D@std@@@std@@@std@@@boost@@@?$iterator_range@V?$_String_iterator@V?$_String_val@U?$_Simple_types@D@std@@@std@@@std@@@boost@@QEAA@AEAV01@PEAX@Z
	??$?0V?$time_facet@Vptime@posix_time@boost@@DV?$ostreambuf_iterator@DU?$char_traits@D@std@@@std@@@date_time@boost@@@locale@std@@QEAA@AEBV01@PEBV?$time_facet@Vptime@posix_time@boost@@DV?$ostreambuf_iterator@DU?$char_traits@D@std@@@std@@@date_time@boost@@@Z
	??$?4V?$_String_iterator@V?$_String_val@U?$_Simple_types@D@std@@@std@@@std@@@?$iterator_range@V?$_String_iterator@V?$_String_val@U?$_Simple_types@D@std@@@std@@@std@@@boost@@QEAAAEAV01@AEAV01@@Z
	??$?4V?$iterator_range@V?$_String_iterator@V?$_String_val@U?$_Simple_types@D@std@@@std@@@std@@@boost@@@?$find_format_store@V?$_String_iterator@V?$_String_val@U?$_Simple_types@D@std@@@std@@@std@@U?$const_formatF@V?$iterator_range@PEBD@boost@@@detail@algorithm@boost@@V?$iterator_range@PEBD@6@@detail@algorithm@boost@@QEAAAEAV0123@V?$iterator_range@V?$_String_iterator@V?$_String_val@U?$_Simple_types@D@std@@@std@@@std@@@3@@Z
	??$?4V?$iterator_range@V?$_String_iterator@V?$_String_val@U?$_Simple_types@D@std@@@std@@@std@@@boost@@@?$find_format_store@V?$_String_iterator@V?$_String_val@U?$_Simple_types@D@std@@@std@@@std@@U?$const_formatF@V?$iterator_range@V?$_String_const_iterator@V?$_String_val@U?$_Simple_types@D@std@@@std@@@std@@@boost@@@detail@algorithm@boost@@V?$iterator_range@V?$_String_const_iterator@V?$_String_val@U?$_Simple_types@D@std@@@std@@@std@@@6@@detail@algorithm@boost@@QEAAAEAV0123@V?$iterator_range@V?$_String_iterator@V?$_String_val@U?$_Simple_types@D@std@@@std@@@std@@@3@@Z
	??$?4V?$iterator_range@V?$_String_iterator@V?$_String_val@U?$_Simple_types@D@std@@@std@@@std@@@boost@@@?$find_format_store@V?$_String_iterator@V?$_String_val@U?$_Simple_types@D@std@@@std@@@std@@U?$empty_formatF@D@detail@algorithm@boost@@U?$empty_container@D@456@@detail@algorithm@boost@@QEAAAEAV0123@V?$iterator_range@V?$_String_iterator@V?$_String_val@U?$_Simple_types@D@std@@@std@@@std@@@3@@Z
	??$?6DU?$char_traits@D@std@@@gregorian@boost@@YAAEAV?$basic_ostream@DU?$char_traits@D@std@@@std@@AEAV23@AEBVdate@01@@Z
	??$?6DU?$char_traits@D@std@@@posix_time@boost@@YAAEAV?$basic_ostream@DU?$char_traits@D@std@@@std@@AEAV23@AEBVptime@01@@Z
	??$?6DU?$char_traits@D@std@@D@std@@YAAEAV?$basic_ostream@DU?$char_traits@D@std@@@0@AEAV10@AEBU?$_Fillobj@D@0@@Z
	??$?6DU?$char_traits@D@std@@V?$allocator@D@1@@boost@@YAAEAV?$basic_ostream@DU?$char_traits@D@std@@@std@@AEAV12@AEBV?$basic_format@DU?$char_traits@D@std@@V?$allocator@D@2@@0@@Z
	??$?6DU?$char_traits@D@std@@V?$allocator@D@1@@std@@YAAEAV?$basic_ostream@DU?$char_traits@D@std@@@0@AEAV10@AEBV?$basic_string@DU?$char_traits@D@std@@V?$allocator@D@2@@0@@Z
	??$?6DU?$char_traits@D@std@@_J@std@@YAAEAV?$basic_ostream@DU?$char_traits@D@std@@@0@AEAV10@AEBU?$_Smanip@_J@0@@Z
	??$?6U?$char_traits@D@std@@@std@@YAAEAV?$basic_ostream@DU?$char_traits@D@std@@@0@AEAV10@D@Z
	??$?6U?$char_traits@D@std@@@std@@YAAEAV?$basic_ostream@DU?$char_traits@D@std@@@0@AEAV10@PEBD@Z
	??$?GI@?$int_adapter@I@date_time@boost@@QEBA?AV012@AEBV012@@Z
	??$?HDU?$char_traits@D@std@@V?$allocator@D@1@@std@@YA?AV?$basic_string@DU?$char_traits@D@std@@V?$allocator@D@2@@0@$$QEAV10@QEBD@Z
	??$?LI@?$basic_format@DU?$char_traits@D@std@@V?$allocator@D@2@@boost@@QEAAAEAV01@AEBI@Z
	??$?LN@?$basic_format@DU?$char_traits@D@std@@V?$allocator@D@2@@boost@@QEAAAEAV01@AEBN@Z
	??$?RDD@is_equal@algorithm@boost@@QEBA_NAEBD0@Z
	??$?RPEAV?$basic_altstringbuf@DU?$char_traits@D@std@@V?$allocator@D@2@@io@boost@@@No_Op@?$basic_oaltstringstream@DU?$char_traits@D@std@@V?$allocator@D@2@@io@boost@@QEAAAEBQEAV?$basic_altstringbuf@DU?$char_traits@D@std@@V?$allocator@D@2@@23@AEBQEAV423@@Z
	??$?RV?$_String_iterator@V?$_String_val@U?$_Simple_types@D@std@@@std@@@std@@@?$first_finderF@PEBDUis_equal@algorithm@boost@@@detail@algorithm@boost@@QEBA?AV?$iterator_range@V?$_String_iterator@V?$_String_val@U?$_Simple_types@D@std@@@std@@@std@@@3@V?$_String_iterator@V?$_String_val@U?$_Simple_types@D@std@@@std@@@std@@0@Z
	??$?RV?$_String_iterator@V?$_String_val@U?$_Simple_types@D@std@@@std@@@std@@@?$first_finderF@V?$_String_const_iterator@V?$_String_val@U?$_Simple_types@D@std@@@std@@@std@@Uis_equal@algorithm@boost@@@detail@algorithm@boost@@QEBA?AV?$iterator_range@V?$_String_iterator@V?$_String_val@U?$_Simple_types@D@std@@@std@@@std@@@3@V?$_String_iterator@V?$_String_val@U?$_Simple_types@D@std@@@std@@@std@@0@Z
	??$?RV?$deque@DV?$allocator@D@std@@@std@@V?$basic_string@DU?$char_traits@D@std@@V?$allocator@D@2@@1@V?$_String_iterator@V?$_String_val@U?$_Simple_types@D@std@@@std@@@1@@?$process_segment_helper@$0A@@detail@algorithm@boost@@QEAA?AV?$_String_iterator@V?$_String_val@U?$_Simple_types@D@std@@@std@@@std@@AEAV?$deque@DV?$allocator@D@std@@@5@AEAV?$basic_string@DU?$char_traits@D@std@@V?$allocator@D@2@@5@V45@22@Z
	??$?RV?$iterator_range@V?$_String_iterator@V?$_String_val@U?$_Simple_types@D@std@@@std@@@std@@@boost@@@?$const_formatF@V?$iterator_range@PEBD@boost@@@detail@algorithm@boost@@QEBAAEBV?$iterator_range@PEBD@3@AEBV?$iterator_range@V?$_String_iterator@V?$_String_val@U?$_Simple_types@D@std@@@std@@@std@@@3@@Z
	??$?RV?$iterator_range@V?$_String_iterator@V?$_String_val@U?$_Simple_types@D@std@@@std@@@std@@@boost@@@?$const_formatF@V?$iterator_range@V?$_String_const_iterator@V?$_String_val@U?$_Simple_types@D@std@@@std@@@std@@@boost@@@detail@algorithm@boost@@QEBAAEBV?$iterator_range@V?$_String_const_iterator@V?$_String_val@U?$_Simple_types@D@std@@@std@@@std@@@3@AEBV?$iterator_range@V?$_String_iterator@V?$_String_val@U?$_Simple_types@D@std@@@std@@@std@@@3@@Z
	??$?RV?$iterator_range@V?$_String_iterator@V?$_String_val@U?$_Simple_types@D@std@@@std@@@std@@@boost@@@?$empty_formatF@D@detail@algorithm@boost@@QEBA?AU?$empty_container@D@123@AEBV?$iterator_range@V?$_String_iterator@V?$_String_val@U?$_Simple_types@D@std@@@std@@@std@@@3@@Z
	??$_Adl_verify_range@PEAPEADPEAPEAD@std@@YAXAEBQEAPEAD0@Z
	??$_Adl_verify_range@PEAU?$format_item@DU?$char_traits@D@std@@V?$allocator@D@2@@detail@io@boost@@PEAU1234@@std@@YAXAEBQEAU?$format_item@DU?$char_traits@D@std@@V?$allocator@D@2@@detail@io@boost@@0@Z
	??$_Adl_verify_range@PEAY0BB@$$CBDPEAY0BB@$$CBD@std@@YAXAEBQEAY0BB@$$CBD0@Z
	??$_Adl_verify_range@PEBDPEBD@std@@YAXAEBQEBD0@Z
	??$_Adl_verify_range@V?$_Deque_iterator@V?$_Deque_val@U?$_Deque_simple_types@D@std@@@std@@@std@@V12@@std@@YAXAEBV?$_Deque_iterator@V?$_Deque_val@U?$_Deque_simple_types@D@std@@@std@@@0@0@Z
	??$_Adl_verify_range@V?$_Deque_unchecked_iterator@V?$_Deque_val@U?$_Deque_simple_types@D@std@@@std@@@std@@V12@@std@@YAXAEBV?$_Deque_unchecked_iterator@V?$_Deque_val@U?$_Deque_simple_types@D@std@@@std@@@0@0@Z
	??$_Adl_verify_range@V?$_String_const_iterator@V?$_String_val@U?$_Simple_types@D@std@@@std@@@std@@V12@@std@@YAXAEBV?$_String_const_iterator@V?$_String_val@U?$_Simple_types@D@std@@@std@@@0@0@Z
	??$_Adl_verify_range@V?$_String_iterator@V?$_String_val@U?$_Simple_types@D@std@@@std@@@std@@V12@@std@@YAXAEBV?$_String_iterator@V?$_String_val@U?$_Simple_types@D@std@@@std@@@0@0@Z
	??$_Adl_verify_range@V?$_Vb_iterator@U?$_Wrap_alloc@V?$allocator@I@std@@@std@@@std@@V12@@std@@YAXAEBV?$_Vb_iterator@U?$_Wrap_alloc@V?$allocator@I@std@@@std@@@0@0@Z
	??$_Alloc_proxy@V?$allocator@U_Container_proxy@std@@@std@@@_Container_base12@std@@QEAAX$$QEAV?$allocator@U_Container_proxy@std@@@1@@Z
	??$_Allocate@$0BA@U_Default_allocate_traits@std@@$0A@@std@@YAPEAX_K@Z
	??$_Allocate_manually_vector_aligned@U_Default_allocate_traits@std@@@std@@YAPEAX_K@Z
	??$_Atomic_address_as@JU?$_Atomic_padded@H@std@@@std@@YAPECJAEAU?$_Atomic_padded@H@0@@Z
	??$_Construct@$00PEBD@?$basic_string@DU?$char_traits@D@std@@V?$allocator@D@2@@std@@AEAAXQEBD_K@Z
	??$_Construct@$01PEBD@?$basic_string@DU?$char_traits@D@std@@V?$allocator@D@2@@std@@AEAAXQEBD_K@Z
	??$_Construct_from_iter@V?$_Deque_unchecked_iterator@V?$_Deque_val@U?$_Deque_simple_types@D@std@@@std@@@std@@@?$basic_string@DU?$char_traits@D@std@@V?$allocator@D@2@@std@@AEAAXV?$_Deque_unchecked_iterator@V?$_Deque_val@U?$_Deque_simple_types@D@std@@@std@@@1@V21@@Z
	??$_Construct_in_place@PEADAEAPEAD@std@@YAXAEAPEAD0@Z
	??$_Construct_in_place@PEADAEBQEAD@std@@YAXAEAPEADAEBQEAD@Z
	??$_Construct_in_place@U_Container_proxy@std@@PEAU_Container_base12@2@@std@@YAXAEAU_Container_proxy@0@$$QEAPEAU_Container_base12@0@@Z
	??$_Construct_in_place@V?$basic_string@DU?$char_traits@D@std@@V?$allocator@D@2@@std@@V12@@std@@YAXAEAV?$basic_string@DU?$char_traits@D@std@@V?$allocator@D@2@@0@$$QEAV10@@Z
	??$_Construct_n@AEBQEAV?$basic_string@DU?$char_traits@D@std@@V?$allocator@D@2@@std@@AEBQEAV12@@?$vector@V?$basic_string@DU?$char_traits@D@std@@V?$allocator@D@2@@std@@V?$allocator@V?$basic_string@DU?$char_traits@D@std@@V?$allocator@D@2@@std@@@2@@std@@AEAAX_KAEBQEAV?$basic_string@DU?$char_traits@D@std@@V?$allocator@D@2@@1@1@Z
	??$_Convert_size@_K@std@@YA_K_K@Z
	??$_Copy_backward_unchecked@V?$_Vb_iterator@U?$_Wrap_alloc@V?$allocator@I@std@@@std@@@std@@V12@@std@@YA?AV?$_Vb_iterator@U?$_Wrap_alloc@V?$allocator@I@std@@@std@@@0@V10@00@Z
	??$_Copy_memmove@PEADPEAD@std@@YAPEADPEAD00@Z
	??$_Copy_memmove@PEAIPEAI@std@@YAPEAIPEAI00@Z
	??$_Copy_memmove@PEAPEADPEAPEAD@std@@YAPEAPEADPEAPEAD00@Z
	??$_Copy_unchecked@PEADPEAD@std@@YAPEADPEAD00@Z
	??$_Copy_unchecked@PEAY0BB@$$CBDV?$back_insert_iterator@V?$vector@V?$basic_string@DU?$char_traits@D@std@@V?$allocator@D@2@@std@@V?$allocator@V?$basic_string@DU?$char_traits@D@std@@V?$allocator@D@2@@std@@@2@@std@@@std@@@std@@YA?AV?$back_insert_iterator@V?$vector@V?$basic_string@DU?$char_traits@D@std@@V?$allocator@D@2@@std@@V?$allocator@V?$basic_string@DU?$char_traits@D@std@@V?$allocator@D@2@@std@@@2@@std@@@0@PEAY0BB@$$CBD0V10@@Z
	??$_Copy_unchecked@PEBDV?$ostreambuf_iterator@DU?$char_traits@D@std@@@std@@@std@@YA?AV?$ostreambuf_iterator@DU?$char_traits@D@std@@@0@PEBD0V10@@Z
	??$_Copy_unchecked@V?$_Vb_iterator@U?$_Wrap_alloc@V?$allocator@I@std@@@std@@@std@@V12@@std@@YA?AV?$_Vb_iterator@U?$_Wrap_alloc@V?$allocator@I@std@@@std@@@0@V10@00@Z
	??$_Deallocate@$0BA@$0A@@std@@YAXPEAX_K@Z
	??$_Deallocate_plain@V?$allocator@U_Container_proxy@std@@@std@@@std@@YAXAEAV?$allocator@U_Container_proxy@std@@@0@QEAU_Container_proxy@0@@Z
	??$_Delete_plain_internal@V?$allocator@U_Container_proxy@std@@@std@@@std@@YAXAEAV?$allocator@U_Container_proxy@std@@@0@QEAU_Container_proxy@0@@Z
	??$_Destroy_in_place@PEAD@std@@YAXAEAPEAD@Z
	??$_Destroy_range@PEAPEADPEAPEAD@std@@YAXPEAPEADQEAPEAD@Z
	??$_Destroy_range@V?$allocator@I@std@@@std@@YAXPEAIQEAIAEAV?$allocator@I@0@@Z
	??$_Destroy_range@V?$allocator@U?$format_item@DU?$char_traits@D@std@@V?$allocator@D@2@@detail@io@boost@@@std@@@std@@YAXPEAU?$format_item@DU?$char_traits@D@std@@V?$allocator@D@2@@detail@io@boost@@QEAU1234@AEAV?$allocator@U?$format_item@DU?$char_traits@D@std@@V?$allocator@D@2@@detail@io@boost@@@0@@Z
	??$_Destroy_range@V?$allocator@V?$basic_string@DU?$char_traits@D@std@@V?$allocator@D@2@@std@@@std@@@std@@YAXPEAV?$basic_string@DU?$char_traits@D@std@@V?$allocator@D@2@@0@QEAV10@AEAV?$allocator@V?$basic_string@DU?$char_traits@D@std@@V?$allocator@D@2@@std@@@0@@Z
	??$_Emplace_back@AEAPEAD@?$_Uninitialized_backout@PEAPEAD@std@@QEAAXAEAPEAD@Z
	??$_Emplace_back@AEAV?$basic_string@DU?$char_traits@D@std@@V?$allocator@D@2@@std@@@?$_Uninitialized_backout_al@V?$allocator@V?$basic_string@DU?$char_traits@D@std@@V?$allocator@D@2@@std@@@std@@@std@@QEAAXAEAV?$basic_string@DU?$char_traits@D@std@@V?$allocator@D@2@@1@@Z
	??$_Emplace_back@AEBI@?$_Uninitialized_backout_al@V?$allocator@I@std@@@std@@QEAAXAEBI@Z
	??$_Emplace_back@AEBU?$format_item@DU?$char_traits@D@std@@V?$allocator@D@2@@detail@io@boost@@@?$_Uninitialized_backout_al@V?$allocator@U?$format_item@DU?$char_traits@D@std@@V?$allocator@D@2@@detail@io@boost@@@std@@@std@@QEAAXAEBU?$format_item@DU?$char_traits@D@std@@V?$allocator@D@2@@detail@io@boost@@@Z
	??$_Emplace_back@I@?$_Uninitialized_backout_al@V?$allocator@I@std@@@std@@QEAAX$$QEAI@Z
	??$_Emplace_back@U?$format_item@DU?$char_traits@D@std@@V?$allocator@D@2@@detail@io@boost@@@?$_Uninitialized_backout_al@V?$allocator@U?$format_item@DU?$char_traits@D@std@@V?$allocator@D@2@@detail@io@boost@@@std@@@std@@QEAAX$$QEAU?$format_item@DU?$char_traits@D@std@@V?$allocator@D@2@@detail@io@boost@@@Z
	??$_Emplace_back@V?$basic_string@DU?$char_traits@D@std@@V?$allocator@D@2@@std@@@?$_Uninitialized_backout_al@V?$allocator@V?$basic_string@DU?$char_traits@D@std@@V?$allocator@D@2@@std@@@std@@@std@@QEAAX$$QEAV?$basic_string@DU?$char_traits@D@std@@V?$allocator@D@2@@1@@Z
	??$_Emplace_back_internal@AEBD@?$deque@DV?$allocator@D@std@@@std@@AEAAXAEBD@Z
	??$_Emplace_back_with_unused_capacity@V?$basic_string@DU?$char_traits@D@std@@V?$allocator@D@2@@std@@@?$vector@V?$basic_string@DU?$char_traits@D@std@@V?$allocator@D@2@@std@@V?$allocator@V?$basic_string@DU?$char_traits@D@std@@V?$allocator@D@2@@std@@@2@@std@@AEAAAEAV?$basic_string@DU?$char_traits@D@std@@V?$allocator@D@2@@1@$$QEAV21@@Z
	??$_Emplace_one_at_back@V?$basic_string@DU?$char_traits@D@std@@V?$allocator@D@2@@std@@@?$vector@V?$basic_string@DU?$char_traits@D@std@@V?$allocator@D@2@@std@@V?$allocator@V?$basic_string@DU?$char_traits@D@std@@V?$allocator@D@2@@std@@@2@@std@@AEAAAEAV?$basic_string@DU?$char_traits@D@std@@V?$allocator@D@2@@1@$$QEAV21@@Z
	??$_Emplace_reallocate@V?$basic_string@DU?$char_traits@D@std@@V?$allocator@D@2@@std@@@?$vector@V?$basic_string@DU?$char_traits@D@std@@V?$allocator@D@2@@std@@V?$allocator@V?$basic_string@DU?$char_traits@D@std@@V?$allocator@D@2@@std@@@2@@std@@AEAAPEAV?$basic_string@DU?$char_traits@D@std@@V?$allocator@D@2@@1@QEAV21@$$QEAV21@@Z
	??$_Fill_vbool@V?$_Vb_iterator@U?$_Wrap_alloc@V?$allocator@I@std@@@std@@@std@@@std@@YAXV?$_Vb_iterator@U?$_Wrap_alloc@V?$allocator@I@std@@@std@@@0@V10@_N@Z
	??$_Fill_zero_memset@PEAI@std@@YAXPEAI_K@Z
	??$_Get_size_of_n@$00@std@@YA_K_K@Z
	??$_Get_size_of_n@$03@std@@YA_K_K@Z
	??$_Get_size_of_n@$07@std@@YA_K_K@Z
	??$_Get_size_of_n@$0BA@@std@@YA_K_K@Z
	??$_Get_size_of_n@$0CI@@std@@YA_K_K@Z
	??$_Get_size_of_n@$0KA@@std@@YA_K_K@Z
	??$_Get_unwrapped@AEAPEAY0BB@$$CBD@std@@YA?A_TAEAPEAY0BB@$$CBD@Z
	??$_Get_unwrapped@AEAPEBD@std@@YA?A_TAEAPEBD@Z
	??$_Get_unwrapped@AEAV?$_Deque_iterator@V?$_Deque_val@U?$_Deque_simple_types@D@std@@@std@@@std@@@std@@YA?A_TAEAV?$_Deque_iterator@V?$_Deque_val@U?$_Deque_simple_types@D@std@@@std@@@0@@Z
	??$_Get_unwrapped@AEAV?$_Deque_unchecked_iterator@V?$_Deque_val@U?$_Deque_simple_types@D@std@@@std@@@std@@@std@@YA?A_TAEAV?$_Deque_unchecked_iterator@V?$_Deque_val@U?$_Deque_simple_types@D@std@@@std@@@0@@Z
	??$_Get_unwrapped@AEAV?$_String_const_iterator@V?$_String_val@U?$_Simple_types@D@std@@@std@@@std@@@std@@YA?A_TAEAV?$_String_const_iterator@V?$_String_val@U?$_Simple_types@D@std@@@std@@@0@@Z
	??$_Get_unwrapped@AEAV?$_String_iterator@V?$_String_val@U?$_Simple_types@D@std@@@std@@@std@@@std@@YA?A_TAEAV?$_String_iterator@V?$_String_val@U?$_Simple_types@D@std@@@std@@@0@@Z
	??$_Get_unwrapped@AEAV?$_Vb_iterator@U?$_Wrap_alloc@V?$allocator@I@std@@@std@@@std@@@std@@YA?A_TAEAV?$_Vb_iterator@U?$_Wrap_alloc@V?$allocator@I@std@@@std@@@0@@Z
	??$_Get_unwrapped@AEBQEAI@std@@YA?A_TAEBQEAI@Z
	??$_Get_unwrapped@AEBQEAPEAD@std@@YA?A_TAEBQEAPEAD@Z
	??$_Get_unwrapped@AEBQEAU?$format_item@DU?$char_traits@D@std@@V?$allocator@D@2@@detail@io@boost@@@std@@YA?A_TAEBQEAU?$format_item@DU?$char_traits@D@std@@V?$allocator@D@2@@detail@io@boost@@@Z
	??$_Get_unwrapped@AEBQEAV?$basic_string@DU?$char_traits@D@std@@V?$allocator@D@2@@std@@@std@@YA?A_TAEBQEAV?$basic_string@DU?$char_traits@D@std@@V?$allocator@D@2@@0@@Z
	??$_Get_unwrapped@AEBV?$_Deque_iterator@V?$_Deque_val@U?$_Deque_simple_types@D@std@@@std@@@std@@@std@@YA?A_TAEBV?$_Deque_iterator@V?$_Deque_val@U?$_Deque_simple_types@D@std@@@std@@@0@@Z
	??$_Get_unwrapped@AEBV?$_Deque_unchecked_iterator@V?$_Deque_val@U?$_Deque_simple_types@D@std@@@std@@@std@@@std@@YA?A_TAEBV?$_Deque_unchecked_iterator@V?$_Deque_val@U?$_Deque_simple_types@D@std@@@std@@@0@@Z
	??$_Get_unwrapped@AEBV?$_String_const_iterator@V?$_String_val@U?$_Simple_types@D@std@@@std@@@std@@@std@@YA?A_TAEBV?$_String_const_iterator@V?$_String_val@U?$_Simple_types@D@std@@@std@@@0@@Z
	??$_Get_unwrapped_n@AEAPEAPEAD_J@std@@YA?A_TAEAPEAPEAD_J@Z
	??$_Get_unwrapped_n@AEAV?$_String_iterator@V?$_String_val@U?$_Simple_types@D@std@@@std@@@std@@_J@std@@YA?A_TAEAV?$_String_iterator@V?$_String_val@U?$_Simple_types@D@std@@@std@@@0@_J@Z
	??$_Get_unwrapped_n@AEAV?$_Vb_iterator@U?$_Wrap_alloc@V?$allocator@I@std@@@std@@@std@@_J@std@@YA?A_TAEAV?$_Vb_iterator@U?$_Wrap_alloc@V?$allocator@I@std@@@std@@@0@_J@Z
	??$_Get_unwrapped_n@AEAV?$back_insert_iterator@V?$vector@V?$basic_string@DU?$char_traits@D@std@@V?$allocator@D@2@@std@@V?$allocator@V?$basic_string@DU?$char_traits@D@std@@V?$allocator@D@2@@std@@@2@@std@@@std@@_J@std@@YA?A_TAEAV?$back_insert_iterator@V?$vector@V?$basic_string@DU?$char_traits@D@std@@V?$allocator@D@2@@std@@V?$allocator@V?$basic_string@DU?$char_traits@D@std@@V?$allocator@D@2@@std@@@2@@std@@@0@_J@Z
	??$_Get_unwrapped_n@AEAV?$ostreambuf_iterator@DU?$char_traits@D@std@@@std@@_J@std@@YA?A_TAEAV?$ostreambuf_iterator@DU?$char_traits@D@std@@@0@_J@Z
	??$_Getvals@D@?$numpunct@D@std@@IEAAXDPEBUlconv@@U_Cvtvec@@@Z
	??$_Getvals@_W@?$time_get@DV?$istreambuf_iterator@DU?$char_traits@D@std@@@std@@@std@@IEAAX_WAEBV_Locinfo@1@@Z
	??$_Getvals@_W@?$time_get@_WV?$istreambuf_iterator@_WU?$char_traits@_W@std@@@std@@@std@@IEAAX_WAEBV_Locinfo@1@@Z
	??$_Idl_distance@PEAPEADPEAPEAD@std@@YA?A_PAEBQEAPEAD0@Z
	??$_Idl_distance@PEAY0BB@$$CBDPEAY0BB@$$CBD@std@@YA?A_PAEBQEAY0BB@$$CBD0@Z
	??$_Idl_distance@V?$_String_const_iterator@V?$_String_val@U?$_Simple_types@D@std@@@std@@@std@@PEBD@std@@YA?A_PAEBQEBD0@Z
	??$_Idl_distance@V?$_String_iterator@V?$_String_val@U?$_Simple_types@D@std@@@std@@@std@@PEAD@std@@YA?A_PAEBQEAD0@Z
	??$_Idl_distance@V?$_Vb_iterator@U?$_Wrap_alloc@V?$allocator@I@std@@@std@@@std@@V12@@std@@YA?A_PAEBV?$_Vb_iterator@U?$_Wrap_alloc@V?$allocator@I@std@@@std@@@0@0@Z
	??$_Insert_string@DU?$char_traits@D@std@@_K@std@@YAAEAV?$basic_ostream@DU?$char_traits@D@std@@@0@AEAV10@QEBD_K@Z
	??$_Is_all_bits_zero@I@std@@YA_NAEBI@Z
	??$_Maklocchr@D@std@@YADDPEADAEBU_Cvtvec@@@Z
	??$_Maklocstr@D@std@@YAPEADPEBDPEADAEBU_Cvtvec@@@Z
	??$_Maklocstr@_W@std@@YAPEA_WPEBDPEA_WAEBU_Cvtvec@@@Z
	??$_Move_unchecked@PEAIPEAI@std@@YAPEAIPEAI00@Z
	??$_Pocca@V?$allocator@D@std@@@std@@YAXAEAV?$allocator@D@0@AEBV10@@Z
	??$_Pocma@V?$allocator@D@std@@@std@@YAXAEAV?$allocator@D@0@0@Z
	??$_Reallocate_for@V<lambda_66f57f934f28d61049862f64df852ff0>@@PEBD@?$basic_string@DU?$char_traits@D@std@@V?$allocator@D@2@@std@@AEAAAEAV01@_KV<lambda_66f57f934f28d61049862f64df852ff0>@@PEBD@Z
	??$_Reallocate_grow_by@V<lambda_319d5e083f45f90dcdce5dce53cbb275>@@D@?$basic_string@DU?$char_traits@D@std@@V?$allocator@D@2@@std@@AEAAAEAV01@_KV<lambda_319d5e083f45f90dcdce5dce53cbb275>@@D@Z
	??$_Reallocate_grow_by@V<lambda_65e615be2a453ca0576c979606f46740>@@PEBD_K@?$basic_string@DU?$char_traits@D@std@@V?$allocator@D@2@@std@@AEAAAEAV01@_KV<lambda_65e615be2a453ca0576c979606f46740>@@PEBD_K@Z
	??$_Reallocate_grow_by@V<lambda_9013ee9e23efe4882b67eff5b0ecf103>@@$$V@?$basic_string@DU?$char_traits@D@std@@V?$allocator@D@2@@std@@AEAAAEAV01@_KV<lambda_9013ee9e23efe4882b67eff5b0ecf103>@@@Z
	??$_Reallocate_grow_by@V<lambda_e1befb086ad3257e3f042a63030725f7>@@_KD@?$basic_string@DU?$char_traits@D@std@@V?$allocator@D@2@@std@@AEAAAEAV01@_KV<lambda_e1befb086ad3257e3f042a63030725f7>@@_KD@Z
	??$_Reallocate_grow_by@V<lambda_f3a66ab6a0570788f31503db83886f49>@@_KPEBD_K@?$basic_string@DU?$char_traits@D@std@@V?$allocator@D@2@@std@@AEAAAEAV01@_KV<lambda_f3a66ab6a0570788f31503db83886f49>@@_KPEBD2@Z
	??$_Refancy@PEAD$0A@@std@@YAPEADPEAD@Z
	??$_Refancy@PEBD$0A@@std@@YAPEBDPEBD@Z
	??$_Resize@I@?$vector@IV?$allocator@I@std@@@std@@AEAAX_KAEBI@Z
	??$_Resize@U?$format_item@DU?$char_traits@D@std@@V?$allocator@D@2@@detail@io@boost@@@?$vector@U?$format_item@DU?$char_traits@D@std@@V?$allocator@D@2@@detail@io@boost@@V?$allocator@U?$format_item@DU?$char_traits@D@std@@V?$allocator@D@2@@detail@io@boost@@@std@@@std@@AEAAX_KAEBU?$format_item@DU?$char_traits@D@std@@V?$allocator@D@2@@detail@io@boost@@@Z
	??$_Resize_reallocate@I@?$vector@IV?$allocator@I@std@@@std@@AEAAX_KAEBI@Z
	??$_Resize_reallocate@U?$format_item@DU?$char_traits@D@std@@V?$allocator@D@2@@detail@io@boost@@@?$vector@U?$format_item@DU?$char_traits@D@std@@V?$allocator@D@2@@detail@io@boost@@V?$allocator@U?$format_item@DU?$char_traits@D@std@@V?$allocator@D@2@@detail@io@boost@@@std@@@std@@AEAAX_KAEBU?$format_item@DU?$char_traits@D@std@@V?$allocator@D@2@@detail@io@boost@@@Z
	??$_Seek_wrapped@PEAPEADPEAPEAD@std@@YAXAEAPEAPEAD$$QEAPEAPEAD@Z
	??$_Seek_wrapped@V?$_Deque_iterator@V?$_Deque_val@U?$_Deque_simple_types@D@std@@@std@@@std@@V?$_Deque_unchecked_iterator@V?$_Deque_val@U?$_Deque_simple_types@D@std@@@std@@@2@@std@@YAXAEAV?$_Deque_iterator@V?$_Deque_val@U?$_Deque_simple_types@D@std@@@std@@@0@$$QEAV?$_Deque_unchecked_iterator@V?$_Deque_val@U?$_Deque_simple_types@D@std@@@std@@@0@@Z
	??$_Seek_wrapped@V?$_String_iterator@V?$_String_val@U?$_Simple_types@D@std@@@std@@@std@@PEAD@std@@YAXAEAV?$_String_iterator@V?$_String_val@U?$_Simple_types@D@std@@@std@@@0@$$QEAPEAD@Z
	??$_Seek_wrapped@V?$_Vb_iterator@U?$_Wrap_alloc@V?$allocator@I@std@@@std@@@std@@V12@@std@@YAXAEAV?$_Vb_iterator@U?$_Wrap_alloc@V?$allocator@I@std@@@std@@@0@$$QEAV10@@Z
	??$_Seek_wrapped@V?$back_insert_iterator@V?$vector@V?$basic_string@DU?$char_traits@D@std@@V?$allocator@D@2@@std@@V?$allocator@V?$basic_string@DU?$char_traits@D@std@@V?$allocator@D@2@@std@@@2@@std@@@std@@V12@@std@@YAXAEAV?$back_insert_iterator@V?$vector@V?$basic_string@DU?$char_traits@D@std@@V?$allocator@D@2@@std@@V?$allocator@V?$basic_string@DU?$char_traits@D@std@@V?$allocator@D@2@@std@@@2@@std@@@0@$$QEAV10@@Z
	??$_Seek_wrapped@V?$ostreambuf_iterator@DU?$char_traits@D@std@@@std@@V12@@std@@YAXAEAV?$ostreambuf_iterator@DU?$char_traits@D@std@@@0@$$QEAV10@@Z
	??$_To_address@PEAD@std@@YA?A_PAEBQEAD@Z
	??$_To_address@PEAI@std@@YA?A_PAEBQEAI@Z
	??$_To_address@PEAPEAD@std@@YA?A_PAEBQEAPEAD@Z
	??$_Traits_find@U?$char_traits@D@std@@@std@@YA_KQEBD_K101@Z
	??$_Traits_find_ch@U?$char_traits@D@std@@@std@@YA_KQEBD_K1D@Z
	??$_Unfancy@$$CBD@std@@YAPEBDPEBD@Z
	??$_Unfancy@D@std@@YAPEADPEAD@Z
	??$_Unfancy@I@std@@YAPEAIPEAI@Z
	??$_Unfancy@U?$format_item@DU?$char_traits@D@std@@V?$allocator@D@2@@detail@io@boost@@@std@@YAPEAU?$format_item@DU?$char_traits@D@std@@V?$allocator@D@2@@detail@io@boost@@PEAU1234@@Z
	??$_Unfancy@U_Container_proxy@std@@@std@@YAPEAU_Container_proxy@0@PEAU10@@Z
	??$_Unfancy@V?$basic_string@DU?$char_traits@D@std@@V?$allocator@D@2@@std@@@std@@YAPEAV?$basic_string@DU?$char_traits@D@std@@V?$allocator@D@2@@0@PEAV10@@Z
	??$_Unfancy_maybe_null@I@std@@YAPEAIPEAI@Z
	??$_Uninitialized_copy@PEAV?$basic_string@DU?$char_traits@D@std@@V?$allocator@D@2@@std@@V?$allocator@V?$basic_string@DU?$char_traits@D@std@@V?$allocator@D@2@@std@@@2@@std@@YAPEAV?$basic_string@DU?$char_traits@D@std@@V?$allocator@D@2@@0@QEAV10@0PEAV10@AEAV?$allocator@V?$basic_string@DU?$char_traits@D@std@@V?$allocator@D@2@@std@@@0@@Z
	??$_Uninitialized_copy_unchecked@PEAPEADPEAPEAD@std@@YAPEAPEADPEAPEADQEAPEAD0@Z
	??$_Uninitialized_fill_n@V?$allocator@I@std@@@std@@YAPEAIPEAI_KAEBIAEAV?$allocator@I@0@@Z
	??$_Uninitialized_fill_n@V?$allocator@U?$format_item@DU?$char_traits@D@std@@V?$allocator@D@2@@detail@io@boost@@@std@@@std@@YAPEAU?$format_item@DU?$char_traits@D@std@@V?$allocator@D@2@@detail@io@boost@@PEAU1234@_KAEBU1234@AEAV?$allocator@U?$format_item@DU?$char_traits@D@std@@V?$allocator@D@2@@detail@io@boost@@@0@@Z
	??$_Uninitialized_move@PEAIV?$allocator@I@std@@@std@@YAPEAIQEAI0PEAIAEAV?$allocator@I@0@@Z
	??$_Uninitialized_move@PEAU?$format_item@DU?$char_traits@D@std@@V?$allocator@D@2@@detail@io@boost@@V?$allocator@U?$format_item@DU?$char_traits@D@std@@V?$allocator@D@2@@detail@io@boost@@@std@@@std@@YAPEAU?$format_item@DU?$char_traits@D@std@@V?$allocator@D@2@@detail@io@boost@@QEAU1234@0PEAU1234@AEAV?$allocator@U?$format_item@DU?$char_traits@D@std@@V?$allocator@D@2@@detail@io@boost@@@0@@Z
	??$_Uninitialized_move@PEAV?$basic_string@DU?$char_traits@D@std@@V?$allocator@D@2@@std@@V?$allocator@V?$basic_string@DU?$char_traits@D@std@@V?$allocator@D@2@@std@@@2@@std@@YAPEAV?$basic_string@DU?$char_traits@D@std@@V?$allocator@D@2@@0@QEAV10@0PEAV10@AEAV?$allocator@V?$basic_string@DU?$char_traits@D@std@@V?$allocator@D@2@@std@@@0@@Z
	??$_Uninitialized_value_construct_n_unchecked1@PEAPEAD_K@std@@YAPEAPEADPEAPEAD_K@Z
	??$_Verify_range@$$BY0BB@D@std@@YAXQEAY0BB@$$CBD0@Z
	??$_Verify_range@D@std@@YAXQEBD0@Z
	??$_Verify_range@PEAD@std@@YAXQEBQEAD0@Z
	??$_Verify_range@U?$format_item@DU?$char_traits@D@std@@V?$allocator@D@2@@detail@io@boost@@@std@@YAXQEBU?$format_item@DU?$char_traits@D@std@@V?$allocator@D@2@@detail@io@boost@@0@Z
	??$_Voidify_iter@PEAD@std@@YAPEAXPEAD@Z
	??$_Voidify_iter@PEAI@std@@YAPEAXPEAI@Z
	??$_Voidify_iter@PEAPEAD@std@@YAPEAXPEAPEAD@Z
	??$_Voidify_iter@PEAU?$format_item@DU?$char_traits@D@std@@V?$allocator@D@2@@detail@io@boost@@@std@@YAPEAXPEAU?$format_item@DU?$char_traits@D@std@@V?$allocator@D@2@@detail@io@boost@@@Z
	??$_Voidify_iter@PEAU_Container_proxy@std@@@std@@YAPEAXPEAU_Container_proxy@0@@Z
	??$_Voidify_iter@PEAV?$basic_string@DU?$char_traits@D@std@@V?$allocator@D@2@@std@@@std@@YAPEAXPEAV?$basic_string@DU?$char_traits@D@std@@V?$allocator@D@2@@0@@Z
	??$_Zero_range@PEAPEAD@std@@YAPEAPEADQEAPEAD0@Z
	??$absolute_value@_J@date_time@boost@@YA_J_J@Z
	??$addressof@$$CBV?$_String_val@U?$_Simple_types@D@std@@@std@@@std@@YAPEBV?$_String_val@U?$_Simple_types@D@std@@@0@AEBV10@@Z
	??$addressof@$$CBV?$basic_string@DU?$char_traits@D@std@@V?$allocator@D@2@@std@@@std@@YAPEBV?$basic_string@DU?$char_traits@D@std@@V?$allocator@D@2@@0@AEBV10@@Z
	??$addressof@D@std@@YAPEADAEAD@Z
	??$addressof@PEAD@std@@YAPEAPEADAEAPEAD@Z
	??$addressof@U_Container_base12@std@@@std@@YAPEAU_Container_base12@0@AEAU10@@Z
	??$addressof@U_Container_proxy@std@@@std@@YAPEAU_Container_proxy@0@AEAU10@@Z
	??$addressof@V?$_Deque_val@U?$_Deque_simple_types@D@std@@@std@@@std@@YAPEAV?$_Deque_val@U?$_Deque_simple_types@D@std@@@0@AEAV10@@Z
	??$addressof@V?$_String_val@U?$_Simple_types@D@std@@@std@@@std@@YAPEAV?$_String_val@U?$_Simple_types@D@std@@@0@AEAV10@@Z
	??$addressof@V?$_Vector_val@U?$_Simple_types@I@std@@@std@@@std@@YAPEAV?$_Vector_val@U?$_Simple_types@I@std@@@0@AEAV10@@Z
	??$addressof@V?$basic_string@DU?$char_traits@D@std@@V?$allocator@D@2@@std@@@std@@YAPEAV?$basic_string@DU?$char_traits@D@std@@V?$allocator@D@2@@0@AEAV10@@Z
	??$addressof@V?$basic_stringbuf@DU?$char_traits@D@std@@V?$allocator@D@2@@std@@@std@@YAPEAV?$basic_stringbuf@DU?$char_traits@D@std@@V?$allocator@D@2@@0@AEAV10@@Z
	??$addressof@V?$vector@V?$basic_string@DU?$char_traits@D@std@@V?$allocator@D@2@@std@@V?$allocator@V?$basic_string@DU?$char_traits@D@std@@V?$allocator@D@2@@std@@@2@@std@@@std@@YAPEAV?$vector@V?$basic_string@DU?$char_traits@D@std@@V?$allocator@D@2@@std@@V?$allocator@V?$basic_string@DU?$char_traits@D@std@@V?$allocator@D@2@@std@@@2@@0@AEAV10@@Z
	??$addressof@VNo_Op@?$basic_oaltstringstream@DU?$char_traits@D@std@@V?$allocator@D@2@@io@boost@@@boost@@YAPEAVNo_Op@?$basic_oaltstringstream@DU?$char_traits@D@std@@V?$allocator@D@2@@io@0@AEAV1230@@Z
	??$adl_begin@$$CBV?$basic_string@DU?$char_traits@D@std@@V?$allocator@D@2@@std@@@?$iterator_range_impl@V?$_String_const_iterator@V?$_String_val@U?$_Simple_types@D@std@@@std@@@std@@@iterator_range_detail@boost@@SA?AV?$_String_const_iterator@V?$_String_val@U?$_Simple_types@D@std@@@std@@@std@@AEBV?$basic_string@DU?$char_traits@D@std@@V?$allocator@D@2@@4@@Z
	??$adl_begin@$$CBV?$iterator_range@PEBD@boost@@@?$iterator_range_impl@PEBD@iterator_range_detail@boost@@SAPEBDAEBV?$iterator_range@PEBD@2@@Z
	??$adl_begin@V?$iterator_range@V?$_String_iterator@V?$_String_val@U?$_Simple_types@D@std@@@std@@@std@@@boost@@@?$iterator_range_impl@V?$_String_const_iterator@V?$_String_val@U?$_Simple_types@D@std@@@std@@@std@@@iterator_range_detail@boost@@SA?AV?$_String_const_iterator@V?$_String_val@U?$_Simple_types@D@std@@@std@@@std@@AEAV?$iterator_range@V?$_String_iterator@V?$_String_val@U?$_Simple_types@D@std@@@std@@@std@@@2@@Z
	??$adl_begin@V?$iterator_range@V?$_String_iterator@V?$_String_val@U?$_Simple_types@D@std@@@std@@@std@@@boost@@@?$iterator_range_impl@V?$_String_iterator@V?$_String_val@U?$_Simple_types@D@std@@@std@@@std@@@iterator_range_detail@boost@@SA?AV?$_String_iterator@V?$_String_val@U?$_Simple_types@D@std@@@std@@@std@@AEAV?$iterator_range@V?$_String_iterator@V?$_String_val@U?$_Simple_types@D@std@@@std@@@std@@@2@@Z
	??$adl_end@$$CBV?$basic_string@DU?$char_traits@D@std@@V?$allocator@D@2@@std@@@?$iterator_range_impl@V?$_String_const_iterator@V?$_String_val@U?$_Simple_types@D@std@@@std@@@std@@@iterator_range_detail@boost@@SA?AV?$_String_const_iterator@V?$_String_val@U?$_Simple_types@D@std@@@std@@@std@@AEBV?$basic_string@DU?$char_traits@D@std@@V?$allocator@D@2@@4@@Z
	??$adl_end@$$CBV?$iterator_range@PEBD@boost@@@?$iterator_range_impl@PEBD@iterator_range_detail@boost@@SAPEBDAEBV?$iterator_range@PEBD@2@@Z
	??$adl_end@V?$iterator_range@V?$_String_iterator@V?$_String_val@U?$_Simple_types@D@std@@@std@@@std@@@boost@@@?$iterator_range_impl@V?$_String_const_iterator@V?$_String_val@U?$_Simple_types@D@std@@@std@@@std@@@iterator_range_detail@boost@@SA?AV?$_String_const_iterator@V?$_String_val@U?$_Simple_types@D@std@@@std@@@std@@AEAV?$iterator_range@V?$_String_iterator@V?$_String_val@U?$_Simple_types@D@std@@@std@@@std@@@2@@Z
	??$adl_end@V?$iterator_range@V?$_String_iterator@V?$_String_val@U?$_Simple_types@D@std@@@std@@@std@@@boost@@@?$iterator_range_impl@V?$_String_iterator@V?$_String_val@U?$_Simple_types@D@std@@@std@@@std@@@iterator_range_detail@boost@@SA?AV?$_String_iterator@V?$_String_val@U?$_Simple_types@D@std@@@std@@@std@@AEAV?$iterator_range@V?$_String_iterator@V?$_String_val@U?$_Simple_types@D@std@@@std@@@std@@@2@@Z
	??$allocator_allocate@V?$allocator@D@std@@@boost@@YAPEADAEAV?$allocator@D@std@@_KPEBX@Z
	??$append@V?$_String_const_iterator@V?$_String_val@U?$_Simple_types@D@std@@@std@@@std@@$0A@@?$basic_string@DU?$char_traits@D@std@@V?$allocator@D@2@@std@@QEAAAEAV01@V?$_String_const_iterator@V?$_String_val@U?$_Simple_types@D@std@@@std@@@1@0@Z
	??$append_string@V?$basic_string@DU?$char_traits@D@std@@V?$allocator@D@2@@std@@@detail@io@boost@@YAXAEAV?$basic_string@DU?$char_traits@D@std@@V?$allocator@D@2@@std@@AEBV34@_K2@Z
	??$as_literal@D$02@boost@@YA?AV?$iterator_range@PEBD@0@AEAY02$$CBD@Z
	??$as_literal@D$05@boost@@YA?AV?$iterator_range@PEBD@0@AEAY05$$CBD@Z
	??$as_literal@D$08@boost@@YA?AV?$iterator_range@PEBD@0@AEAY08$$CBD@Z
	??$as_literal@PEBD@boost@@YA?AV?$iterator_range@PEBD@0@AEBQEBD@Z
	??$as_literal@V?$basic_string@DU?$char_traits@D@std@@V?$allocator@D@2@@std@@@boost@@YA?AV?$iterator_range@V?$_String_const_iterator@V?$_String_val@U?$_Simple_types@D@std@@@std@@@std@@@0@AEBV?$basic_string@DU?$char_traits@D@std@@V?$allocator@D@2@@std@@@Z
	??$as_literal@V?$iterator_range@PEBD@boost@@@boost@@YA?AV?$iterator_range@PEBD@0@AEBV10@@Z
	??$assign@V?$_String_iterator@V?$_String_val@U?$_Simple_types@D@std@@@std@@@std@@@?$iterator_range_base@V?$_String_iterator@V?$_String_val@U?$_Simple_types@D@std@@@std@@@std@@Uincrementable_traversal_tag@iterators@boost@@@iterator_range_detail@boost@@IEAAXV?$_String_iterator@V?$_String_val@U?$_Simple_types@D@std@@@std@@@std@@0@Z
	??$back_inserter@V?$vector@V?$basic_string@DU?$char_traits@D@std@@V?$allocator@D@2@@std@@V?$allocator@V?$basic_string@DU?$char_traits@D@std@@V?$allocator@D@2@@std@@@2@@std@@@std@@YA?AV?$back_insert_iterator@V?$vector@V?$basic_string@DU?$char_traits@D@std@@V?$allocator@D@2@@std@@V?$allocator@V?$basic_string@DU?$char_traits@D@std@@V?$allocator@D@2@@std@@@2@@std@@@0@AEAV?$vector@V?$basic_string@DU?$char_traits@D@std@@V?$allocator@D@2@@std@@V?$allocator@V?$basic_string@DU?$char_traits@D@std@@V?$allocator@D@2@@std@@@2@@0@@Z
	??$begin@U?$empty_container@D@detail@algorithm@boost@@@range_adl_barrier@boost@@YAPEBDAEBU?$empty_container@D@detail@algorithm@1@@Z
	??$begin@V?$basic_string@DU?$char_traits@D@std@@V?$allocator@D@2@@std@@@range_adl_barrier@boost@@YA?AV?$_String_const_iterator@V?$_String_val@U?$_Simple_types@D@std@@@std@@@std@@AEBV?$basic_string@DU?$char_traits@D@std@@V?$allocator@D@2@@3@@Z
	??$begin@V?$basic_string@DU?$char_traits@D@std@@V?$allocator@D@2@@std@@@range_adl_barrier@boost@@YA?AV?$_String_iterator@V?$_String_val@U?$_Simple_types@D@std@@@std@@@std@@AEAV?$basic_string@DU?$char_traits@D@std@@V?$allocator@D@2@@3@@Z
	??$begin@V?$iterator_range@PEBD@boost@@@range_adl_barrier@boost@@YAPEBDAEBV?$iterator_range@PEBD@1@@Z
	??$begin@V?$iterator_range@V?$_String_const_iterator@V?$_String_val@U?$_Simple_types@D@std@@@std@@@std@@@boost@@@range_adl_barrier@boost@@YA?AV?$_String_const_iterator@V?$_String_val@U?$_Simple_types@D@std@@@std@@@std@@AEBV?$iterator_range@V?$_String_const_iterator@V?$_String_val@U?$_Simple_types@D@std@@@std@@@std@@@1@@Z
	??$begin@V?$iterator_range@V?$_String_iterator@V?$_String_val@U?$_Simple_types@D@std@@@std@@@std@@@boost@@@range_adl_barrier@boost@@YA?AV?$_String_iterator@V?$_String_val@U?$_Simple_types@D@std@@@std@@@std@@AEAV?$iterator_range@V?$_String_iterator@V?$_String_val@U?$_Simple_types@D@std@@@std@@@std@@@1@@Z
	??$call_put_head@DU?$char_traits@D@std@@$$CBI@detail@io@boost@@YAXAEAV?$basic_ostream@DU?$char_traits@D@std@@@std@@PEBX@Z
	??$call_put_head@DU?$char_traits@D@std@@$$CBN@detail@io@boost@@YAXAEAV?$basic_ostream@DU?$char_traits@D@std@@@std@@PEBX@Z
	??$call_put_last@DU?$char_traits@D@std@@$$CBI@detail@io@boost@@YAXAEAV?$basic_ostream@DU?$char_traits@D@std@@@std@@PEBX@Z
	??$call_put_last@DU?$char_traits@D@std@@$$CBN@detail@io@boost@@YAXAEAV?$basic_ostream@DU?$char_traits@D@std@@@std@@PEBX@Z
	??$check_find_result@V?$basic_string@DU?$char_traits@D@std@@V?$allocator@D@2@@std@@V?$iterator_range@V?$_String_iterator@V?$_String_val@U?$_Simple_types@D@std@@@std@@@std@@@boost@@@detail@algorithm@boost@@YA_NAEAV?$basic_string@DU?$char_traits@D@std@@V?$allocator@D@2@@std@@AEAV?$iterator_range@V?$_String_iterator@V?$_String_val@U?$_Simple_types@D@std@@@std@@@std@@@2@@Z
	??$const_formatter@V?$basic_string@DU?$char_traits@D@std@@V?$allocator@D@2@@std@@@algorithm@boost@@YA?AU?$const_formatF@V?$iterator_range@V?$_String_const_iterator@V?$_String_val@U?$_Simple_types@D@std@@@std@@@std@@@boost@@@detail@01@AEBV?$basic_string@DU?$char_traits@D@std@@V?$allocator@D@2@@std@@@Z
	??$const_formatter@V?$iterator_range@PEBD@boost@@@algorithm@boost@@YA?AU?$const_formatF@V?$iterator_range@PEBD@boost@@@detail@01@AEBV?$iterator_range@PEBD@1@@Z
	??$const_or_not@V?$ctype@D@std@@@detail@io@boost@@YAAEBV?$ctype@D@std@@AEBV34@@Z
	??$construct@DAEBD@?$_Default_allocator_traits@V?$allocator@D@std@@@std@@SAXAEAV?$allocator@D@1@QEADAEBD@Z
	??$construct@IAEBI@?$_Default_allocator_traits@V?$allocator@I@std@@@std@@SAXAEAV?$allocator@I@1@QEAIAEBI@Z
	??$construct@II@?$_Default_allocator_traits@V?$allocator@I@std@@@std@@SAXAEAV?$allocator@I@1@QEAI$$QEAI@Z
	??$construct@U?$format_item@DU?$char_traits@D@std@@V?$allocator@D@2@@detail@io@boost@@AEBU1234@@?$_Default_allocator_traits@V?$allocator@U?$format_item@DU?$char_traits@D@std@@V?$allocator@D@2@@detail@io@boost@@@std@@@std@@SAXAEAV?$allocator@U?$format_item@DU?$char_traits@D@std@@V?$allocator@D@2@@detail@io@boost@@@1@QEAU?$format_item@DU?$char_traits@D@std@@V?$allocator@D@2@@detail@io@boost@@AEBU3456@@Z
	??$construct@U?$format_item@DU?$char_traits@D@std@@V?$allocator@D@2@@detail@io@boost@@U1234@@?$_Default_allocator_traits@V?$allocator@U?$format_item@DU?$char_traits@D@std@@V?$allocator@D@2@@detail@io@boost@@@std@@@std@@SAXAEAV?$allocator@U?$format_item@DU?$char_traits@D@std@@V?$allocator@D@2@@detail@io@boost@@@1@QEAU?$format_item@DU?$char_traits@D@std@@V?$allocator@D@2@@detail@io@boost@@$$QEAU3456@@Z
	??$construct@V?$basic_string@DU?$char_traits@D@std@@V?$allocator@D@2@@std@@AEAV12@@?$_Default_allocator_traits@V?$allocator@V?$basic_string@DU?$char_traits@D@std@@V?$allocator@D@2@@std@@@std@@@std@@SAXAEAV?$allocator@V?$basic_string@DU?$char_traits@D@std@@V?$allocator@D@2@@std@@@1@QEAV?$basic_string@DU?$char_traits@D@std@@V?$allocator@D@2@@1@AEAV31@@Z
	??$construct@V?$basic_string@DU?$char_traits@D@std@@V?$allocator@D@2@@std@@V12@@?$_Default_allocator_traits@V?$allocator@V?$basic_string@DU?$char_traits@D@std@@V?$allocator@D@2@@std@@@std@@@std@@SAXAEAV?$allocator@V?$basic_string@DU?$char_traits@D@std@@V?$allocator@D@2@@std@@@1@QEAV?$basic_string@DU?$char_traits@D@std@@V?$allocator@D@2@@1@$$QEAV31@@Z
	??$copy@PEAY0BB@$$CBDV?$back_insert_iterator@V?$vector@V?$basic_string@DU?$char_traits@D@std@@V?$allocator@D@2@@std@@V?$allocator@V?$basic_string@DU?$char_traits@D@std@@V?$allocator@D@2@@std@@@2@@std@@@std@@@std@@YA?AV?$back_insert_iterator@V?$vector@V?$basic_string@DU?$char_traits@D@std@@V?$allocator@D@2@@std@@V?$allocator@V?$basic_string@DU?$char_traits@D@std@@V?$allocator@D@2@@std@@@2@@std@@@0@PEAY0BB@$$CBD0V10@@Z
	??$copy@V?$_String_const_iterator@V?$_String_val@U?$_Simple_types@D@std@@@std@@@std@@V?$ostreambuf_iterator@DU?$char_traits@D@std@@@2@@std@@YA?AV?$ostreambuf_iterator@DU?$char_traits@D@std@@@0@V?$_String_const_iterator@V?$_String_val@U?$_Simple_types@D@std@@@std@@@0@0V10@@Z
	??$copy@V?$_String_iterator@V?$_String_val@U?$_Simple_types@D@std@@@std@@@std@@V12@@std@@YA?AV?$_String_iterator@V?$_String_val@U?$_Simple_types@D@std@@@std@@@0@V10@00@Z
	??$copy@V?$_Vb_iterator@U?$_Wrap_alloc@V?$allocator@I@std@@@std@@@std@@V12@@std@@YA?AV?$_Vb_iterator@U?$_Wrap_alloc@V?$allocator@I@std@@@std@@@0@V10@00@Z
	??$copy_backward@V?$_Vb_iterator@U?$_Wrap_alloc@V?$allocator@I@std@@@std@@@std@@V12@@std@@YA?AV?$_Vb_iterator@U?$_Wrap_alloc@V?$allocator@I@std@@@std@@@0@V10@00@Z
	??$copy_to_storage@V?$deque@DV?$allocator@D@std@@@std@@U?$empty_container@D@detail@algorithm@boost@@@detail@algorithm@boost@@YAXAEAV?$deque@DV?$allocator@D@std@@@std@@AEBU?$empty_container@D@012@@Z
	??$copy_to_storage@V?$deque@DV?$allocator@D@std@@@std@@V?$iterator_range@PEBD@boost@@@detail@algorithm@boost@@YAXAEAV?$deque@DV?$allocator@D@std@@@std@@AEBV?$iterator_range@PEBD@2@@Z
	??$copy_to_storage@V?$deque@DV?$allocator@D@std@@@std@@V?$iterator_range@V?$_String_const_iterator@V?$_String_val@U?$_Simple_types@D@std@@@std@@@std@@@boost@@@detail@algorithm@boost@@YAXAEAV?$deque@DV?$allocator@D@std@@@std@@AEBV?$iterator_range@V?$_String_const_iterator@V?$_String_val@U?$_Simple_types@D@std@@@std@@@std@@@2@@Z
	??$destroy@D@?$_Default_allocator_traits@V?$allocator@D@std@@@std@@SAXAEAV?$allocator@D@1@QEAD@Z
	??$destroy@U?$format_item@DU?$char_traits@D@std@@V?$allocator@D@2@@detail@io@boost@@@?$_Default_allocator_traits@V?$allocator@U?$format_item@DU?$char_traits@D@std@@V?$allocator@D@2@@detail@io@boost@@@std@@@std@@SAXAEAV?$allocator@U?$format_item@DU?$char_traits@D@std@@V?$allocator@D@2@@detail@io@boost@@@1@QEAU?$format_item@DU?$char_traits@D@std@@V?$allocator@D@2@@detail@io@boost@@@Z
	??$destroy@V?$basic_string@DU?$char_traits@D@std@@V?$allocator@D@2@@std@@@?$_Default_allocator_traits@V?$allocator@V?$basic_string@DU?$char_traits@D@std@@V?$allocator@D@2@@std@@@std@@@std@@SAXAEAV?$allocator@V?$basic_string@DU?$char_traits@D@std@@V?$allocator@D@2@@std@@@1@QEAV?$basic_string@DU?$char_traits@D@std@@V?$allocator@D@2@@1@@Z
	??$distance@V?$_Deque_unchecked_iterator@V?$_Deque_val@U?$_Deque_simple_types@D@std@@@std@@@std@@@std@@YA_JV?$_Deque_unchecked_iterator@V?$_Deque_val@U?$_Deque_simple_types@D@std@@@std@@@0@0@Z
	??$distribute@DU?$char_traits@D@std@@V?$allocator@D@2@AEBU?$put_holder@DU?$char_traits@D@std@@@detail@io@boost@@@detail@io@boost@@YAXAEAV?$basic_format@DU?$char_traits@D@std@@V?$allocator@D@2@@2@AEBU?$put_holder@DU?$char_traits@D@std@@@012@@Z
	??$emplace_back@V?$basic_string@DU?$char_traits@D@std@@V?$allocator@D@2@@std@@@?$vector@V?$basic_string@DU?$char_traits@D@std@@V?$allocator@D@2@@std@@V?$allocator@V?$basic_string@DU?$char_traits@D@std@@V?$allocator@D@2@@std@@@2@@std@@QEAA?A_T$$QEAV?$basic_string@DU?$char_traits@D@std@@V?$allocator@D@2@@1@@Z
	??$emplace_front@AEBD@?$deque@DV?$allocator@D@std@@@std@@QEAA?A_TAEBD@Z
	??$empty@V?$iterator_range@PEBD@boost@@@boost@@YA_NAEBV?$iterator_range@PEBD@0@@Z
	??$empty@V?$iterator_range@V?$_String_const_iterator@V?$_String_val@U?$_Simple_types@D@std@@@std@@@std@@@boost@@@boost@@YA_NAEBV?$iterator_range@V?$_String_const_iterator@V?$_String_val@U?$_Simple_types@D@std@@@std@@@std@@@0@@Z
	??$empty_formatter@V?$basic_string@DU?$char_traits@D@std@@V?$allocator@D@2@@std@@@algorithm@boost@@YA?AU?$empty_formatF@D@detail@01@AEBV?$basic_string@DU?$char_traits@D@std@@V?$allocator@D@2@@std@@@Z
	??$end@U?$empty_container@D@detail@algorithm@boost@@@range_adl_barrier@boost@@YAPEBDAEBU?$empty_container@D@detail@algorithm@1@@Z
	??$end@V?$basic_string@DU?$char_traits@D@std@@V?$allocator@D@2@@std@@@range_adl_barrier@boost@@YA?AV?$_String_const_iterator@V?$_String_val@U?$_Simple_types@D@std@@@std@@@std@@AEBV?$basic_string@DU?$char_traits@D@std@@V?$allocator@D@2@@3@@Z
	??$end@V?$basic_string@DU?$char_traits@D@std@@V?$allocator@D@2@@std@@@range_adl_barrier@boost@@YA?AV?$_String_iterator@V?$_String_val@U?$_Simple_types@D@std@@@std@@@std@@AEAV?$basic_string@DU?$char_traits@D@std@@V?$allocator@D@2@@3@@Z
	??$end@V?$iterator_range@PEBD@boost@@@range_adl_barrier@boost@@YAPEBDAEBV?$iterator_range@PEBD@1@@Z
	??$end@V?$iterator_range@V?$_String_const_iterator@V?$_String_val@U?$_Simple_types@D@std@@@std@@@std@@@boost@@@range_adl_barrier@boost@@YA?AV?$_String_const_iterator@V?$_String_val@U?$_Simple_types@D@std@@@std@@@std@@AEBV?$iterator_range@V?$_String_const_iterator@V?$_String_val@U?$_Simple_types@D@std@@@std@@@std@@@1@@Z
	??$end@V?$iterator_range@V?$_String_iterator@V?$_String_val@U?$_Simple_types@D@std@@@std@@@std@@@boost@@@range_adl_barrier@boost@@YA?AV?$_String_iterator@V?$_String_val@U?$_Simple_types@D@std@@@std@@@std@@AEAV?$iterator_range@V?$_String_iterator@V?$_String_val@U?$_Simple_types@D@std@@@std@@@std@@@1@@Z
	??$erase@V?$basic_string@DU?$char_traits@D@std@@V?$allocator@D@2@@std@@@detail@algorithm@boost@@YA?AV?$_String_iterator@V?$_String_val@U?$_Simple_types@D@std@@@std@@@std@@AEAV?$basic_string@DU?$char_traits@D@std@@V?$allocator@D@2@@4@V34@1@Z
	??$erase_all@V?$basic_string@DU?$char_traits@D@std@@V?$allocator@D@2@@std@@PEBD@algorithm@boost@@YAXAEAV?$basic_string@DU?$char_traits@D@std@@V?$allocator@D@2@@std@@AEBQEBD@Z
	??$erase_all@V?$basic_string@DU?$char_traits@D@std@@V?$allocator@D@2@@std@@V12@@algorithm@boost@@YAXAEAV?$basic_string@DU?$char_traits@D@std@@V?$allocator@D@2@@std@@AEBV23@@Z
	??$exchange@PEAU_Container_proxy@std@@$$T@std@@YAPEAU_Container_proxy@0@AEAPEAU10@$$QEA$$T@Z
	??$exchange@PEAV_Facet_base@std@@$$T@std@@YAPEAV_Facet_base@0@AEAPEAV10@$$QEA$$T@Z
	??$feed@DU?$char_traits@D@std@@V?$allocator@D@2@AEBI@detail@io@boost@@YAAEAV?$basic_format@DU?$char_traits@D@std@@V?$allocator@D@2@@2@AEAV32@AEBI@Z
	??$feed@DU?$char_traits@D@std@@V?$allocator@D@2@AEBN@detail@io@boost@@YAAEAV?$basic_format@DU?$char_traits@D@std@@V?$allocator@D@2@@2@AEAV32@AEBN@Z
	??$feed_impl@DU?$char_traits@D@std@@V?$allocator@D@2@AEBU?$put_holder@DU?$char_traits@D@std@@@detail@io@boost@@@detail@io@boost@@YAAEAV?$basic_format@DU?$char_traits@D@std@@V?$allocator@D@2@@2@AEAV32@AEBU?$put_holder@DU?$char_traits@D@std@@@012@@Z
	??$fill@PEAU?$format_item@DU?$char_traits@D@std@@V?$allocator@D@2@@detail@io@boost@@U1234@@std@@YAXQEAU?$format_item@DU?$char_traits@D@std@@V?$allocator@D@2@@detail@io@boost@@0AEBU1234@@Z
	??$fill@V?$_Vb_iterator@U?$_Wrap_alloc@V?$allocator@I@std@@@std@@@std@@_N@std@@YAXV?$_Vb_iterator@U?$_Wrap_alloc@V?$allocator@I@std@@@std@@@0@0AEB_N@Z
	??$find_format_all@V?$basic_string@DU?$char_traits@D@std@@V?$allocator@D@2@@std@@U?$first_finderF@PEBDUis_equal@algorithm@boost@@@detail@algorithm@boost@@U?$const_formatF@V?$iterator_range@PEBD@boost@@@456@@algorithm@boost@@YAXAEAV?$basic_string@DU?$char_traits@D@std@@V?$allocator@D@2@@std@@U?$first_finderF@PEBDUis_equal@algorithm@boost@@@detail@01@U?$const_formatF@V?$iterator_range@PEBD@boost@@@501@@Z
	??$find_format_all@V?$basic_string@DU?$char_traits@D@std@@V?$allocator@D@2@@std@@U?$first_finderF@PEBDUis_equal@algorithm@boost@@@detail@algorithm@boost@@U?$const_formatF@V?$iterator_range@V?$_String_const_iterator@V?$_String_val@U?$_Simple_types@D@std@@@std@@@std@@@boost@@@456@@algorithm@boost@@YAXAEAV?$basic_string@DU?$char_traits@D@std@@V?$allocator@D@2@@std@@U?$first_finderF@PEBDUis_equal@algorithm@boost@@@detail@01@U?$const_formatF@V?$iterator_range@V?$_String_const_iterator@V?$_String_val@U?$_Simple_types@D@std@@@std@@@std@@@boost@@@501@@Z
	??$find_format_all@V?$basic_string@DU?$char_traits@D@std@@V?$allocator@D@2@@std@@U?$first_finderF@PEBDUis_equal@algorithm@boost@@@detail@algorithm@boost@@U?$empty_formatF@D@456@@algorithm@boost@@YAXAEAV?$basic_string@DU?$char_traits@D@std@@V?$allocator@D@2@@std@@U?$first_finderF@PEBDUis_equal@algorithm@boost@@@detail@01@U?$empty_formatF@D@501@@Z
	??$find_format_all@V?$basic_string@DU?$char_traits@D@std@@V?$allocator@D@2@@std@@U?$first_finderF@V?$_String_const_iterator@V?$_String_val@U?$_Simple_types@D@std@@@std@@@std@@Uis_equal@algorithm@boost@@@detail@algorithm@boost@@U?$empty_formatF@D@456@@algorithm@boost@@YAXAEAV?$basic_string@DU?$char_traits@D@std@@V?$allocator@D@2@@std@@U?$first_finderF@V?$_String_const_iterator@V?$_String_val@U?$_Simple_types@D@std@@@std@@@std@@Uis_equal@algorithm@boost@@@detail@01@U?$empty_formatF@D@501@@Z
	??$find_format_all_impl2@V?$basic_string@DU?$char_traits@D@std@@V?$allocator@D@2@@std@@U?$first_finderF@PEBDUis_equal@algorithm@boost@@@detail@algorithm@boost@@U?$const_formatF@V?$iterator_range@PEBD@boost@@@456@V?$iterator_range@V?$_String_iterator@V?$_String_val@U?$_Simple_types@D@std@@@std@@@std@@@6@V?$iterator_range@PEBD@6@@detail@algorithm@boost@@YAXAEAV?$basic_string@DU?$char_traits@D@std@@V?$allocator@D@2@@std@@U?$first_finderF@PEBDUis_equal@algorithm@boost@@@012@U?$const_formatF@V?$iterator_range@PEBD@boost@@@012@V?$iterator_range@V?$_String_iterator@V?$_String_val@U?$_Simple_types@D@std@@@std@@@std@@@2@V?$iterator_range@PEBD@2@@Z
	??$find_format_all_impl2@V?$basic_string@DU?$char_traits@D@std@@V?$allocator@D@2@@std@@U?$first_finderF@PEBDUis_equal@algorithm@boost@@@detail@algorithm@boost@@U?$const_formatF@V?$iterator_range@V?$_String_const_iterator@V?$_String_val@U?$_Simple_types@D@std@@@std@@@std@@@boost@@@456@V?$iterator_range@V?$_String_iterator@V?$_String_val@U?$_Simple_types@D@std@@@std@@@std@@@6@V?$iterator_range@V?$_String_const_iterator@V?$_String_val@U?$_Simple_types@D@std@@@std@@@std@@@6@@detail@algorithm@boost@@YAXAEAV?$basic_string@DU?$char_traits@D@std@@V?$allocator@D@2@@std@@U?$first_finderF@PEBDUis_equal@algorithm@boost@@@012@U?$const_formatF@V?$iterator_range@V?$_String_const_iterator@V?$_String_val@U?$_Simple_types@D@std@@@std@@@std@@@boost@@@012@V?$iterator_range@V?$_String_iterator@V?$_String_val@U?$_Simple_types@D@std@@@std@@@std@@@2@V?$iterator_range@V?$_String_const_iterator@V?$_String_val@U?$_Simple_types@D@std@@@std@@@std@@@2@@Z
	??$find_format_all_impl2@V?$basic_string@DU?$char_traits@D@std@@V?$allocator@D@2@@std@@U?$first_finderF@PEBDUis_equal@algorithm@boost@@@detail@algorithm@boost@@U?$empty_formatF@D@456@V?$iterator_range@V?$_String_iterator@V?$_String_val@U?$_Simple_types@D@std@@@std@@@std@@@6@U?$empty_container@D@456@@detail@algorithm@boost@@YAXAEAV?$basic_string@DU?$char_traits@D@std@@V?$allocator@D@2@@std@@U?$first_finderF@PEBDUis_equal@algorithm@boost@@@012@U?$empty_formatF@D@012@V?$iterator_range@V?$_String_iterator@V?$_String_val@U?$_Simple_types@D@std@@@std@@@std@@@2@U?$empty_container@D@012@@Z
	??$find_format_all_impl2@V?$basic_string@DU?$char_traits@D@std@@V?$allocator@D@2@@std@@U?$first_finderF@V?$_String_const_iterator@V?$_String_val@U?$_Simple_types@D@std@@@std@@@std@@Uis_equal@algorithm@boost@@@detail@algorithm@boost@@U?$empty_formatF@D@456@V?$iterator_range@V?$_String_iterator@V?$_String_val@U?$_Simple_types@D@std@@@std@@@std@@@6@U?$empty_container@D@456@@detail@algorithm@boost@@YAXAEAV?$basic_string@DU?$char_traits@D@std@@V?$allocator@D@2@@std@@U?$first_finderF@V?$_String_const_iterator@V?$_String_val@U?$_Simple_types@D@std@@@std@@@std@@Uis_equal@algorithm@boost@@@012@U?$empty_formatF@D@012@V?$iterator_range@V?$_String_iterator@V?$_String_val@U?$_Simple_types@D@std@@@std@@@std@@@2@U?$empty_container@D@012@@Z
	??$find_format_all_impl@V?$basic_string@DU?$char_traits@D@std@@V?$allocator@D@2@@std@@U?$first_finderF@PEBDUis_equal@algorithm@boost@@@detail@algorithm@boost@@U?$const_formatF@V?$iterator_range@PEBD@boost@@@456@V?$iterator_range@V?$_String_iterator@V?$_String_val@U?$_Simple_types@D@std@@@std@@@std@@@6@@detail@algorithm@boost@@YAXAEAV?$basic_string@DU?$char_traits@D@std@@V?$allocator@D@2@@std@@U?$first_finderF@PEBDUis_equal@algorithm@boost@@@012@U?$const_formatF@V?$iterator_range@PEBD@boost@@@012@V?$iterator_range@V?$_String_iterator@V?$_String_val@U?$_Simple_types@D@std@@@std@@@std@@@2@@Z
	??$find_format_all_impl@V?$basic_string@DU?$char_traits@D@std@@V?$allocator@D@2@@std@@U?$first_finderF@PEBDUis_equal@algorithm@boost@@@detail@algorithm@boost@@U?$const_formatF@V?$iterator_range@V?$_String_const_iterator@V?$_String_val@U?$_Simple_types@D@std@@@std@@@std@@@boost@@@456@V?$iterator_range@V?$_String_iterator@V?$_String_val@U?$_Simple_types@D@std@@@std@@@std@@@6@@detail@algorithm@boost@@YAXAEAV?$basic_string@DU?$char_traits@D@std@@V?$allocator@D@2@@std@@U?$first_finderF@PEBDUis_equal@algorithm@boost@@@012@U?$const_formatF@V?$iterator_range@V?$_String_const_iterator@V?$_String_val@U?$_Simple_types@D@std@@@std@@@std@@@boost@@@012@V?$iterator_range@V?$_String_iterator@V?$_String_val@U?$_Simple_types@D@std@@@std@@@std@@@2@@Z
	??$find_format_all_impl@V?$basic_string@DU?$char_traits@D@std@@V?$allocator@D@2@@std@@U?$first_finderF@PEBDUis_equal@algorithm@boost@@@detail@algorithm@boost@@U?$empty_formatF@D@456@V?$iterator_range@V?$_String_iterator@V?$_String_val@U?$_Simple_types@D@std@@@std@@@std@@@6@@detail@algorithm@boost@@YAXAEAV?$basic_string@DU?$char_traits@D@std@@V?$allocator@D@2@@std@@U?$first_finderF@PEBDUis_equal@algorithm@boost@@@012@U?$empty_formatF@D@012@V?$iterator_range@V?$_String_iterator@V?$_String_val@U?$_Simple_types@D@std@@@std@@@std@@@2@@Z
	??$find_format_all_impl@V?$basic_string@DU?$char_traits@D@std@@V?$allocator@D@2@@std@@U?$first_finderF@V?$_String_const_iterator@V?$_String_val@U?$_Simple_types@D@std@@@std@@@std@@Uis_equal@algorithm@boost@@@detail@algorithm@boost@@U?$empty_formatF@D@456@V?$iterator_range@V?$_String_iterator@V?$_String_val@U?$_Simple_types@D@std@@@std@@@std@@@6@@detail@algorithm@boost@@YAXAEAV?$basic_string@DU?$char_traits@D@std@@V?$allocator@D@2@@std@@U?$first_finderF@V?$_String_const_iterator@V?$_String_val@U?$_Simple_types@D@std@@@std@@@std@@Uis_equal@algorithm@boost@@@012@U?$empty_formatF@D@012@V?$iterator_range@V?$_String_iterator@V?$_String_val@U?$_Simple_types@D@std@@@std@@@std@@@2@@Z
	??$first_finder@$$BY02D@algorithm@boost@@YA?AU?$first_finderF@PEBDUis_equal@algorithm@boost@@@detail@01@AEAY02$$CBD@Z
	??$first_finder@PEBD@algorithm@boost@@YA?AU?$first_finderF@PEBDUis_equal@algorithm@boost@@@detail@01@AEBQEBD@Z
	??$first_finder@V?$basic_string@DU?$char_traits@D@std@@V?$allocator@D@2@@std@@@algorithm@boost@@YA?AU?$first_finderF@V?$_String_const_iterator@V?$_String_val@U?$_Simple_types@D@std@@@std@@@std@@Uis_equal@algorithm@boost@@@detail@01@AEBV?$basic_string@DU?$char_traits@D@std@@V?$allocator@D@2@@std@@@Z
	??$first_finder@V?$iterator_range@PEBD@boost@@@algorithm@boost@@YA?AU?$first_finderF@PEBDUis_equal@algorithm@boost@@@detail@01@AEBV?$iterator_range@PEBD@1@@Z
	??$forward@AEAPEAD@std@@YAAEAPEADAEAPEAD@Z
	??$forward@AEAPEAV_Facet_base@std@@@std@@YAAEAPEAV_Facet_base@0@AEAPEAV10@@Z
	??$forward@AEAV?$basic_string@DU?$char_traits@D@std@@V?$allocator@D@2@@std@@@std@@YAAEAV?$basic_string@DU?$char_traits@D@std@@V?$allocator@D@2@@0@AEAV10@@Z
	??$forward@AEBD@std@@YAAEBDAEBD@Z
	??$forward@AEBI@std@@YAAEBIAEBI@Z
	??$forward@AEBQEAD@std@@YAAEBQEADAEBQEAD@Z
	??$forward@AEBQEAV?$basic_string@DU?$char_traits@D@std@@V?$allocator@D@2@@std@@@std@@YAAEBQEAV?$basic_string@DU?$char_traits@D@std@@V?$allocator@D@2@@0@AEBQEAV10@@Z
	??$forward@AEBU?$format_item@DU?$char_traits@D@std@@V?$allocator@D@2@@detail@io@boost@@@std@@YAAEBU?$format_item@DU?$char_traits@D@std@@V?$allocator@D@2@@detail@io@boost@@AEBU1234@@Z
	??$forward@AEBV?$allocator@D@std@@@std@@YAAEBV?$allocator@D@0@AEBV10@@Z
	??$forward@I@std@@YA$$QEAIAEAI@Z
	??$forward@PEAD@std@@YA$$QEAPEADAEAPEAD@Z
	??$forward@PEAPEAD@std@@YA$$QEAPEAPEADAEAPEAPEAD@Z
	??$forward@PEAU_Container_base12@std@@@std@@YA$$QEAPEAU_Container_base12@0@AEAPEAU10@@Z
	??$forward@U?$format_item@DU?$char_traits@D@std@@V?$allocator@D@2@@detail@io@boost@@@std@@YA$$QEAU?$format_item@DU?$char_traits@D@std@@V?$allocator@D@2@@detail@io@boost@@AEAU1234@@Z
	??$forward@V?$_Deque_unchecked_iterator@V?$_Deque_val@U?$_Deque_simple_types@D@std@@@std@@@std@@@std@@YA$$QEAV?$_Deque_unchecked_iterator@V?$_Deque_val@U?$_Deque_simple_types@D@std@@@std@@@0@AEAV10@@Z
	??$forward@V?$_Vb_iterator@U?$_Wrap_alloc@V?$allocator@I@std@@@std@@@std@@@std@@YA$$QEAV?$_Vb_iterator@U?$_Wrap_alloc@V?$allocator@I@std@@@std@@@0@AEAV10@@Z
	??$forward@V?$allocator@D@std@@@std@@YA$$QEAV?$allocator@D@0@AEAV10@@Z
	??$forward@V?$allocator@V?$basic_string@DU?$char_traits@D@std@@V?$allocator@D@2@@std@@@std@@@std@@YA$$QEAV?$allocator@V?$basic_string@DU?$char_traits@D@std@@V?$allocator@D@2@@std@@@0@AEAV10@@Z
	??$forward@V?$back_insert_iterator@V?$vector@V?$basic_string@DU?$char_traits@D@std@@V?$allocator@D@2@@std@@V?$allocator@V?$basic_string@DU?$char_traits@D@std@@V?$allocator@D@2@@std@@@2@@std@@@std@@@std@@YA$$QEAV?$back_insert_iterator@V?$vector@V?$basic_string@DU?$char_traits@D@std@@V?$allocator@D@2@@std@@V?$allocator@V?$basic_string@DU?$char_traits@D@std@@V?$allocator@D@2@@std@@@2@@std@@@0@AEAV10@@Z
	??$forward@V?$basic_string@DU?$char_traits@D@std@@V?$allocator@D@2@@std@@@std@@YA$$QEAV?$basic_string@DU?$char_traits@D@std@@V?$allocator@D@2@@0@AEAV10@@Z
	??$forward@V?$ostreambuf_iterator@DU?$char_traits@D@std@@@std@@@std@@YA$$QEAV?$ostreambuf_iterator@DU?$char_traits@D@std@@@0@AEAV10@@Z
	??$get_local_deleter@VNo_Op@?$basic_oaltstringstream@DU?$char_traits@D@std@@V?$allocator@D@2@@io@boost@@@detail@boost@@YAPEAVNo_Op@?$basic_oaltstringstream@DU?$char_traits@D@std@@V?$allocator@D@2@@io@1@PEAV2341@@Z
	??$get_pointer@Vlocale@std@@@boost@@YAPEAVlocale@std@@AEAV?$optional@Vlocale@std@@@0@@Z
	??$has_facet@V?$date_facet@Vdate@gregorian@boost@@DV?$ostreambuf_iterator@DU?$char_traits@D@std@@@std@@@date_time@boost@@@std@@YA_NAEBVlocale@0@@Z
	??$has_facet@V?$time_facet@Vptime@posix_time@boost@@DV?$ostreambuf_iterator@DU?$char_traits@D@std@@@std@@@date_time@boost@@@std@@YA_NAEBVlocale@0@@Z
	??$insert@PEBD$0A@@?$deque@DV?$allocator@D@std@@@std@@QEAA?AV?$_Deque_iterator@V?$_Deque_val@U?$_Deque_simple_types@D@std@@@std@@@1@V?$_Deque_const_iterator@V?$_Deque_val@U?$_Deque_simple_types@D@std@@@std@@@1@PEBD1@Z
	??$insert@V?$_Deque_iterator@V?$_Deque_val@U?$_Deque_simple_types@D@std@@@std@@@std@@$0A@@?$basic_string@DU?$char_traits@D@std@@V?$allocator@D@2@@std@@QEAA?AV?$_String_iterator@V?$_String_val@U?$_Simple_types@D@std@@@std@@@1@V?$_String_const_iterator@V?$_String_val@U?$_Simple_types@D@std@@@std@@@1@V?$_Deque_iterator@V?$_Deque_val@U?$_Deque_simple_types@D@std@@@std@@@1@1@Z
	??$insert@V?$_String_const_iterator@V?$_String_val@U?$_Simple_types@D@std@@@std@@@std@@$0A@@?$deque@DV?$allocator@D@std@@@std@@QEAA?AV?$_Deque_iterator@V?$_Deque_val@U?$_Deque_simple_types@D@std@@@std@@@1@V?$_Deque_const_iterator@V?$_Deque_val@U?$_Deque_simple_types@D@std@@@std@@@1@V?$_String_const_iterator@V?$_String_val@U?$_Simple_types@D@std@@@std@@@1@1@Z
	??$insert@V?$basic_string@DU?$char_traits@D@std@@V?$allocator@D@2@@std@@V?$_Deque_iterator@V?$_Deque_val@U?$_Deque_simple_types@D@std@@@std@@@2@@detail@algorithm@boost@@YAXAEAV?$basic_string@DU?$char_traits@D@std@@V?$allocator@D@2@@std@@V?$_String_iterator@V?$_String_val@U?$_Simple_types@D@std@@@std@@@4@V?$_Deque_iterator@V?$_Deque_val@U?$_Deque_simple_types@D@std@@@std@@@4@2@Z
	??$integral_as_string@_J@?$time_facet@Vptime@posix_time@boost@@DV?$ostreambuf_iterator@DU?$char_traits@D@std@@@std@@@date_time@boost@@KA?AV?$basic_string@DU?$char_traits@D@std@@V?$allocator@D@2@@std@@_JH@Z
	??$is_char_ptr@V?$basic_string@DU?$char_traits@D@std@@V?$allocator@D@2@@std@@@range_detail@boost@@YAJAEBV?$basic_string@DU?$char_traits@D@std@@V?$allocator@D@2@@std@@@Z
	??$is_char_ptr@V?$iterator_range@PEBD@boost@@@range_detail@boost@@YAJAEBV?$iterator_range@PEBD@1@@Z
	??$iter_swap@V?$_Deque_unchecked_iterator@V?$_Deque_val@U?$_Deque_simple_types@D@std@@@std@@@std@@V12@@std@@YAXV?$_Deque_unchecked_iterator@V?$_Deque_val@U?$_Deque_simple_types@D@std@@@std@@@0@0@Z
	??$make_iterator_range@V?$basic_string@DU?$char_traits@D@std@@V?$allocator@D@2@@std@@@boost@@YA?AV?$iterator_range@V?$_String_const_iterator@V?$_String_val@U?$_Simple_types@D@std@@@std@@@std@@@0@AEBV?$basic_string@DU?$char_traits@D@std@@V?$allocator@D@2@@std@@@Z
	??$make_iterator_range@V?$iterator_range@PEBD@boost@@@boost@@YA?AV?$iterator_range@PEBD@0@AEBV10@@Z
	??$make_range@$$CBD@range_detail@boost@@YA?AV?$iterator_range@PEBD@1@QEBD_N@Z
	??$make_range@$$CBV?$basic_string@DU?$char_traits@D@std@@V?$allocator@D@2@@std@@@range_detail@boost@@YA?AV?$iterator_range@V?$_String_const_iterator@V?$_String_val@U?$_Simple_types@D@std@@@std@@@std@@@1@AEBV?$basic_string@DU?$char_traits@D@std@@V?$allocator@D@2@@std@@J@Z
	??$make_range@$$CBV?$iterator_range@PEBD@boost@@@range_detail@boost@@YA?AV?$iterator_range@PEBD@1@AEBV21@J@Z
	??$max@PEAD@std@@YAAEBQEADAEBQEAD0@Z
	??$max@_J@std@@YAAEB_JAEB_J0@Z
	??$max@_K@std@@YAAEB_KAEB_K0@Z
	??$min@_K@std@@YAAEB_KAEB_K0@Z
	??$mk_str@DU?$char_traits@D@std@@V?$allocator@D@2@@detail@io@boost@@YAXAEAV?$basic_string@DU?$char_traits@D@std@@V?$allocator@D@2@@std@@PEBD_K_JDHD_N@Z
	??$move@AEAD@std@@YA$$QEADAEAD@Z
	??$move@AEAI@std@@YA$$QEAIAEAI@Z
	??$move@AEAU?$format_item@DU?$char_traits@D@std@@V?$allocator@D@2@@detail@io@boost@@@std@@YA$$QEAU?$format_item@DU?$char_traits@D@std@@V?$allocator@D@2@@detail@io@boost@@AEAU1234@@Z
	??$move@AEAV?$_Deque_unchecked_iterator@V?$_Deque_val@U?$_Deque_simple_types@D@std@@@std@@@std@@@std@@YA$$QEAV?$_Deque_unchecked_iterator@V?$_Deque_val@U?$_Deque_simple_types@D@std@@@std@@@0@AEAV10@@Z
	??$move@AEAV?$allocator@D@std@@@std@@YA$$QEAV?$allocator@D@0@AEAV10@@Z
	??$move@AEAV?$basic_string@DU?$char_traits@D@std@@V?$allocator@D@2@@std@@@std@@YA$$QEAV?$basic_string@DU?$char_traits@D@std@@V?$allocator@D@2@@0@AEAV10@@Z
	??$move@AEAVlocale@std@@@boost@@YA$$QEAVlocale@std@@AEAV12@@Z
	??$move_from_storage@V?$deque@DV?$allocator@D@std@@@std@@V?$_String_iterator@V?$_String_val@U?$_Simple_types@D@std@@@std@@@2@@detail@algorithm@boost@@YA?AV?$_String_iterator@V?$_String_val@U?$_Simple_types@D@std@@@std@@@std@@AEAV?$deque@DV?$allocator@D@std@@@4@V34@1@Z
	??$parse_printf_directive@DU?$char_traits@D@std@@V?$allocator@D@2@V?$_String_const_iterator@V?$_String_val@U?$_Simple_types@D@std@@@std@@@2@V?$ctype@D@2@@detail@io@boost@@YA_NAEAV?$_String_const_iterator@V?$_String_val@U?$_Simple_types@D@std@@@std@@@std@@AEBV34@PEAU?$format_item@DU?$char_traits@D@std@@V?$allocator@D@2@@012@AEBV?$ctype@D@4@_KE@Z
	??$process_segment@V?$deque@DV?$allocator@D@std@@@std@@V?$basic_string@DU?$char_traits@D@std@@V?$allocator@D@2@@2@V?$_String_iterator@V?$_String_val@U?$_Simple_types@D@std@@@std@@@2@@detail@algorithm@boost@@YA?AV?$_String_iterator@V?$_String_val@U?$_Simple_types@D@std@@@std@@@std@@AEAV?$deque@DV?$allocator@D@std@@@4@AEAV?$basic_string@DU?$char_traits@D@std@@V?$allocator@D@2@@4@V34@22@Z
	??$put@DU?$char_traits@D@std@@V?$allocator@D@2@AEBU?$put_holder@DU?$char_traits@D@std@@@detail@io@boost@@@detail@io@boost@@YAXAEBU?$put_holder@DU?$char_traits@D@std@@@012@AEBU?$format_item@DU?$char_traits@D@std@@V?$allocator@D@2@@012@AEAV?$basic_string@DU?$char_traits@D@std@@V?$allocator@D@2@@std@@AEAV?$basic_altstringbuf@DU?$char_traits@D@std@@V?$allocator@D@2@@12@PEAVlocale@6@@Z
	??$put_head@DU?$char_traits@D@std@@@detail@io@boost@@YAXAEAV?$basic_ostream@DU?$char_traits@D@std@@@std@@AEBU?$put_holder@DU?$char_traits@D@std@@@012@@Z
	??$put_head@DU?$char_traits@D@std@@I@detail@io@boost@@YAXAEAV?$basic_ostream@DU?$char_traits@D@std@@@std@@AEBI@Z
	??$put_head@DU?$char_traits@D@std@@N@detail@io@boost@@YAXAEAV?$basic_ostream@DU?$char_traits@D@std@@@std@@AEBN@Z
	??$put_last@DU?$char_traits@D@std@@@detail@io@boost@@YAXAEAV?$basic_ostream@DU?$char_traits@D@std@@@std@@AEBU?$put_holder@DU?$char_traits@D@std@@@012@@Z
	??$put_last@DU?$char_traits@D@std@@I@detail@io@boost@@YAXAEAV?$basic_ostream@DU?$char_traits@D@std@@@std@@AEBI@Z
	??$put_last@DU?$char_traits@D@std@@N@detail@io@boost@@YAXAEAV?$basic_ostream@DU?$char_traits@D@std@@@std@@AEBN@Z
	??$range_begin@$$CBU?$empty_container@D@detail@algorithm@boost@@@range_detail@boost@@YAPEBDAEBU?$empty_container@D@detail@algorithm@1@@Z
	??$range_begin@$$CBV?$basic_string@DU?$char_traits@D@std@@V?$allocator@D@2@@std@@@range_detail@boost@@YA?AV?$_String_const_iterator@V?$_String_val@U?$_Simple_types@D@std@@@std@@@std@@AEBV?$basic_string@DU?$char_traits@D@std@@V?$allocator@D@2@@3@@Z
	??$range_begin@$$CBV?$iterator_range@PEBD@boost@@@range_detail@boost@@YAPEBDAEBV?$iterator_range@PEBD@1@@Z
	??$range_begin@$$CBV?$iterator_range@V?$_String_const_iterator@V?$_String_val@U?$_Simple_types@D@std@@@std@@@std@@@boost@@@range_detail@boost@@YA?AV?$_String_const_iterator@V?$_String_val@U?$_Simple_types@D@std@@@std@@@std@@AEBV?$iterator_range@V?$_String_const_iterator@V?$_String_val@U?$_Simple_types@D@std@@@std@@@std@@@1@@Z
	??$range_begin@V?$basic_string@DU?$char_traits@D@std@@V?$allocator@D@2@@std@@@range_detail@boost@@YA?AV?$_String_iterator@V?$_String_val@U?$_Simple_types@D@std@@@std@@@std@@AEAV?$basic_string@DU?$char_traits@D@std@@V?$allocator@D@2@@3@@Z
	??$range_begin@V?$iterator_range@V?$_String_iterator@V?$_String_val@U?$_Simple_types@D@std@@@std@@@std@@@boost@@@range_detail@boost@@YA?AV?$_String_iterator@V?$_String_val@U?$_Simple_types@D@std@@@std@@@std@@AEAV?$iterator_range@V?$_String_iterator@V?$_String_val@U?$_Simple_types@D@std@@@std@@@std@@@1@@Z
	??$range_end@$$CBU?$empty_container@D@detail@algorithm@boost@@@range_detail@boost@@YAPEBDAEBU?$empty_container@D@detail@algorithm@1@@Z
	??$range_end@$$CBV?$basic_string@DU?$char_traits@D@std@@V?$allocator@D@2@@std@@@range_detail@boost@@YA?AV?$_String_const_iterator@V?$_String_val@U?$_Simple_types@D@std@@@std@@@std@@AEBV?$basic_string@DU?$char_traits@D@std@@V?$allocator@D@2@@3@@Z
	??$range_end@$$CBV?$iterator_range@PEBD@boost@@@range_detail@boost@@YAPEBDAEBV?$iterator_range@PEBD@1@@Z
	??$range_end@$$CBV?$iterator_range@V?$_String_const_iterator@V?$_String_val@U?$_Simple_types@D@std@@@std@@@std@@@boost@@@range_detail@boost@@YA?AV?$_String_const_iterator@V?$_String_val@U?$_Simple_types@D@std@@@std@@@std@@AEBV?$iterator_range@V?$_String_const_iterator@V?$_String_val@U?$_Simple_types@D@std@@@std@@@std@@@1@@Z
	??$range_end@V?$basic_string@DU?$char_traits@D@std@@V?$allocator@D@2@@std@@@range_detail@boost@@YA?AV?$_String_iterator@V?$_String_val@U?$_Simple_types@D@std@@@std@@@std@@AEAV?$basic_string@DU?$char_traits@D@std@@V?$allocator@D@2@@3@@Z
	??$range_end@V?$iterator_range@V?$_String_iterator@V?$_String_val@U?$_Simple_types@D@std@@@std@@@std@@@boost@@@range_detail@boost@@YA?AV?$_String_iterator@V?$_String_val@U?$_Simple_types@D@std@@@std@@@std@@AEAV?$iterator_range@V?$_String_iterator@V?$_String_val@U?$_Simple_types@D@std@@@std@@@std@@@1@@Z
	??$replace_all@V?$basic_string@DU?$char_traits@D@std@@V?$allocator@D@2@@std@@$$BY02DV12@@algorithm@boost@@YAXAEAV?$basic_string@DU?$char_traits@D@std@@V?$allocator@D@2@@std@@AEAY02$$CBDAEBV23@@Z
	??$replace_all@V?$basic_string@DU?$char_traits@D@std@@V?$allocator@D@2@@std@@PEBDV12@@algorithm@boost@@YAXAEAV?$basic_string@DU?$char_traits@D@std@@V?$allocator@D@2@@std@@AEBQEBDAEBV23@@Z
	??$replace_all@V?$basic_string@DU?$char_traits@D@std@@V?$allocator@D@2@@std@@V?$iterator_range@PEBD@boost@@V34@@algorithm@boost@@YAXAEAV?$basic_string@DU?$char_traits@D@std@@V?$allocator@D@2@@std@@AEBV?$iterator_range@PEBD@1@1@Z
	??$reverse@V?$_Deque_iterator@V?$_Deque_val@U?$_Deque_simple_types@D@std@@@std@@@std@@@std@@YAXV?$_Deque_iterator@V?$_Deque_val@U?$_Deque_simple_types@D@std@@@std@@@0@0@Z
	??$reverse@V?$_Deque_unchecked_iterator@V?$_Deque_val@U?$_Deque_simple_types@D@std@@@std@@@std@@@std@@YAXV?$_Deque_unchecked_iterator@V?$_Deque_val@U?$_Deque_simple_types@D@std@@@std@@@0@0@Z
	??$rotate@V?$_Deque_iterator@V?$_Deque_val@U?$_Deque_simple_types@D@std@@@std@@@std@@@std@@YA?AV?$_Deque_iterator@V?$_Deque_val@U?$_Deque_simple_types@D@std@@@std@@@0@V10@00@Z
	??$setfill@D@std@@YA?AU?$_Fillobj@D@0@D@Z
	??$sp_deleter_construct@V?$basic_altstringbuf@DU?$char_traits@D@std@@V?$allocator@D@2@@io@boost@@V123@@detail@boost@@YAXPEAV?$shared_ptr@V?$basic_altstringbuf@DU?$char_traits@D@std@@V?$allocator@D@2@@io@boost@@@1@PEAV?$basic_altstringbuf@DU?$char_traits@D@std@@V?$allocator@D@2@@io@1@@Z
	??$str2int@HV?$_String_const_iterator@V?$_String_val@U?$_Simple_types@D@std@@@std@@@std@@V?$ctype@D@2@@detail@io@boost@@YA?AV?$_String_const_iterator@V?$_String_val@U?$_Simple_types@D@std@@@std@@@std@@AEBV34@0AEAHAEBV?$ctype@D@4@@Z
	??$str2int@_JV?$_String_const_iterator@V?$_String_val@U?$_Simple_types@D@std@@@std@@@std@@V?$ctype@D@2@@detail@io@boost@@YA?AV?$_String_const_iterator@V?$_String_val@U?$_Simple_types@D@std@@@std@@@std@@AEBV34@0AEA_JAEBV?$ctype@D@4@@Z
	??$str@DU?$char_traits@D@std@@V?$allocator@D@2@@boost@@YA?AV?$basic_string@DU?$char_traits@D@std@@V?$allocator@D@2@@std@@AEBV?$basic_format@DU?$char_traits@D@std@@V?$allocator@D@2@@0@@Z
	??$swap@D$0A@@std@@YAXAEAD0@Z
	??$throw_exception@Ubad_day_of_month@gregorian@boost@@@boost@@YAXAEBUbad_day_of_month@gregorian@0@@Z
	??$throw_exception@Ubad_day_of_year@gregorian@boost@@@boost@@YAXAEBUbad_day_of_year@gregorian@0@@Z
	??$throw_exception@Ubad_month@gregorian@boost@@@boost@@YAXAEBUbad_month@gregorian@0@@Z
	??$throw_exception@Ubad_weekday@gregorian@boost@@@boost@@YAXAEBUbad_weekday@gregorian@0@@Z
	??$throw_exception@Ubad_year@gregorian@boost@@@boost@@YAXAEBUbad_year@gregorian@0@@Z
	??$throw_exception@Vbad_format_string@io@boost@@@boost@@YAXAEBVbad_format_string@io@0@@Z
	??$throw_exception@Vout_of_range@std@@@boost@@YAXAEBVout_of_range@std@@@Z
	??$throw_exception@Vtoo_few_args@io@boost@@@boost@@YAXAEBVtoo_few_args@io@0@@Z
	??$throw_exception@Vtoo_many_args@io@boost@@@boost@@YAXAEBVtoo_many_args@io@0@@Z
	??$uninitialized_copy@PEAPEADPEAPEAD@std@@YAPEAPEADQEAPEAD0PEAPEAD@Z
	??$upper_bound_from_fstring@V?$basic_string@DU?$char_traits@D@std@@V?$allocator@D@2@@std@@V?$ctype@D@2@@detail@io@boost@@YAHAEBV?$basic_string@DU?$char_traits@D@std@@V?$allocator@D@2@@std@@DAEBV?$ctype@D@4@E@Z
	??$use_facet@V?$ctype@D@std@@@std@@YAAEBV?$ctype@D@0@AEBVlocale@0@@Z
	??$use_facet@V?$date_facet@Vdate@gregorian@boost@@DV?$ostreambuf_iterator@DU?$char_traits@D@std@@@std@@@date_time@boost@@@std@@YAAEBV?$date_facet@Vdate@gregorian@boost@@DV?$ostreambuf_iterator@DU?$char_traits@D@std@@@std@@@date_time@boost@@AEBVlocale@0@@Z
	??$use_facet@V?$numpunct@D@std@@@std@@YAAEBV?$numpunct@D@0@AEBVlocale@0@@Z
	??$use_facet@V?$time_facet@Vptime@posix_time@boost@@DV?$ostreambuf_iterator@DU?$char_traits@D@std@@@std@@@date_time@boost@@@std@@YAAEBV?$time_facet@Vptime@posix_time@boost@@DV?$ostreambuf_iterator@DU?$char_traits@D@std@@@std@@@date_time@boost@@AEBVlocale@0@@Z
	??$use_facet@V?$time_put@DV?$ostreambuf_iterator@DU?$char_traits@D@std@@@std@@@std@@@std@@YAAEBV?$time_put@DV?$ostreambuf_iterator@DU?$char_traits@D@std@@@std@@@0@AEBVlocale@0@@Z
	??$wrap_isdigit@DV?$ctype@D@std@@@detail@io@boost@@YA_NAEBV?$ctype@D@std@@D@Z
	??$wrap_narrow@DV?$ctype@D@std@@@detail@io@boost@@YADAEBV?$ctype@D@std@@DD@Z
	??$wrap_scan_notdigit@V?$_String_const_iterator@V?$_String_val@U?$_Simple_types@D@std@@@std@@@std@@V?$ctype@D@2@@detail@io@boost@@YA?AV?$_String_const_iterator@V?$_String_val@U?$_Simple_types@D@std@@@std@@@std@@AEBV?$ctype@D@4@V34@1@Z
	??0?$_Atomic_integral@H$03@std@@QEAA@H@Z
	??0?$_Atomic_integral_facade@H@std@@QEAA@H@Z
	??0?$_Atomic_storage@H$03@std@@QEAA@H@Z
	??0?$_Container_proxy_ptr12@V?$allocator@U_Container_proxy@std@@@std@@@std@@QEAA@AEAV?$allocator@U_Container_proxy@std@@@1@AEAU_Container_base12@1@@Z
	??0?$_Deque_const_iterator@V?$_Deque_val@U?$_Deque_simple_types@D@std@@@std@@@std@@QEAA@$$QEAV01@@Z
	??0?$_Deque_const_iterator@V?$_Deque_val@U?$_Deque_simple_types@D@std@@@std@@@std@@QEAA@AEBV01@@Z
	??0?$_Deque_const_iterator@V?$_Deque_val@U?$_Deque_simple_types@D@std@@@std@@@std@@QEAA@_KPEBU_Container_base12@1@@Z
	??0?$_Deque_iterator@V?$_Deque_val@U?$_Deque_simple_types@D@std@@@std@@@std@@QEAA@$$QEAV01@@Z
	??0?$_Deque_iterator@V?$_Deque_val@U?$_Deque_simple_types@D@std@@@std@@@std@@QEAA@AEBV01@@Z
	??0?$_Deque_iterator@V?$_Deque_val@U?$_Deque_simple_types@D@std@@@std@@@std@@QEAA@_KPEBU_Container_base12@1@@Z
	??0?$_Deque_unchecked_const_iterator@V?$_Deque_val@U?$_Deque_simple_types@D@std@@@std@@@std@@QEAA@_KPEBU_Container_base12@1@@Z
	??0?$_Deque_unchecked_iterator@V?$_Deque_val@U?$_Deque_simple_types@D@std@@@std@@@std@@QEAA@_KPEBU_Container_base12@1@@Z
	??0?$_Deque_val@U?$_Deque_simple_types@D@std@@@std@@QEAA@XZ
	??0?$_Fillobj@D@std@@QEAA@D@Z
	??0?$_String_const_iterator@V?$_String_val@U?$_Simple_types@D@std@@@std@@@std@@QEAA@$$QEAV01@@Z
	??0?$_String_const_iterator@V?$_String_val@U?$_Simple_types@D@std@@@std@@@std@@QEAA@AEBV01@@Z
	??0?$_String_const_iterator@V?$_String_val@U?$_Simple_types@D@std@@@std@@@std@@QEAA@PEBDPEBU_Container_base12@1@@Z
	??0?$_String_const_iterator@V?$_String_val@U?$_Simple_types@D@std@@@std@@@std@@QEAA@XZ
	??0?$_String_iterator@V?$_String_val@U?$_Simple_types@D@std@@@std@@@std@@QEAA@$$QEAV01@@Z
	??0?$_String_iterator@V?$_String_val@U?$_Simple_types@D@std@@@std@@@std@@QEAA@AEBV01@@Z
	??0?$_String_iterator@V?$_String_val@U?$_Simple_types@D@std@@@std@@@std@@QEAA@PEBDPEBU_Container_base12@1@@Z
	??0?$_String_val@U?$_Simple_types@D@std@@@std@@QEAA@XZ
	??0?$_Uninitialized_backout@PEAPEAD@std@@QEAA@PEAPEAD@Z
	??0?$_Uninitialized_backout_al@V?$allocator@I@std@@@std@@QEAA@PEAIAEAV?$allocator@I@1@@Z
	??0?$_Uninitialized_backout_al@V?$allocator@U?$format_item@DU?$char_traits@D@std@@V?$allocator@D@2@@detail@io@boost@@@std@@@std@@QEAA@PEAU?$format_item@DU?$char_traits@D@std@@V?$allocator@D@2@@detail@io@boost@@AEAV?$allocator@U?$format_item@DU?$char_traits@D@std@@V?$allocator@D@2@@detail@io@boost@@@1@@Z
	??0?$_Uninitialized_backout_al@V?$allocator@V?$basic_string@DU?$char_traits@D@std@@V?$allocator@D@2@@std@@@std@@@std@@QEAA@PEAV?$basic_string@DU?$char_traits@D@std@@V?$allocator@D@2@@1@AEAV?$allocator@V?$basic_string@DU?$char_traits@D@std@@V?$allocator@D@2@@std@@@1@@Z
	??0?$_Vb_const_iterator@U?$_Wrap_alloc@V?$allocator@I@std@@@std@@@std@@QEAA@$$QEAV01@@Z
	??0?$_Vb_const_iterator@U?$_Wrap_alloc@V?$allocator@I@std@@@std@@@std@@QEAA@AEBV01@@Z
	??0?$_Vb_const_iterator@U?$_Wrap_alloc@V?$allocator@I@std@@@std@@@std@@QEAA@PEBIPEBU_Container_base12@1@@Z
	??0?$_Vb_iter_base@U?$_Wrap_alloc@V?$allocator@I@std@@@std@@@std@@QEAA@$$QEAV01@@Z
	??0?$_Vb_iter_base@U?$_Wrap_alloc@V?$allocator@I@std@@@std@@@std@@QEAA@AEBV01@@Z
	??0?$_Vb_iter_base@U?$_Wrap_alloc@V?$allocator@I@std@@@std@@@std@@QEAA@PEBI_KPEBU_Container_base12@1@@Z
	??0?$_Vb_iterator@U?$_Wrap_alloc@V?$allocator@I@std@@@std@@@std@@QEAA@$$QEAV01@@Z
	??0?$_Vb_iterator@U?$_Wrap_alloc@V?$allocator@I@std@@@std@@@std@@QEAA@AEBV01@@Z
	??0?$_Vb_iterator@U?$_Wrap_alloc@V?$allocator@I@std@@@std@@@std@@QEAA@PEBIPEBU_Container_base12@1@@Z
	??0?$_Vb_reference@U?$_Wrap_alloc@V?$allocator@I@std@@@std@@@std@@QEAA@AEBV?$_Vb_iter_base@U?$_Wrap_alloc@V?$allocator@I@std@@@std@@@1@@Z
	??0?$_Vb_val@V?$allocator@_N@std@@@std@@QEAA@XZ
	??0?$_Vector_const_iterator@V?$_Vector_val@U?$_Simple_types@I@std@@@std@@@std@@QEAA@$$QEAV01@@Z
	??0?$_Vector_const_iterator@V?$_Vector_val@U?$_Simple_types@I@std@@@std@@@std@@QEAA@AEBV01@@Z
	??0?$_Vector_const_iterator@V?$_Vector_val@U?$_Simple_types@I@std@@@std@@@std@@QEAA@PEAIPEBU_Container_base12@1@@Z
	??0?$_Vector_iterator@V?$_Vector_val@U?$_Simple_types@I@std@@@std@@@std@@QEAA@$$QEAV01@@Z
	??0?$_Vector_iterator@V?$_Vector_val@U?$_Simple_types@I@std@@@std@@@std@@QEAA@AEBV01@@Z
	??0?$_Vector_iterator@V?$_Vector_val@U?$_Simple_types@I@std@@@std@@@std@@QEAA@PEAIPEBU_Container_base12@1@@Z
	??0?$_Vector_val@U?$_Simple_types@I@std@@@std@@QEAA@XZ
	??0?$_Vector_val@U?$_Simple_types@U?$format_item@DU?$char_traits@D@std@@V?$allocator@D@2@@detail@io@boost@@@std@@@std@@QEAA@XZ
	??0?$_Vector_val@U?$_Simple_types@V?$basic_string@DU?$char_traits@D@std@@V?$allocator@D@2@@std@@@std@@@std@@QEAA@XZ
	??0?$allocator@D@std@@QEAA@XZ
	??0?$allocator@I@std@@QEAA@XZ
	??0?$allocator@U?$format_item@DU?$char_traits@D@std@@V?$allocator@D@2@@detail@io@boost@@@std@@QEAA@XZ
	??0?$allocator@V?$basic_string@DU?$char_traits@D@std@@V?$allocator@D@2@@std@@@std@@QEAA@XZ
	??0?$atomic@H@std@@QEAA@H@Z
	??0?$back_insert_iterator@V?$vector@V?$basic_string@DU?$char_traits@D@std@@V?$allocator@D@2@@std@@V?$allocator@V?$basic_string@DU?$char_traits@D@std@@V?$allocator@D@2@@std@@@2@@std@@@std@@QEAA@AEAV?$vector@V?$basic_string@DU?$char_traits@D@std@@V?$allocator@D@2@@std@@V?$allocator@V?$basic_string@DU?$char_traits@D@std@@V?$allocator@D@2@@std@@@2@@1@@Z
	??0?$basic_altstringbuf@DU?$char_traits@D@std@@V?$allocator@D@2@@io@boost@@QEAA@H@Z
	??0?$basic_format@DU?$char_traits@D@std@@V?$allocator@D@2@@boost@@QEAA@PEBD@Z
	??0?$basic_oaltstringstream@DU?$char_traits@D@std@@V?$allocator@D@2@@io@boost@@QEAA@PEAV?$basic_altstringbuf@DU?$char_traits@D@std@@V?$allocator@D@2@@12@@Z
	??0?$basic_ostringstream@DU?$char_traits@D@std@@V?$allocator@D@2@@std@@QEAA@XZ
	??0?$basic_string@DU?$char_traits@D@std@@V?$allocator@D@2@@std@@QEAA@$$QEAV01@@Z
	??0?$basic_string@DU?$char_traits@D@std@@V?$allocator@D@2@@std@@QEAA@AEBV01@@Z
	??0?$basic_string@DU?$char_traits@D@std@@V?$allocator@D@2@@std@@QEAA@AEBV?$allocator@D@1@@Z
	??0?$basic_string@DU?$char_traits@D@std@@V?$allocator@D@2@@std@@QEAA@QEBD@Z
	??0?$basic_string@DU?$char_traits@D@std@@V?$allocator@D@2@@std@@QEAA@XZ
	??0?$basic_stringbuf@DU?$char_traits@D@std@@V?$allocator@D@2@@std@@QEAA@H@Z
	??0?$basic_stringstream@DU?$char_traits@D@std@@V?$allocator@D@2@@std@@QEAA@XZ
	??0?$const_formatF@V?$iterator_range@PEBD@boost@@@detail@algorithm@boost@@QEAA@AEBV?$iterator_range@PEBD@3@@Z
	??0?$const_formatF@V?$iterator_range@V?$_String_const_iterator@V?$_String_val@U?$_Simple_types@D@std@@@std@@@std@@@boost@@@detail@algorithm@boost@@QEAA@AEBU0123@@Z
	??0?$const_formatF@V?$iterator_range@V?$_String_const_iterator@V?$_String_val@U?$_Simple_types@D@std@@@std@@@std@@@boost@@@detail@algorithm@boost@@QEAA@AEBV?$iterator_range@V?$_String_const_iterator@V?$_String_val@U?$_Simple_types@D@std@@@std@@@std@@@3@@Z
	??0?$constrained_value@V?$simple_exception_policy@G$00$0BGO@Ubad_day_of_year@gregorian@boost@@@CV@boost@@@CV@boost@@QEAA@G@Z
	??0?$constrained_value@V?$simple_exception_policy@G$00$0BP@Ubad_day_of_month@gregorian@boost@@@CV@boost@@@CV@boost@@QEAA@G@Z
	??0?$constrained_value@V?$simple_exception_policy@G$00$0M@Ubad_month@gregorian@boost@@@CV@boost@@@CV@boost@@QEAA@G@Z
	??0?$constrained_value@V?$simple_exception_policy@G$0A@$05Ubad_weekday@gregorian@boost@@@CV@boost@@@CV@boost@@QEAA@G@Z
	??0?$constrained_value@V?$simple_exception_policy@G$0FHI@$0CHAP@Ubad_year@gregorian@boost@@@CV@boost@@@CV@boost@@QEAA@G@Z
	??0?$date@V0gregorian@boost@@Vgregorian_calendar@12@Vdate_duration@12@@date_time@boost@@IEAA@V?$int_adapter@I@12@@Z
	??0?$date@V0gregorian@boost@@Vgregorian_calendar@12@Vdate_duration@12@@date_time@boost@@QEAA@AEBU?$year_month_day_base@Vgreg_year@gregorian@boost@@Vgreg_month@23@Vgreg_day@23@@12@@Z
	??0?$date@V0gregorian@boost@@Vgregorian_calendar@12@Vdate_duration@12@@date_time@boost@@QEAA@Vgreg_year@gregorian@2@Vgreg_month@42@Vgreg_day@42@@Z
	??0?$date_duration@Uduration_traits_adapted@date_time@boost@@@date_time@boost@@QEAA@V?$int_adapter@J@12@@Z
	??0?$date_duration@Uduration_traits_adapted@date_time@boost@@@date_time@boost@@QEAA@W4special_values@12@@Z
	??0?$date_facet@Vdate@gregorian@boost@@DV?$ostreambuf_iterator@DU?$char_traits@D@std@@@std@@@date_time@boost@@QEAA@PEBDV?$period_formatter@DV?$ostreambuf_iterator@DU?$char_traits@D@std@@@std@@@12@V?$special_values_formatter@DV?$ostreambuf_iterator@DU?$char_traits@D@std@@@std@@@12@V?$date_generator_formatter@Vdate@gregorian@boost@@DV?$ostreambuf_iterator@DU?$char_traits@D@std@@@std@@@12@_K@Z
	??0?$date_facet@Vdate@gregorian@boost@@DV?$ostreambuf_iterator@DU?$char_traits@D@std@@@std@@@date_time@boost@@QEAA@_K@Z
	??0?$date_generator_formatter@Vdate@gregorian@boost@@DV?$ostreambuf_iterator@DU?$char_traits@D@std@@@std@@@date_time@boost@@QEAA@AEBV012@@Z
	??0?$date_generator_formatter@Vdate@gregorian@boost@@DV?$ostreambuf_iterator@DU?$char_traits@D@std@@@std@@@date_time@boost@@QEAA@XZ
	??0?$deque@DV?$allocator@D@std@@@std@@QEAA@XZ
	??0?$find_format_store@V?$_String_iterator@V?$_String_val@U?$_Simple_types@D@std@@@std@@@std@@U?$const_formatF@V?$iterator_range@PEBD@boost@@@detail@algorithm@boost@@V?$iterator_range@PEBD@6@@detail@algorithm@boost@@QEAA@AEBV?$iterator_range@V?$_String_iterator@V?$_String_val@U?$_Simple_types@D@std@@@std@@@std@@@3@AEBV?$iterator_range@PEBD@3@AEBU?$const_formatF@V?$iterator_range@PEBD@boost@@@123@@Z
	??0?$find_format_store@V?$_String_iterator@V?$_String_val@U?$_Simple_types@D@std@@@std@@@std@@U?$const_formatF@V?$iterator_range@V?$_String_const_iterator@V?$_String_val@U?$_Simple_types@D@std@@@std@@@std@@@boost@@@detail@algorithm@boost@@V?$iterator_range@V?$_String_const_iterator@V?$_String_val@U?$_Simple_types@D@std@@@std@@@std@@@6@@detail@algorithm@boost@@QEAA@AEBV?$iterator_range@V?$_String_iterator@V?$_String_val@U?$_Simple_types@D@std@@@std@@@std@@@3@AEBV?$iterator_range@V?$_String_const_iterator@V?$_String_val@U?$_Simple_types@D@std@@@std@@@std@@@3@AEBU?$const_formatF@V?$iterator_range@V?$_String_const_iterator@V?$_String_val@U?$_Simple_types@D@std@@@std@@@std@@@boost@@@123@@Z
	??0?$find_format_store@V?$_String_iterator@V?$_String_val@U?$_Simple_types@D@std@@@std@@@std@@U?$empty_formatF@D@detail@algorithm@boost@@U?$empty_container@D@456@@detail@algorithm@boost@@QEAA@AEBV?$iterator_range@V?$_String_iterator@V?$_String_val@U?$_Simple_types@D@std@@@std@@@std@@@3@AEBU?$empty_container@D@123@AEBU?$empty_formatF@D@123@@Z
	??0?$first_finderF@V?$_String_const_iterator@V?$_String_val@U?$_Simple_types@D@std@@@std@@@std@@Uis_equal@algorithm@boost@@@detail@algorithm@boost@@QEAA@AEBU0123@@Z
	??0?$format_item@DU?$char_traits@D@std@@V?$allocator@D@2@@detail@io@boost@@QEAA@$$QEAU0123@@Z
	??0?$format_item@DU?$char_traits@D@std@@V?$allocator@D@2@@detail@io@boost@@QEAA@AEBU0123@@Z
	??0?$format_item@DU?$char_traits@D@std@@V?$allocator@D@2@@detail@io@boost@@QEAA@D@Z
	??0?$fpos@U_Mbstatet@@@std@@QEAA@_J@Z
	??0?$int_adapter@I@date_time@boost@@QEAA@I@Z
	??0?$int_adapter@J@date_time@boost@@QEAA@J@Z
	??0?$int_adapter@_J@date_time@boost@@QEAA@_J@Z
	??0?$iterator_range@V?$_String_const_iterator@V?$_String_val@U?$_Simple_types@D@std@@@std@@@std@@@boost@@QEAA@AEBV01@@Z
	??0?$iterator_range@V?$_String_iterator@V?$_String_val@U?$_Simple_types@D@std@@@std@@@std@@@boost@@QEAA@AEBV01@@Z
	??0?$iterator_range_base@V?$_String_const_iterator@V?$_String_val@U?$_Simple_types@D@std@@@std@@@std@@Ubidirectional_traversal_tag@iterators@boost@@@iterator_range_detail@boost@@QEAA@AEBV012@@Z
	??0?$iterator_range_base@V?$_String_const_iterator@V?$_String_val@U?$_Simple_types@D@std@@@std@@@std@@Uincrementable_traversal_tag@iterators@boost@@@iterator_range_detail@boost@@QEAA@AEBV012@@Z
	??0?$iterator_range_base@V?$_String_const_iterator@V?$_String_val@U?$_Simple_types@D@std@@@std@@@std@@Urandom_access_traversal_tag@iterators@boost@@@iterator_range_detail@boost@@QEAA@AEBV012@@Z
	??0?$iterator_range_base@V?$_String_iterator@V?$_String_val@U?$_Simple_types@D@std@@@std@@@std@@Ubidirectional_traversal_tag@iterators@boost@@@iterator_range_detail@boost@@QEAA@AEBV012@@Z
	??0?$iterator_range_base@V?$_String_iterator@V?$_String_val@U?$_Simple_types@D@std@@@std@@@std@@Uincrementable_traversal_tag@iterators@boost@@@iterator_range_detail@boost@@QEAA@AEBV012@@Z
	??0?$iterator_range_base@V?$_String_iterator@V?$_String_val@U?$_Simple_types@D@std@@@std@@@std@@Urandom_access_traversal_tag@iterators@boost@@@iterator_range_detail@boost@@QEAA@AEBV012@@Z
	??0?$numpunct@D@std@@QEAA@AEBV_Locinfo@1@_K_N@Z
	??0?$optional@Vlocale@std@@@boost@@QEAA@$$QEAV01@@Z
	??0?$optional@Vlocale@std@@@boost@@QEAA@AEBV01@@Z
	??0?$optional@Vlocale@std@@@boost@@QEAA@XZ
	??0?$optional_base@Vlocale@std@@@optional_detail@boost@@IEAA@$$QEAV012@@Z
	??0?$optional_base@Vlocale@std@@@optional_detail@boost@@IEAA@AEBV012@@Z
	??0?$optional_base@Vlocale@std@@@optional_detail@boost@@IEAA@XZ
	??0?$ostreambuf_iterator@DU?$char_traits@D@std@@@std@@QEAA@AEAV?$basic_ostream@DU?$char_traits@D@std@@@1@@Z
	??0?$period_formatter@DV?$ostreambuf_iterator@DU?$char_traits@D@std@@@std@@@date_time@boost@@QEAA@AEBV012@@Z
	??0?$period_formatter@DV?$ostreambuf_iterator@DU?$char_traits@D@std@@@std@@@date_time@boost@@QEAA@W4range_display_options@012@QEBD111@Z
	??0?$refcount_ptr@Uerror_info_container@exception_detail@boost@@@exception_detail@boost@@QEAA@AEBV012@@Z
	??0?$refcount_ptr@Uerror_info_container@exception_detail@boost@@@exception_detail@boost@@QEAA@XZ
	??0?$sp_counted_impl_pd@PEAV?$basic_altstringbuf@DU?$char_traits@D@std@@V?$allocator@D@2@@io@boost@@VNo_Op@?$basic_oaltstringstream@DU?$char_traits@D@std@@V?$allocator@D@2@@23@@detail@boost@@QEAA@PEAV?$basic_altstringbuf@DU?$char_traits@D@std@@V?$allocator@D@2@@io@2@AEAVNo_Op@?$basic_oaltstringstream@DU?$char_traits@D@std@@V?$allocator@D@2@@42@@Z
	??0?$special_values_formatter@DV?$ostreambuf_iterator@DU?$char_traits@D@std@@@std@@@date_time@boost@@QEAA@AEBV012@@Z
	??0?$special_values_formatter@DV?$ostreambuf_iterator@DU?$char_traits@D@std@@@std@@@date_time@boost@@QEAA@XZ
	??0?$stream_format_state@DU?$char_traits@D@std@@@detail@io@boost@@QEAA@$$QEAU0123@@Z
	??0?$stream_format_state@DU?$char_traits@D@std@@@detail@io@boost@@QEAA@AEBU0123@@Z
	??0?$stream_format_state@DU?$char_traits@D@std@@@detail@io@boost@@QEAA@D@Z
	??0?$time_duration@V0posix_time@boost@@V?$time_resolution_traits@Utime_resolution_traits_adapted64_impl@date_time@boost@@$04$0PECEA@$05_J@date_time@2@@date_time@boost@@QEAA@W4special_values@12@@Z
	??0?$time_duration@V0posix_time@boost@@V?$time_resolution_traits@Utime_resolution_traits_adapted64_impl@date_time@boost@@$04$0PECEA@$05_J@date_time@2@@date_time@boost@@QEAA@_J000@Z
	??0?$time_facet@Vptime@posix_time@boost@@DV?$ostreambuf_iterator@DU?$char_traits@D@std@@@std@@@date_time@boost@@QEAA@PEBDV?$period_formatter@DV?$ostreambuf_iterator@DU?$char_traits@D@std@@@std@@@12@AEBV?$special_values_formatter@DV?$ostreambuf_iterator@DU?$char_traits@D@std@@@std@@@12@V?$date_generator_formatter@Vdate@gregorian@boost@@DV?$ostreambuf_iterator@DU?$char_traits@D@std@@@std@@@12@_K@Z
	??0?$time_facet@Vptime@posix_time@boost@@DV?$ostreambuf_iterator@DU?$char_traits@D@std@@@std@@@date_time@boost@@QEAA@_K@Z
	??0?$vector@IV?$allocator@I@std@@@std@@QEAA@XZ
	??0?$vector@U?$format_item@DU?$char_traits@D@std@@V?$allocator@D@2@@detail@io@boost@@V?$allocator@U?$format_item@DU?$char_traits@D@std@@V?$allocator@D@2@@detail@io@boost@@@std@@@std@@QEAA@XZ
	??0?$vector@V?$basic_string@DU?$char_traits@D@std@@V?$allocator@D@2@@std@@V?$allocator@V?$basic_string@DU?$char_traits@D@std@@V?$allocator@D@2@@std@@@2@@std@@QEAA@AEBV01@@Z
	??0?$vector@V?$basic_string@DU?$char_traits@D@std@@V?$allocator@D@2@@std@@V?$allocator@V?$basic_string@DU?$char_traits@D@std@@V?$allocator@D@2@@std@@@2@@std@@QEAA@XZ
	??0?$vector@_NV?$allocator@_N@std@@@std@@QEAA@XZ
	??0?$wrapexcept@Ubad_day_of_month@gregorian@boost@@@boost@@QEAA@AEBU01@@Z
	??0?$wrapexcept@Ubad_day_of_month@gregorian@boost@@@boost@@QEAA@AEBUbad_day_of_month@gregorian@1@@Z
	??0?$wrapexcept@Ubad_day_of_year@gregorian@boost@@@boost@@QEAA@AEBU01@@Z
	??0?$wrapexcept@Ubad_day_of_year@gregorian@boost@@@boost@@QEAA@AEBUbad_day_of_year@gregorian@1@@Z
	??0?$wrapexcept@Ubad_month@gregorian@boost@@@boost@@QEAA@AEBU01@@Z
	??0?$wrapexcept@Ubad_month@gregorian@boost@@@boost@@QEAA@AEBUbad_month@gregorian@1@@Z
	??0?$wrapexcept@Ubad_weekday@gregorian@boost@@@boost@@QEAA@AEBU01@@Z
	??0?$wrapexcept@Ubad_weekday@gregorian@boost@@@boost@@QEAA@AEBUbad_weekday@gregorian@1@@Z
	??0?$wrapexcept@Ubad_year@gregorian@boost@@@boost@@QEAA@AEBU01@@Z
	??0?$wrapexcept@Ubad_year@gregorian@boost@@@boost@@QEAA@AEBUbad_year@gregorian@1@@Z
	??0?$wrapexcept@Vbad_format_string@io@boost@@@boost@@QEAA@AEBU01@@Z
	??0?$wrapexcept@Vbad_format_string@io@boost@@@boost@@QEAA@AEBVbad_format_string@io@1@@Z
	??0?$wrapexcept@Vout_of_range@std@@@boost@@QEAA@AEBU01@@Z
	??0?$wrapexcept@Vout_of_range@std@@@boost@@QEAA@AEBVout_of_range@std@@@Z
	??0?$wrapexcept@Vtoo_few_args@io@boost@@@boost@@QEAA@AEBU01@@Z
	??0?$wrapexcept@Vtoo_few_args@io@boost@@@boost@@QEAA@AEBVtoo_few_args@io@1@@Z
	??0?$wrapexcept@Vtoo_many_args@io@boost@@@boost@@QEAA@AEBU01@@Z
	??0?$wrapexcept@Vtoo_many_args@io@boost@@@boost@@QEAA@AEBVtoo_many_args@io@1@@Z
	??0?$year_month_day_base@Vgreg_year@gregorian@boost@@Vgreg_month@23@Vgreg_day@23@@date_time@boost@@QEAA@Vgreg_year@gregorian@2@Vgreg_month@42@Vgreg_day@42@@Z
	??0_Basic_container_proxy_ptr12@std@@IEAA@XZ
	??0_Bxty@?$_String_val@U?$_Simple_types@D@std@@@std@@QEAA@XZ
	??0_Container_base12@std@@QEAA@XZ
	??0_Container_proxy@std@@QEAA@PEAU_Container_base12@1@@Z
	??0_Iterator_base12@std@@QEAA@AEBU01@@Z
	??0_Iterator_base12@std@@QEAA@XZ
	??0_Sentry_base@?$basic_ostream@DU?$char_traits@D@std@@@std@@QEAA@AEAV12@@Z
	??0bad_alloc@std@@AEAA@QEBD@Z
	??0bad_alloc@std@@QEAA@AEBV01@@Z
	??0bad_array_new_length@std@@QEAA@AEBV01@@Z
	??0bad_array_new_length@std@@QEAA@XZ
	??0bad_cast@std@@QEAA@AEBV01@@Z
	??0bad_cast@std@@QEAA@XZ
	??0bad_day_of_month@gregorian@boost@@QEAA@AEBU012@@Z
	??0bad_day_of_month@gregorian@boost@@QEAA@AEBV?$basic_string@DU?$char_traits@D@std@@V?$allocator@D@2@@std@@@Z
	??0bad_day_of_month@gregorian@boost@@QEAA@XZ
	??0bad_day_of_year@gregorian@boost@@QEAA@AEBU012@@Z
	??0bad_day_of_year@gregorian@boost@@QEAA@XZ
	??0bad_format_string@io@boost@@QEAA@AEBV012@@Z
	??0bad_format_string@io@boost@@QEAA@_K0@Z
	??0bad_month@gregorian@boost@@QEAA@AEBU012@@Z
	??0bad_month@gregorian@boost@@QEAA@XZ
	??0bad_weekday@gregorian@boost@@QEAA@AEBU012@@Z
	??0bad_weekday@gregorian@boost@@QEAA@XZ
	??0bad_year@gregorian@boost@@QEAA@AEBU012@@Z
	??0bad_year@gregorian@boost@@QEAA@XZ
	??0clone_base@exception_detail@boost@@QEAA@AEBV012@@Z
	??0clone_base@exception_detail@boost@@QEAA@XZ
	??0date@gregorian@boost@@QEAA@AEBU?$year_month_day_base@Vgreg_year@gregorian@boost@@Vgreg_month@23@Vgreg_day@23@@date_time@2@@Z
	??0date@gregorian@boost@@QEAA@Vgreg_year@12@Vgreg_month@12@Vgreg_day@12@@Z
	??0date@gregorian@boost@@QEAA@W4special_values@date_time@2@@Z
	??0date_duration@gregorian@boost@@QEAA@V?$int_adapter@J@date_time@2@@Z
	??0date_duration@gregorian@boost@@QEAA@W4special_values@date_time@2@@Z
	??0exception@boost@@IEAA@XZ
	??0exception@boost@@QEAA@AEBV01@@Z
	??0exception@std@@QEAA@AEBV01@@Z
	??0exception@std@@QEAA@QEBD@Z
	??0exception@std@@QEAA@QEBDH@Z
	??0exception@std@@QEAA@XZ
	??0format_error@io@boost@@QEAA@AEBV012@@Z
	??0format_error@io@boost@@QEAA@XZ
	??0greg_day@gregorian@boost@@QEAA@G@Z
	??0greg_month@gregorian@boost@@QEAA@G@Z
	??0greg_weekday@gregorian@boost@@QEAA@G@Z
	??0greg_year@gregorian@boost@@QEAA@G@Z
	??0in_place_init_if_t@optional_ns@boost@@QEAA@Uinit_tag@012@@Z
	??0in_place_init_t@optional_ns@boost@@QEAA@Uinit_tag@012@@Z
	??0ios_flags_saver@io@boost@@QEAA@AEAVios_base@std@@@Z
	??0latitude@detail@nmea@vanetza@@QEAA@AEBUWgs84Point@3@@Z
	??0locale@std@@QEAA@AEBV01@@Z
	??0locale@std@@QEAA@XZ
	??0logic_error@std@@QEAA@AEBV01@@Z
	??0logic_error@std@@QEAA@PEBD@Z
	??0longitude@detail@nmea@vanetza@@QEAA@AEBUWgs84Point@3@@Z
	??0out_of_range@std@@QEAA@AEBV01@@Z
	??0out_of_range@std@@QEAA@AEBV?$basic_string@DU?$char_traits@D@std@@V?$allocator@D@2@@1@@Z
	??0sentry@?$basic_ostream@DU?$char_traits@D@std@@@std@@QEAA@AEAV12@@Z
	??0sp_counted_base@detail@boost@@QEAA@XZ
	??0time_duration@posix_time@boost@@QEAA@W4special_values@date_time@2@@Z
	??0time_duration@posix_time@boost@@QEAA@_J000@Z
	??0too_few_args@io@boost@@QEAA@AEBV012@@Z
	??0too_few_args@io@boost@@QEAA@_K0@Z
	??0too_many_args@io@boost@@QEAA@AEBV012@@Z
	??0too_many_args@io@boost@@QEAA@_K0@Z
	??1?$_Compressed_pair@V?$allocator@D@std@@V?$_String_val@U?$_Simple_types@D@std@@@2@$00@std@@QEAA@XZ
	??1?$_Container_proxy_ptr12@V?$allocator@U_Container_proxy@std@@@std@@@std@@QEAA@XZ
	??1?$_Deque_const_iterator@V?$_Deque_val@U?$_Deque_simple_types@D@std@@@std@@@std@@QEAA@XZ
	??1?$_Deque_iterator@V?$_Deque_val@U?$_Deque_simple_types@D@std@@@std@@@std@@QEAA@XZ
	??1?$_Restore_old_size_guard@$00@?$deque@DV?$allocator@D@std@@@std@@QEAA@XZ
	??1?$_Restore_old_size_guard@$0A@@?$deque@DV?$allocator@D@std@@@std@@QEAA@XZ
	??1?$_String_const_iterator@V?$_String_val@U?$_Simple_types@D@std@@@std@@@std@@QEAA@XZ
	??1?$_String_iterator@V?$_String_val@U?$_Simple_types@D@std@@@std@@@std@@QEAA@XZ
	??1?$_String_val@U?$_Simple_types@D@std@@@std@@QEAA@XZ
	??1?$_Tidy_deallocate_guard@V?$basic_string@DU?$char_traits@D@std@@V?$allocator@D@2@@std@@@std@@QEAA@XZ
	??1?$_Tidy_guard@V?$numpunct@D@std@@@std@@QEAA@XZ
	??1?$_Tidy_guard@V?$vector@V?$basic_string@DU?$char_traits@D@std@@V?$allocator@D@2@@std@@V?$allocator@V?$basic_string@DU?$char_traits@D@std@@V?$allocator@D@2@@std@@@2@@std@@@std@@QEAA@XZ
	??1?$_Uninitialized_backout@PEAPEAD@std@@QEAA@XZ
	??1?$_Uninitialized_backout_al@V?$allocator@I@std@@@std@@QEAA@XZ
	??1?$_Uninitialized_backout_al@V?$allocator@U?$format_item@DU?$char_traits@D@std@@V?$allocator@D@2@@detail@io@boost@@@std@@@std@@QEAA@XZ
	??1?$_Uninitialized_backout_al@V?$allocator@V?$basic_string@DU?$char_traits@D@std@@V?$allocator@D@2@@std@@@std@@@std@@QEAA@XZ
	??1?$_Vb_const_iterator@U?$_Wrap_alloc@V?$allocator@I@std@@@std@@@std@@QEAA@XZ
	??1?$_Vb_iter_base@U?$_Wrap_alloc@V?$allocator@I@std@@@std@@@std@@QEAA@XZ
	??1?$_Vb_iterator@U?$_Wrap_alloc@V?$allocator@I@std@@@std@@@std@@QEAA@XZ
	??1?$_Vb_reference@U?$_Wrap_alloc@V?$allocator@I@std@@@std@@@std@@QEAA@XZ
	??1?$_Vb_val@V?$allocator@_N@std@@@std@@QEAA@XZ
	??1?$_Vector_const_iterator@V?$_Vector_val@U?$_Simple_types@I@std@@@std@@@std@@QEAA@XZ
	??1?$_Vector_iterator@V?$_Vector_val@U?$_Simple_types@I@std@@@std@@@std@@QEAA@XZ
	??1?$base_from_member@V?$shared_ptr@V?$basic_altstringbuf@DU?$char_traits@D@std@@V?$allocator@D@2@@io@boost@@@boost@@$0A@@boost@@QEAA@XZ
	??1?$basic_altstringbuf@DU?$char_traits@D@std@@V?$allocator@D@2@@io@boost@@UEAA@XZ
	??1?$basic_format@DU?$char_traits@D@std@@V?$allocator@D@2@@boost@@QEAA@XZ
	??1?$basic_oaltstringstream@DU?$char_traits@D@std@@V?$allocator@D@2@@io@boost@@UEAA@XZ
	??1?$basic_ostringstream@DU?$char_traits@D@std@@V?$allocator@D@2@@std@@UEAA@XZ
	??1?$basic_string@DU?$char_traits@D@std@@V?$allocator@D@2@@std@@QEAA@XZ
	??1?$basic_stringbuf@DU?$char_traits@D@std@@V?$allocator@D@2@@std@@UEAA@XZ
	??1?$basic_stringstream@DU?$char_traits@D@std@@V?$allocator@D@2@@std@@UEAA@XZ
	??1?$const_formatF@V?$iterator_range@V?$_String_const_iterator@V?$_String_val@U?$_Simple_types@D@std@@@std@@@std@@@boost@@@detail@algorithm@boost@@QEAA@XZ
	??1?$date_facet@Vdate@gregorian@boost@@DV?$ostreambuf_iterator@DU?$char_traits@D@std@@@std@@@date_time@boost@@UEAA@XZ
	??1?$date_generator_formatter@Vdate@gregorian@boost@@DV?$ostreambuf_iterator@DU?$char_traits@D@std@@@std@@@date_time@boost@@QEAA@XZ
	??1?$deque@DV?$allocator@D@std@@@std@@QEAA@XZ
	??1?$find_format_store@V?$_String_iterator@V?$_String_val@U?$_Simple_types@D@std@@@std@@@std@@U?$const_formatF@V?$iterator_range@PEBD@boost@@@detail@algorithm@boost@@V?$iterator_range@PEBD@6@@detail@algorithm@boost@@QEAA@XZ
	??1?$find_format_store@V?$_String_iterator@V?$_String_val@U?$_Simple_types@D@std@@@std@@@std@@U?$const_formatF@V?$iterator_range@V?$_String_const_iterator@V?$_String_val@U?$_Simple_types@D@std@@@std@@@std@@@boost@@@detail@algorithm@boost@@V?$iterator_range@V?$_String_const_iterator@V?$_String_val@U?$_Simple_types@D@std@@@std@@@std@@@6@@detail@algorithm@boost@@QEAA@XZ
	??1?$find_format_store@V?$_String_iterator@V?$_String_val@U?$_Simple_types@D@std@@@std@@@std@@U?$empty_formatF@D@detail@algorithm@boost@@U?$empty_container@D@456@@detail@algorithm@boost@@QEAA@XZ
	??1?$first_finderF@V?$_String_const_iterator@V?$_String_val@U?$_Simple_types@D@std@@@std@@@std@@Uis_equal@algorithm@boost@@@detail@algorithm@boost@@QEAA@XZ
	??1?$format_item@DU?$char_traits@D@std@@V?$allocator@D@2@@detail@io@boost@@QEAA@XZ
	??1?$iterator_range@V?$_String_const_iterator@V?$_String_val@U?$_Simple_types@D@std@@@std@@@std@@@boost@@QEAA@XZ
	??1?$iterator_range@V?$_String_iterator@V?$_String_val@U?$_Simple_types@D@std@@@std@@@std@@@boost@@QEAA@XZ
	??1?$iterator_range_base@V?$_String_const_iterator@V?$_String_val@U?$_Simple_types@D@std@@@std@@@std@@Ubidirectional_traversal_tag@iterators@boost@@@iterator_range_detail@boost@@QEAA@XZ
	??1?$iterator_range_base@V?$_String_const_iterator@V?$_String_val@U?$_Simple_types@D@std@@@std@@@std@@Uincrementable_traversal_tag@iterators@boost@@@iterator_range_detail@boost@@QEAA@XZ
	??1?$iterator_range_base@V?$_String_const_iterator@V?$_String_val@U?$_Simple_types@D@std@@@std@@@std@@Urandom_access_traversal_tag@iterators@boost@@@iterator_range_detail@boost@@QEAA@XZ
	??1?$iterator_range_base@V?$_String_iterator@V?$_String_val@U?$_Simple_types@D@std@@@std@@@std@@Ubidirectional_traversal_tag@iterators@boost@@@iterator_range_detail@boost@@QEAA@XZ
	??1?$iterator_range_base@V?$_String_iterator@V?$_String_val@U?$_Simple_types@D@std@@@std@@@std@@Uincrementable_traversal_tag@iterators@boost@@@iterator_range_detail@boost@@QEAA@XZ
	??1?$iterator_range_base@V?$_String_iterator@V?$_String_val@U?$_Simple_types@D@std@@@std@@@std@@Urandom_access_traversal_tag@iterators@boost@@@iterator_range_detail@boost@@QEAA@XZ
	??1?$numpunct@D@std@@MEAA@XZ
	??1?$optional@Vlocale@std@@@boost@@QEAA@XZ
	??1?$optional_base@Vlocale@std@@@optional_detail@boost@@IEAA@XZ
	??1?$period_formatter@DV?$ostreambuf_iterator@DU?$char_traits@D@std@@@std@@@date_time@boost@@QEAA@XZ
	??1?$refcount_ptr@Uerror_info_container@exception_detail@boost@@@exception_detail@boost@@QEAA@XZ
	??1?$shared_ptr@V?$basic_altstringbuf@DU?$char_traits@D@std@@V?$allocator@D@2@@io@boost@@@boost@@QEAA@XZ
	??1?$sp_counted_impl_pd@PEAV?$basic_altstringbuf@DU?$char_traits@D@std@@V?$allocator@D@2@@io@boost@@VNo_Op@?$basic_oaltstringstream@DU?$char_traits@D@std@@V?$allocator@D@2@@23@@detail@boost@@UEAA@XZ
	??1?$special_values_formatter@DV?$ostreambuf_iterator@DU?$char_traits@D@std@@@std@@@date_time@boost@@QEAA@XZ
	??1?$stream_format_state@DU?$char_traits@D@std@@@detail@io@boost@@QEAA@XZ
	??1?$time_facet@Vptime@posix_time@boost@@DV?$ostreambuf_iterator@DU?$char_traits@D@std@@@std@@@date_time@boost@@UEAA@XZ
	??1?$unique_ptr@V_Facet_base@std@@U?$default_delete@V_Facet_base@std@@@2@@std@@QEAA@XZ
	??1?$vector@IV?$allocator@I@std@@@std@@QEAA@XZ
	??1?$vector@U?$format_item@DU?$char_traits@D@std@@V?$allocator@D@2@@detail@io@boost@@V?$allocator@U?$format_item@DU?$char_traits@D@std@@V?$allocator@D@2@@detail@io@boost@@@std@@@std@@QEAA@XZ
	??1?$vector@V?$basic_string@DU?$char_traits@D@std@@V?$allocator@D@2@@std@@V?$allocator@V?$basic_string@DU?$char_traits@D@std@@V?$allocator@D@2@@std@@@2@@std@@QEAA@XZ
	??1?$vector@_NV?$allocator@_N@std@@@std@@QEAA@XZ
	??1?$wrapexcept@Ubad_day_of_month@gregorian@boost@@@boost@@UEAA@XZ
	??1?$wrapexcept@Ubad_day_of_year@gregorian@boost@@@boost@@UEAA@XZ
	??1?$wrapexcept@Ubad_month@gregorian@boost@@@boost@@UEAA@XZ
	??1?$wrapexcept@Ubad_weekday@gregorian@boost@@@boost@@UEAA@XZ
	??1?$wrapexcept@Ubad_year@gregorian@boost@@@boost@@UEAA@XZ
	??1?$wrapexcept@Vbad_format_string@io@boost@@@boost@@UEAA@XZ
	??1?$wrapexcept@Vout_of_range@std@@@boost@@UEAA@XZ
	??1?$wrapexcept@Vtoo_few_args@io@boost@@@boost@@UEAA@XZ
	??1?$wrapexcept@Vtoo_many_args@io@boost@@@boost@@UEAA@XZ
	??1_Bxty@?$_String_val@U?$_Simple_types@D@std@@@std@@QEAA@XZ
	??1_Iterator_base12@std@@QEAA@XZ
	??1_Sentry_base@?$basic_ostream@DU?$char_traits@D@std@@@std@@QEAA@XZ
	??1bad_alloc@std@@UEAA@XZ
	??1bad_array_new_length@std@@UEAA@XZ
	??1bad_cast@std@@UEAA@XZ
	??1bad_day_of_month@gregorian@boost@@UEAA@XZ
	??1bad_day_of_year@gregorian@boost@@UEAA@XZ
	??1bad_format_string@io@boost@@UEAA@XZ
	??1bad_month@gregorian@boost@@UEAA@XZ
	??1bad_weekday@gregorian@boost@@UEAA@XZ
	??1bad_year@gregorian@boost@@UEAA@XZ
	??1clone_base@exception_detail@boost@@UEAA@XZ
	??1deleter@?$wrapexcept@Ubad_day_of_month@gregorian@boost@@@boost@@QEAA@XZ
	??1deleter@?$wrapexcept@Ubad_day_of_year@gregorian@boost@@@boost@@QEAA@XZ
	??1deleter@?$wrapexcept@Ubad_month@gregorian@boost@@@boost@@QEAA@XZ
	??1deleter@?$wrapexcept@Ubad_weekday@gregorian@boost@@@boost@@QEAA@XZ
	??1deleter@?$wrapexcept@Ubad_year@gregorian@boost@@@boost@@QEAA@XZ
	??1deleter@?$wrapexcept@Vbad_format_string@io@boost@@@boost@@QEAA@XZ
	??1deleter@?$wrapexcept@Vout_of_range@std@@@boost@@QEAA@XZ
	??1deleter@?$wrapexcept@Vtoo_few_args@io@boost@@@boost@@QEAA@XZ
	??1deleter@?$wrapexcept@Vtoo_many_args@io@boost@@@boost@@QEAA@XZ
	??1exception@boost@@MEAA@XZ
	??1exception@std@@UEAA@XZ
	??1format_error@io@boost@@UEAA@XZ
	??1ios_flags_saver@io@boost@@QEAA@XZ
	??1locale@std@@QEAA@XZ
	??1logic_error@std@@UEAA@XZ
	??1out_of_range@std@@UEAA@XZ
	??1sentry@?$basic_ostream@DU?$char_traits@D@std@@@std@@QEAA@XZ
	??1shared_count@detail@boost@@QEAA@XZ
	??1sp_counted_base@detail@boost@@UEAA@XZ
	??1too_few_args@io@boost@@UEAA@XZ
	??1too_many_args@io@boost@@UEAA@XZ
	??2@YAPEAX_KPEAX@Z
	??4?$_String_const_iterator@V?$_String_val@U?$_Simple_types@D@std@@@std@@@std@@QEAAAEAV01@$$QEAV01@@Z
	??4?$_String_const_iterator@V?$_String_val@U?$_Simple_types@D@std@@@std@@@std@@QEAAAEAV01@AEBV01@@Z
	??4?$_String_iterator@V?$_String_val@U?$_Simple_types@D@std@@@std@@@std@@QEAAAEAV01@$$QEAV01@@Z
	??4?$_String_iterator@V?$_String_val@U?$_Simple_types@D@std@@@std@@@std@@QEAAAEAV01@AEBV01@@Z
	??4?$_Vb_const_iterator@U?$_Wrap_alloc@V?$allocator@I@std@@@std@@@std@@QEAAAEAV01@$$QEAV01@@Z
	??4?$_Vb_iter_base@U?$_Wrap_alloc@V?$allocator@I@std@@@std@@@std@@QEAAAEAV01@$$QEAV01@@Z
	??4?$_Vb_iterator@U?$_Wrap_alloc@V?$allocator@I@std@@@std@@@std@@QEAAAEAV01@$$QEAV01@@Z
	??4?$_Vb_reference@U?$_Wrap_alloc@V?$allocator@I@std@@@std@@@std@@QEAAAEAV01@AEBV01@@Z
	??4?$_Vb_reference@U?$_Wrap_alloc@V?$allocator@I@std@@@std@@@std@@QEAAAEAV01@_N@Z
	??4?$back_insert_iterator@V?$vector@V?$basic_string@DU?$char_traits@D@std@@V?$allocator@D@2@@std@@V?$allocator@V?$basic_string@DU?$char_traits@D@std@@V?$allocator@D@2@@std@@@2@@std@@@std@@QEAAAEAV01@$$QEAV?$basic_string@DU?$char_traits@D@std@@V?$allocator@D@2@@1@@Z
	??4?$basic_string@DU?$char_traits@D@std@@V?$allocator@D@2@@std@@QEAAAEAV01@$$QEAV01@@Z
	??4?$basic_string@DU?$char_traits@D@std@@V?$allocator@D@2@@std@@QEAAAEAV01@AEBV01@@Z
	??4?$basic_string@DU?$char_traits@D@std@@V?$allocator@D@2@@std@@QEAAAEAV01@QEBD@Z
	??4?$format_item@DU?$char_traits@D@std@@V?$allocator@D@2@@detail@io@boost@@QEAAAEAU0123@AEBU0123@@Z
	??4?$iterator_range@V?$_String_const_iterator@V?$_String_val@U?$_Simple_types@D@std@@@std@@@std@@@boost@@QEAAAEAV01@AEBV01@@Z
	??4?$iterator_range_base@V?$_String_const_iterator@V?$_String_val@U?$_Simple_types@D@std@@@std@@@std@@Ubidirectional_traversal_tag@iterators@boost@@@iterator_range_detail@boost@@QEAAAEAV012@AEBV012@@Z
	??4?$iterator_range_base@V?$_String_const_iterator@V?$_String_val@U?$_Simple_types@D@std@@@std@@@std@@Uincrementable_traversal_tag@iterators@boost@@@iterator_range_detail@boost@@QEAAAEAV012@AEBV012@@Z
	??4?$iterator_range_base@V?$_String_const_iterator@V?$_String_val@U?$_Simple_types@D@std@@@std@@@std@@Urandom_access_traversal_tag@iterators@boost@@@iterator_range_detail@boost@@QEAAAEAV012@AEBV012@@Z
	??4?$optional@Vlocale@std@@@boost@@QEAAAEAV01@AEBV01@@Z
	??4?$optional_base@Vlocale@std@@@optional_detail@boost@@IEAAAEAV012@AEBV012@@Z
	??4?$ostreambuf_iterator@DU?$char_traits@D@std@@@std@@QEAAAEAV01@D@Z
	??4?$refcount_ptr@Uerror_info_container@exception_detail@boost@@@exception_detail@boost@@QEAAAEAV012@AEBV012@@Z
	??4?$stream_format_state@DU?$char_traits@D@std@@@detail@io@boost@@QEAAAEAU0123@AEBU0123@@Z
	??4_Iterator_base12@std@@QEAAAEAU01@AEBU01@@Z
	??4locale@std@@QEAAAEBV01@AEBV01@@Z
	??6detail@nmea@vanetza@@YAAEAV?$basic_ostream@DU?$char_traits@D@std@@@std@@AEAV34@AEBUlatitude@012@@Z
	??6detail@nmea@vanetza@@YAAEAV?$basic_ostream@DU?$char_traits@D@std@@@std@@AEAV34@AEBUlongitude@012@@Z
	??7?$optional@Vlocale@std@@@boost@@QEBA_NXZ
	??8?$_Deque_unchecked_const_iterator@V?$_Deque_val@U?$_Deque_simple_types@D@std@@@std@@@std@@QEBA_NAEBV01@@Z
	??8?$_String_const_iterator@V?$_String_val@U?$_Simple_types@D@std@@@std@@@std@@QEBA_NAEBV01@@Z
	??8?$_Vb_const_iterator@U?$_Wrap_alloc@V?$allocator@I@std@@@std@@@std@@QEBA_NAEBV01@@Z
	??8type_info@@QEBA_NAEBV0@@Z
	??9?$_Deque_unchecked_const_iterator@V?$_Deque_val@U?$_Deque_simple_types@D@std@@@std@@@std@@QEBA_NAEBV01@@Z
	??9?$_String_const_iterator@V?$_String_val@U?$_Simple_types@D@std@@@std@@@std@@QEBA_NAEBV01@@Z
	??9?$_Vb_const_iterator@U?$_Wrap_alloc@V?$allocator@I@std@@@std@@@std@@QEBA_NAEBV01@@Z
	??A?$basic_string@DU?$char_traits@D@std@@V?$allocator@D@2@@std@@QEAAAEAD_K@Z
	??A?$basic_string@DU?$char_traits@D@std@@V?$allocator@D@2@@std@@QEBAAEBD_K@Z
	??A?$vector@IV?$allocator@I@std@@@std@@QEAAAEAI_K@Z
	??A?$vector@U?$format_item@DU?$char_traits@D@std@@V?$allocator@D@2@@detail@io@boost@@V?$allocator@U?$format_item@DU?$char_traits@D@std@@V?$allocator@D@2@@detail@io@boost@@@std@@@std@@QEAAAEAU?$format_item@DU?$char_traits@D@std@@V?$allocator@D@2@@detail@io@boost@@_K@Z
	??A?$vector@U?$format_item@DU?$char_traits@D@std@@V?$allocator@D@2@@detail@io@boost@@V?$allocator@U?$format_item@DU?$char_traits@D@std@@V?$allocator@D@2@@detail@io@boost@@@std@@@std@@QEBAAEBU?$format_item@DU?$char_traits@D@std@@V?$allocator@D@2@@detail@io@boost@@_K@Z
	??A?$vector@V?$basic_string@DU?$char_traits@D@std@@V?$allocator@D@2@@std@@V?$allocator@V?$basic_string@DU?$char_traits@D@std@@V?$allocator@D@2@@std@@@2@@std@@QEBAAEBV?$basic_string@DU?$char_traits@D@std@@V?$allocator@D@2@@1@_K@Z
	??A?$vector@_NV?$allocator@_N@std@@@std@@QEAA?AV?$_Vb_reference@U?$_Wrap_alloc@V?$allocator@I@std@@@std@@@1@_K@Z
	??B?$_Vb_reference@U?$_Wrap_alloc@V?$allocator@I@std@@@std@@@std@@QEBA_NXZ
	??B?$constrained_value@V?$simple_exception_policy@G$00$0BGO@Ubad_day_of_year@gregorian@boost@@@CV@boost@@@CV@boost@@QEBAGXZ
	??B?$constrained_value@V?$simple_exception_policy@G$0A@$05Ubad_weekday@gregorian@boost@@@CV@boost@@@CV@boost@@QEBAGXZ
	??B?$fpos@U_Mbstatet@@@std@@QEBA_JXZ
	??B?$iterator_range_base@V?$_String_iterator@V?$_String_val@U?$_Simple_types@D@std@@@std@@@std@@Uincrementable_traversal_tag@iterators@boost@@@iterator_range_detail@boost@@QEBAPEQ012@V?$_String_iterator@V?$_String_val@U?$_Simple_types@D@std@@@std@@@std@@XZ
	??B?$optional@Vlocale@std@@@boost@@QEBA_NXZ
	??Bgreg_day@gregorian@boost@@QEBAGXZ
	??Bgreg_month@gregorian@boost@@QEBAGXZ
	??Bgreg_year@gregorian@boost@@QEBAGXZ
	??Bsentry@?$basic_ostream@DU?$char_traits@D@std@@@std@@QEBA_NXZ
	??D?$_Deque_unchecked_const_iterator@V?$_Deque_val@U?$_Deque_simple_types@D@std@@@std@@@std@@QEBAAEBDXZ
	??D?$_Deque_unchecked_iterator@V?$_Deque_val@U?$_Deque_simple_types@D@std@@@std@@@std@@QEBAAEADXZ
	??D?$_String_const_iterator@V?$_String_val@U?$_Simple_types@D@std@@@std@@@std@@QEBAAEBDXZ
	??D?$_String_iterator@V?$_String_val@U?$_Simple_types@D@std@@@std@@@std@@QEBAAEADXZ
	??D?$_Vb_iterator@U?$_Wrap_alloc@V?$allocator@I@std@@@std@@@std@@QEBA?AV?$_Vb_reference@U?$_Wrap_alloc@V?$allocator@I@std@@@std@@@1@XZ
	??D?$back_insert_iterator@V?$vector@V?$basic_string@DU?$char_traits@D@std@@V?$allocator@D@2@@std@@V?$allocator@V?$basic_string@DU?$char_traits@D@std@@V?$allocator@D@2@@std@@@2@@std@@@std@@QEAAAEAV01@XZ
	??D?$ostreambuf_iterator@DU?$char_traits@D@std@@@std@@QEAAAEAV01@XZ
	??E?$_Deque_unchecked_const_iterator@V?$_Deque_val@U?$_Deque_simple_types@D@std@@@std@@@std@@QEAAAEAV01@XZ
	??E?$_Deque_unchecked_iterator@V?$_Deque_val@U?$_Deque_simple_types@D@std@@@std@@@std@@QEAAAEAV01@XZ
	??E?$_String_const_iterator@V?$_String_val@U?$_Simple_types@D@std@@@std@@@std@@QEAAAEAV01@XZ
	??E?$_String_iterator@V?$_String_val@U?$_Simple_types@D@std@@@std@@@std@@QEAAAEAV01@XZ
	??E?$_Vb_const_iterator@U?$_Wrap_alloc@V?$allocator@I@std@@@std@@@std@@QEAAAEAV01@XZ
	??E?$_Vb_iterator@U?$_Wrap_alloc@V?$allocator@I@std@@@std@@@std@@QEAAAEAV01@XZ
	??E?$back_insert_iterator@V?$vector@V?$basic_string@DU?$char_traits@D@std@@V?$allocator@D@2@@std@@V?$allocator@V?$basic_string@DU?$char_traits@D@std@@V?$allocator@D@2@@std@@@2@@std@@@std@@QEAAAEAV01@XZ
	??E?$ostreambuf_iterator@DU?$char_traits@D@std@@@std@@QEAAAEAV01@XZ
	??F?$_Deque_unchecked_const_iterator@V?$_Deque_val@U?$_Deque_simple_types@D@std@@@std@@@std@@QEAAAEAV01@XZ
	??F?$_Deque_unchecked_iterator@V?$_Deque_val@U?$_Deque_simple_types@D@std@@@std@@@std@@QEAAAEAV01@XZ
	??F?$_Vb_const_iterator@U?$_Wrap_alloc@V?$allocator@I@std@@@std@@@std@@QEAAAEAV01@XZ
	??F?$_Vb_iterator@U?$_Wrap_alloc@V?$allocator@I@std@@@std@@@std@@QEAAAEAV01@XZ
	??G?$_Deque_const_iterator@V?$_Deque_val@U?$_Deque_simple_types@D@std@@@std@@@std@@QEBA_JAEBV01@@Z
	??G?$_Deque_unchecked_const_iterator@V?$_Deque_val@U?$_Deque_simple_types@D@std@@@std@@@std@@QEBA_JAEBV01@@Z
	??G?$_Deque_unchecked_iterator@V?$_Deque_val@U?$_Deque_simple_types@D@std@@@std@@@std@@QEBA_JAEBV?$_Deque_unchecked_const_iterator@V?$_Deque_val@U?$_Deque_simple_types@D@std@@@std@@@1@@Z
	??G?$_String_const_iterator@V?$_String_val@U?$_Simple_types@D@std@@@std@@@std@@QEBA_JAEBV01@@Z
	??G?$_Vb_const_iterator@U?$_Wrap_alloc@V?$allocator@I@std@@@std@@@std@@QEBA_JAEBV01@@Z
	??G?$date@V0gregorian@boost@@Vgregorian_calendar@12@Vdate_duration@12@@date_time@boost@@QEBA?AVdate_duration@gregorian@2@AEBVdate@42@@Z
	??H?$_Deque_iterator@V?$_Deque_val@U?$_Deque_simple_types@D@std@@@std@@@std@@QEBA?AV01@_J@Z
	??H?$_Deque_unchecked_iterator@V?$_Deque_val@U?$_Deque_simple_types@D@std@@@std@@@std@@QEBA?AV01@_J@Z
	??H?$_String_const_iterator@V?$_String_val@U?$_Simple_types@D@std@@@std@@@std@@QEBA?AV01@_J@Z
	??H?$_String_iterator@V?$_String_val@U?$_Simple_types@D@std@@@std@@@std@@QEBA?AV01@_J@Z
	??H?$_Vb_iterator@U?$_Wrap_alloc@V?$allocator@I@std@@@std@@@std@@QEBA?AV01@_J@Z
	??H?$_Vector_iterator@V?$_Vector_val@U?$_Simple_types@I@std@@@std@@@std@@QEBA?AV01@_J@Z
	??M?$_Deque_const_iterator@V?$_Deque_val@U?$_Deque_simple_types@D@std@@@std@@@std@@QEBA_NAEBV01@@Z
	??M?$_String_const_iterator@V?$_String_val@U?$_Simple_types@D@std@@@std@@@std@@QEBA_NAEBV01@@Z
	??M?$_Vb_const_iterator@U?$_Wrap_alloc@V?$allocator@I@std@@@std@@@std@@QEBA_NAEBV01@@Z
	??N?$_Deque_const_iterator@V?$_Deque_val@U?$_Deque_simple_types@D@std@@@std@@@std@@QEBA_NAEBV01@@Z
	??N?$_String_const_iterator@V?$_String_val@U?$_Simple_types@D@std@@@std@@@std@@QEBA_NAEBV01@@Z
	??N?$_Vb_const_iterator@U?$_Wrap_alloc@V?$allocator@I@std@@@std@@@std@@QEBA_NAEBV01@@Z
	??P?$_String_const_iterator@V?$_String_val@U?$_Simple_types@D@std@@@std@@@std@@QEBA_NAEBV01@@Z
	??P?$_Vb_const_iterator@U?$_Wrap_alloc@V?$allocator@I@std@@@std@@@std@@QEBA_NAEBV01@@Z
	??R<lambda_319d5e083f45f90dcdce5dce53cbb275>@@QEBA@QEADQEBD_KD@Z
	??R<lambda_65e615be2a453ca0576c979606f46740>@@QEBA@QEADQEBD_K12@Z
	??R<lambda_66f57f934f28d61049862f64df852ff0>@@QEBA@QEAD_KQEBD@Z
	??R<lambda_9013ee9e23efe4882b67eff5b0ecf103>@@QEBA@QEADQEBD_K@Z
	??R<lambda_e1befb086ad3257e3f042a63030725f7>@@QEBA@QEADQEBD_K2D@Z
	??R<lambda_f3a66ab6a0570788f31503db83886f49>@@QEBA@QEADQEBD_K212@Z
	??R?$default_delete@V_Facet_base@std@@@std@@QEBAXPEAV_Facet_base@1@@Z
	??Y?$_Deque_const_iterator@V?$_Deque_val@U?$_Deque_simple_types@D@std@@@std@@@std@@QEAAAEAV01@_J@Z
	??Y?$_Deque_iterator@V?$_Deque_val@U?$_Deque_simple_types@D@std@@@std@@@std@@QEAAAEAV01@_J@Z
	??Y?$_Deque_unchecked_const_iterator@V?$_Deque_val@U?$_Deque_simple_types@D@std@@@std@@@std@@QEAAAEAV01@_J@Z
	??Y?$_Deque_unchecked_iterator@V?$_Deque_val@U?$_Deque_simple_types@D@std@@@std@@@std@@QEAAAEAV01@_J@Z
	??Y?$_String_const_iterator@V?$_String_val@U?$_Simple_types@D@std@@@std@@@std@@QEAAAEAV01@_J@Z
	??Y?$_String_iterator@V?$_String_val@U?$_Simple_types@D@std@@@std@@@std@@QEAAAEAV01@_J@Z
	??Y?$_Vb_const_iterator@U?$_Wrap_alloc@V?$allocator@I@std@@@std@@@std@@QEAAAEAV01@_J@Z
	??Y?$_Vb_iterator@U?$_Wrap_alloc@V?$allocator@I@std@@@std@@@std@@QEAAAEAV01@_J@Z
	??Y?$_Vector_const_iterator@V?$_Vector_val@U?$_Simple_types@I@std@@@std@@@std@@QEAAAEAV01@_J@Z
	??Y?$_Vector_iterator@V?$_Vector_val@U?$_Simple_types@I@std@@@std@@@std@@QEAAAEAV01@_J@Z
	??Y?$basic_string@DU?$char_traits@D@std@@V?$allocator@D@2@@std@@QEAAAEAV01@AEBV01@@Z
	??Y?$basic_string@DU?$char_traits@D@std@@V?$allocator@D@2@@std@@QEAAAEAV01@D@Z
	??Y?$basic_string@DU?$char_traits@D@std@@V?$allocator@D@2@@std@@QEAAAEAV01@QEBD@Z
	??_D?$basic_oaltstringstream@DU?$char_traits@D@std@@V?$allocator@D@2@@io@boost@@QEAAXXZ
	??_D?$basic_ostringstream@DU?$char_traits@D@std@@V?$allocator@D@2@@std@@QEAAXXZ
	??_D?$basic_stringstream@DU?$char_traits@D@std@@V?$allocator@D@2@@std@@QEAAXXZ
	?_Adjust_manually_vector_aligned@std@@YAXAEAPEAXAEA_K@Z
	?_Adopt@_Iterator_base12@std@@QEAAXPEBU_Container_base12@2@@Z
	?_Adopt_locked@_Iterator_base12@std@@AEAAXPEBU_Container_base12@2@@Z
	?_Adopt_unlocked@_Iterator_base12@std@@AEAAXPEBU_Container_base12@2@@Z
	?_Advance@?$_Vb_iter_base@U?$_Wrap_alloc@V?$allocator@I@std@@@std@@@std@@QEAAX_K@Z
	?_Allocate@_Default_allocate_traits@std@@SAPEAX_K@Z
	?_Assign_locked@_Iterator_base12@std@@AEAAXAEBU12@@Z
	?_Assign_unlocked@_Iterator_base12@std@@AEAAXAEBU12@@Z
	?_Become_small@?$basic_string@DU?$char_traits@D@std@@V?$allocator@D@2@@std@@AEAAXXZ
	?_Buy_nonzero@?$vector@V?$basic_string@DU?$char_traits@D@std@@V?$allocator@D@2@@std@@V?$allocator@V?$basic_string@DU?$char_traits@D@std@@V?$allocator@D@2@@std@@@2@@std@@AEAAX_K@Z
	?_Buy_raw@?$vector@U?$format_item@DU?$char_traits@D@std@@V?$allocator@D@2@@detail@io@boost@@V?$allocator@U?$format_item@DU?$char_traits@D@std@@V?$allocator@D@2@@detail@io@boost@@@std@@@std@@AEAAX_K@Z
	?_Buy_raw@?$vector@V?$basic_string@DU?$char_traits@D@std@@V?$allocator@D@2@@std@@V?$allocator@V?$basic_string@DU?$char_traits@D@std@@V?$allocator@D@2@@std@@@2@@std@@AEAAX_K@Z
	?_Calculate_growth@?$basic_string@DU?$char_traits@D@std@@V?$allocator@D@2@@std@@AEBA_K_K@Z
	?_Calculate_growth@?$basic_string@DU?$char_traits@D@std@@V?$allocator@D@2@@std@@CA_K_K00@Z
	?_Calculate_growth@?$vector@IV?$allocator@I@std@@@std@@AEBA_K_K@Z
	?_Calculate_growth@?$vector@U?$format_item@DU?$char_traits@D@std@@V?$allocator@D@2@@detail@io@boost@@V?$allocator@U?$format_item@DU?$char_traits@D@std@@V?$allocator@D@2@@detail@io@boost@@@std@@@std@@AEBA_K_K@Z
	?_Calculate_growth@?$vector@V?$basic_string@DU?$char_traits@D@std@@V?$allocator@D@2@@std@@V?$allocator@V?$basic_string@DU?$char_traits@D@std@@V?$allocator@D@2@@std@@@2@@std@@AEBA_K_K@Z
	?_Change_array@?$vector@IV?$allocator@I@std@@@std@@AEAAXQEAI_K1@Z
	?_Change_array@?$vector@U?$format_item@DU?$char_traits@D@std@@V?$allocator@D@2@@detail@io@boost@@V?$allocator@U?$format_item@DU?$char_traits@D@std@@V?$allocator@D@2@@detail@io@boost@@@std@@@std@@AEAAXQEAU?$format_item@DU?$char_traits@D@std@@V?$allocator@D@2@@detail@io@boost@@_K1@Z
	?_Change_array@?$vector@V?$basic_string@DU?$char_traits@D@std@@V?$allocator@D@2@@std@@V?$allocator@V?$basic_string@DU?$char_traits@D@std@@V?$allocator@D@2@@std@@@2@@std@@AEAAXQEAV?$basic_string@DU?$char_traits@D@std@@V?$allocator@D@2@@2@_K1@Z
	?_Check_memory_order@std@@YAXW4memory_order@1@@Z
	?_Check_offset@?$_String_val@U?$_Simple_types@D@std@@@std@@QEBAX_K@Z
	?_Clamp_suffix_size@?$_String_val@U?$_Simple_types@D@std@@@std@@QEBA_K_K0@Z
	?_Clear_and_reserve_geometric@?$vector@U?$format_item@DU?$char_traits@D@std@@V?$allocator@D@2@@detail@io@boost@@V?$allocator@U?$format_item@DU?$char_traits@D@std@@V?$allocator@D@2@@detail@io@boost@@@std@@@std@@AEAAX_K@Z
	?_Compat@?$_Deque_const_iterator@V?$_Deque_val@U?$_Deque_simple_types@D@std@@@std@@@std@@QEBAXAEBV12@@Z
	?_Compat@?$_String_const_iterator@V?$_String_val@U?$_Simple_types@D@std@@@std@@@std@@QEBAXAEBV12@@Z
	?_Compat@?$_Vb_const_iterator@U?$_Wrap_alloc@V?$allocator@I@std@@@std@@@std@@QEBAXAEBV12@@Z
	?_Dec@?$_Vb_const_iterator@U?$_Wrap_alloc@V?$allocator@I@std@@@std@@@std@@QEAAXXZ
	?_Eos@?$basic_string@DU?$char_traits@D@std@@V?$allocator@D@2@@std@@AEAAX_K@Z
	?_Erase_noexcept@?$basic_string@DU?$char_traits@D@std@@V?$allocator@D@2@@std@@AEAAAEAV12@_K_K@Z
	?_Get_buffer_view@?$basic_stringbuf@DU?$char_traits@D@std@@V?$allocator@D@2@@std@@QEBA?AU_Buffer_view@12@XZ
	?_Get_data@?$deque@DV?$allocator@D@std@@@std@@AEAAAEAV?$_Deque_val@U?$_Deque_simple_types@D@std@@@2@XZ
	?_Get_data@?$deque@DV?$allocator@D@std@@@std@@AEBAAEBV?$_Deque_val@U?$_Deque_simple_types@D@std@@@2@XZ
	?_Get_first@?$_Compressed_pair@U?$default_delete@V_Facet_base@std@@@std@@PEAV_Facet_base@2@$00@std@@QEAAAEAU?$default_delete@V_Facet_base@std@@@2@XZ
	?_Get_first@?$_Compressed_pair@V?$allocator@D@std@@V?$_Deque_val@U?$_Deque_simple_types@D@std@@@2@$00@std@@QEAAAEAV?$allocator@D@2@XZ
	?_Get_first@?$_Compressed_pair@V?$allocator@D@std@@V?$_Deque_val@U?$_Deque_simple_types@D@std@@@2@$00@std@@QEBAAEBV?$allocator@D@2@XZ
	?_Get_first@?$_Compressed_pair@V?$allocator@D@std@@V?$_String_val@U?$_Simple_types@D@std@@@2@$00@std@@QEAAAEAV?$allocator@D@2@XZ
	?_Get_first@?$_Compressed_pair@V?$allocator@D@std@@V?$_String_val@U?$_Simple_types@D@std@@@2@$00@std@@QEBAAEBV?$allocator@D@2@XZ
	?_Get_first@?$_Compressed_pair@V?$allocator@I@std@@V?$_Vector_val@U?$_Simple_types@I@std@@@2@$00@std@@QEAAAEAV?$allocator@I@2@XZ
	?_Get_first@?$_Compressed_pair@V?$allocator@I@std@@V?$_Vector_val@U?$_Simple_types@I@std@@@2@$00@std@@QEBAAEBV?$allocator@I@2@XZ
	?_Get_first@?$_Compressed_pair@V?$allocator@U?$format_item@DU?$char_traits@D@std@@V?$allocator@D@2@@detail@io@boost@@@std@@V?$_Vector_val@U?$_Simple_types@U?$format_item@DU?$char_traits@D@std@@V?$allocator@D@2@@detail@io@boost@@@std@@@2@$00@std@@QEAAAEAV?$allocator@U?$format_item@DU?$char_traits@D@std@@V?$allocator@D@2@@detail@io@boost@@@2@XZ
	?_Get_first@?$_Compressed_pair@V?$allocator@U?$format_item@DU?$char_traits@D@std@@V?$allocator@D@2@@detail@io@boost@@@std@@V?$_Vector_val@U?$_Simple_types@U?$format_item@DU?$char_traits@D@std@@V?$allocator@D@2@@detail@io@boost@@@std@@@2@$00@std@@QEBAAEBV?$allocator@U?$format_item@DU?$char_traits@D@std@@V?$allocator@D@2@@detail@io@boost@@@2@XZ
	?_Get_first@?$_Compressed_pair@V?$allocator@V?$basic_string@DU?$char_traits@D@std@@V?$allocator@D@2@@std@@@std@@V?$_Vector_val@U?$_Simple_types@V?$basic_string@DU?$char_traits@D@std@@V?$allocator@D@2@@std@@@std@@@2@$00@std@@QEAAAEAV?$allocator@V?$basic_string@DU?$char_traits@D@std@@V?$allocator@D@2@@std@@@2@XZ
	?_Get_first@?$_Compressed_pair@V?$allocator@V?$basic_string@DU?$char_traits@D@std@@V?$allocator@D@2@@std@@@std@@V?$_Vector_val@U?$_Simple_types@V?$basic_string@DU?$char_traits@D@std@@V?$allocator@D@2@@std@@@std@@@2@$00@std@@QEBAAEBV?$allocator@V?$basic_string@DU?$char_traits@D@std@@V?$allocator@D@2@@std@@@2@XZ
	?_Getal@?$_Vb_val@V?$allocator@_N@std@@@std@@QEAAAEAV?$allocator@I@2@XZ
	?_Getal@?$basic_string@DU?$char_traits@D@std@@V?$allocator@D@2@@std@@AEAAAEAV?$allocator@D@2@XZ
	?_Getal@?$basic_string@DU?$char_traits@D@std@@V?$allocator@D@2@@std@@AEBAAEBV?$allocator@D@2@XZ
	?_Getal@?$deque@DV?$allocator@D@std@@@std@@AEAAAEAV?$allocator@D@2@XZ
	?_Getal@?$deque@DV?$allocator@D@std@@@std@@AEBAAEBV?$allocator@D@2@XZ
	?_Getal@?$vector@IV?$allocator@I@std@@@std@@AEAAAEAV?$allocator@I@2@XZ
	?_Getal@?$vector@IV?$allocator@I@std@@@std@@AEBAAEBV?$allocator@I@2@XZ
	?_Getal@?$vector@U?$format_item@DU?$char_traits@D@std@@V?$allocator@D@2@@detail@io@boost@@V?$allocator@U?$format_item@DU?$char_traits@D@std@@V?$allocator@D@2@@detail@io@boost@@@std@@@std@@AEAAAEAV?$allocator@U?$format_item@DU?$char_traits@D@std@@V?$allocator@D@2@@detail@io@boost@@@2@XZ
	?_Getal@?$vector@U?$format_item@DU?$char_traits@D@std@@V?$allocator@D@2@@detail@io@boost@@V?$allocator@U?$format_item@DU?$char_traits@D@std@@V?$allocator@D@2@@detail@io@boost@@@std@@@std@@AEBAAEBV?$allocator@U?$format_item@DU?$char_traits@D@std@@V?$allocator@D@2@@detail@io@boost@@@2@XZ
	?_Getal@?$vector@V?$basic_string@DU?$char_traits@D@std@@V?$allocator@D@2@@std@@V?$allocator@V?$basic_string@DU?$char_traits@D@std@@V?$allocator@D@2@@std@@@2@@std@@AEAAAEAV?$allocator@V?$basic_string@DU?$char_traits@D@std@@V?$allocator@D@2@@std@@@2@XZ
	?_Getal@?$vector@V?$basic_string@DU?$char_traits@D@std@@V?$allocator@D@2@@std@@V?$allocator@V?$basic_string@DU?$char_traits@D@std@@V?$allocator@D@2@@std@@@2@@std@@AEBAAEBV?$allocator@V?$basic_string@DU?$char_traits@D@std@@V?$allocator@D@2@@std@@@2@XZ
	?_Getblock@?$_Deque_val@U?$_Deque_simple_types@D@std@@@std@@QEBA_K_K@Z
	?_Getblock@?$deque@DV?$allocator@D@std@@@std@@AEBA_K_K@Z
	?_Getcat@?$numpunct@D@std@@SA_KPEAPEBVfacet@locale@2@PEBV42@@Z
	?_Getcont@_Iterator_base12@std@@QEBAPEBU_Container_base12@2@XZ
	?_Getfacet@locale@std@@QEBAPEBVfacet@12@_K@Z
	?_Getptr@?$_Vb_reference@U?$_Wrap_alloc@V?$allocator@I@std@@@std@@@std@@QEBAPEBIXZ
	?_Getstate@?$basic_stringbuf@DU?$char_traits@D@std@@V?$allocator@D@2@@std@@CAHH@Z
	?_Growmap@?$deque@DV?$allocator@D@std@@@std@@AEAAX_K@Z
	?_Inc@?$_Vb_const_iterator@U?$_Wrap_alloc@V?$allocator@I@std@@@std@@@std@@QEAAXXZ
	?_Init@?$numpunct@D@std@@IEAAXAEBV_Locinfo@2@_N@Z
	?_Insert_n@?$vector@_NV?$allocator@_N@std@@@std@@QEAA?AV?$_Vb_iterator@U?$_Wrap_alloc@V?$allocator@I@std@@@std@@@2@V?$_Vb_const_iterator@U?$_Wrap_alloc@V?$allocator@I@std@@@std@@@2@_KAEB_N@Z
	?_Insert_x@?$vector@_NV?$allocator@_N@std@@@std@@QEAA_KV?$_Vb_const_iterator@U?$_Wrap_alloc@V?$allocator@I@std@@@std@@@2@_K@Z
	?_Large_string_engaged@?$_String_val@U?$_Simple_types@D@std@@@std@@QEBA_NXZ
	?_Make_iter@?$vector@_NV?$allocator@_N@std@@@std@@QEAA?AV?$_Vb_iterator@U?$_Wrap_alloc@V?$allocator@I@std@@@std@@@2@V?$_Vb_const_iterator@U?$_Wrap_alloc@V?$allocator@I@std@@@std@@@2@@Z
	?_Maklocwcs@std@@YAPEA_WPEB_W@Z
	?_Map@?$deque@DV?$allocator@D@std@@@std@@AEAAAEAPEAPEADXZ
	?_Mapsize@?$deque@DV?$allocator@D@std@@@std@@AEAAAEA_KXZ
	?_Mask@?$_Vb_reference@U?$_Wrap_alloc@V?$allocator@I@std@@@std@@@std@@IEBAIXZ
	?_Memcpy_val_from@?$basic_string@DU?$char_traits@D@std@@V?$allocator@D@2@@std@@AEAAXAEBV12@@Z
	?_Myoff@?$deque@DV?$allocator@D@std@@@std@@AEAAAEA_KXZ
	?_Myoff@?$deque@DV?$allocator@D@std@@@std@@AEBAAEB_KXZ
	?_Myptr@?$_String_val@U?$_Simple_types@D@std@@@std@@QEAAPEADXZ
	?_Myptr@?$_String_val@U?$_Simple_types@D@std@@@std@@QEBAPEBDXZ
	?_Mysize@?$deque@DV?$allocator@D@std@@@std@@AEAAAEA_KXZ
	?_Mysize@?$deque@DV?$allocator@D@std@@@std@@AEBAAEB_KXZ
	?_Negate@?$_Atomic_integral_facade@H@std@@SAHH@Z
	?_Nw@?$_Vb_val@V?$allocator@_N@std@@@std@@SA_K_K@Z
	?_Orphan_all@?$deque@DV?$allocator@D@std@@@std@@AEAAXXZ
	?_Orphan_all@_Container_base12@std@@QEAAXXZ
	?_Orphan_all_locked_v3@_Container_base12@std@@AEAAXXZ
	?_Orphan_all_unlocked_v3@_Container_base12@std@@AEAAXXZ
	?_Orphan_me_locked_v3@_Iterator_base12@std@@AEAAXXZ
	?_Orphan_me_unlocked_v3@_Iterator_base12@std@@AEAAXXZ
	?_Orphan_off@?$deque@DV?$allocator@D@std@@@std@@AEBAX_K@Z
	?_Orphan_range@?$vector@IV?$allocator@I@std@@@std@@AEBAXPEAI0@Z
	?_Orphan_range@?$vector@U?$format_item@DU?$char_traits@D@std@@V?$allocator@D@2@@detail@io@boost@@V?$allocator@U?$format_item@DU?$char_traits@D@std@@V?$allocator@D@2@@detail@io@boost@@@std@@@std@@AEBAXPEAU?$format_item@DU?$char_traits@D@std@@V?$allocator@D@2@@detail@io@boost@@0@Z
	?_Orphan_range@?$vector@V?$basic_string@DU?$char_traits@D@std@@V?$allocator@D@2@@std@@V?$allocator@V?$basic_string@DU?$char_traits@D@std@@V?$allocator@D@2@@std@@@2@@std@@AEBAXPEAV?$basic_string@DU?$char_traits@D@std@@V?$allocator@D@2@@2@0@Z
	?_Orphan_range@?$vector@_NV?$allocator@_N@std@@@std@@QEBAX_K0@Z
	?_Orphan_range_locked@?$vector@IV?$allocator@I@std@@@std@@AEBAXPEAI0@Z
	?_Orphan_range_locked@?$vector@U?$format_item@DU?$char_traits@D@std@@V?$allocator@D@2@@detail@io@boost@@V?$allocator@U?$format_item@DU?$char_traits@D@std@@V?$allocator@D@2@@detail@io@boost@@@std@@@std@@AEBAXPEAU?$format_item@DU?$char_traits@D@std@@V?$allocator@D@2@@detail@io@boost@@0@Z
	?_Orphan_range_locked@?$vector@V?$basic_string@DU?$char_traits@D@std@@V?$allocator@D@2@@std@@V?$allocator@V?$basic_string@DU?$char_traits@D@std@@V?$allocator@D@2@@std@@@2@@std@@AEBAXPEAV?$basic_string@DU?$char_traits@D@std@@V?$allocator@D@2@@2@0@Z
	?_Orphan_range_locked@?$vector@_NV?$allocator@_N@std@@@std@@QEBAX_K0@Z
	?_Orphan_range_unlocked@?$vector@IV?$allocator@I@std@@@std@@AEBAXPEAI0@Z
	?_Orphan_range_unlocked@?$vector@U?$format_item@DU?$char_traits@D@std@@V?$allocator@D@2@@detail@io@boost@@V?$allocator@U?$format_item@DU?$char_traits@D@std@@V?$allocator@D@2@@detail@io@boost@@@std@@@std@@AEBAXPEAU?$format_item@DU?$char_traits@D@std@@V?$allocator@D@2@@detail@io@boost@@0@Z
	?_Orphan_range_unlocked@?$vector@V?$basic_string@DU?$char_traits@D@std@@V?$allocator@D@2@@std@@V?$allocator@V?$basic_string@DU?$char_traits@D@std@@V?$allocator@D@2@@std@@@2@@std@@AEBAXPEAV?$basic_string@DU?$char_traits@D@std@@V?$allocator@D@2@@2@0@Z
	?_Orphan_range_unlocked@?$vector@_NV?$allocator@_N@std@@@std@@QEBAX_K0@Z
	?_Reallocate_exactly@?$vector@V?$basic_string@DU?$char_traits@D@std@@V?$allocator@D@2@@std@@V?$allocator@V?$basic_string@DU?$char_traits@D@std@@V?$allocator@D@2@@std@@@2@@std@@AEAAX_K@Z
	?_Release@?$_Uninitialized_backout@PEAPEAD@std@@QEAAPEAPEADXZ
	?_Release@?$_Uninitialized_backout_al@V?$allocator@I@std@@@std@@QEAAPEAIXZ
	?_Release@?$_Uninitialized_backout_al@V?$allocator@U?$format_item@DU?$char_traits@D@std@@V?$allocator@D@2@@detail@io@boost@@@std@@@std@@QEAAPEAU?$format_item@DU?$char_traits@D@std@@V?$allocator@D@2@@detail@io@boost@@XZ
	?_Release@?$_Uninitialized_backout_al@V?$allocator@V?$basic_string@DU?$char_traits@D@std@@V?$allocator@D@2@@std@@@std@@@std@@QEAAPEAV?$basic_string@DU?$char_traits@D@std@@V?$allocator@D@2@@2@XZ
	?_Release@_Basic_container_proxy_ptr12@std@@QEAAXXZ
	?_Seek_to@?$_Deque_const_iterator@V?$_Deque_val@U?$_Deque_simple_types@D@std@@@std@@@std@@QEAAXAEBV?$_Deque_unchecked_const_iterator@V?$_Deque_val@U?$_Deque_simple_types@D@std@@@std@@@2@@Z
	?_Seek_to@?$_String_const_iterator@V?$_String_val@U?$_Simple_types@D@std@@@std@@@std@@QEAAXPEBD@Z
	?_Setcont@?$_Deque_const_iterator@V?$_Deque_val@U?$_Deque_simple_types@D@std@@@std@@@std@@QEAAXPEBV?$_Deque_val@U?$_Deque_simple_types@D@std@@@2@@Z
	?_Swap_proxy_and_iterators@?$basic_string@DU?$char_traits@D@std@@V?$allocator@D@2@@std@@AEAAXAEAV12@@Z
	?_Swap_proxy_and_iterators@_Container_base12@std@@QEAAXAEAU12@@Z
	?_Swap_proxy_and_iterators_locked@_Container_base12@std@@AEAAXAEAU12@@Z
	?_Swap_proxy_and_iterators_unlocked@_Container_base12@std@@AEAAXAEAU12@@Z
	?_Take_contents@?$basic_string@DU?$char_traits@D@std@@V?$allocator@D@2@@std@@AEAAXAEAV12@@Z
	?_Throw_bad_array_new_length@std@@YAXXZ
	?_Throw_bad_cast@std@@YAXXZ
	?_Tidy@?$basic_stringbuf@DU?$char_traits@D@std@@V?$allocator@D@2@@std@@IEAAXXZ
	?_Tidy@?$deque@DV?$allocator@D@std@@@std@@AEAAXXZ
	?_Tidy@?$numpunct@D@std@@AEAAXXZ
	?_Tidy@?$vector@IV?$allocator@I@std@@@std@@AEAAXXZ
	?_Tidy@?$vector@U?$format_item@DU?$char_traits@D@std@@V?$allocator@D@2@@detail@io@boost@@V?$allocator@U?$format_item@DU?$char_traits@D@std@@V?$allocator@D@2@@detail@io@boost@@@std@@@std@@AEAAXXZ
	?_Tidy@?$vector@V?$basic_string@DU?$char_traits@D@std@@V?$allocator@D@2@@std@@V?$allocator@V?$basic_string@DU?$char_traits@D@std@@V?$allocator@D@2@@std@@@2@@std@@AEAAXXZ
	?_Tidy_deallocate@?$basic_string@DU?$char_traits@D@std@@V?$allocator@D@2@@std@@AEAAXXZ
	?_Tidy_init@?$basic_string@DU?$char_traits@D@std@@V?$allocator@D@2@@std@@AEAAXXZ
	?_Total_off@?$_Vb_iter_base@U?$_Wrap_alloc@V?$allocator@I@std@@@std@@@std@@QEBA_JPEBV?$vector@_NV?$allocator@_N@std@@@2@@Z
	?_Trim@?$vector@_NV?$allocator@_N@std@@@std@@QEAAX_K@Z
	?_Unchecked_begin@?$deque@DV?$allocator@D@std@@@std@@QEAA?AV?$_Deque_unchecked_iterator@V?$_Deque_val@U?$_Deque_simple_types@D@std@@@std@@@2@XZ
	?_Unwrapped@?$_Deque_iterator@V?$_Deque_val@U?$_Deque_simple_types@D@std@@@std@@@std@@QEBA?AV?$_Deque_unchecked_iterator@V?$_Deque_val@U?$_Deque_simple_types@D@std@@@std@@@2@XZ
	?_Unwrapped@?$_String_const_iterator@V?$_String_val@U?$_Simple_types@D@std@@@std@@@std@@QEBAPEBDXZ
	?_Unwrapped@?$_String_iterator@V?$_String_val@U?$_Simple_types@D@std@@@std@@@std@@QEBAPEADXZ
	?_Verify_offset@?$_String_const_iterator@V?$_String_val@U?$_Simple_types@D@std@@@std@@@std@@QEBAX_J@Z
	?_Verify_offset@?$_Vector_const_iterator@V?$_Vector_val@U?$_Simple_types@I@std@@@std@@@std@@QEBAX_J@Z
	?_Verify_range@std@@YAXAEBV?$_Deque_const_iterator@V?$_Deque_val@U?$_Deque_simple_types@D@std@@@std@@@1@0@Z
	?_Verify_range@std@@YAXAEBV?$_String_const_iterator@V?$_String_val@U?$_Simple_types@D@std@@@std@@@1@0@Z
	?_Verify_range@std@@YAXAEBV?$_Vb_const_iterator@U?$_Wrap_alloc@V?$allocator@I@std@@@std@@@1@0@Z
	?_Xlen@?$deque@DV?$allocator@D@std@@@std@@AEBAXXZ
	?_Xlen@?$vector@_NV?$allocator@_N@std@@@std@@QEBAXXZ
	?_Xlen_string@std@@YAXXZ
	?_Xlength@?$vector@IV?$allocator@I@std@@@std@@CAXXZ
	?_Xlength@?$vector@U?$format_item@DU?$char_traits@D@std@@V?$allocator@D@2@@detail@io@boost@@V?$allocator@U?$format_item@DU?$char_traits@D@std@@V?$allocator@D@2@@detail@io@boost@@@std@@@std@@CAXXZ
	?_Xlength@?$vector@V?$basic_string@DU?$char_traits@D@std@@V?$allocator@D@2@@std@@V?$allocator@V?$basic_string@DU?$char_traits@D@std@@V?$allocator@D@2@@std@@@2@@std@@CAXXZ
	?_Xran@?$_String_val@U?$_Simple_types@D@std@@@std@@SAXXZ
	?__empty_global_delete@@YAXPEAX@Z
	?__empty_global_delete@@YAXPEAXW4align_val_t@std@@@Z
	?__empty_global_delete@@YAXPEAX_K@Z
	?__empty_global_delete@@YAXPEAX_KW4align_val_t@std@@@Z
	?abs@@YANN@Z
	?add_ref@?$refcount_ptr@Uerror_info_container@exception_detail@boost@@@exception_detail@boost@@AEAAXXZ
	?address@?$aligned_storage@Vlocale@std@@@optional_detail@boost@@QEAAPEAXXZ
	?address@?$aligned_storage@Vlocale@std@@@optional_detail@boost@@QEBAPEBXXZ
	?adopt@?$refcount_ptr@Uerror_info_container@exception_detail@boost@@@exception_detail@boost@@QEAAXPEAUerror_info_container@23@@Z
	?allocate@?$allocator@D@std@@QEAAPEAD_K@Z
	?allocate@?$allocator@D@std@@QEAAPEAD_KPEBX@Z
	?allocate@?$allocator@I@std@@QEAAPEAI_K@Z
	?allocate@?$allocator@PEAD@std@@QEAAPEAPEAD_K@Z
	?allocate@?$allocator@U?$format_item@DU?$char_traits@D@std@@V?$allocator@D@2@@detail@io@boost@@@std@@QEAAPEAU?$format_item@DU?$char_traits@D@std@@V?$allocator@D@2@@detail@io@boost@@_K@Z
	?allocate@?$allocator@U_Container_proxy@std@@@std@@QEAAPEAU_Container_proxy@2@_K@Z
	?allocate@?$allocator@V?$basic_string@DU?$char_traits@D@std@@V?$allocator@D@2@@std@@@std@@QEAAPEAV?$basic_string@DU?$char_traits@D@std@@V?$allocator@D@2@@2@_K@Z
	?append@?$basic_string@DU?$char_traits@D@std@@V?$allocator@D@2@@std@@QEAAAEAV12@AEBV12@@Z
	?append@?$basic_string@DU?$char_traits@D@std@@V?$allocator@D@2@@std@@QEAAAEAV12@QEBD@Z
	?append@?$basic_string@DU?$char_traits@D@std@@V?$allocator@D@2@@std@@QEAAAEAV12@QEBD_K@Z
	?append@?$basic_string@DU?$char_traits@D@std@@V?$allocator@D@2@@std@@QEAAAEAV12@_KD@Z
	?apply_on@?$stream_format_state@DU?$char_traits@D@std@@@detail@io@boost@@QEBAXAEAV?$basic_ios@DU?$char_traits@D@std@@@std@@PEAVlocale@6@@Z
	?as_number@?$int_adapter@I@date_time@boost@@QEBAIXZ
	?as_number@?$int_adapter@J@date_time@boost@@QEBAJXZ
	?as_number@?$int_adapter@_J@date_time@boost@@QEBA_JXZ
	?as_number@?$time_resolution_traits@Utime_resolution_traits_adapted64_impl@date_time@boost@@$04$0PECEA@$05_J@date_time@boost@@SA_JV?$int_adapter@_J@23@@Z
	?as_number@duration_traits_adapted@date_time@boost@@SAJV?$int_adapter@J@23@@Z
	?as_number@time_resolution_traits_adapted64_impl@date_time@boost@@SA_JV?$int_adapter@_J@23@@Z
	?as_special@?$date@V0gregorian@boost@@Vgregorian_calendar@12@Vdate_duration@12@@date_time@boost@@QEBA?AW4special_values@23@XZ
	?as_special@?$int_adapter@I@date_time@boost@@QEBA?AW4special_values@23@XZ
	?as_special@?$int_adapter@_J@date_time@boost@@QEBA?AW4special_values@23@XZ
	?assign@?$_Narrow_char_traits@DH@std@@SAPEADQEAD_KD@Z
	?assign@?$_Narrow_char_traits@DH@std@@SAXAEADAEBD@Z
	?assign@?$basic_string@DU?$char_traits@D@std@@V?$allocator@D@2@@std@@QEAAAEAV12@QEBD@Z
	?assign@?$basic_string@DU?$char_traits@D@std@@V?$allocator@D@2@@std@@QEAAAEAV12@QEBD_K@Z
	?assign@?$constrained_value@V?$simple_exception_policy@G$00$0BGO@Ubad_day_of_year@gregorian@boost@@@CV@boost@@@CV@boost@@AEAAXG@Z
	?assign@?$constrained_value@V?$simple_exception_policy@G$00$0BP@Ubad_day_of_month@gregorian@boost@@@CV@boost@@@CV@boost@@AEAAXG@Z
	?assign@?$constrained_value@V?$simple_exception_policy@G$00$0M@Ubad_month@gregorian@boost@@@CV@boost@@@CV@boost@@AEAAXG@Z
	?assign@?$constrained_value@V?$simple_exception_policy@G$0A@$05Ubad_weekday@gregorian@boost@@@CV@boost@@@CV@boost@@AEAAXG@Z
	?assign@?$constrained_value@V?$simple_exception_policy@G$0FHI@$0CHAP@Ubad_year@gregorian@boost@@@CV@boost@@@CV@boost@@AEAAXG@Z
	?assign@?$optional_base@Vlocale@std@@@optional_detail@boost@@IEAAXAEBV123@@Z
	?assign@?$vector@U?$format_item@DU?$char_traits@D@std@@V?$allocator@D@2@@detail@io@boost@@V?$allocator@U?$format_item@DU?$char_traits@D@std@@V?$allocator@D@2@@detail@io@boost@@@std@@@std@@QEAAX_KAEBU?$format_item@DU?$char_traits@D@std@@V?$allocator@D@2@@detail@io@boost@@@Z
	?assign_value@?$optional_base@Vlocale@std@@@optional_detail@boost@@IEAAXAEBVlocale@std@@@Z
	?atomic_decrement@detail@boost@@YAHPEAU?$atomic@H@std@@@Z
	?begin@?$basic_string@DU?$char_traits@D@std@@V?$allocator@D@2@@std@@QEAA?AV?$_String_iterator@V?$_String_val@U?$_Simple_types@D@std@@@std@@@2@XZ
	?begin@?$basic_string@DU?$char_traits@D@std@@V?$allocator@D@2@@std@@QEBA?AV?$_String_const_iterator@V?$_String_val@U?$_Simple_types@D@std@@@std@@@2@XZ
	?begin@?$deque@DV?$allocator@D@std@@@std@@QEAA?AV?$_Deque_iterator@V?$_Deque_val@U?$_Deque_simple_types@D@std@@@std@@@2@XZ
	?begin@?$empty_container@D@detail@algorithm@boost@@QEBAPEBDXZ
	?begin@?$iterator_range_base@PEBDUincrementable_traversal_tag@iterators@boost@@@iterator_range_detail@boost@@QEBAPEBDXZ
	?begin@?$iterator_range_base@V?$_String_const_iterator@V?$_String_val@U?$_Simple_types@D@std@@@std@@@std@@Uincrementable_traversal_tag@iterators@boost@@@iterator_range_detail@boost@@QEBA?AV?$_String_const_iterator@V?$_String_val@U?$_Simple_types@D@std@@@std@@@std@@XZ
	?begin@?$iterator_range_base@V?$_String_iterator@V?$_String_val@U?$_Simple_types@D@std@@@std@@@std@@Uincrementable_traversal_tag@iterators@boost@@@iterator_range_detail@boost@@QEBA?AV?$_String_iterator@V?$_String_val@U?$_Simple_types@D@std@@@std@@@std@@XZ
	?begin@?$vector@IV?$allocator@I@std@@@std@@QEAA?AV?$_Vector_iterator@V?$_Vector_val@U?$_Simple_types@I@std@@@std@@@2@XZ
	?begin@?$vector@_NV?$allocator@_N@std@@@std@@QEAA?AV?$_Vb_iterator@U?$_Wrap_alloc@V?$allocator@I@std@@@std@@@2@XZ
	?c_str@?$basic_string@DU?$char_traits@D@std@@V?$allocator@D@2@@std@@QEBAPEBDXZ
	?c_str@locale@std@@QEBAPEBDXZ
	?capacity@?$vector@IV?$allocator@I@std@@@std@@QEBA_KXZ
	?capacity@?$vector@U?$format_item@DU?$char_traits@D@std@@V?$allocator@D@2@@detail@io@boost@@V?$allocator@U?$format_item@DU?$char_traits@D@std@@V?$allocator@D@2@@detail@io@boost@@@std@@@std@@QEBA_KXZ
	?capacity@?$vector@V?$basic_string@DU?$char_traits@D@std@@V?$allocator@D@2@@std@@V?$allocator@V?$basic_string@DU?$char_traits@D@std@@V?$allocator@D@2@@std@@@2@@std@@QEBA_KXZ
	?capacity@?$vector@_NV?$allocator@_N@std@@@std@@QEBA_KXZ
	?checksum@nmea@vanetza@@YAEV?$_String_const_iterator@V?$_String_val@U?$_Simple_types@D@std@@@std@@@std@@0@Z
	?clear@?$basic_format@DU?$char_traits@D@std@@V?$allocator@D@2@@boost@@QEAAAEAV12@XZ
	?clear_buffer@?$basic_altstringbuf@DU?$char_traits@D@std@@V?$allocator@D@2@@io@boost@@QEAAXXZ
	?clone@?$wrapexcept@Ubad_day_of_month@gregorian@boost@@@boost@@UEBAPEBVclone_base@exception_detail@2@XZ
	?clone@?$wrapexcept@Ubad_day_of_year@gregorian@boost@@@boost@@UEBAPEBVclone_base@exception_detail@2@XZ
	?clone@?$wrapexcept@Ubad_month@gregorian@boost@@@boost@@UEBAPEBVclone_base@exception_detail@2@XZ
	?clone@?$wrapexcept@Ubad_weekday@gregorian@boost@@@boost@@UEBAPEBVclone_base@exception_detail@2@XZ
	?clone@?$wrapexcept@Ubad_year@gregorian@boost@@@boost@@UEBAPEBVclone_base@exception_detail@2@XZ
	?clone@?$wrapexcept@Vbad_format_string@io@boost@@@boost@@UEBAPEBVclone_base@exception_detail@2@XZ
	?clone@?$wrapexcept@Vout_of_range@std@@@boost@@UEBAPEBVclone_base@exception_detail@2@XZ
	?clone@?$wrapexcept@Vtoo_few_args@io@boost@@@boost@@UEBAPEBVclone_base@exception_detail@2@XZ
	?clone@?$wrapexcept@Vtoo_many_args@io@boost@@@boost@@UEBAPEBVclone_base@exception_detail@2@XZ
	?compare@?$_Narrow_char_traits@DH@std@@SAHQEBD0_K@Z
	?compute_states@?$format_item@DU?$char_traits@D@std@@V?$allocator@D@2@@detail@io@boost@@QEAAXXZ
	?construct@?$optional_base@Vlocale@std@@@optional_detail@boost@@IEAAX$$QEAVlocale@std@@@Z
	?construct@?$optional_base@Vlocale@std@@@optional_detail@boost@@IEAAXAEBVlocale@std@@@Z
	?copy@?$_Char_traits@DH@std@@SAPEADQEADQEBD_K@Z
	?copy_boost_exception@exception_detail@boost@@YAXPEAVexception@2@PEBV32@@Z
	?copy_from@?$wrapexcept@Ubad_day_of_month@gregorian@boost@@@boost@@AEAAXPEBX@Z
	?copy_from@?$wrapexcept@Ubad_day_of_year@gregorian@boost@@@boost@@AEAAXPEBX@Z
	?copy_from@?$wrapexcept@Ubad_month@gregorian@boost@@@boost@@AEAAXPEBX@Z
	?copy_from@?$wrapexcept@Ubad_weekday@gregorian@boost@@@boost@@AEAAXPEBX@Z
	?copy_from@?$wrapexcept@Ubad_year@gregorian@boost@@@boost@@AEAAXPEBX@Z
	?copy_from@?$wrapexcept@Vbad_format_string@io@boost@@@boost@@AEAAXPEBX@Z
	?copy_from@?$wrapexcept@Vout_of_range@std@@@boost@@AEAAXPEBX@Z
	?copy_from@?$wrapexcept@Vtoo_few_args@io@boost@@@boost@@AEAAXPEBX@Z
	?copy_from@?$wrapexcept@Vtoo_many_args@io@boost@@@boost@@AEAAXPEBX@Z
	?data@?$basic_string@DU?$char_traits@D@std@@V?$allocator@D@2@@std@@QEBAPEBDXZ
	?data@?$vector@IV?$allocator@I@std@@@std@@QEAAPEAIXZ
	?data@?$vector@IV?$allocator@I@std@@@std@@QEBAPEBIXZ
	?date@?$base_time@Vptime@posix_time@boost@@V?$counted_time_system@U?$counted_time_rep@Vmillisec_posix_time_system_config@posix_time@boost@@@date_time@boost@@@date_time@3@@date_time@boost@@QEBA?AV0gregorian@3@XZ
	?date@?$counted_time_rep@Vmillisec_posix_time_system_config@posix_time@boost@@@date_time@boost@@QEBA?AV0gregorian@3@XZ
	?day_count@?$counted_time_rep@Vmillisec_posix_time_system_config@posix_time@boost@@@date_time@boost@@QEBAKXZ
	?day_number@?$gregorian_calendar_base@U?$year_month_day_base@Vgreg_year@gregorian@boost@@Vgreg_month@23@Vgreg_day@23@@date_time@boost@@I@date_time@boost@@SAIAEBU?$year_month_day_base@Vgreg_year@gregorian@boost@@Vgreg_month@23@Vgreg_day@23@@23@@Z
	?day_of_week@?$date@V0gregorian@boost@@Vgregorian_calendar@12@Vdate_duration@12@@date_time@boost@@QEBA?AVgreg_weekday@gregorian@3@XZ
	?day_of_week@?$gregorian_calendar_base@U?$year_month_day_base@Vgreg_year@gregorian@boost@@Vgreg_month@23@Vgreg_day@23@@date_time@boost@@I@date_time@boost@@SAGAEBU?$year_month_day_base@Vgreg_year@gregorian@boost@@Vgreg_month@23@Vgreg_day@23@@23@@Z
	?day_of_year@date@gregorian@boost@@QEBA?AV?$constrained_value@V?$simple_exception_policy@G$00$0BGO@Ubad_day_of_year@gregorian@boost@@@CV@boost@@@CV@3@XZ
	?days@?$date_duration@Uduration_traits_adapted@date_time@boost@@@date_time@boost@@QEBAJXZ
	?dealloc@?$basic_altstringbuf@DU?$char_traits@D@std@@V?$allocator@D@2@@io@boost@@IEAAXXZ
	?deallocate@?$_Default_allocator_traits@V?$allocator@U_Container_proxy@std@@@std@@@std@@SAXAEAV?$allocator@U_Container_proxy@std@@@2@QEAU_Container_proxy@2@_K@Z
	?deallocate@?$allocator@D@std@@QEAAXQEAD_K@Z
	?deallocate@?$allocator@I@std@@QEAAXQEAI_K@Z
	?deallocate@?$allocator@PEAD@std@@QEAAXQEAPEAD_K@Z
	?deallocate@?$allocator@U?$format_item@DU?$char_traits@D@std@@V?$allocator@D@2@@detail@io@boost@@@std@@QEAAXQEAU?$format_item@DU?$char_traits@D@std@@V?$allocator@D@2@@detail@io@boost@@_K@Z
	?deallocate@?$allocator@V?$basic_string@DU?$char_traits@D@std@@V?$allocator@D@2@@std@@@std@@QEAAXQEAV?$basic_string@DU?$char_traits@D@std@@V?$allocator@D@2@@2@_K@Z
	?decimal_point@?$numpunct@D@std@@QEBADXZ
	?destroy@?$optional_base@Vlocale@std@@@optional_detail@boost@@IEAAXXZ
	?destroy@sp_counted_base@detail@boost@@UEAAXXZ
	?destroy_impl@?$optional_base@Vlocale@std@@@optional_detail@boost@@AEAAXXZ
	?dispose@?$sp_counted_impl_pd@PEAV?$basic_altstringbuf@DU?$char_traits@D@std@@V?$allocator@D@2@@io@boost@@VNo_Op@?$basic_oaltstringstream@DU?$char_traits@D@std@@V?$allocator@D@2@@23@@detail@boost@@UEAAXXZ
	?do_decimal_point@?$numpunct@D@std@@MEBADXZ
	?do_falsename@?$numpunct@D@std@@MEBA?AV?$basic_string@DU?$char_traits@D@std@@V?$allocator@D@2@@2@XZ
	?do_grouping@?$numpunct@D@std@@MEBA?AV?$basic_string@DU?$char_traits@D@std@@V?$allocator@D@2@@2@XZ
	?do_put_special@?$date_facet@Vdate@gregorian@boost@@DV?$ostreambuf_iterator@DU?$char_traits@D@std@@@std@@@date_time@boost@@MEBA?AV?$ostreambuf_iterator@DU?$char_traits@D@std@@@std@@V45@AEAVios_base@5@DW4special_values@23@@Z
	?do_put_tm@?$date_facet@Vdate@gregorian@boost@@DV?$ostreambuf_iterator@DU?$char_traits@D@std@@@std@@@date_time@boost@@MEBA?AV?$ostreambuf_iterator@DU?$char_traits@D@std@@@std@@V45@AEAVios_base@5@DAEBUtm@@V?$basic_string@DU?$char_traits@D@std@@V?$allocator@D@2@@5@@Z
	?do_thousands_sep@?$numpunct@D@std@@MEBADXZ
	?do_truename@?$numpunct@D@std@@MEBA?AV?$basic_string@DU?$char_traits@D@std@@V?$allocator@D@2@@2@XZ
	?empty@?$basic_string@DU?$char_traits@D@std@@V?$allocator@D@2@@std@@QEBA_NXZ
	?empty@?$deque@DV?$allocator@D@std@@@std@@QEBA_NXZ
	?empty@?$iterator_range_base@V?$_String_const_iterator@V?$_String_val@U?$_Simple_types@D@std@@@std@@@std@@Uincrementable_traversal_tag@iterators@boost@@@iterator_range_detail@boost@@QEBA_NXZ
	?empty@?$iterator_range_base@V?$_String_iterator@V?$_String_val@U?$_Simple_types@D@std@@@std@@@std@@Uincrementable_traversal_tag@iterators@boost@@@iterator_range_detail@boost@@QEBA_NXZ
	?empty@?$vector@V?$basic_string@DU?$char_traits@D@std@@V?$allocator@D@2@@std@@V?$allocator@V?$basic_string@DU?$char_traits@D@std@@V?$allocator@D@2@@std@@@2@@std@@QEBA_NXZ
	?empty@?$vector@_NV?$allocator@_N@std@@@std@@QEBA_NXZ
	?end@?$basic_string@DU?$char_traits@D@std@@V?$allocator@D@2@@std@@QEAA?AV?$_String_iterator@V?$_String_val@U?$_Simple_types@D@std@@@std@@@2@XZ
	?end@?$basic_string@DU?$char_traits@D@std@@V?$allocator@D@2@@std@@QEBA?AV?$_String_const_iterator@V?$_String_val@U?$_Simple_types@D@std@@@std@@@2@XZ
	?end@?$deque@DV?$allocator@D@std@@@std@@QEAA?AV?$_Deque_iterator@V?$_Deque_val@U?$_Deque_simple_types@D@std@@@std@@@2@XZ
	?end@?$empty_container@D@detail@algorithm@boost@@QEBAPEBDXZ
	?end@?$iterator_range_base@PEBDUincrementable_traversal_tag@iterators@boost@@@iterator_range_detail@boost@@QEBAPEBDXZ
	?end@?$iterator_range_base@V?$_String_const_iterator@V?$_String_val@U?$_Simple_types@D@std@@@std@@@std@@Uincrementable_traversal_tag@iterators@boost@@@iterator_range_detail@boost@@QEBA?AV?$_String_const_iterator@V?$_String_val@U?$_Simple_types@D@std@@@std@@@std@@XZ
	?end@?$iterator_range_base@V?$_String_iterator@V?$_String_val@U?$_Simple_types@D@std@@@std@@@std@@Uincrementable_traversal_tag@iterators@boost@@@iterator_range_detail@boost@@QEBA?AV?$_String_iterator@V?$_String_val@U?$_Simple_types@D@std@@@std@@@std@@XZ
	?end@?$vector@IV?$allocator@I@std@@@std@@QEAA?AV?$_Vector_iterator@V?$_Vector_val@U?$_Simple_types@I@std@@@std@@@2@XZ
	?end@?$vector@_NV?$allocator@_N@std@@@std@@QEAA?AV?$_Vb_iterator@U?$_Wrap_alloc@V?$allocator@I@std@@@std@@@2@XZ
	?end_of_month_day@?$gregorian_calendar_base@U?$year_month_day_base@Vgreg_year@gregorian@boost@@Vgreg_month@23@Vgreg_day@23@@date_time@boost@@I@date_time@boost@@SAGVgreg_year@gregorian@3@Vgreg_month@53@@Z
	?eof@?$_Narrow_char_traits@DH@std@@SAHXZ
	?eq@?$_Narrow_char_traits@DH@std@@SA_NAEBD0@Z
	?eq_int_type@?$_Narrow_char_traits@DH@std@@SA_NAEBH0@Z
	?erase@?$basic_string@DU?$char_traits@D@std@@V?$allocator@D@2@@std@@QEAA?AV?$_String_iterator@V?$_String_val@U?$_Simple_types@D@std@@@std@@@2@V?$_String_const_iterator@V?$_String_val@U?$_Simple_types@D@std@@@std@@@2@0@Z
	?erase@?$vector@IV?$allocator@I@std@@@std@@QEAA?AV?$_Vector_iterator@V?$_Vector_val@U?$_Simple_types@I@std@@@std@@@2@V?$_Vector_const_iterator@V?$_Vector_val@U?$_Simple_types@I@std@@@std@@@2@0@Z
	?erase@?$vector@_NV?$allocator@_N@std@@@std@@QEAA?AV?$_Vb_iterator@U?$_Wrap_alloc@V?$allocator@I@std@@@std@@@2@V?$_Vb_const_iterator@U?$_Wrap_alloc@V?$allocator@I@std@@@std@@@2@0@Z
	?exceptions@?$basic_format@DU?$char_traits@D@std@@V?$allocator@D@2@@boost@@QEBAEXZ
	?fetch_add@?$_Atomic_integral@H$03@std@@QEAAHHW4memory_order@2@@Z
	?fetch_sub@?$_Atomic_integral_facade@H@std@@QEAAHHW4memory_order@2@@Z
	?find@?$_Narrow_char_traits@DH@std@@SAPEBDQEBD_KAEBD@Z
	?find@?$basic_string@DU?$char_traits@D@std@@V?$allocator@D@2@@std@@QEBA_KD_K@Z
	?find@?$basic_string@DU?$char_traits@D@std@@V?$allocator@D@2@@std@@QEBA_KQEBD_K@Z
	?finish@nmea@vanetza@@YA?AV?$basic_string@DU?$char_traits@D@std@@V?$allocator@D@2@@std@@AEAV?$basic_stringstream@DU?$char_traits@D@std@@V?$allocator@D@2@@4@@Z
	?fixed@std@@YAAEAVios_base@1@AEAV21@@Z
	?format_result@?$find_format_store@V?$_String_iterator@V?$_String_val@U?$_Simple_types@D@std@@@std@@@std@@U?$const_formatF@V?$iterator_range@PEBD@boost@@@detail@algorithm@boost@@V?$iterator_range@PEBD@6@@detail@algorithm@boost@@QEAAAEBV?$iterator_range@PEBD@4@XZ
	?format_result@?$find_format_store@V?$_String_iterator@V?$_String_val@U?$_Simple_types@D@std@@@std@@@std@@U?$const_formatF@V?$iterator_range@V?$_String_const_iterator@V?$_String_val@U?$_Simple_types@D@std@@@std@@@std@@@boost@@@detail@algorithm@boost@@V?$iterator_range@V?$_String_const_iterator@V?$_String_val@U?$_Simple_types@D@std@@@std@@@std@@@6@@detail@algorithm@boost@@QEAAAEBV?$iterator_range@V?$_String_const_iterator@V?$_String_val@U?$_Simple_types@D@std@@@std@@@std@@@4@XZ
	?format_result@?$find_format_store@V?$_String_iterator@V?$_String_val@U?$_Simple_types@D@std@@@std@@@std@@U?$empty_formatF@D@detail@algorithm@boost@@U?$empty_container@D@456@@detail@algorithm@boost@@QEAAAEBU?$empty_container@D@234@XZ
	?frac_sec_per_day@?$counted_time_rep@Vmillisec_posix_time_system_config@posix_time@boost@@@date_time@boost@@SA_JXZ
	?fractional_seconds@?$time_duration@V0posix_time@boost@@V?$time_resolution_traits@Utime_resolution_traits_adapted64_impl@date_time@boost@@$04$0PECEA@$05_J@date_time@2@@date_time@boost@@QEBA_JXZ
	?fractional_seconds_as_string@?$time_facet@Vptime@posix_time@boost@@DV?$ostreambuf_iterator@DU?$char_traits@D@std@@@std@@@date_time@boost@@KA?AV?$basic_string@DU?$char_traits@D@std@@V?$allocator@D@2@@std@@AEBVtime_duration@posix_time@3@_N@Z
	?from_day_number@?$gregorian_calendar_base@U?$year_month_day_base@Vgreg_year@gregorian@boost@@Vgreg_month@23@Vgreg_day@23@@date_time@boost@@I@date_time@boost@@SA?AU?$year_month_day_base@Vgreg_year@gregorian@boost@@Vgreg_month@23@Vgreg_day@23@@23@I@Z
	?from_special@?$int_adapter@I@date_time@boost@@SA?AV123@W4special_values@23@@Z
	?from_special@?$int_adapter@J@date_time@boost@@SA?AV123@W4special_values@23@@Z
	?from_special@?$int_adapter@_J@date_time@boost@@SA?AV123@W4special_values@23@@Z
	?front@?$deque@DV?$allocator@D@std@@@std@@QEAAAEADXZ
	?get@?$optional@Vlocale@std@@@boost@@QEBAAEBVlocale@std@@XZ
	?get@?$refcount_ptr@Uerror_info_container@exception_detail@boost@@@exception_detail@boost@@QEBAPEAUerror_info_container@23@XZ
	?get@?$shared_ptr@V?$basic_altstringbuf@DU?$char_traits@D@std@@V?$allocator@D@2@@io@boost@@@boost@@QEBAPEAV?$basic_altstringbuf@DU?$char_traits@D@std@@V?$allocator@D@2@@io@2@XZ
	?get_allocator@?$basic_string@DU?$char_traits@D@std@@V?$allocator@D@2@@std@@QEBA?AV?$allocator@D@2@XZ
	?get_date@?$counted_time_system@U?$counted_time_rep@Vmillisec_posix_time_system_config@posix_time@boost@@@date_time@boost@@@date_time@boost@@SA?AVdate@gregorian@3@AEBU?$counted_time_rep@Vmillisec_posix_time_system_config@posix_time@boost@@@23@@Z
	?get_deleter@?$sp_counted_impl_pd@PEAV?$basic_altstringbuf@DU?$char_traits@D@std@@V?$allocator@D@2@@io@boost@@VNo_Op@?$basic_oaltstringstream@DU?$char_traits@D@std@@V?$allocator@D@2@@23@@detail@boost@@UEAAPEAXAEBVtype_info@@@Z
	?get_impl@?$optional_base@Vlocale@std@@@optional_detail@boost@@IEAAAEAVlocale@std@@XZ
	?get_impl@?$optional_base@Vlocale@std@@@optional_detail@boost@@IEBAAEBVlocale@std@@XZ
	?get_local_deleter@?$sp_counted_impl_pd@PEAV?$basic_altstringbuf@DU?$char_traits@D@std@@V?$allocator@D@2@@io@boost@@VNo_Op@?$basic_oaltstringstream@DU?$char_traits@D@std@@V?$allocator@D@2@@23@@detail@boost@@UEAAPEAXAEBVtype_info@@@Z
	?get_ptr@?$optional_base@Vlocale@std@@@optional_detail@boost@@QEAAPEAVlocale@std@@XZ
	?get_ptr_impl@?$optional_base@Vlocale@std@@@optional_detail@boost@@IEAAPEAVlocale@std@@XZ
	?get_rep@?$counted_time_rep@Vmillisec_posix_time_system_config@posix_time@boost@@@date_time@boost@@QEBA?AV?$int_adapter@_J@23@XZ
	?get_time_of_day@?$counted_time_system@U?$counted_time_rep@Vmillisec_posix_time_system_config@posix_time@boost@@@date_time@boost@@@date_time@boost@@SA?AVtime_duration@posix_time@3@AEBU?$counted_time_rep@Vmillisec_posix_time_system_config@posix_time@boost@@@23@@Z
	?get_untyped_deleter@?$sp_counted_impl_pd@PEAV?$basic_altstringbuf@DU?$char_traits@D@std@@V?$allocator@D@2@@io@boost@@VNo_Op@?$basic_oaltstringstream@DU?$char_traits@D@std@@V?$allocator@D@2@@23@@detail@boost@@UEAAPEAXXZ
	?getloc@?$basic_format@DU?$char_traits@D@std@@V?$allocator@D@2@@boost@@QEBA?AVlocale@std@@XZ
	?gpgga@nmea@vanetza@@YA?AV?$basic_string@DU?$char_traits@D@std@@V?$allocator@D@2@@std@@AEBVptime@posix_time@boost@@AEBUWgs84Point@2@W4Quality@12@V?$quantity@V?$unit@U?$list@U?$dim@Ulength_base_dimension@units@boost@@V?$static_rational@$00$00@23@@units@boost@@Udimensionless_type@23@@units@boost@@U?$homogeneous_system@U?$list@Umeter_base_unit@si@units@boost@@U?$list@U?$scaled_base_unit@Ugram_base_unit@cgs@units@boost@@U?$scale@$09V?$static_rational@$02$00@units@boost@@@34@@units@boost@@U?$list@Usecond_base_unit@si@units@boost@@U?$list@Uampere_base_unit@si@units@boost@@U?$list@Ukelvin_base_unit@si@units@boost@@U?$list@Umole_base_unit@si@units@boost@@U?$list@Ucandela_base_unit@si@units@boost@@U?$list@Uradian_base_unit@angle@units@boost@@U?$list@Usteradian_base_unit@angle@units@boost@@Udimensionless_type@34@@34@@34@@34@@34@@34@@34@@23@@34@@units@boost@@@23@X@units@boost@@N@units@7@@Z
	?gprmc@nmea@vanetza@@YA?AV?$basic_string@DU?$char_traits@D@std@@V?$allocator@D@2@@std@@AEBVptime@posix_time@boost@@AEBUWgs84Point@2@V?$quantity@V?$unit@U?$list@U?$dim@Ulength_base_dimension@units@boost@@V?$static_rational@$00$00@23@@units@boost@@U?$list@U?$dim@Utime_base_dimension@units@boost@@V?$static_rational@$0?0$00@23@@units@boost@@Udimensionless_type@23@@23@@units@boost@@U?$heterogeneous_system@U?$heterogeneous_system_impl@U?$list@U?$heterogeneous_system_dim@Uknot_base_unit@metric@units@boost@@V?$static_rational@$00$00@34@@units@boost@@Udimensionless_type@23@@units@boost@@U?$list@U?$dim@Ulength_base_dimension@units@boost@@V?$static_rational@$00$00@23@@units@boost@@U?$list@U?$dim@Utime_base_dimension@units@boost@@V?$static_rational@$0?0$00@23@@units@boost@@Udimensionless_type@23@@23@@23@Udimensionless_type@23@@units@boost@@@23@X@units@boost@@N@units@7@V?$quantity@V?$absolute@V?$unit@U?$list@U?$dim@Uplane_angle_base_dimension@units@boost@@V?$static_rational@$00$00@23@@units@boost@@Udimensionless_type@23@@units@boost@@U?$homogeneous_system@U?$list@Udegree_base_unit@angle@units@boost@@Udimensionless_type@34@@units@boost@@@23@X@units@boost@@@units@boost@@N@units@7@@Z
	?hours@?$time_duration@V0posix_time@boost@@V?$time_resolution_traits@Utime_resolution_traits_adapted64_impl@date_time@boost@@$04$0PECEA@$05_J@date_time@2@@date_time@boost@@QEBA_JXZ
	?insert@?$basic_string@DU?$char_traits@D@std@@V?$allocator@D@2@@std@@QEAAAEAV12@_KQEBD0@Z
	?is_char_ptr@range_detail@boost@@YA_NPEBD@Z
	?is_inf@?$int_adapter@I@date_time@boost@@SA_NI@Z
	?is_infinity@?$base_time@Vptime@posix_time@boost@@V?$counted_time_system@U?$counted_time_rep@Vmillisec_posix_time_system_config@posix_time@boost@@@date_time@boost@@@date_time@3@@date_time@boost@@QEBA_NXZ
	?is_infinity@?$date@V0gregorian@boost@@Vgregorian_calendar@12@Vdate_duration@12@@date_time@boost@@QEBA_NXZ
	?is_infinity@?$int_adapter@I@date_time@boost@@QEBA_NXZ
	?is_infinity@?$int_adapter@_J@date_time@boost@@QEBA_NXZ
	?is_initialized@?$optional_base@Vlocale@std@@@optional_detail@boost@@QEBA_NXZ
	?is_leap_year@?$gregorian_calendar_base@U?$year_month_day_base@Vgreg_year@gregorian@boost@@Vgreg_month@23@Vgreg_day@23@@date_time@boost@@I@date_time@boost@@SA_NVgreg_year@gregorian@3@@Z
	?is_nan@?$int_adapter@I@date_time@boost@@QEBA_NXZ
	?is_nan@?$int_adapter@_J@date_time@boost@@QEBA_NXZ
	?is_neg_inf@?$int_adapter@I@date_time@boost@@SA_NI@Z
	?is_neg_inf@?$int_adapter@_J@date_time@boost@@SA_N_J@Z
	?is_neg_infinity@?$base_time@Vptime@posix_time@boost@@V?$counted_time_system@U?$counted_time_rep@Vmillisec_posix_time_system_config@posix_time@boost@@@date_time@boost@@@date_time@3@@date_time@boost@@QEBA_NXZ
	?is_neg_infinity@?$counted_time_rep@Vmillisec_posix_time_system_config@posix_time@boost@@@date_time@boost@@QEBA_NXZ
	?is_not_a_date@?$date@V0gregorian@boost@@Vgregorian_calendar@12@Vdate_duration@12@@date_time@boost@@QEBA_NXZ
	?is_not_a_date_time@?$base_time@Vptime@posix_time@boost@@V?$counted_time_system@U?$counted_time_rep@Vmillisec_posix_time_system_config@posix_time@boost@@@date_time@boost@@@date_time@3@@date_time@boost@@QEBA_NXZ
	?is_not_a_date_time@?$counted_time_rep@Vmillisec_posix_time_system_config@posix_time@boost@@@date_time@boost@@QEBA_NXZ
	?is_not_a_number@?$int_adapter@I@date_time@boost@@SA_NI@Z
	?is_not_a_number@?$int_adapter@_J@date_time@boost@@SA_N_J@Z
	?is_pos_inf@?$int_adapter@I@date_time@boost@@SA_NI@Z
	?is_pos_inf@?$int_adapter@_J@date_time@boost@@SA_N_J@Z
	?is_pos_infinity@?$base_time@Vptime@posix_time@boost@@V?$counted_time_system@U?$counted_time_rep@Vmillisec_posix_time_system_config@posix_time@boost@@@date_time@boost@@@date_time@3@@date_time@boost@@QEBA_NXZ
	?is_pos_infinity@?$counted_time_rep@Vmillisec_posix_time_system_config@posix_time@boost@@@date_time@boost@@QEBA_NXZ
	?is_special@?$base_time@Vptime@posix_time@boost@@V?$counted_time_system@U?$counted_time_rep@Vmillisec_posix_time_system_config@posix_time@boost@@@date_time@boost@@@date_time@3@@date_time@boost@@QEBA_NXZ
	?is_special@?$counted_time_rep@Vmillisec_posix_time_system_config@posix_time@boost@@@date_time@boost@@QEBA_NXZ
	?is_special@?$date@V0gregorian@boost@@Vgregorian_calendar@12@Vdate_duration@12@@date_time@boost@@QEBA_NXZ
	?is_special@?$int_adapter@I@date_time@boost@@QEBA_NXZ
	?is_special@?$int_adapter@_J@date_time@boost@@QEBA_NXZ
	?latitude@nmea@vanetza@@YA?AU0detail@12@AEBUWgs84Point@2@@Z
	?length@?$_Narrow_char_traits@DH@std@@SA_KQEBD@Z
	?length@range_detail@boost@@YA_KPEBD@Z
	?longitude@nmea@vanetza@@YA?AU0detail@12@AEBUWgs84Point@2@@Z
	?make_or_reuse_data@?$basic_format@DU?$char_traits@D@std@@V?$allocator@D@2@@boost@@AEAAX_K@Z
	?max@?$constrained_value@V?$simple_exception_policy@G$00$0BGO@Ubad_day_of_year@gregorian@boost@@@CV@boost@@@CV@boost@@SAGXZ
	?max@?$constrained_value@V?$simple_exception_policy@G$00$0BP@Ubad_day_of_month@gregorian@boost@@@CV@boost@@@CV@boost@@SAGXZ
	?max@?$constrained_value@V?$simple_exception_policy@G$00$0M@Ubad_month@gregorian@boost@@@CV@boost@@@CV@boost@@SAGXZ
	?max@?$constrained_value@V?$simple_exception_policy@G$0A@$05Ubad_weekday@gregorian@boost@@@CV@boost@@@CV@boost@@SAGXZ
	?max@?$constrained_value@V?$simple_exception_policy@G$0FHI@$0CHAP@Ubad_year@gregorian@boost@@@CV@boost@@@CV@boost@@SAGXZ
	?max@?$int_adapter@I@date_time@boost@@SA?AV123@XZ
	?max@?$int_adapter@J@date_time@boost@@SA?AV123@XZ
	?max@?$int_adapter@_J@date_time@boost@@SA?AV123@XZ
	?max@?$numeric_limits@I@std@@SAIXZ
	?max@?$numeric_limits@J@std@@SAJXZ
	?max@?$numeric_limits@_J@std@@SA_JXZ
	?max@?$numeric_limits@_K@std@@SA_KXZ
	?max@?$simple_exception_policy@G$00$0BGO@Ubad_day_of_year@gregorian@boost@@@CV@boost@@SAGXZ
	?max@?$simple_exception_policy@G$00$0BP@Ubad_day_of_month@gregorian@boost@@@CV@boost@@SAGXZ
	?max@?$simple_exception_policy@G$00$0M@Ubad_month@gregorian@boost@@@CV@boost@@SAGXZ
	?max@?$simple_exception_policy@G$0A@$05Ubad_weekday@gregorian@boost@@@CV@boost@@SAGXZ
	?max@?$simple_exception_policy@G$0FHI@$0CHAP@Ubad_year@gregorian@boost@@@CV@boost@@SAGXZ
	?max_size@?$_Default_allocator_traits@V?$allocator@D@std@@@std@@SA_KAEBV?$allocator@D@2@@Z
	?max_size@?$_Default_allocator_traits@V?$allocator@I@std@@@std@@SA_KAEBV?$allocator@I@2@@Z
	?max_size@?$_Default_allocator_traits@V?$allocator@U?$format_item@DU?$char_traits@D@std@@V?$allocator@D@2@@detail@io@boost@@@std@@@std@@SA_KAEBV?$allocator@U?$format_item@DU?$char_traits@D@std@@V?$allocator@D@2@@detail@io@boost@@@2@@Z
	?max_size@?$_Default_allocator_traits@V?$allocator@V?$basic_string@DU?$char_traits@D@std@@V?$allocator@D@2@@std@@@std@@@std@@SA_KAEBV?$allocator@V?$basic_string@DU?$char_traits@D@std@@V?$allocator@D@2@@std@@@2@@Z
	?max_size@?$basic_string@DU?$char_traits@D@std@@V?$allocator@D@2@@std@@QEBA_KXZ
	?max_size@?$deque@DV?$allocator@D@std@@@std@@QEBA_KXZ
	?max_size@?$vector@IV?$allocator@I@std@@@std@@QEBA_KXZ
	?max_size@?$vector@U?$format_item@DU?$char_traits@D@std@@V?$allocator@D@2@@detail@io@boost@@V?$allocator@U?$format_item@DU?$char_traits@D@std@@V?$allocator@D@2@@detail@io@boost@@@std@@@std@@QEBA_KXZ
	?max_size@?$vector@V?$basic_string@DU?$char_traits@D@std@@V?$allocator@D@2@@std@@V?$allocator@V?$basic_string@DU?$char_traits@D@std@@V?$allocator@D@2@@std@@@2@@std@@QEBA_KXZ
	?max_size@?$vector@_NV?$allocator@_N@std@@@std@@QEBA_KXZ
	?max_streamsize@?$format_item@DU?$char_traits@D@std@@V?$allocator@D@2@@detail@io@boost@@SA_JXZ
	?maybe_throw_exception@detail@io@boost@@YAXE_K0@Z
	?min@?$constrained_value@V?$simple_exception_policy@G$00$0BGO@Ubad_day_of_year@gregorian@boost@@@CV@boost@@@CV@boost@@SAGXZ
	?min@?$constrained_value@V?$simple_exception_policy@G$00$0BP@Ubad_day_of_month@gregorian@boost@@@CV@boost@@@CV@boost@@SAGXZ
	?min@?$constrained_value@V?$simple_exception_policy@G$00$0M@Ubad_month@gregorian@boost@@@CV@boost@@@CV@boost@@SAGXZ
	?min@?$constrained_value@V?$simple_exception_policy@G$0A@$05Ubad_weekday@gregorian@boost@@@CV@boost@@@CV@boost@@SAGXZ
	?min@?$constrained_value@V?$simple_exception_policy@G$0FHI@$0CHAP@Ubad_year@gregorian@boost@@@CV@boost@@@CV@boost@@SAGXZ
	?min@?$int_adapter@I@date_time@boost@@SA?AV123@XZ
	?min@?$int_adapter@J@date_time@boost@@SA?AV123@XZ
	?min@?$int_adapter@_J@date_time@boost@@SA?AV123@XZ
	?min@?$numeric_limits@I@std@@SAIXZ
	?min@?$numeric_limits@J@std@@SAJXZ
	?min@?$numeric_limits@_J@std@@SA_JXZ
	?min@?$simple_exception_policy@G$00$0BGO@Ubad_day_of_year@gregorian@boost@@@CV@boost@@SAGXZ
	?min@?$simple_exception_policy@G$00$0BP@Ubad_day_of_month@gregorian@boost@@@CV@boost@@SAGXZ
	?min@?$simple_exception_policy@G$00$0M@Ubad_month@gregorian@boost@@@CV@boost@@SAGXZ
	?min@?$simple_exception_policy@G$0A@$05Ubad_weekday@gregorian@boost@@@CV@boost@@SAGXZ
	?min@?$simple_exception_policy@G$0FHI@$0CHAP@Ubad_year@gregorian@boost@@@CV@boost@@SAGXZ
	?minutes@?$time_duration@V0posix_time@boost@@V?$time_resolution_traits@Utime_resolution_traits_adapted64_impl@date_time@boost@@$04$0PECEA@$05_J@date_time@2@@date_time@boost@@QEBA_JXZ
	?move@?$_Char_traits@DH@std@@SAPEADQEADQEBD_K@Z
	?neg_infinity@?$int_adapter@I@date_time@boost@@SA?AV123@XZ
	?neg_infinity@?$int_adapter@J@date_time@boost@@SA?AV123@XZ
	?neg_infinity@?$int_adapter@_J@date_time@boost@@SA?AV123@XZ
	?not_a_number@?$int_adapter@I@date_time@boost@@SA?AV123@XZ
	?not_a_number@?$int_adapter@J@date_time@boost@@SA?AV123@XZ
	?not_a_number@?$int_adapter@_J@date_time@boost@@SA?AV123@XZ
	?not_eof@?$_Narrow_char_traits@DH@std@@SAHAEBH@Z
	?num_fractional_digits@?$time_duration@V0posix_time@boost@@V?$time_resolution_traits@Utime_resolution_traits_adapted64_impl@date_time@boost@@$04$0PECEA@$05_J@date_time@2@@date_time@boost@@SAGXZ
	?num_fractional_digits@?$time_resolution_traits@Utime_resolution_traits_adapted64_impl@date_time@boost@@$04$0PECEA@$05_J@date_time@boost@@SAGXZ
	?on_error@?$simple_exception_policy@G$00$0BGO@Ubad_day_of_year@gregorian@boost@@@CV@boost@@SAXGGW4violation_enum@23@@Z
	?on_error@?$simple_exception_policy@G$00$0BP@Ubad_day_of_month@gregorian@boost@@@CV@boost@@SAXGGW4violation_enum@23@@Z
	?on_error@?$simple_exception_policy@G$00$0M@Ubad_month@gregorian@boost@@@CV@boost@@SAXGGW4violation_enum@23@@Z
	?on_error@?$simple_exception_policy@G$0A@$05Ubad_weekday@gregorian@boost@@@CV@boost@@SAXGGW4violation_enum@23@@Z
	?on_error@?$simple_exception_policy@G$0FHI@$0CHAP@Ubad_year@gregorian@boost@@@CV@boost@@SAXGGW4violation_enum@23@@Z
	?overflow@?$basic_altstringbuf@DU?$char_traits@D@std@@V?$allocator@D@2@@io@boost@@MEAAHH@Z
	?overflow@?$basic_stringbuf@DU?$char_traits@D@std@@V?$allocator@D@2@@std@@MEAAHH@Z
	?parse@?$basic_format@DU?$char_traits@D@std@@V?$allocator@D@2@@boost@@QEAAAEAV12@AEBV?$basic_string@DU?$char_traits@D@std@@V?$allocator@D@2@@std@@@Z
	?pbackfail@?$basic_altstringbuf@DU?$char_traits@D@std@@V?$allocator@D@2@@io@boost@@MEAAHH@Z
	?pbackfail@?$basic_stringbuf@DU?$char_traits@D@std@@V?$allocator@D@2@@std@@MEAAHH@Z
	?pcount@?$basic_altstringbuf@DU?$char_traits@D@std@@V?$allocator@D@2@@io@boost@@QEBA_KXZ
	?pointer_to@?$pointer_traits@PEAD@std@@SAPEADAEAD@Z
	?pop_back@?$deque@DV?$allocator@D@std@@@std@@QEAAXXZ
	?pop_front@?$deque@DV?$allocator@D@std@@@std@@QEAAXXZ
	?pos_infinity@?$int_adapter@I@date_time@boost@@SA?AV123@XZ
	?pos_infinity@?$int_adapter@J@date_time@boost@@SA?AV123@XZ
	?pos_infinity@?$int_adapter@_J@date_time@boost@@SA?AV123@XZ
	?print_latitude@nmea@vanetza@@YAXAEAV?$basic_ostream@DU?$char_traits@D@std@@@std@@AEBUWgs84Point@2@@Z
	?print_longitude@nmea@vanetza@@YAXAEAV?$basic_ostream@DU?$char_traits@D@std@@@std@@AEBUWgs84Point@2@@Z
	?ptr_ref@?$aligned_storage@Vlocale@std@@@optional_detail@boost@@QEAAPEAVlocale@std@@XZ
	?ptr_ref@?$aligned_storage@Vlocale@std@@@optional_detail@boost@@QEBAPEBVlocale@std@@XZ
	?push_back@?$basic_string@DU?$char_traits@D@std@@V?$allocator@D@2@@std@@QEAAXD@Z
	?push_back@?$deque@DV?$allocator@D@std@@@std@@QEAAXAEBD@Z
	?push_back@?$vector@V?$basic_string@DU?$char_traits@D@std@@V?$allocator@D@2@@std@@V?$allocator@V?$basic_string@DU?$char_traits@D@std@@V?$allocator@D@2@@std@@@2@@std@@QEAAX$$QEAV?$basic_string@DU?$char_traits@D@std@@V?$allocator@D@2@@2@@Z
	?put@?$date_facet@Vdate@gregorian@boost@@DV?$ostreambuf_iterator@DU?$char_traits@D@std@@@std@@@date_time@boost@@QEBA?AV?$ostreambuf_iterator@DU?$char_traits@D@std@@@std@@V45@AEAVios_base@5@DAEBVdate@gregorian@3@@Z
	?put@?$time_facet@Vptime@posix_time@boost@@DV?$ostreambuf_iterator@DU?$char_traits@D@std@@@std@@@date_time@boost@@QEBA?AV?$ostreambuf_iterator@DU?$char_traits@D@std@@@std@@V45@AEAVios_base@5@DAEBVptime@posix_time@3@@Z
	?put_special@?$special_values_formatter@DV?$ostreambuf_iterator@DU?$char_traits@D@std@@@std@@@date_time@boost@@QEBA?AV?$ostreambuf_iterator@DU?$char_traits@D@std@@@std@@V45@AEBW4special_values@23@@Z
	?ref@?$aligned_storage@Vlocale@std@@@optional_detail@boost@@QEAAAEAVlocale@std@@XZ
	?ref@?$aligned_storage@Vlocale@std@@@optional_detail@boost@@QEBAAEBVlocale@std@@XZ
	?release@?$refcount_ptr@Uerror_info_container@exception_detail@boost@@@exception_detail@boost@@AEAAXXZ
	?release@?$unique_ptr@V_Facet_base@std@@U?$default_delete@V_Facet_base@std@@@2@@std@@QEAAPEAV_Facet_base@2@XZ
	?release@sp_counted_base@detail@boost@@QEAAXXZ
	?res_adjust@?$time_resolution_traits@Utime_resolution_traits_adapted64_impl@date_time@boost@@$04$0PECEA@$05_J@date_time@boost@@SA_JXZ
	?reserve@?$basic_string@DU?$char_traits@D@std@@V?$allocator@D@2@@std@@QEAAX_K@Z
	?reserve@?$vector@V?$basic_string@DU?$char_traits@D@std@@V?$allocator@D@2@@std@@V?$allocator@V?$basic_string@DU?$char_traits@D@std@@V?$allocator@D@2@@std@@@2@@std@@QEAAX_K@Z
	?reset@?$format_item@DU?$char_traits@D@std@@V?$allocator@D@2@@detail@io@boost@@QEAAXD@Z
	?reset@?$stream_format_state@DU?$char_traits@D@std@@@detail@io@boost@@QEAAXD@Z
	?resize@?$basic_string@DU?$char_traits@D@std@@V?$allocator@D@2@@std@@QEAAX_KD@Z
	?resize@?$vector@IV?$allocator@I@std@@@std@@QEAAX_KAEBI@Z
	?resize@?$vector@U?$format_item@DU?$char_traits@D@std@@V?$allocator@D@2@@detail@io@boost@@V?$allocator@U?$format_item@DU?$char_traits@D@std@@V?$allocator@D@2@@detail@io@boost@@@std@@@std@@QEAAX_KAEBU?$format_item@DU?$char_traits@D@std@@V?$allocator@D@2@@detail@io@boost@@@Z
	?resize@?$vector@_NV?$allocator@_N@std@@@std@@QEAAX_K_N@Z
	?restore@ios_flags_saver@io@boost@@QEAAXXZ
	?rethrow@?$wrapexcept@Ubad_day_of_month@gregorian@boost@@@boost@@UEBAXXZ
	?rethrow@?$wrapexcept@Ubad_day_of_year@gregorian@boost@@@boost@@UEBAXXZ
	?rethrow@?$wrapexcept@Ubad_month@gregorian@boost@@@boost@@UEBAXXZ
	?rethrow@?$wrapexcept@Ubad_weekday@gregorian@boost@@@boost@@UEBAXXZ
	?rethrow@?$wrapexcept@Ubad_year@gregorian@boost@@@boost@@UEBAXXZ
	?rethrow@?$wrapexcept@Vbad_format_string@io@boost@@@boost@@UEBAXXZ
	?rethrow@?$wrapexcept@Vout_of_range@std@@@boost@@UEBAXXZ
	?rethrow@?$wrapexcept@Vtoo_few_args@io@boost@@@boost@@UEBAXXZ
	?rethrow@?$wrapexcept@Vtoo_many_args@io@boost@@@boost@@UEBAXXZ
	?seconds@?$time_duration@V0posix_time@boost@@V?$time_resolution_traits@Utime_resolution_traits_adapted64_impl@date_time@boost@@$04$0PECEA@$05_J@date_time@2@@date_time@boost@@QEBA_JXZ
	?seekoff@?$basic_altstringbuf@DU?$char_traits@D@std@@V?$allocator@D@2@@io@boost@@MEAA?AV?$fpos@U_Mbstatet@@@std@@_JHH@Z
	?seekoff@?$basic_stringbuf@DU?$char_traits@D@std@@V?$allocator@D@2@@std@@MEAA?AV?$fpos@U_Mbstatet@@@2@_JHH@Z
	?seekpos@?$basic_altstringbuf@DU?$char_traits@D@std@@V?$allocator@D@2@@io@boost@@MEAA?AV?$fpos@U_Mbstatet@@@std@@V45@H@Z
	?seekpos@?$basic_stringbuf@DU?$char_traits@D@std@@V?$allocator@D@2@@std@@MEAA?AV?$fpos@U_Mbstatet@@@2@V32@H@Z
	?select_on_container_copy_construction@?$_Default_allocator_traits@V?$allocator@D@std@@@std@@SA?AV?$allocator@D@2@AEBV32@@Z
	?select_on_container_copy_construction@?$_Default_allocator_traits@V?$allocator@V?$basic_string@DU?$char_traits@D@std@@V?$allocator@D@2@@std@@@std@@@std@@SA?AV?$allocator@V?$basic_string@DU?$char_traits@D@std@@V?$allocator@D@2@@std@@@2@AEBV32@@Z
	?set_iso_extended_format@?$date_facet@Vdate@gregorian@boost@@DV?$ostreambuf_iterator@DU?$char_traits@D@std@@@std@@@date_time@boost@@UEAAXXZ
	?set_iso_extended_format@?$time_facet@Vptime@posix_time@boost@@DV?$ostreambuf_iterator@DU?$char_traits@D@std@@@std@@@date_time@boost@@UEAAXXZ
	?set_iso_format@?$date_facet@Vdate@gregorian@boost@@DV?$ostreambuf_iterator@DU?$char_traits@D@std@@@std@@@date_time@boost@@UEAAXXZ
	?set_iso_format@?$time_facet@Vptime@posix_time@boost@@DV?$ostreambuf_iterator@DU?$char_traits@D@std@@@std@@@date_time@boost@@UEAAXXZ
	?size@?$basic_format@DU?$char_traits@D@std@@V?$allocator@D@2@@boost@@QEBA_KXZ
	?size@?$basic_string@DU?$char_traits@D@std@@V?$allocator@D@2@@std@@QEBA_KXZ
	?size@?$vector@IV?$allocator@I@std@@@std@@QEBA_KXZ
	?size@?$vector@U?$format_item@DU?$char_traits@D@std@@V?$allocator@D@2@@detail@io@boost@@V?$allocator@U?$format_item@DU?$char_traits@D@std@@V?$allocator@D@2@@detail@io@boost@@@std@@@std@@QEBA_KXZ
	?size@?$vector@V?$basic_string@DU?$char_traits@D@std@@V?$allocator@D@2@@std@@V?$allocator@V?$basic_string@DU?$char_traits@D@std@@V?$allocator@D@2@@std@@@2@@std@@QEBA_KXZ
	?size@?$vector@_NV?$allocator@_N@std@@@std@@QEBA_KXZ
	?sp_enable_shared_from_this@detail@boost@@YAXZZ
	?str@?$basic_format@DU?$char_traits@D@std@@V?$allocator@D@2@@boost@@QEBA?AV?$basic_string@DU?$char_traits@D@std@@V?$allocator@D@2@@std@@XZ
	?str@?$basic_ostringstream@DU?$char_traits@D@std@@V?$allocator@D@2@@std@@QEBA?AV?$basic_string@DU?$char_traits@D@std@@V?$allocator@D@2@@2@XZ
	?str@?$basic_stringbuf@DU?$char_traits@D@std@@V?$allocator@D@2@@std@@QEBA?AV?$basic_string@DU?$char_traits@D@std@@V?$allocator@D@2@@2@XZ
	?str@?$basic_stringstream@DU?$char_traits@D@std@@V?$allocator@D@2@@std@@QEBA?AV?$basic_string@DU?$char_traits@D@std@@V?$allocator@D@2@@2@XZ
	?throw_exception_assert_compatibility@boost@@YAXAEBVexception@std@@@Z
	?ticks@?$time_duration@V0posix_time@boost@@V?$time_resolution_traits@Utime_resolution_traits_adapted64_impl@date_time@boost@@$04$0PECEA@$05_J@date_time@2@@date_time@boost@@QEBA_JXZ
	?ticks_per_second@?$time_duration@V0posix_time@boost@@V?$time_resolution_traits@Utime_resolution_traits_adapted64_impl@date_time@boost@@$04$0PECEA@$05_J@date_time@2@@date_time@boost@@SA_JXZ
	?time_of_day@?$base_time@Vptime@posix_time@boost@@V?$counted_time_system@U?$counted_time_rep@Vmillisec_posix_time_system_config@posix_time@boost@@@date_time@boost@@@date_time@3@@date_time@boost@@QEBA?AVtime_duration@posix_time@3@XZ
	?to_char_type@?$_Narrow_char_traits@DH@std@@SADAEBH@Z
	?to_int_type@?$_Narrow_char_traits@DH@std@@SAHAEBD@Z
	?to_special@?$int_adapter@I@date_time@boost@@SA?AW4special_values@23@I@Z
	?to_special@?$int_adapter@_J@date_time@boost@@SA?AW4special_values@23@_J@Z
	?to_tick_count@?$time_resolution_traits@Utime_resolution_traits_adapted64_impl@date_time@boost@@$04$0PECEA@$05_J@date_time@boost@@SA_J_J000@Z
	?to_tm@gregorian@boost@@YA?AUtm@@AEBVdate@12@@Z
	?to_tm@posix_time@boost@@YA?AUtm@@AEBVptime@12@@Z
	?to_unspecified_bool@?$safe_bool@PEQ?$iterator_range_base@V?$_String_iterator@V?$_String_val@U?$_Simple_types@D@std@@@std@@@std@@Uincrementable_traversal_tag@iterators@boost@@@iterator_range_detail@boost@@V?$_String_iterator@V?$_String_val@U?$_Simple_types@D@std@@@std@@@std@@@range_detail@boost@@SAPEQ?$iterator_range_base@V?$_String_iterator@V?$_String_val@U?$_Simple_types@D@std@@@std@@@std@@Uincrementable_traversal_tag@iterators@boost@@@iterator_range_detail@3@V?$_String_iterator@V?$_String_val@U?$_Simple_types@D@std@@@std@@@std@@_NPEQ453@V67@@Z
	?tod@?$counted_time_rep@Vmillisec_posix_time_system_config@posix_time@boost@@@date_time@boost@@QEBA_JXZ
	?underflow@?$basic_altstringbuf@DU?$char_traits@D@std@@V?$allocator@D@2@@io@boost@@MEAAHXZ
	?underflow@?$basic_stringbuf@DU?$char_traits@D@std@@V?$allocator@D@2@@std@@MEAAHXZ
	?uppercase@std@@YAAEAVios_base@1@AEAV21@@Z
	?value@?$quantity@V?$absolute@V?$unit@U?$list@U?$dim@Uplane_angle_base_dimension@units@boost@@V?$static_rational@$00$00@23@@units@boost@@Udimensionless_type@23@@units@boost@@U?$homogeneous_system@U?$list@Udegree_base_unit@angle@units@boost@@Udimensionless_type@34@@units@boost@@@23@X@units@boost@@@units@boost@@N@units@boost@@QEBAAEBNXZ
	?value@?$quantity@V?$unit@U?$list@U?$dim@Ulength_base_dimension@units@boost@@V?$static_rational@$00$00@23@@units@boost@@U?$list@U?$dim@Utime_base_dimension@units@boost@@V?$static_rational@$0?0$00@23@@units@boost@@Udimensionless_type@23@@23@@units@boost@@U?$heterogeneous_system@U?$heterogeneous_system_impl@U?$list@U?$heterogeneous_system_dim@Uknot_base_unit@metric@units@boost@@V?$static_rational@$00$00@34@@units@boost@@Udimensionless_type@23@@units@boost@@U?$list@U?$dim@Ulength_base_dimension@units@boost@@V?$static_rational@$00$00@23@@units@boost@@U?$list@U?$dim@Utime_base_dimension@units@boost@@V?$static_rational@$0?0$00@23@@units@boost@@Udimensionless_type@23@@23@@23@Udimensionless_type@23@@units@boost@@@23@X@units@boost@@N@units@boost@@QEBAAEBNXZ
	?value@?$quantity@V?$unit@U?$list@U?$dim@Ulength_base_dimension@units@boost@@V?$static_rational@$00$00@23@@units@boost@@Udimensionless_type@23@@units@boost@@U?$homogeneous_system@U?$list@Umeter_base_unit@si@units@boost@@U?$list@U?$scaled_base_unit@Ugram_base_unit@cgs@units@boost@@U?$scale@$09V?$static_rational@$02$00@units@boost@@@34@@units@boost@@U?$list@Usecond_base_unit@si@units@boost@@U?$list@Uampere_base_unit@si@units@boost@@U?$list@Ukelvin_base_unit@si@units@boost@@U?$list@Umole_base_unit@si@units@boost@@U?$list@Ucandela_base_unit@si@units@boost@@U?$list@Uradian_base_unit@angle@units@boost@@U?$list@Usteradian_base_unit@angle@units@boost@@Udimensionless_type@34@@34@@34@@34@@34@@34@@34@@23@@34@@units@boost@@@23@X@units@boost@@N@units@boost@@QEBAAEBNXZ
	?value@?$quantity@V?$unit@U?$list@U?$dim@Uplane_angle_base_dimension@units@boost@@V?$static_rational@$00$00@23@@units@boost@@Udimensionless_type@23@@units@boost@@U?$homogeneous_system@U?$list@Udegree_base_unit@angle@units@boost@@Udimensionless_type@34@@units@boost@@@23@X@units@boost@@N@units@boost@@QEBAAEBNXZ
	?weak_release@sp_counted_base@detail@boost@@QEAAXXZ
	?what@bad_format_string@io@boost@@UEBAPEBDXZ
	?what@exception@std@@UEBAPEBDXZ
	?what@format_error@io@boost@@UEBAPEBDXZ
	?what@too_few_args@io@boost@@UEBAPEBDXZ
	?what@too_many_args@io@boost@@UEBAPEBDXZ
	?year@?$date@V0gregorian@boost@@Vgregorian_calendar@12@Vdate_duration@12@@date_time@boost@@QEBA?AVgreg_year@gregorian@3@XZ
	?year_month_day@?$date@V0gregorian@boost@@Vgregorian_calendar@12@Vdate_duration@12@@date_time@boost@@QEBA?AU?$year_month_day_base@Vgreg_year@gregorian@boost@@Vgreg_month@23@Vgreg_day@23@@23@XZ
	?zone_abbrev@?$base_time@Vptime@posix_time@boost@@V?$counted_time_system@U?$counted_time_rep@Vmillisec_posix_time_system_config@posix_time@boost@@@date_time@boost@@@date_time@3@@date_time@boost@@QEBA?AV?$basic_string@DU?$char_traits@D@std@@V?$allocator@D@2@@std@@_N@Z
	?zone_as_posix_string@?$base_time@Vptime@posix_time@boost@@V?$counted_time_system@U?$counted_time_rep@Vmillisec_posix_time_system_config@posix_time@boost@@@date_time@boost@@@date_time@3@@date_time@boost@@QEBA?AV?$basic_string@DU?$char_traits@D@std@@V?$allocator@D@2@@std@@XZ
	?zone_name@?$base_time@Vptime@posix_time@boost@@V?$counted_time_system@U?$counted_time_rep@Vmillisec_posix_time_system_config@posix_time@boost@@@date_time@boost@@@date_time@3@@date_time@boost@@QEBA?AV?$basic_string@DU?$char_traits@D@std@@V?$allocator@D@2@@std@@_N@Z
	?zone_name@?$counted_time_system@U?$counted_time_rep@Vmillisec_posix_time_system_config@posix_time@boost@@@date_time@boost@@@date_time@boost@@SA?AV?$basic_string@DU?$char_traits@D@std@@V?$allocator@D@2@@std@@AEBU?$counted_time_rep@Vmillisec_posix_time_system_config@posix_time@boost@@@23@@Z
	wmemcpy
