EXPORTS 
	?$TSS0@?1??Ref@?$Singleton@V?$DL_Algorithm_ECDSA@VECP@CryptoPP@@@CryptoPP@@U?$NewObject@V?$DL_Algorithm_ECDSA@VECP@CryptoPP@@@CryptoPP@@@2@$0A@@CryptoPP@@QEBAAEBV?$DL_Algorithm_ECDSA@VECP@CryptoPP@@@3@XZ@4HA 	 DATA
	?$TSS0@?1??Ref@?$Singleton@VDL_SignatureMessageEncodingMethod_DSA@CryptoPP@@U?$NewObject@VDL_SignatureMessageEncodingMethod_DSA@CryptoPP@@@2@$0A@@CryptoPP@@QEBAAEBVDL_SignatureMessageEncodingMethod_DSA@3@XZ@4HA 	 DATA
	?$TSS0@?1??_GetStaticAmbientSchedulerStorage@details@Concurrency@@YAPEAV?$shared_ptr@Uscheduler_interface@Concurrency@@@std@@XZ@4HA 	 DATA
	??_R0?AU?$_Task_impl@E@details@Concurrency@@@8 	 DATA
	??_R0?AU?$wrapexcept@Vbad_format_string@io@boost@@@boost@@@8 	 DATA
	??_R0?AU?$wrapexcept@Vbad_get@boost@@@boost@@@8 	 DATA
	??_R0?AU?$wrapexcept@Vbad_optional_access@boost@@@boost@@@8 	 DATA
	??_R0?AU?$wrapexcept@Vfailure@ios_base@std@@@boost@@@8 	 DATA
	??_R0?AU?$wrapexcept@Vtoo_few_args@io@boost@@@boost@@@8 	 DATA
	??_R0?AU?$wrapexcept@Vtoo_many_args@io@boost@@@boost@@@8 	 DATA
	??_R0?AUECPPoint@CryptoPP@@@8 	 DATA
	??_R0?AUFilterPutSpaceHelper@CryptoPP@@@8 	 DATA
	??_R0?AUInputRejected@?$InputRejecting@VBufferedTransformation@CryptoPP@@@CryptoPP@@@8 	 DATA
	??_R0?AUInputRejected@?$InputRejecting@VFilter@CryptoPP@@@CryptoPP@@@8 	 DATA
	??_R0?AU_TaskProcHandle@details@Concurrency@@@8 	 DATA
	??_R0?AU_Task_impl_base@details@Concurrency@@@8 	 DATA
	??_R0?AUscheduler_interface@Concurrency@@@8 	 DATA
	??_R0?AV<lambda_052e919cc0e5399df76dff3972c0cac1>@@@8 	 DATA
	??_R0?AV<lambda_2fa3e3d11fb97352afa77a4a13bfb543>@@@8 	 DATA
	??_R0?AV<lambda_763529b0c7473cbc215a52d189ac9b18>@@@8 	 DATA
	??_R0?AV<lambda_f25c37099038263181b5186a3fa41b37>@@@8 	 DATA
	??_R0?AV?$ASN1CryptoMaterial@VPrivateKey@CryptoPP@@@CryptoPP@@@8 	 DATA
	??_R0?AV?$ASN1CryptoMaterial@VPublicKey@CryptoPP@@@CryptoPP@@@8 	 DATA
	??_R0?AV?$AbstractGroup@UECPPoint@CryptoPP@@@CryptoPP@@@8 	 DATA
	??_R0?AV?$AlgorithmImpl@V?$DL_SignerBase@UECPPoint@CryptoPP@@@CryptoPP@@V?$DL_SS@U?$DL_Keys_ECDSA@VECP@CryptoPP@@@CryptoPP@@V?$DL_Algorithm_ECDSA@VECP@CryptoPP@@@2@VDL_SignatureMessageEncodingMethod_DSA@2@VSHA256@2@H@2@@CryptoPP@@@8 	 DATA
	??_R0?AV?$AlgorithmImpl@V?$DL_VerifierBase@UECPPoint@CryptoPP@@@CryptoPP@@V?$DL_SS@U?$DL_Keys_ECDSA@VECP@CryptoPP@@@CryptoPP@@V?$DL_Algorithm_ECDSA@VECP@CryptoPP@@@2@VDL_SignatureMessageEncodingMethod_DSA@2@VSHA256@2@H@2@@CryptoPP@@@8 	 DATA
	??_R0?AV?$AlgorithmImpl@V?$DL_VerifierBase@UECPPoint@CryptoPP@@@CryptoPP@@V?$DL_SS@U?$DL_Keys_ECDSA@VECP@CryptoPP@@@CryptoPP@@V?$DL_Algorithm_ECDSA@VECP@CryptoPP@@@2@VDL_SignatureMessageEncodingMethod_DSA@2@VSHA384@2@H@2@@CryptoPP@@@8 	 DATA
	??_R0?AV?$AlgorithmImpl@V?$IteratedHash@IU?$EnumToType@W4ByteOrder@CryptoPP@@$00@CryptoPP@@$0EA@VHashTransformation@2@@CryptoPP@@VSHA256@2@@CryptoPP@@@8 	 DATA
	??_R0?AV?$AlgorithmImpl@V?$IteratedHash@_KU?$EnumToType@W4ByteOrder@CryptoPP@@$00@CryptoPP@@$0IA@VHashTransformation@2@@CryptoPP@@VSHA384@2@@CryptoPP@@@8 	 DATA
	??_R0?AV?$AlgorithmParametersTemplate@H@CryptoPP@@@8 	 DATA
	??_R0?AV?$AlgorithmParametersTemplate@PEBD@CryptoPP@@@8 	 DATA
	??_R0?AV?$AlgorithmParametersTemplate@PEBH@CryptoPP@@@8 	 DATA
	??_R0?AV?$AlgorithmParametersTemplate@VConstByteArrayParameter@CryptoPP@@@CryptoPP@@@8 	 DATA
	??_R0?AV?$AlgorithmParametersTemplate@_N@CryptoPP@@@8 	 DATA
	??_R0?AV?$AutoSignaling@V?$InputRejecting@VBufferedTransformation@CryptoPP@@@CryptoPP@@@CryptoPP@@@8 	 DATA
	??_R0?AV?$ClonableImpl@VSHA256@CryptoPP@@V?$AlgorithmImpl@V?$IteratedHash@IU?$EnumToType@W4ByteOrder@CryptoPP@@$00@CryptoPP@@$0EA@VHashTransformation@2@@CryptoPP@@VSHA256@2@@2@@CryptoPP@@@8 	 DATA
	??_R0?AV?$ClonableImpl@VSHA384@CryptoPP@@V?$AlgorithmImpl@V?$IteratedHash@_KU?$EnumToType@W4ByteOrder@CryptoPP@@$00@CryptoPP@@$0IA@VHashTransformation@2@@CryptoPP@@VSHA384@2@@2@@CryptoPP@@@8 	 DATA
	??_R0?AV?$CustomFlushPropagation@VSink@CryptoPP@@@CryptoPP@@@8 	 DATA
	??_R0?AV?$CustomSignalPropagation@VSink@CryptoPP@@@CryptoPP@@@8 	 DATA
	??_R0?AV?$DL_Algorithm_ECDSA@VECP@CryptoPP@@@CryptoPP@@@8 	 DATA
	??_R0?AV?$DL_Algorithm_GDSA@UECPPoint@CryptoPP@@@CryptoPP@@@8 	 DATA
	??_R0?AV?$DL_Base@V?$DL_PrivateKey@UECPPoint@CryptoPP@@@CryptoPP@@@CryptoPP@@@8 	 DATA
	??_R0?AV?$DL_Base@V?$DL_PublicKey@UECPPoint@CryptoPP@@@CryptoPP@@@CryptoPP@@@8 	 DATA
	??_R0?AV?$DL_ElgamalLikeSignatureAlgorithm@UECPPoint@CryptoPP@@@CryptoPP@@@8 	 DATA
	??_R0?AV?$DL_FixedBasePrecomputation@UECPPoint@CryptoPP@@@CryptoPP@@@8 	 DATA
	??_R0?AV?$DL_FixedBasePrecomputationImpl@UECPPoint@CryptoPP@@@CryptoPP@@@8 	 DATA
	??_R0?AV?$DL_GroupParameters@UECPPoint@CryptoPP@@@CryptoPP@@@8 	 DATA
	??_R0?AV?$DL_GroupParametersImpl@V?$EcPrecomputation@VECP@CryptoPP@@@CryptoPP@@V?$DL_FixedBasePrecomputationImpl@UECPPoint@CryptoPP@@@2@V?$DL_GroupParameters@UECPPoint@CryptoPP@@@2@@CryptoPP@@@8 	 DATA
	??_R0?AV?$DL_GroupParameters_EC@VECP@CryptoPP@@@CryptoPP@@@8 	 DATA
	??_R0?AV?$DL_GroupPrecomputation@UECPPoint@CryptoPP@@@CryptoPP@@@8 	 DATA
	??_R0?AV?$DL_Key@UECPPoint@CryptoPP@@@CryptoPP@@@8 	 DATA
	??_R0?AV?$DL_KeyImpl@VPKCS8PrivateKey@CryptoPP@@V?$DL_GroupParameters_EC@VECP@CryptoPP@@@2@VOID@2@@CryptoPP@@@8 	 DATA
	??_R0?AV?$DL_KeyImpl@VX509PublicKey@CryptoPP@@V?$DL_GroupParameters_EC@VECP@CryptoPP@@@2@VOID@2@@CryptoPP@@@8 	 DATA
	??_R0?AV?$DL_ObjectImpl@V?$DL_SignerBase@UECPPoint@CryptoPP@@@CryptoPP@@U?$DL_SignatureSchemeOptions@V?$DL_SS@U?$DL_Keys_ECDSA@VECP@CryptoPP@@@CryptoPP@@V?$DL_Algorithm_ECDSA@VECP@CryptoPP@@@2@VDL_SignatureMessageEncodingMethod_DSA@2@VSHA256@2@H@CryptoPP@@U?$DL_Keys_ECDSA@VECP@CryptoPP@@@2@V?$DL_Algorithm_ECDSA@VECP@CryptoPP@@@2@VDL_SignatureMessageEncodingMethod_DSA@2@VSHA256@2@@2@V?$DL_PrivateKey_WithSignaturePairwiseConsistencyTest@V?$DL_PrivateKey_EC@VECP@CryptoPP@@@CryptoPP@@U?$ECDSA@VECP@CryptoPP@@VSHA256@2@@2@@2@@CryptoPP@@@8 	 DATA
	??_R0?AV?$DL_ObjectImpl@V?$DL_VerifierBase@UECPPoint@CryptoPP@@@CryptoPP@@U?$DL_SignatureSchemeOptions@V?$DL_SS@U?$DL_Keys_ECDSA@VECP@CryptoPP@@@CryptoPP@@V?$DL_Algorithm_ECDSA@VECP@CryptoPP@@@2@VDL_SignatureMessageEncodingMethod_DSA@2@VSHA256@2@H@CryptoPP@@U?$DL_Keys_ECDSA@VECP@CryptoPP@@@2@V?$DL_Algorithm_ECDSA@VECP@CryptoPP@@@2@VDL_SignatureMessageEncodingMethod_DSA@2@VSHA256@2@@2@V?$DL_PublicKey_EC@VECP@CryptoPP@@@2@@CryptoPP@@@8 	 DATA
	??_R0?AV?$DL_ObjectImpl@V?$DL_VerifierBase@UECPPoint@CryptoPP@@@CryptoPP@@U?$DL_SignatureSchemeOptions@V?$DL_SS@U?$DL_Keys_ECDSA@VECP@CryptoPP@@@CryptoPP@@V?$DL_Algorithm_ECDSA@VECP@CryptoPP@@@2@VDL_SignatureMessageEncodingMethod_DSA@2@VSHA384@2@H@CryptoPP@@U?$DL_Keys_ECDSA@VECP@CryptoPP@@@2@V?$DL_Algorithm_ECDSA@VECP@CryptoPP@@@2@VDL_SignatureMessageEncodingMethod_DSA@2@VSHA384@2@@2@V?$DL_PublicKey_EC@VECP@CryptoPP@@@2@@CryptoPP@@@8 	 DATA
	??_R0?AV?$DL_ObjectImplBase@V?$DL_SignerBase@UECPPoint@CryptoPP@@@CryptoPP@@U?$DL_SignatureSchemeOptions@V?$DL_SS@U?$DL_Keys_ECDSA@VECP@CryptoPP@@@CryptoPP@@V?$DL_Algorithm_ECDSA@VECP@CryptoPP@@@2@VDL_SignatureMessageEncodingMethod_DSA@2@VSHA256@2@H@CryptoPP@@U?$DL_Keys_ECDSA@VECP@CryptoPP@@@2@V?$DL_Algorithm_ECDSA@VECP@CryptoPP@@@2@VDL_SignatureMessageEncodingMethod_DSA@2@VSHA256@2@@2@V?$DL_PrivateKey_WithSignaturePairwiseConsistencyTest@V?$DL_PrivateKey_EC@VECP@CryptoPP@@@CryptoPP@@U?$ECDSA@VECP@CryptoPP@@VSHA256@2@@2@@2@@CryptoPP@@@8 	 DATA
	??_R0?AV?$DL_ObjectImplBase@V?$DL_VerifierBase@UECPPoint@CryptoPP@@@CryptoPP@@U?$DL_SignatureSchemeOptions@V?$DL_SS@U?$DL_Keys_ECDSA@VECP@CryptoPP@@@CryptoPP@@V?$DL_Algorithm_ECDSA@VECP@CryptoPP@@@2@VDL_SignatureMessageEncodingMethod_DSA@2@VSHA256@2@H@CryptoPP@@U?$DL_Keys_ECDSA@VECP@CryptoPP@@@2@V?$DL_Algorithm_ECDSA@VECP@CryptoPP@@@2@VDL_SignatureMessageEncodingMethod_DSA@2@VSHA256@2@@2@V?$DL_PublicKey_EC@VECP@CryptoPP@@@2@@CryptoPP@@@8 	 DATA
	??_R0?AV?$DL_ObjectImplBase@V?$DL_VerifierBase@UECPPoint@CryptoPP@@@CryptoPP@@U?$DL_SignatureSchemeOptions@V?$DL_SS@U?$DL_Keys_ECDSA@VECP@CryptoPP@@@CryptoPP@@V?$DL_Algorithm_ECDSA@VECP@CryptoPP@@@2@VDL_SignatureMessageEncodingMethod_DSA@2@VSHA384@2@H@CryptoPP@@U?$DL_Keys_ECDSA@VECP@CryptoPP@@@2@V?$DL_Algorithm_ECDSA@VECP@CryptoPP@@@2@VDL_SignatureMessageEncodingMethod_DSA@2@VSHA384@2@@2@V?$DL_PublicKey_EC@VECP@CryptoPP@@@2@@CryptoPP@@@8 	 DATA
	??_R0?AV?$DL_PrivateKey@UECPPoint@CryptoPP@@@CryptoPP@@@8 	 DATA
	??_R0?AV?$DL_PrivateKeyImpl@V?$DL_GroupParameters_EC@VECP@CryptoPP@@@CryptoPP@@@CryptoPP@@@8 	 DATA
	??_R0?AV?$DL_PrivateKey_EC@VECP@CryptoPP@@@CryptoPP@@@8 	 DATA
	??_R0?AV?$DL_PrivateKey_WithSignaturePairwiseConsistencyTest@V?$DL_PrivateKey_EC@VECP@CryptoPP@@@CryptoPP@@U?$ECDSA@VECP@CryptoPP@@VSHA256@2@@2@@CryptoPP@@@8 	 DATA
	??_R0?AV?$DL_PublicKey@UECPPoint@CryptoPP@@@CryptoPP@@@8 	 DATA
	??_R0?AV?$DL_PublicKeyImpl@V?$DL_GroupParameters_EC@VECP@CryptoPP@@@CryptoPP@@@CryptoPP@@@8 	 DATA
	??_R0?AV?$DL_PublicKey_EC@VECP@CryptoPP@@@CryptoPP@@@8 	 DATA
	??_R0?AV?$DL_SignatureSchemeBase@VPK_Signer@CryptoPP@@V?$DL_PrivateKey@UECPPoint@CryptoPP@@@2@@CryptoPP@@@8 	 DATA
	??_R0?AV?$DL_SignatureSchemeBase@VPK_Verifier@CryptoPP@@V?$DL_PublicKey@UECPPoint@CryptoPP@@@2@@CryptoPP@@@8 	 DATA
	??_R0?AV?$DL_SignerBase@UECPPoint@CryptoPP@@@CryptoPP@@@8 	 DATA
	??_R0?AV?$DL_SignerImpl@U?$DL_SignatureSchemeOptions@V?$DL_SS@U?$DL_Keys_ECDSA@VECP@CryptoPP@@@CryptoPP@@V?$DL_Algorithm_ECDSA@VECP@CryptoPP@@@2@VDL_SignatureMessageEncodingMethod_DSA@2@VSHA256@2@H@CryptoPP@@U?$DL_Keys_ECDSA@VECP@CryptoPP@@@2@V?$DL_Algorithm_ECDSA@VECP@CryptoPP@@@2@VDL_SignatureMessageEncodingMethod_DSA@2@VSHA256@2@@CryptoPP@@@CryptoPP@@@8 	 DATA
	??_R0?AV?$DL_VerifierBase@UECPPoint@CryptoPP@@@CryptoPP@@@8 	 DATA
	??_R0?AV?$DL_VerifierImpl@U?$DL_SignatureSchemeOptions@V?$DL_SS@U?$DL_Keys_ECDSA@VECP@CryptoPP@@@CryptoPP@@V?$DL_Algorithm_ECDSA@VECP@CryptoPP@@@2@VDL_SignatureMessageEncodingMethod_DSA@2@VSHA256@2@H@CryptoPP@@U?$DL_Keys_ECDSA@VECP@CryptoPP@@@2@V?$DL_Algorithm_ECDSA@VECP@CryptoPP@@@2@VDL_SignatureMessageEncodingMethod_DSA@2@VSHA256@2@@CryptoPP@@@CryptoPP@@@8 	 DATA
	??_R0?AV?$DL_VerifierImpl@U?$DL_SignatureSchemeOptions@V?$DL_SS@U?$DL_Keys_ECDSA@VECP@CryptoPP@@@CryptoPP@@V?$DL_Algorithm_ECDSA@VECP@CryptoPP@@@2@VDL_SignatureMessageEncodingMethod_DSA@2@VSHA384@2@H@CryptoPP@@U?$DL_Keys_ECDSA@VECP@CryptoPP@@@2@V?$DL_Algorithm_ECDSA@VECP@CryptoPP@@@2@VDL_SignatureMessageEncodingMethod_DSA@2@VSHA384@2@@CryptoPP@@@CryptoPP@@@8 	 DATA
	??_R0?AV?$EcPrecomputation@VECP@CryptoPP@@@CryptoPP@@@8 	 DATA
	??_R0?AV?$EncodedPoint@UECPPoint@CryptoPP@@@CryptoPP@@@8 	 DATA
	??_R0?AV?$InputRejecting@VBufferedTransformation@CryptoPP@@@CryptoPP@@@8 	 DATA
	??_R0?AV?$InputRejecting@VFilter@CryptoPP@@@CryptoPP@@@8 	 DATA
	??_R0?AV?$IteratedHash@IU?$EnumToType@W4ByteOrder@CryptoPP@@$00@CryptoPP@@$0EA@VHashTransformation@2@@CryptoPP@@@8 	 DATA
	??_R0?AV?$IteratedHash@_KU?$EnumToType@W4ByteOrder@CryptoPP@@$00@CryptoPP@@$0IA@VHashTransformation@2@@CryptoPP@@@8 	 DATA
	??_R0?AV?$IteratedHashBase@IVHashTransformation@CryptoPP@@@CryptoPP@@@8 	 DATA
	??_R0?AV?$IteratedHashBase@_KVHashTransformation@CryptoPP@@@CryptoPP@@@8 	 DATA
	??_R0?AV?$IteratedHashWithStaticTransform@IU?$EnumToType@W4ByteOrder@CryptoPP@@$00@CryptoPP@@$0EA@$0CA@VSHA256@2@$0CA@$00@CryptoPP@@@8 	 DATA
	??_R0?AV?$IteratedHashWithStaticTransform@_KU?$EnumToType@W4ByteOrder@CryptoPP@@$00@CryptoPP@@$0IA@$0EA@VSHA384@2@$0DA@$00@CryptoPP@@@8 	 DATA
	??_R0?AV?$ObjectHolder@VSHA256@CryptoPP@@@CryptoPP@@@8 	 DATA
	??_R0?AV?$ObjectHolder@VSHA384@CryptoPP@@@CryptoPP@@@8 	 DATA
	??_R0?AV?$PK_FinalTemplate@V?$DL_VerifierImpl@U?$DL_SignatureSchemeOptions@V?$DL_SS@U?$DL_Keys_ECDSA@VECP@CryptoPP@@@CryptoPP@@V?$DL_Algorithm_ECDSA@VECP@CryptoPP@@@2@VDL_SignatureMessageEncodingMethod_DSA@2@VSHA256@2@H@CryptoPP@@U?$DL_Keys_ECDSA@VECP@CryptoPP@@@2@V?$DL_Algorithm_ECDSA@VECP@CryptoPP@@@2@VDL_SignatureMessageEncodingMethod_DSA@2@VSHA256@2@@CryptoPP@@@CryptoPP@@@CryptoPP@@@8 	 DATA
	??_R0?AV?$PK_FinalTemplate@V?$DL_VerifierImpl@U?$DL_SignatureSchemeOptions@V?$DL_SS@U?$DL_Keys_ECDSA@VECP@CryptoPP@@@CryptoPP@@V?$DL_Algorithm_ECDSA@VECP@CryptoPP@@@2@VDL_SignatureMessageEncodingMethod_DSA@2@VSHA384@2@H@CryptoPP@@U?$DL_Keys_ECDSA@VECP@CryptoPP@@@2@V?$DL_Algorithm_ECDSA@VECP@CryptoPP@@@2@VDL_SignatureMessageEncodingMethod_DSA@2@VSHA384@2@@CryptoPP@@@CryptoPP@@@CryptoPP@@@8 	 DATA
	??_R0?AV?$PK_MessageAccumulatorImpl@VSHA256@CryptoPP@@@CryptoPP@@@8 	 DATA
	??_R0?AV?$PK_MessageAccumulatorImpl@VSHA384@CryptoPP@@@CryptoPP@@@8 	 DATA
	??_R0?AV?$SourceTemplate@VFileStore@CryptoPP@@@CryptoPP@@@8 	 DATA
	??_R0?AV?$Unflushable@VFilter@CryptoPP@@@CryptoPP@@@8 	 DATA
	??_R0?AV?$_Associated_state@UEcdsaSignature@security@vanetza@@@std@@@8 	 DATA
	??_R0?AV?$_CancellationTokenCallback@V<lambda_be3e5d9dce35d2c8dbfa8485373731d5>@@@details@Concurrency@@@8 	 DATA
	??_R0?AV?$_Deferred_async_state@UEcdsaSignature@security@vanetza@@@std@@@8 	 DATA
	??_R0?AV?$_Func_base@E$$V@std@@@8 	 DATA
	??_R0?AV?$_Func_base@UEcdsaSignature@security@vanetza@@$$V@std@@@8 	 DATA
	??_R0?AV?$_Func_base@V?$unique_ptr@VBackend@security@vanetza@@U?$default_delete@VBackend@security@vanetza@@@std@@@std@@$$V@std@@@8 	 DATA
	??_R0?AV?$_Func_base@X$$V@std@@@8 	 DATA
	??_R0?AV?$_Func_impl_no_alloc@V<lambda_052e919cc0e5399df76dff3972c0cac1>@@E$$V@std@@@8 	 DATA
	??_R0?AV?$_Func_impl_no_alloc@V<lambda_2fa3e3d11fb97352afa77a4a13bfb543>@@X$$V@std@@@8 	 DATA
	??_R0?AV?$_Func_impl_no_alloc@V<lambda_763529b0c7473cbc215a52d189ac9b18>@@X$$V@std@@@8 	 DATA
	??_R0?AV?$_Func_impl_no_alloc@V<lambda_f25c37099038263181b5186a3fa41b37>@@X$$V@std@@@8 	 DATA
	??_R0?AV?$_Iosb@H@std@@@8 	 DATA
	??_R0?AV?$_Packaged_state@$$A6A?AUEcdsaSignature@security@vanetza@@XZ@std@@@8 	 DATA
	??_R0?AV?$_Ref_count_obj2@U?$_Task_impl@E@details@Concurrency@@@std@@@8 	 DATA
	??_R0?AV?$_Ref_count_obj2@U_ExceptionHolder@details@Concurrency@@@std@@@8 	 DATA
	??_R0?AV?$_Task_async_state@UEcdsaSignature@security@vanetza@@@std@@@8 	 DATA
	??_R0?AV?$base_from_member@V?$shared_ptr@V?$basic_altstringbuf@DU?$char_traits@D@std@@V?$allocator@D@2@@io@boost@@@boost@@$0A@@boost@@@8 	 DATA
	??_R0?AV?$basic_altstringbuf@DU?$char_traits@D@std@@V?$allocator@D@2@@io@boost@@@8 	 DATA
	??_R0?AV?$basic_filebuf@DU?$char_traits@D@std@@@std@@@8 	 DATA
	??_R0?AV?$basic_ifstream@DU?$char_traits@D@std@@@std@@@8 	 DATA
	??_R0?AV?$basic_ios@DU?$char_traits@D@std@@@std@@@8 	 DATA
	??_R0?AV?$basic_iostream@DU?$char_traits@D@std@@@std@@@8 	 DATA
	??_R0?AV?$basic_istream@DU?$char_traits@D@std@@@std@@@8 	 DATA
	??_R0?AV?$basic_oaltstringstream@DU?$char_traits@D@std@@V?$allocator@D@2@@io@boost@@@8 	 DATA
	??_R0?AV?$basic_ofstream@DU?$char_traits@D@std@@@std@@@8 	 DATA
	??_R0?AV?$basic_ostream@DU?$char_traits@D@std@@@std@@@8 	 DATA
	??_R0?AV?$basic_streambuf@DU?$char_traits@D@std@@@std@@@8 	 DATA
	??_R0?AV?$basic_string@DU?$char_traits@D@std@@V?$allocator@D@2@@std@@@8 	 DATA
	??_R0?AV?$basic_stringbuf@DU?$char_traits@D@std@@V?$allocator@D@2@@std@@@8 	 DATA
	??_R0?AV?$basic_stringstream@DU?$char_traits@D@std@@V?$allocator@D@2@@std@@@8 	 DATA
	??_R0?AV?$indirect_streambuf@Vbyte_buffer_sink@vanetza@@U?$char_traits@D@std@@V?$allocator@D@4@Uoutput@iostreams@boost@@@detail@iostreams@boost@@@8 	 DATA
	??_R0?AV?$linked_streambuf@DU?$char_traits@D@std@@@detail@iostreams@boost@@@8 	 DATA
	??_R0?AV?$sp_counted_impl_pd@PEAV?$basic_altstringbuf@DU?$char_traits@D@std@@V?$allocator@D@2@@io@boost@@VNo_Op@?$basic_oaltstringstream@DU?$char_traits@D@std@@V?$allocator@D@2@@23@@detail@boost@@@8 	 DATA
	??_R0?AV?$stream_buffer@Vbyte_buffer_sink@vanetza@@U?$char_traits@D@std@@V?$allocator@D@4@Uoutput@iostreams@boost@@@iostreams@boost@@@8 	 DATA
	??_R0?AVASN1Object@CryptoPP@@@8 	 DATA
	??_R0?AVAlgorithm@CryptoPP@@@8 	 DATA
	??_R0?AVAlgorithmParametersBase@CryptoPP@@@8 	 DATA
	??_R0?AVAsymmetricAlgorithm@CryptoPP@@@8 	 DATA
	??_R0?AVAutoSeededRandomPool@CryptoPP@@@8 	 DATA
	??_R0?AVBackend@security@vanetza@@@8 	 DATA
	??_R0?AVBackendCryptoPP@security@vanetza@@@8 	 DATA
	??_R0?AVBackendNull@security@vanetza@@@8 	 DATA
	??_R0?AVBase64Decoder@CryptoPP@@@8 	 DATA
	??_R0?AVBaseCertificateProvider@v3@security@vanetza@@@8 	 DATA
	??_R0?AVBaseN_Decoder@CryptoPP@@@8 	 DATA
	??_R0?AVBufferedTransformation@CryptoPP@@@8 	 DATA
	??_R0?AVCannotFlush@CryptoPP@@@8 	 DATA
	??_R0?AVCertificateProvider@v2@security@vanetza@@@8 	 DATA
	??_R0?AVCertificateProvider@v3@security@vanetza@@@8 	 DATA
	??_R0?AVCertificateValidator@v2@security@vanetza@@@8 	 DATA
	??_R0?AVClonable@CryptoPP@@@8 	 DATA
	??_R0?AVConstByteArrayParameter@CryptoPP@@@8 	 DATA
	??_R0?AVCryptoMaterial@CryptoPP@@@8 	 DATA
	??_R0?AVCryptoParameters@CryptoPP@@@8 	 DATA
	??_R0?AVDL_BadElement@CryptoPP@@@8 	 DATA
	??_R0?AVDL_SignatureMessageEncodingMethod_DSA@CryptoPP@@@8 	 DATA
	??_R0?AVDefaultCertificateValidator@v2@security@vanetza@@@8 	 DATA
	??_R0?AVDefaultSignHeaderPolicy@v2@security@vanetza@@@8 	 DATA
	??_R0?AVDefaultSignHeaderPolicy@v3@security@vanetza@@@8 	 DATA
	??_R0?AVDeferredSignService@v2@security@vanetza@@@8 	 DATA
	??_R0?AVDelegatingSecurityEntity@security@vanetza@@@8 	 DATA
	??_R0?AVDeterministicSignatureAlgorithm@CryptoPP@@@8 	 DATA
	??_R0?AVDummySignService@v2@security@vanetza@@@8 	 DATA
	??_R0?AVDummySignService@v3@security@vanetza@@@8 	 DATA
	??_R0?AVDummyVerifyService@security@vanetza@@@8 	 DATA
	??_R0?AVECP@CryptoPP@@@8 	 DATA
	??_R0?AVException@CryptoPP@@@8 	 DATA
	??_R0?AVFileSource@CryptoPP@@@8 	 DATA
	??_R0?AVFileStore@CryptoPP@@@8 	 DATA
	??_R0?AVFilter@CryptoPP@@@8 	 DATA
	??_R0?AVGeneratableCryptoMaterial@CryptoPP@@@8 	 DATA
	??_R0?AVHashTransformation@CryptoPP@@@8 	 DATA
	??_R0?AVInteger@CryptoPP@@@8 	 DATA
	??_R0?AVInvalidArgument@CryptoPP@@@8 	 DATA
	??_R0?AVInvalidDataFormat@CryptoPP@@@8 	 DATA
	??_R0?AVInvalidMaterial@CryptoMaterial@CryptoPP@@@8 	 DATA
	??_R0?AVNaiveCertificateProvider@v2@security@vanetza@@@8 	 DATA
	??_R0?AVNaiveCertificateProvider@v3@security@vanetza@@@8 	 DATA
	??_R0?AVNameValuePairs@CryptoPP@@@8 	 DATA
	??_R0?AVNo_Op@?$basic_oaltstringstream@DU?$char_traits@D@std@@V?$allocator@D@2@@io@boost@@@8 	 DATA
	??_R0?AVNotCopyable@CryptoPP@@@8 	 DATA
	??_R0?AVNotImplemented@CryptoPP@@@8 	 DATA
	??_R0?AVNullCertificateProvider@v2@security@vanetza@@@8 	 DATA
	??_R0?AVNullCertificateValidator@v2@security@vanetza@@@8 	 DATA
	??_R0?AVOID@CryptoPP@@@8 	 DATA
	??_R0?AVPKCS8PrivateKey@CryptoPP@@@8 	 DATA
	??_R0?AVPK_DeterministicSignatureMessageEncodingMethod@CryptoPP@@@8 	 DATA
	??_R0?AVPK_MessageAccumulator@CryptoPP@@@8 	 DATA
	??_R0?AVPK_MessageAccumulatorBase@CryptoPP@@@8 	 DATA
	??_R0?AVPK_SignatureMessageEncodingMethod@CryptoPP@@@8 	 DATA
	??_R0?AVPK_SignatureScheme@CryptoPP@@@8 	 DATA
	??_R0?AVPK_Signer@CryptoPP@@@8 	 DATA
	??_R0?AVPK_Verifier@CryptoPP@@@8 	 DATA
	??_R0?AVParameterNotUsed@AlgorithmParametersBase@CryptoPP@@@8 	 DATA
	??_R0?AVPrivateKey@CryptoPP@@@8 	 DATA
	??_R0?AVPrivateKeyAlgorithm@CryptoPP@@@8 	 DATA
	??_R0?AVPublicKey@CryptoPP@@@8 	 DATA
	??_R0?AVPublicKeyAlgorithm@CryptoPP@@@8 	 DATA
	??_R0?AVRandomNumberGenerator@CryptoPP@@@8 	 DATA
	??_R0?AVRandomPool@CryptoPP@@@8 	 DATA
	??_R0?AVRedirector@CryptoPP@@@8 	 DATA
	??_R0?AVSHA256@CryptoPP@@@8 	 DATA
	??_R0?AVSHA384@CryptoPP@@@8 	 DATA
	??_R0?AVSecurityEntity@security@vanetza@@@8 	 DATA
	??_R0?AVSignHeaderPolicy@v2@security@vanetza@@@8 	 DATA
	??_R0?AVSignHeaderPolicy@v3@security@vanetza@@@8 	 DATA
	??_R0?AVSignService@security@vanetza@@@8 	 DATA
	??_R0?AVSink@CryptoPP@@@8 	 DATA
	??_R0?AVSource@CryptoPP@@@8 	 DATA
	??_R0?AVStaticCertificateProvider@v2@security@vanetza@@@8 	 DATA
	??_R0?AVStaticCertificateProvider@v3@security@vanetza@@@8 	 DATA
	??_R0?AVStore@CryptoPP@@@8 	 DATA
	??_R0?AVStraightSignService@v2@security@vanetza@@@8 	 DATA
	??_R0?AVStraightSignService@v3@security@vanetza@@@8 	 DATA
	??_R0?AVStraightVerifyService@security@vanetza@@@8 	 DATA
	??_R0?AVStringStore@CryptoPP@@@8 	 DATA
	??_R0?AVValueTypeMismatch@NameValuePairs@CryptoPP@@@8 	 DATA
	??_R0?AVVerifyService@security@vanetza@@@8 	 DATA
	??_R0?AVWaitable@CryptoPP@@@8 	 DATA
	??_R0?AVX509PublicKey@CryptoPP@@@8 	 DATA
	??_R0?AV_CancellationTokenRegistration@details@Concurrency@@@8 	 DATA
	??_R0?AV_DefaultPPLTaskScheduler@details@Concurrency@@@8 	 DATA
	??_R0?AV_Future_error_category2@std@@@8 	 DATA
	??_R0?AV_Generic_error_category@std@@@8 	 DATA
	??_R0?AV_Interruption_exception@details@Concurrency@@@8 	 DATA
	??_R0?AV_Iostream_error_category2@std@@@8 	 DATA
	??_R0?AV_RefCounter@details@Concurrency@@@8 	 DATA
	??_R0?AV_Ref_count_base@std@@@8 	 DATA
	??_R0?AV_System_error@std@@@8 	 DATA
	??_R0?AVbad_alloc@std@@@8 	 DATA
	??_R0?AVbad_array_new_length@std@@@8 	 DATA
	??_R0?AVbad_cast@std@@@8 	 DATA
	??_R0?AVbad_format_string@io@boost@@@8 	 DATA
	??_R0?AVbad_get@boost@@@8 	 DATA
	??_R0?AVbad_optional_access@boost@@@8 	 DATA
	??_R0?AVbyte_buffer_sink@vanetza@@@8 	 DATA
	??_R0?AVclone_base@exception_detail@boost@@@8 	 DATA
	??_R0?AVdeserialization_error@security@vanetza@@@8 	 DATA
	??_R0?AVerror_category@std@@@8 	 DATA
	??_R0?AVexception@boost@@@8 	 DATA
	??_R0?AVexception@std@@@8 	 DATA
	??_R0?AVfailure@ios_base@std@@@8 	 DATA
	??_R0?AVformat_error@io@boost@@@8 	 DATA
	??_R0?AVfuture_error@std@@@8 	 DATA
	??_R0?AVinvalid_argument@std@@@8 	 DATA
	??_R0?AVinvalid_operation@Concurrency@@@8 	 DATA
	??_R0?AVios_base@std@@@8 	 DATA
	??_R0?AVlogic_error@std@@@8 	 DATA
	??_R0?AVruntime_error@std@@@8 	 DATA
	??_R0?AVserialization_error@security@vanetza@@@8 	 DATA
	??_R0?AVsp_counted_base@detail@boost@@@8 	 DATA
	??_R0?AVsystem_error@std@@@8 	 DATA
	??_R0?AVtask_canceled@Concurrency@@@8 	 DATA
	??_R0?AVtoo_few_args@io@boost@@@8 	 DATA
	??_R0?AVtoo_many_args@io@boost@@@8 	 DATA
	??_R0H@8 	 DATA
	??_R0PEAD@8 	 DATA
	??_R0PEAV?$DL_GroupParameters@UECPPoint@CryptoPP@@@CryptoPP@@@8 	 DATA
	??_R0PEAV?$DL_PrivateKey@UECPPoint@CryptoPP@@@CryptoPP@@@8 	 DATA
	??_R0PEAV?$DL_PrivateKeyImpl@V?$DL_GroupParameters_EC@VECP@CryptoPP@@@CryptoPP@@@CryptoPP@@@8 	 DATA
	??_R0PEAV?$DL_PublicKey@UECPPoint@CryptoPP@@@CryptoPP@@@8 	 DATA
	??_R0PEAV?$DL_PublicKeyImpl@V?$DL_GroupParameters_EC@VECP@CryptoPP@@@CryptoPP@@@CryptoPP@@@8 	 DATA
	??_R0PEAX@8 	 DATA
	??_R0PEBD@8 	 DATA
	??_R0PEBH@8 	 DATA
	??_R0_N@8 	 DATA
	?_Flag@?1??_GetStaticAmbientSchedulerRef@details@Concurrency@@YAAEAV?$shared_ptr@Uscheduler_interface@Concurrency@@@std@@XZ@4Uonce_flag@5@A 	 DATA
	?_Psave@?$_Facetptr@V?$codecvt@DDU_Mbstatet@@@std@@@std@@2PEBVfacet@locale@2@EB 	 DATA
	?_Psave@?$_Facetptr@V?$ctype@D@std@@@std@@2PEBVfacet@locale@2@EB 	 DATA
	?_S_scheduler@?1??_GetStaticAmbientSchedulerStorage@details@Concurrency@@YAPEAV?$shared_ptr@Uscheduler_interface@Concurrency@@@std@@XZ@4V45@A 	 DATA
	?_S_scheduler_address@?1??_GetStaticAmbientSchedulerRef@details@Concurrency@@YAAEAV?$shared_ptr@Uscheduler_interface@Concurrency@@@std@@XZ@4PEAV45@EA 	 DATA
	?_Static@?1???$_Immortalize_memcpy_image@V_Future_error_category2@std@@@std@@YAAEBV_Future_error_category2@1@XZ@4U?$_Constexpr_immortalize_impl@V_Future_error_category2@std@@@1@A 	 DATA
	?_Static@?1???$_Immortalize_memcpy_image@V_Generic_error_category@std@@@std@@YAAEBV_Generic_error_category@1@XZ@4U?$_Constexpr_immortalize_impl@V_Generic_error_category@std@@@1@A 	 DATA
	?_Static@?1???$_Immortalize_memcpy_image@V_Iostream_error_category2@std@@@std@@YAAEBV_Iostream_error_category2@1@XZ@4U?$_Constexpr_immortalize_impl@V_Iostream_error_category2@std@@@1@A 	 DATA
	?_Stinit@?1??_Init@?$basic_filebuf@DU?$char_traits@D@std@@@std@@IEAAXPEAU_iobuf@@W4_Initfl@23@@Z@4U_Mbstatet@@A 	 DATA
	?pdata@?1???B?$integral_constant@_N$00@boost@@QEBAAEBU?$bool_@$00@mpl@2@XZ@4PEBXEB 	 DATA
	?pdata@?1???B?$integral_constant@_N$0A@@boost@@QEBAAEBU?$bool_@$0A@@mpl@2@XZ@4PEBXEB 	 DATA
	?s_mutex@?1??Ref@?$Singleton@V?$DL_Algorithm_ECDSA@VECP@CryptoPP@@@CryptoPP@@U?$NewObject@V?$DL_Algorithm_ECDSA@VECP@CryptoPP@@@CryptoPP@@@2@$0A@@CryptoPP@@QEBAAEBV?$DL_Algorithm_ECDSA@VECP@CryptoPP@@@3@XZ@4Vmutex@std@@A 	 DATA
	?s_mutex@?1??Ref@?$Singleton@VDL_SignatureMessageEncodingMethod_DSA@CryptoPP@@U?$NewObject@VDL_SignatureMessageEncodingMethod_DSA@CryptoPP@@@2@$0A@@CryptoPP@@QEBAAEBVDL_SignatureMessageEncodingMethod_DSA@3@XZ@4Vmutex@std@@A 	 DATA
	?s_pObject@?1??Ref@?$Singleton@V?$DL_Algorithm_ECDSA@VECP@CryptoPP@@@CryptoPP@@U?$NewObject@V?$DL_Algorithm_ECDSA@VECP@CryptoPP@@@CryptoPP@@@2@$0A@@CryptoPP@@QEBAAEBV?$DL_Algorithm_ECDSA@VECP@CryptoPP@@@3@XZ@4U?$atomic@PEAV?$DL_Algorithm_ECDSA@VECP@CryptoPP@@@CryptoPP@@@std@@A 	 DATA
	?s_pObject@?1??Ref@?$Singleton@VDL_SignatureMessageEncodingMethod_DSA@CryptoPP@@U?$NewObject@VDL_SignatureMessageEncodingMethod_DSA@CryptoPP@@@2@$0A@@CryptoPP@@QEBAAEBVDL_SignatureMessageEncodingMethod_DSA@3@XZ@4U?$atomic@PEAVDL_SignatureMessageEncodingMethod_DSA@CryptoPP@@@std@@A 	 DATA
	??$?0PEAV?$basic_altstringbuf@DU?$char_traits@D@std@@V?$allocator@D@2@@io@boost@@VNo_Op@?$basic_oaltstringstream@DU?$char_traits@D@std@@V?$allocator@D@2@@12@@shared_count@detail@boost@@QEAA@PEAV?$basic_altstringbuf@DU?$char_traits@D@std@@V?$allocator@D@2@@io@2@VNo_Op@?$basic_oaltstringstream@DU?$char_traits@D@std@@V?$allocator@D@2@@42@@Z
	??$?0U?$bhtraits@U?$heap_node_base@$0A@@detail@heap@boost@@U?$list_node_traits@PEAX@intrusive@4@$00Udft_tag@64@$00@intrusive@boost@@@?$array_initializer@V?$list_impl@U?$bhtraits@U?$heap_node_base@$0A@@detail@heap@boost@@U?$list_node_traits@PEAX@intrusive@4@$00Udft_tag@64@$00@intrusive@boost@@_K$00X@intrusive@boost@@$0EA@@detail@intrusive@boost@@QEAA@AEBU?$bhtraits@U?$heap_node_base@$0A@@detail@heap@boost@@U?$list_node_traits@PEAX@intrusive@4@$00Udft_tag@64@$00@23@@Z
	??$?4VChunkPacket@vanetza@@@?$variant@VChunkPacket@vanetza@@VCohesivePacket@2@@boost@@QEAAAEAV01@$$QEAVChunkPacket@vanetza@@@Z
	??$?6DU?$char_traits@D@std@@D@std@@YAAEAV?$basic_ostream@DU?$char_traits@D@std@@@0@AEAV10@AEBU?$_Fillobj@D@0@@Z
	??$?6DU?$char_traits@D@std@@_J@std@@YAAEAV?$basic_ostream@DU?$char_traits@D@std@@@0@AEAV10@AEBU?$_Smanip@_J@0@@Z
	??$?6U?$char_traits@D@std@@@std@@YAAEAV?$basic_ostream@DU?$char_traits@D@std@@@0@AEAV10@D@Z
	??$?8DU?$char_traits@D@std@@@std@@YA_NAEBV?$istreambuf_iterator@DU?$char_traits@D@std@@@0@0@Z
	??$?8URectangularRegion@v2@security@vanetza@@V?$allocator@URectangularRegion@v2@security@vanetza@@@std@@@std@@YA_NAEBV?$list@URectangularRegion@v2@security@vanetza@@V?$allocator@URectangularRegion@v2@security@vanetza@@@std@@@0@0@Z
	??$?9DU?$char_traits@D@std@@@std@@YA_NAEBV?$istreambuf_iterator@DU?$char_traits@D@std@@@0@0@Z
	??$?9U_Task_impl_base@details@Concurrency@@@std@@YA_NAEBV?$shared_ptr@U_Task_impl_base@details@Concurrency@@@0@$$T@Z
	??$?CU_ExceptionHolder@details@Concurrency@@$0A@@?$shared_ptr@U_ExceptionHolder@details@Concurrency@@@std@@QEBAPEAU_ExceptionHolder@details@Concurrency@@XZ
	??$?HDU?$char_traits@D@std@@V?$allocator@D@1@@std@@YA?AV?$basic_string@DU?$char_traits@D@std@@V?$allocator@D@2@@0@$$QEAV10@QEBD@Z
	??$?MDU?$char_traits@D@std@@V?$allocator@D@1@@std@@YA_NAEBV?$basic_string@DU?$char_traits@D@std@@V?$allocator@D@2@@0@0@Z
	??$?RH@AlgorithmParameters@CryptoPP@@QEAAAEAV01@PEBDAEBH_N@Z
	??$?RUECPPoint@CryptoPP@@@?$AssignFromHelperClass@V?$DL_PublicKey@UECPPoint@CryptoPP@@@CryptoPP@@V12@@CryptoPP@@QEAAAEAV01@PEBDP8?$DL_PublicKey@UECPPoint@CryptoPP@@@1@EAAXAEBUECPPoint@1@@Z@Z
	??$AssignFromHelper@V?$DL_PrivateKey@UECPPoint@CryptoPP@@@CryptoPP@@@CryptoPP@@YA?AV?$AssignFromHelperClass@V?$DL_PrivateKey@UECPPoint@CryptoPP@@@CryptoPP@@V12@@0@PEAV?$DL_PrivateKey@UECPPoint@CryptoPP@@@0@AEBVNameValuePairs@0@@Z
	??$AssignFromHelper@V?$DL_PrivateKey@UECPPoint@CryptoPP@@@CryptoPP@@V?$DL_PrivateKeyImpl@V?$DL_GroupParameters_EC@VECP@CryptoPP@@@CryptoPP@@@2@@CryptoPP@@YA?AV?$AssignFromHelperClass@V?$DL_PrivateKeyImpl@V?$DL_GroupParameters_EC@VECP@CryptoPP@@@CryptoPP@@@CryptoPP@@V?$DL_PrivateKey@UECPPoint@CryptoPP@@@2@@0@PEAV?$DL_PrivateKeyImpl@V?$DL_GroupParameters_EC@VECP@CryptoPP@@@CryptoPP@@@0@AEBVNameValuePairs@0@@Z
	??$AssignFromHelper@V?$DL_PublicKey@UECPPoint@CryptoPP@@@CryptoPP@@@CryptoPP@@YA?AV?$AssignFromHelperClass@V?$DL_PublicKey@UECPPoint@CryptoPP@@@CryptoPP@@V12@@0@PEAV?$DL_PublicKey@UECPPoint@CryptoPP@@@0@AEBVNameValuePairs@0@@Z
	??$AssignFromHelper@V?$DL_PublicKey@UECPPoint@CryptoPP@@@CryptoPP@@V?$DL_PublicKeyImpl@V?$DL_GroupParameters_EC@VECP@CryptoPP@@@CryptoPP@@@2@@CryptoPP@@YA?AV?$AssignFromHelperClass@V?$DL_PublicKeyImpl@V?$DL_GroupParameters_EC@VECP@CryptoPP@@@CryptoPP@@@CryptoPP@@V?$DL_PublicKey@UECPPoint@CryptoPP@@@2@@0@PEAV?$DL_PublicKeyImpl@V?$DL_GroupParameters_EC@VECP@CryptoPP@@@CryptoPP@@@0@AEBVNameValuePairs@0@@Z
	??$GetValueHelper@V?$DL_GroupParameters@UECPPoint@CryptoPP@@@CryptoPP@@@CryptoPP@@YA?AV?$GetValueHelperClass@V?$DL_GroupParameters@UECPPoint@CryptoPP@@@CryptoPP@@V12@@0@PEBV?$DL_GroupParameters@UECPPoint@CryptoPP@@@0@PEBDAEBVtype_info@@PEAXPEBVNameValuePairs@0@@Z
	??$GetValueHelper@V?$DL_PrivateKey@UECPPoint@CryptoPP@@@CryptoPP@@@CryptoPP@@YA?AV?$GetValueHelperClass@V?$DL_PrivateKey@UECPPoint@CryptoPP@@@CryptoPP@@V12@@0@PEBV?$DL_PrivateKey@UECPPoint@CryptoPP@@@0@PEBDAEBVtype_info@@PEAXPEBVNameValuePairs@0@@Z
	??$GetValueHelper@V?$DL_PrivateKey@UECPPoint@CryptoPP@@@CryptoPP@@V?$DL_PrivateKeyImpl@V?$DL_GroupParameters_EC@VECP@CryptoPP@@@CryptoPP@@@2@@CryptoPP@@YA?AV?$GetValueHelperClass@V?$DL_PrivateKeyImpl@V?$DL_GroupParameters_EC@VECP@CryptoPP@@@CryptoPP@@@CryptoPP@@V?$DL_PrivateKey@UECPPoint@CryptoPP@@@2@@0@PEBV?$DL_PrivateKeyImpl@V?$DL_GroupParameters_EC@VECP@CryptoPP@@@CryptoPP@@@0@PEBDAEBVtype_info@@PEAXPEBVNameValuePairs@0@@Z
	??$GetValueHelper@V?$DL_PublicKey@UECPPoint@CryptoPP@@@CryptoPP@@@CryptoPP@@YA?AV?$GetValueHelperClass@V?$DL_PublicKey@UECPPoint@CryptoPP@@@CryptoPP@@V12@@0@PEBV?$DL_PublicKey@UECPPoint@CryptoPP@@@0@PEBDAEBVtype_info@@PEAXPEBVNameValuePairs@0@@Z
	??$GetValueHelper@V?$DL_PublicKey@UECPPoint@CryptoPP@@@CryptoPP@@V?$DL_PublicKeyImpl@V?$DL_GroupParameters_EC@VECP@CryptoPP@@@CryptoPP@@@2@@CryptoPP@@YA?AV?$GetValueHelperClass@V?$DL_PublicKeyImpl@V?$DL_GroupParameters_EC@VECP@CryptoPP@@@CryptoPP@@@CryptoPP@@V?$DL_PublicKey@UECPPoint@CryptoPP@@@2@@0@PEBV?$DL_PublicKeyImpl@V?$DL_GroupParameters_EC@VECP@CryptoPP@@@CryptoPP@@@0@PEBDAEBVtype_info@@PEAXPEBVNameValuePairs@0@@Z
	??$MakeParameters@PEBD@CryptoPP@@YA?AVAlgorithmParameters@0@PEBDAEBQEBD_N@Z
	??$MakeParameters@PEBH@CryptoPP@@YA?AVAlgorithmParameters@0@PEBDAEBQEBH_N@Z
	??$MakeParameters@VConstByteArrayParameter@CryptoPP@@@CryptoPP@@YA?AVAlgorithmParameters@0@PEBDAEBVConstByteArrayParameter@0@_N@Z
	??$StandardReallocate@EV?$AllocatorWithCleanup@E$0A@@CryptoPP@@@CryptoPP@@YAPEAEAEAV?$AllocatorWithCleanup@E$0A@@0@PEAE_K2_N@Z
	??$_Allocate@$0BA@U_Default_allocate_traits@std@@$0A@@std@@YAPEAX_K@Z
	??$_Allocate_manually_vector_aligned@U_Default_allocate_traits@std@@@std@@YAPEAX_K@Z
	??$_Append_range_unchecked@V?$_List_unchecked_const_iterator@V?$_List_val@U?$_List_simple_types@UCertificate@v2@security@vanetza@@@std@@@std@@U_Iterator_base0@2@@std@@V12@@?$_List_node_insert_op2@V?$allocator@U?$_List_node@UCertificate@v2@security@vanetza@@PEAX@std@@@std@@@std@@QEAAXV?$_List_unchecked_const_iterator@V?$_List_val@U?$_List_simple_types@UCertificate@v2@security@vanetza@@@std@@@std@@U_Iterator_base0@2@@1@V21@@Z
	??$_Append_range_unchecked@V?$_List_unchecked_const_iterator@V?$_List_val@U?$_List_simple_types@UItsAidSsp@v2@security@vanetza@@@std@@@std@@U_Iterator_base0@2@@std@@V12@@?$_List_node_insert_op2@V?$allocator@U?$_List_node@UItsAidSsp@v2@security@vanetza@@PEAX@std@@@std@@@std@@QEAAXV?$_List_unchecked_const_iterator@V?$_List_val@U?$_List_simple_types@UItsAidSsp@v2@security@vanetza@@@std@@@std@@U_Iterator_base0@2@@1@V21@@Z
	??$_Append_range_unchecked@V?$_List_unchecked_const_iterator@V?$_List_val@U?$_List_simple_types@URecipientInfo@v2@security@vanetza@@@std@@@std@@U_Iterator_base0@2@@std@@V12@@?$_List_node_insert_op2@V?$allocator@U?$_List_node@URecipientInfo@v2@security@vanetza@@PEAX@std@@@std@@@std@@QEAAXV?$_List_unchecked_const_iterator@V?$_List_val@U?$_List_simple_types@URecipientInfo@v2@security@vanetza@@@std@@@std@@U_Iterator_base0@2@@1@V21@@Z
	??$_Append_range_unchecked@V?$_List_unchecked_const_iterator@V?$_List_val@U?$_List_simple_types@URectangularRegion@v2@security@vanetza@@@std@@@std@@U_Iterator_base0@2@@std@@V12@@?$_List_node_insert_op2@V?$allocator@U?$_List_node@URectangularRegion@v2@security@vanetza@@PEAX@std@@@std@@@std@@QEAAXV?$_List_unchecked_const_iterator@V?$_List_val@U?$_List_simple_types@URectangularRegion@v2@security@vanetza@@@std@@@std@@U_Iterator_base0@2@@1@V21@@Z
	??$_Append_range_unchecked@V?$_List_unchecked_const_iterator@V?$_List_val@U?$_List_simple_types@V?$variant@IUStartAndEndValidity@v2@security@vanetza@@UStartAndDurationValidity@234@V?$variant@UNoneRegion@v2@security@vanetza@@UCircularRegion@234@V?$list@URectangularRegion@v2@security@vanetza@@V?$allocator@URectangularRegion@v2@security@vanetza@@@std@@@std@@V?$list@UTwoDLocation@v2@security@vanetza@@V?$allocator@UTwoDLocation@v2@security@vanetza@@@std@@@7@UIdentifiedRegion@234@@boost@@@boost@@@std@@@std@@U_Iterator_base0@2@@std@@V12@@?$_List_node_insert_op2@V?$allocator@U?$_List_node@V?$variant@IUStartAndEndValidity@v2@security@vanetza@@UStartAndDurationValidity@234@V?$variant@UNoneRegion@v2@security@vanetza@@UCircularRegion@234@V?$list@URectangularRegion@v2@security@vanetza@@V?$allocator@URectangularRegion@v2@security@vanetza@@@std@@@std@@V?$list@UTwoDLocation@v2@security@vanetza@@V?$allocator@UTwoDLocation@v2@security@vanetza@@@std@@@7@UIdentifiedRegion@234@@boost@@@boost@@PEAX@std@@@std@@@std@@QEAAXV?$_List_unchecked_const_iterator@V?$_List_val@U?$_List_simple_types@V?$variant@IUStartAndEndValidity@v2@security@vanetza@@UStartAndDurationValidity@234@V?$variant@UNoneRegion@v2@security@vanetza@@UCircularRegion@234@V?$list@URectangularRegion@v2@security@vanetza@@V?$allocator@URectangularRegion@v2@security@vanetza@@@std@@@std@@V?$list@UTwoDLocation@v2@security@vanetza@@V?$allocator@UTwoDLocation@v2@security@vanetza@@@std@@@7@UIdentifiedRegion@234@@boost@@@boost@@@std@@@std@@U_Iterator_base0@2@@1@V21@@Z
	??$_Append_range_unchecked@V?$_List_unchecked_const_iterator@V?$_List_val@U?$_List_simple_types@V?$variant@UVerificationKey@v2@security@vanetza@@UEncryptionKey@234@USubjectAssurance@234@V?$variant@UX_Coordinate_Only@security@vanetza@@UCompressed_Lsb_Y_0@23@UCompressed_Lsb_Y_1@23@UUncompressed@23@@boost@@V?$list@VIntX@v2@security@vanetza@@V?$allocator@VIntX@v2@security@vanetza@@@std@@@std@@V?$list@UItsAidSsp@v2@security@vanetza@@V?$allocator@UItsAidSsp@v2@security@vanetza@@@std@@@std@@@boost@@@std@@@std@@U_Iterator_base0@2@@std@@V12@@?$_List_node_insert_op2@V?$allocator@U?$_List_node@V?$variant@UVerificationKey@v2@security@vanetza@@UEncryptionKey@234@USubjectAssurance@234@V?$variant@UX_Coordinate_Only@security@vanetza@@UCompressed_Lsb_Y_0@23@UCompressed_Lsb_Y_1@23@UUncompressed@23@@boost@@V?$list@VIntX@v2@security@vanetza@@V?$allocator@VIntX@v2@security@vanetza@@@std@@@std@@V?$list@UItsAidSsp@v2@security@vanetza@@V?$allocator@UItsAidSsp@v2@security@vanetza@@@std@@@std@@@boost@@PEAX@std@@@std@@@std@@QEAAXV?$_List_unchecked_const_iterator@V?$_List_val@U?$_List_simple_types@V?$variant@UVerificationKey@v2@security@vanetza@@UEncryptionKey@234@USubjectAssurance@234@V?$variant@UX_Coordinate_Only@security@vanetza@@UCompressed_Lsb_Y_0@23@UCompressed_Lsb_Y_1@23@UUncompressed@23@@boost@@V?$list@VIntX@v2@security@vanetza@@V?$allocator@VIntX@v2@security@vanetza@@@std@@@std@@V?$list@UItsAidSsp@v2@security@vanetza@@V?$allocator@UItsAidSsp@v2@security@vanetza@@@std@@@std@@@boost@@@std@@@std@@U_Iterator_base0@2@@1@V21@@Z
	??$_Assign_cast@AEAUTwoDLocation@v2@security@vanetza@@V?$_List_unchecked_const_iterator@V?$_List_val@U?$_List_simple_types@UTwoDLocation@v2@security@vanetza@@@std@@@std@@U_Iterator_base0@2@@std@@@?$list@UTwoDLocation@v2@security@vanetza@@V?$allocator@UTwoDLocation@v2@security@vanetza@@@std@@@std@@AEAAXV?$_List_unchecked_const_iterator@V?$_List_val@U?$_List_simple_types@UTwoDLocation@v2@security@vanetza@@@std@@@std@@U_Iterator_base0@2@@1@V21@@Z
	??$_Assign_range@PEAI@?$vector@IV?$allocator@I@std@@@std@@AEAAXPEAI0Uforward_iterator_tag@1@@Z
	??$_Assign_range@PEAPEAX@?$vector@PEAXV?$allocator@PEAX@std@@@std@@AEAAXPEAPEAX0Uforward_iterator_tag@1@@Z
	??$_Assign_range@PEAUECPPoint@CryptoPP@@@?$vector@UECPPoint@CryptoPP@@V?$allocator@UECPPoint@CryptoPP@@@std@@@std@@AEAAXPEAUECPPoint@CryptoPP@@0Uforward_iterator_tag@1@@Z
	??$_Atomic_address_as@HU?$_Atomic_padded@J@std@@@std@@YAPEDHAEBU?$_Atomic_padded@J@0@@Z
	??$_Atomic_address_as@JU?$_Atomic_padded@H@std@@@std@@YAPECJAEAU?$_Atomic_padded@H@0@@Z
	??$_Atomic_address_as@JU?$_Atomic_padded@J@std@@@std@@YAPECJAEAU?$_Atomic_padded@J@0@@Z
	??$_Atomic_address_as@_JU?$_Atomic_padded@PEAV?$DL_Algorithm_ECDSA@VECP@CryptoPP@@@CryptoPP@@@std@@@std@@YAPEC_JAEAU?$_Atomic_padded@PEAV?$DL_Algorithm_ECDSA@VECP@CryptoPP@@@CryptoPP@@@0@@Z
	??$_Atomic_address_as@_JU?$_Atomic_padded@PEAV?$DL_Algorithm_ECDSA@VECP@CryptoPP@@@CryptoPP@@@std@@@std@@YAPED_JAEBU?$_Atomic_padded@PEAV?$DL_Algorithm_ECDSA@VECP@CryptoPP@@@CryptoPP@@@0@@Z
	??$_Atomic_address_as@_JU?$_Atomic_padded@PEAVDL_SignatureMessageEncodingMethod_DSA@CryptoPP@@@std@@@std@@YAPEC_JAEAU?$_Atomic_padded@PEAVDL_SignatureMessageEncodingMethod_DSA@CryptoPP@@@0@@Z
	??$_Atomic_address_as@_JU?$_Atomic_padded@PEAVDL_SignatureMessageEncodingMethod_DSA@CryptoPP@@@std@@@std@@YAPED_JAEBU?$_Atomic_padded@PEAVDL_SignatureMessageEncodingMethod_DSA@CryptoPP@@@0@@Z
	??$_Atomic_reinterpret_as@JJ@std@@YAJAEBJ@Z
	??$_Atomic_reinterpret_as@_JPEAV?$DL_Algorithm_ECDSA@VECP@CryptoPP@@@CryptoPP@@@std@@YA_JAEBQEAV?$DL_Algorithm_ECDSA@VECP@CryptoPP@@@CryptoPP@@@Z
	??$_Atomic_reinterpret_as@_JPEAVDL_SignatureMessageEncodingMethod_DSA@CryptoPP@@@std@@YA_JAEBQEAVDL_SignatureMessageEncodingMethod_DSA@CryptoPP@@@Z
	??$_Construct@$00PEBD@?$basic_string@DU?$char_traits@D@std@@V?$allocator@D@2@@std@@AEAAXQEBD_K@Z
	??$_Construct_from_iter@V?$istreambuf_iterator@DU?$char_traits@D@std@@@std@@@?$basic_string@DU?$char_traits@D@std@@V?$allocator@D@2@@std@@AEAAXV?$istreambuf_iterator@DU?$char_traits@D@std@@@1@V21@@Z
	??$_Construct_range_unchecked@V?$_Tree_unchecked_const_iterator@V?$_Tree_val@U?$_Tree_simple_types@V?$array@E$02@std@@@std@@@std@@U_Iterator_base0@2@@std@@@?$list@V?$array@E$02@std@@V?$allocator@V?$array@E$02@std@@@2@@std@@AEAAXV?$_Tree_unchecked_const_iterator@V?$_Tree_val@U?$_Tree_simple_types@V?$array@E$02@std@@@std@@@std@@U_Iterator_base0@2@@1@0@Z
	??$_Copy_backward_memmove@PEAEPEAE@std@@YAPEAEPEAE00@Z
	??$_Copy_memmove@PEADPEAE@std@@YAPEAEPEAD0PEAE@Z
	??$_Copy_memmove@PEAEPEAE@std@@YAPEAEPEAE00@Z
	??$_Copy_memmove@PEAIPEAI@std@@YAPEAIPEAI00@Z
	??$_Copy_memmove@PEAPEAXPEAPEAX@std@@YAPEAPEAXPEAPEAX00@Z
	??$_Copy_memmove@PEBDPEAE@std@@YAPEAEPEBD0PEAE@Z
	??$_Copy_memmove@PEBEPEAE@std@@YAPEAEPEBE0PEAE@Z
	??$_Copy_unchecked@PEAUECPPoint@CryptoPP@@PEAU12@@std@@YAPEAUECPPoint@CryptoPP@@PEAU12@00@Z
	??$_Destroy_range@V?$allocator@U?$format_item@DU?$char_traits@D@std@@V?$allocator@D@2@@detail@io@boost@@@std@@@std@@YAXPEAU?$format_item@DU?$char_traits@D@std@@V?$allocator@D@2@@detail@io@boost@@QEAU1234@AEAV?$allocator@U?$format_item@DU?$char_traits@D@std@@V?$allocator@D@2@@detail@io@boost@@@0@@Z
	??$_Emplace_reallocate@AEBE@?$vector@EV?$allocator@E@std@@@std@@AEAAPEAEQEAEAEBE@Z
	??$_Emplace_reallocate@AEBI@?$vector@IV?$allocator@I@std@@@std@@AEAAPEAIQEAIAEBI@Z
	??$_Emplace_reallocate@D@?$vector@EV?$allocator@E@std@@@std@@AEAAPEAEQEAE$$QEAD@Z
	??$_Emplace_reallocate@E@?$vector@EV?$allocator@E@std@@@std@@AEAAPEAEQEAE$$QEAE@Z
	??$_Erase_tree@V?$allocator@U?$_Tree_node@U?$pair@$$CBV?$array@E$07@std@@UCachedCertificate@CertificateCache@v2@security@vanetza@@@std@@PEAX@std@@@std@@@?$_Tree_val@U?$_Tree_simple_types@U?$pair@$$CBV?$array@E$07@std@@UCachedCertificate@CertificateCache@v2@security@vanetza@@@std@@@std@@@std@@QEAAXAEAV?$allocator@U?$_Tree_node@U?$pair@$$CBV?$array@E$07@std@@UCachedCertificate@CertificateCache@v2@security@vanetza@@@std@@PEAX@std@@@1@PEAU?$_Tree_node@U?$pair@$$CBV?$array@E$07@std@@UCachedCertificate@CertificateCache@v2@security@vanetza@@@std@@PEAX@1@@Z
	??$_Erase_tree@V?$allocator@U?$_Tree_node@U?$pair@$$CBV?$basic_string@DU?$char_traits@D@std@@V?$allocator@D@2@@std@@V?$function@$$A6A?AV?$unique_ptr@VBackend@security@vanetza@@U?$default_delete@VBackend@security@vanetza@@@std@@@std@@XZ@2@@std@@PEAX@std@@@std@@@?$_Tree_val@U?$_Tree_simple_types@U?$pair@$$CBV?$basic_string@DU?$char_traits@D@std@@V?$allocator@D@2@@std@@V?$function@$$A6A?AV?$unique_ptr@VBackend@security@vanetza@@U?$default_delete@VBackend@security@vanetza@@@std@@@std@@XZ@2@@std@@@std@@@std@@QEAAXAEAV?$allocator@U?$_Tree_node@U?$pair@$$CBV?$basic_string@DU?$char_traits@D@std@@V?$allocator@D@2@@std@@V?$function@$$A6A?AV?$unique_ptr@VBackend@security@vanetza@@U?$default_delete@VBackend@security@vanetza@@@std@@@std@@XZ@2@@std@@PEAX@std@@@1@PEAU?$_Tree_node@U?$pair@$$CBV?$basic_string@DU?$char_traits@D@std@@V?$allocator@D@2@@std@@V?$function@$$A6A?AV?$unique_ptr@VBackend@security@vanetza@@U?$default_delete@VBackend@security@vanetza@@@std@@@std@@XZ@2@@std@@PEAX@1@@Z
	??$_Erase_tree@V?$allocator@U?$_Tree_node@U?$pair@$$CBW4OsiLayer@vanetza@@VByteBufferConvertible@2@@std@@PEAX@std@@@std@@@?$_Tree_val@U?$_Tree_simple_types@U?$pair@$$CBW4OsiLayer@vanetza@@VByteBufferConvertible@2@@std@@@std@@@std@@QEAAXAEAV?$allocator@U?$_Tree_node@U?$pair@$$CBW4OsiLayer@vanetza@@VByteBufferConvertible@2@@std@@PEAX@std@@@1@PEAU?$_Tree_node@U?$pair@$$CBW4OsiLayer@vanetza@@VByteBufferConvertible@2@@std@@PEAX@1@@Z
	??$_Erase_tree@V?$allocator@U?$_Tree_node@V?$array@E$02@std@@PEAX@std@@@std@@@?$_Tree_val@U?$_Tree_simple_types@V?$array@E$02@std@@@std@@@std@@QEAAXAEAV?$allocator@U?$_Tree_node@V?$array@E$02@std@@PEAX@std@@@1@PEAU?$_Tree_node@V?$array@E$02@std@@PEAX@1@@Z
	??$_Erase_tree@V?$allocator@U?$_Tree_node@W4CamPermission@security@vanetza@@PEAX@std@@@std@@@?$_Tree_val@U?$_Tree_simple_types@W4CamPermission@security@vanetza@@@std@@@std@@QEAAXAEAV?$allocator@U?$_Tree_node@W4CamPermission@security@vanetza@@PEAX@std@@@1@PEAU?$_Tree_node@W4CamPermission@security@vanetza@@PEAX@1@@Z
	??$_Fill_memset@PEAEE@std@@YAXPEAEE_K@Z
	??$_Fill_zero_memset@PEAI@std@@YAXPEAI_K@Z
	??$_Find_lower_bound@V?$basic_string@DU?$char_traits@D@std@@V?$allocator@D@2@@std@@@?$_Tree@V?$_Tmap_traits@V?$basic_string@DU?$char_traits@D@std@@V?$allocator@D@2@@std@@V?$function@$$A6A?AV?$unique_ptr@VBackend@security@vanetza@@U?$default_delete@VBackend@security@vanetza@@@std@@@std@@XZ@2@U?$less@V?$basic_string@DU?$char_traits@D@std@@V?$allocator@D@2@@std@@@2@V?$allocator@U?$pair@$$CBV?$basic_string@DU?$char_traits@D@std@@V?$allocator@D@2@@std@@V?$function@$$A6A?AV?$unique_ptr@VBackend@security@vanetza@@U?$default_delete@VBackend@security@vanetza@@@std@@@std@@XZ@2@@std@@@2@$0A@@std@@@std@@IEBA?AU?$_Tree_find_result@PEAU?$_Tree_node@U?$pair@$$CBV?$basic_string@DU?$char_traits@D@std@@V?$allocator@D@2@@std@@V?$function@$$A6A?AV?$unique_ptr@VBackend@security@vanetza@@U?$default_delete@VBackend@security@vanetza@@@std@@@std@@XZ@2@@std@@PEAX@std@@@1@AEBV?$basic_string@DU?$char_traits@D@std@@V?$allocator@D@2@@1@@Z
	??$_Free_non_head@V?$allocator@U?$_List_node@UItsAidSsp@v2@security@vanetza@@PEAX@std@@@std@@@?$_List_node@UItsAidSsp@v2@security@vanetza@@PEAX@std@@SAXAEAV?$allocator@U?$_List_node@UItsAidSsp@v2@security@vanetza@@PEAX@std@@@1@PEAU01@@Z
	??$_Free_non_head@V?$allocator@U?$_List_node@URecipientInfo@v2@security@vanetza@@PEAX@std@@@std@@@?$_List_node@URecipientInfo@v2@security@vanetza@@PEAX@std@@SAXAEAV?$allocator@U?$_List_node@URecipientInfo@v2@security@vanetza@@PEAX@std@@@1@PEAU01@@Z
	??$_Getvals@_W@?$time_get@DV?$istreambuf_iterator@DU?$char_traits@D@std@@@std@@@std@@IEAAX_WAEBV_Locinfo@1@@Z
	??$_Getvals@_W@?$time_get@_WV?$istreambuf_iterator@_WU?$char_traits@_W@std@@@std@@@std@@IEAAX_WAEBV_Locinfo@1@@Z
	??$_Global_new@V?$_Func_impl_no_alloc@V<lambda_052e919cc0e5399df76dff3972c0cac1>@@E$$V@std@@AEBV<lambda_052e919cc0e5399df76dff3972c0cac1>@@@std@@YAPEAV?$_Func_impl_no_alloc@V<lambda_052e919cc0e5399df76dff3972c0cac1>@@E$$V@0@AEBV<lambda_052e919cc0e5399df76dff3972c0cac1>@@@Z
	??$_Global_new@V?$_Func_impl_no_alloc@V<lambda_052e919cc0e5399df76dff3972c0cac1>@@E$$V@std@@V<lambda_052e919cc0e5399df76dff3972c0cac1>@@@std@@YAPEAV?$_Func_impl_no_alloc@V<lambda_052e919cc0e5399df76dff3972c0cac1>@@E$$V@0@$$QEAV<lambda_052e919cc0e5399df76dff3972c0cac1>@@@Z
	??$_Immortalize_memcpy_image@V_Future_error_category2@std@@@std@@YAAEBV_Future_error_category2@0@XZ
	??$_Immortalize_memcpy_image@V_Generic_error_category@std@@@std@@YAAEBV_Generic_error_category@0@XZ
	??$_Immortalize_memcpy_image@V_Iostream_error_category2@std@@@std@@YAAEBV_Iostream_error_category2@0@XZ
	??$_Insert_range@PEAE@?$vector@EV?$allocator@E@std@@@std@@AEAAXV?$_Vector_const_iterator@V?$_Vector_val@U?$_Simple_types@E@std@@@std@@@1@PEAE1Uforward_iterator_tag@1@@Z
	??$_Insert_range@PEBE@?$vector@EV?$allocator@E@std@@@std@@AEAAXV?$_Vector_const_iterator@V?$_Vector_val@U?$_Simple_types@E@std@@@std@@@1@PEBE1Uforward_iterator_tag@1@@Z
	??$_Is_all_bits_zero@I@std@@YA_NAEBI@Z
	??$_Maklocstr@D@std@@YAPEADPEBDPEADAEBU_Cvtvec@@@Z
	??$_Memcmp_count@PEBEPEBE@std@@YAHPEBE0_K@Z
	??$_Memcmp_ranges@PEBEPEBE@std@@YAHPEBE00@Z
	??$_Move_unchecked@PEAEPEAE@std@@YAPEAEPEAE00@Z
	??$_Reallocate_grow_by@V<lambda_319d5e083f45f90dcdce5dce53cbb275>@@D@?$basic_string@DU?$char_traits@D@std@@V?$allocator@D@2@@std@@AEAAAEAV01@_KV<lambda_319d5e083f45f90dcdce5dce53cbb275>@@D@Z
	??$_Reallocate_grow_by@V<lambda_65e615be2a453ca0576c979606f46740>@@PEBD_K@?$basic_string@DU?$char_traits@D@std@@V?$allocator@D@2@@std@@AEAAAEAV01@_KV<lambda_65e615be2a453ca0576c979606f46740>@@PEBD_K@Z
	??$_Reallocate_grow_by@V<lambda_9013ee9e23efe4882b67eff5b0ecf103>@@$$V@?$basic_string@DU?$char_traits@D@std@@V?$allocator@D@2@@std@@AEAAAEAV01@_KV<lambda_9013ee9e23efe4882b67eff5b0ecf103>@@@Z
	??$_Reallocate_grow_by@V<lambda_e1befb086ad3257e3f042a63030725f7>@@_KD@?$basic_string@DU?$char_traits@D@std@@V?$allocator@D@2@@std@@AEAAAEAV01@_KV<lambda_e1befb086ad3257e3f042a63030725f7>@@_KD@Z
	??$_Reallocate_grow_by@V<lambda_f3a66ab6a0570788f31503db83886f49>@@_KPEBD_K@?$basic_string@DU?$char_traits@D@std@@V?$allocator@D@2@@std@@AEAAAEAV01@_KV<lambda_f3a66ab6a0570788f31503db83886f49>@@_KPEBD2@Z
	??$_Resize_reallocate@E@?$vector@EV?$allocator@E@std@@@std@@AEAAX_KAEBE@Z
	??$_Resize_reallocate@I@?$vector@IV?$allocator@I@std@@@std@@AEAAX_KAEBI@Z
	??$_Resize_reallocate@U?$format_item@DU?$char_traits@D@std@@V?$allocator@D@2@@detail@io@boost@@@?$vector@U?$format_item@DU?$char_traits@D@std@@V?$allocator@D@2@@detail@io@boost@@V?$allocator@U?$format_item@DU?$char_traits@D@std@@V?$allocator@D@2@@detail@io@boost@@@std@@@std@@AEAAX_KAEBU?$format_item@DU?$char_traits@D@std@@V?$allocator@D@2@@detail@io@boost@@@Z
	??$_Resize_reallocate@U_Value_init_tag@std@@@?$vector@EV?$allocator@E@std@@@std@@AEAAX_KAEBU_Value_init_tag@1@@Z
	??$_Test_callable@V<lambda_052e919cc0e5399df76dff3972c0cac1>@@@std@@YA_NAEBV<lambda_052e919cc0e5399df76dff3972c0cac1>@@@Z
	??$_Test_callable@V<lambda_2fa3e3d11fb97352afa77a4a13bfb543>@@@std@@YA_NAEBV<lambda_2fa3e3d11fb97352afa77a4a13bfb543>@@@Z
	??$_Test_callable@V<lambda_763529b0c7473cbc215a52d189ac9b18>@@@std@@YA_NAEBV<lambda_763529b0c7473cbc215a52d189ac9b18>@@@Z
	??$_Test_callable@V<lambda_f25c37099038263181b5186a3fa41b37>@@@std@@YA_NAEBV<lambda_f25c37099038263181b5186a3fa41b37>@@@Z
	??$_Uninitialized_copy@PEAUECPPoint@CryptoPP@@V?$allocator@UECPPoint@CryptoPP@@@std@@@std@@YAPEAUECPPoint@CryptoPP@@QEAU12@0PEAU12@AEAV?$allocator@UECPPoint@CryptoPP@@@0@@Z
	??$_Uninitialized_fill_n@V?$allocator@U?$format_item@DU?$char_traits@D@std@@V?$allocator@D@2@@detail@io@boost@@@std@@@std@@YAPEAU?$format_item@DU?$char_traits@D@std@@V?$allocator@D@2@@detail@io@boost@@PEAU1234@_KAEBU1234@AEAV?$allocator@U?$format_item@DU?$char_traits@D@std@@V?$allocator@D@2@@detail@io@boost@@@0@@Z
	??$_Uninitialized_move@PEAEV?$allocator@E@std@@@std@@YAPEAEQEAE0PEAEAEAV?$allocator@E@0@@Z
	??$_Zero_range@PEAE@std@@YAPEAEQEAE0@Z
	??$allocate@UASN__PRIMITIVE_TYPE_s@@@asn1@vanetza@@YAPEAUASN__PRIMITIVE_TYPE_s@@XZ
	??$allocate@UVanetza_Security_CertificateBase@@@asn1@vanetza@@YAPEAUVanetza_Security_CertificateBase@@XZ
	??$allocate@UVanetza_Security_EccP256CurvePoint@@@asn1@vanetza@@YAPEAUVanetza_Security_EccP256CurvePoint@@XZ
	??$allocate@UVanetza_Security_Ieee1609Dot2Content@@@asn1@vanetza@@YAPEAUVanetza_Security_Ieee1609Dot2Content@@XZ
	??$allocate@UVanetza_Security_Ieee1609Dot2Data@@@asn1@vanetza@@YAPEAUVanetza_Security_Ieee1609Dot2Data@@XZ
	??$allocate@UVanetza_Security_PsidGroupPermissions@@@asn1@vanetza@@YAPEAUVanetza_Security_PsidGroupPermissions@@XZ
	??$allocate@UVanetza_Security_PsidSsp@@@asn1@vanetza@@YAPEAUVanetza_Security_PsidSsp@@XZ
	??$allocate@UVanetza_Security_PsidSspRange@@@asn1@vanetza@@YAPEAUVanetza_Security_PsidSspRange@@XZ
	??$allocate@UVanetza_Security_PublicEncryptionKey@@@asn1@vanetza@@YAPEAUVanetza_Security_PublicEncryptionKey@@XZ
	??$allocate@UVanetza_Security_SequenceOfHashedId3@@@asn1@vanetza@@YAPEAUVanetza_Security_SequenceOfHashedId3@@XZ
	??$allocate@UVanetza_Security_SequenceOfPsidGroupPermissions@@@asn1@vanetza@@YAPEAUVanetza_Security_SequenceOfPsidGroupPermissions@@XZ
	??$allocate@UVanetza_Security_SequenceOfPsidSsp@@@asn1@vanetza@@YAPEAUVanetza_Security_SequenceOfPsidSsp@@XZ
	??$allocate@UVanetza_Security_ServiceSpecificPermissions@@@asn1@vanetza@@YAPEAUVanetza_Security_ServiceSpecificPermissions@@XZ
	??$allocate@UVanetza_Security_Signature@@@asn1@vanetza@@YAPEAUVanetza_Security_Signature@@XZ
	??$allocate@UVanetza_Security_SignedData@@@asn1@vanetza@@YAPEAUVanetza_Security_SignedData@@XZ
	??$allocate@UVanetza_Security_SignedDataPayload@@@asn1@vanetza@@YAPEAUVanetza_Security_SignedDataPayload@@XZ
	??$allocate@UVanetza_Security_SspRange@@@asn1@vanetza@@YAPEAUVanetza_Security_SspRange@@XZ
	??$allocate@UVanetza_Security_ThreeDLocation@@@asn1@vanetza@@YAPEAUVanetza_Security_ThreeDLocation@@XZ
	??$allocate@UVanetza_Security_ToBeSignedData@@@asn1@vanetza@@YAPEAUVanetza_Security_ToBeSignedData@@XZ
	??$apply_visitor@$$CBUItsAidVisitor@security@vanetza@@@?$variant@AEBUSecuredMessage@v2@security@vanetza@@AEBU1v3@34@@boost@@QEGBAIAEBUItsAidVisitor@security@vanetza@@@Z
	??$apply_visitor@$$CBUItsAidVisitor@security@vanetza@@@?$variant@USecuredMessage@v2@security@vanetza@@U1v3@34@@boost@@QEGBAIAEBUItsAidVisitor@security@vanetza@@@Z
	??$apply_visitor@$$CBUPayloadCopyVisitor@security@vanetza@@@?$variant@AEBUSecuredMessage@v2@security@vanetza@@AEBU1v3@34@@boost@@QEGBA?AV?$variant@VChunkPacket@vanetza@@VCohesivePacket@2@@1@AEBUPayloadCopyVisitor@security@vanetza@@@Z
	??$apply_visitor@$$CBUPayloadCopyVisitor@security@vanetza@@@?$variant@USecuredMessage@v2@security@vanetza@@U1v3@34@@boost@@QEGBA?AV?$variant@VChunkPacket@vanetza@@VCohesivePacket@2@@1@AEBUPayloadCopyVisitor@security@vanetza@@@Z
	??$apply_visitor@U?$get_visitor@$$CBUCertificate@v2@security@vanetza@@@variant@detail@boost@@@?$variant@$$TV?$array@E$07@std@@V?$recursive_wrapper@UCertificate@v2@security@vanetza@@@boost@@V?$list@UCertificate@v2@security@vanetza@@V?$allocator@UCertificate@v2@security@vanetza@@@std@@@2@UCertificateDigestWithOtherAlgorithm@v2@security@vanetza@@@boost@@QEGBAPEBUCertificate@v2@security@vanetza@@AEAU?$get_visitor@$$CBUCertificate@v2@security@vanetza@@@variant@detail@1@@Z
	??$apply_visitor@U?$get_visitor@$$CBUSignature@v2@security@vanetza@@@variant@detail@boost@@@?$variant@USignature@v2@security@vanetza@@$$V@boost@@QEGBAPEBUSignature@v2@security@vanetza@@AEAU?$get_visitor@$$CBUSignature@v2@security@vanetza@@@variant@detail@1@@Z
	??$apply_visitor@U?$get_visitor@$$CBUStartAndEndValidity@v2@security@vanetza@@@variant@detail@boost@@@?$variant@IUStartAndEndValidity@v2@security@vanetza@@UStartAndDurationValidity@234@V?$variant@UNoneRegion@v2@security@vanetza@@UCircularRegion@234@V?$list@URectangularRegion@v2@security@vanetza@@V?$allocator@URectangularRegion@v2@security@vanetza@@@std@@@std@@V?$list@UTwoDLocation@v2@security@vanetza@@V?$allocator@UTwoDLocation@v2@security@vanetza@@@std@@@7@UIdentifiedRegion@234@@boost@@@boost@@QEGBAPEBUStartAndEndValidity@v2@security@vanetza@@AEAU?$get_visitor@$$CBUStartAndEndValidity@v2@security@vanetza@@@variant@detail@1@@Z
	??$apply_visitor@U?$get_visitor@$$CBUSubjectAssurance@v2@security@vanetza@@@variant@detail@boost@@@?$variant@UVerificationKey@v2@security@vanetza@@UEncryptionKey@234@USubjectAssurance@234@V?$variant@UX_Coordinate_Only@security@vanetza@@UCompressed_Lsb_Y_0@23@UCompressed_Lsb_Y_1@23@UUncompressed@23@@boost@@V?$list@VIntX@v2@security@vanetza@@V?$allocator@VIntX@v2@security@vanetza@@@std@@@std@@V?$list@UItsAidSsp@v2@security@vanetza@@V?$allocator@UItsAidSsp@v2@security@vanetza@@@std@@@std@@@boost@@QEGBAPEBUSubjectAssurance@v2@security@vanetza@@AEAU?$get_visitor@$$CBUSubjectAssurance@v2@security@vanetza@@@variant@detail@1@@Z
	??$apply_visitor@U?$get_visitor@$$CBUThreeDLocation@v2@security@vanetza@@@variant@detail@boost@@@?$variant@_KUTime64WithStandardDeviation@v2@security@vanetza@@IUThreeDLocation@234@V?$list@V?$array@E$02@std@@V?$allocator@V?$array@E$02@std@@@2@@std@@VIntX@234@V?$variant@$$TV?$array@E$07@std@@V?$recursive_wrapper@UCertificate@v2@security@vanetza@@@boost@@V?$list@UCertificate@v2@security@vanetza@@V?$allocator@UCertificate@v2@security@vanetza@@@std@@@2@UCertificateDigestWithOtherAlgorithm@v2@security@vanetza@@@boost@@V?$variant@V?$array@E$0M@@std@@$$V@boost@@V?$list@URecipientInfo@v2@security@vanetza@@V?$allocator@URecipientInfo@v2@security@vanetza@@@std@@@7@@boost@@QEGBAPEBUThreeDLocation@v2@security@vanetza@@AEAU?$get_visitor@$$CBUThreeDLocation@v2@security@vanetza@@@variant@detail@1@@Z
	??$apply_visitor@U?$get_visitor@$$CBUVerificationKey@v2@security@vanetza@@@variant@detail@boost@@@?$variant@UVerificationKey@v2@security@vanetza@@UEncryptionKey@234@USubjectAssurance@234@V?$variant@UX_Coordinate_Only@security@vanetza@@UCompressed_Lsb_Y_0@23@UCompressed_Lsb_Y_1@23@UUncompressed@23@@boost@@V?$list@VIntX@v2@security@vanetza@@V?$allocator@VIntX@v2@security@vanetza@@@std@@@std@@V?$list@UItsAidSsp@v2@security@vanetza@@V?$allocator@UItsAidSsp@v2@security@vanetza@@@std@@@std@@@boost@@QEGBAPEBUVerificationKey@v2@security@vanetza@@AEAU?$get_visitor@$$CBUVerificationKey@v2@security@vanetza@@@variant@detail@1@@Z
	??$apply_visitor@U?$get_visitor@$$CBUecdsa_nistp256_with_sha256@v2@security@vanetza@@@variant@detail@boost@@@?$variant@Uecdsa_nistp256_with_sha256@v2@security@vanetza@@Uecies_nistp256@234@@boost@@QEGBAPEBUecdsa_nistp256_with_sha256@v2@security@vanetza@@AEAU?$get_visitor@$$CBUecdsa_nistp256_with_sha256@v2@security@vanetza@@@variant@detail@1@@Z
	??$apply_visitor@U?$get_visitor@$$CBV?$array@E$07@std@@@variant@detail@boost@@@?$variant@$$TV?$array@E$07@std@@V?$recursive_wrapper@UCertificate@v2@security@vanetza@@@boost@@V?$list@UCertificate@v2@security@vanetza@@V?$allocator@UCertificate@v2@security@vanetza@@@std@@@2@UCertificateDigestWithOtherAlgorithm@v2@security@vanetza@@@boost@@QEGBAPEBV?$array@E$07@std@@AEAU?$get_visitor@$$CBV?$array@E$07@std@@@variant@detail@1@@Z
	??$apply_visitor@U?$get_visitor@$$CBV?$list@UCertificate@v2@security@vanetza@@V?$allocator@UCertificate@v2@security@vanetza@@@std@@@std@@@variant@detail@boost@@@?$variant@$$TV?$array@E$07@std@@V?$recursive_wrapper@UCertificate@v2@security@vanetza@@@boost@@V?$list@UCertificate@v2@security@vanetza@@V?$allocator@UCertificate@v2@security@vanetza@@@std@@@2@UCertificateDigestWithOtherAlgorithm@v2@security@vanetza@@@boost@@QEGBAPEBV?$list@UCertificate@v2@security@vanetza@@V?$allocator@UCertificate@v2@security@vanetza@@@std@@@std@@AEAU?$get_visitor@$$CBV?$list@UCertificate@v2@security@vanetza@@V?$allocator@UCertificate@v2@security@vanetza@@@std@@@std@@@variant@detail@1@@Z
	??$apply_visitor@U?$get_visitor@$$CBV?$list@UItsAidSsp@v2@security@vanetza@@V?$allocator@UItsAidSsp@v2@security@vanetza@@@std@@@std@@@variant@detail@boost@@@?$variant@UVerificationKey@v2@security@vanetza@@UEncryptionKey@234@USubjectAssurance@234@V?$variant@UX_Coordinate_Only@security@vanetza@@UCompressed_Lsb_Y_0@23@UCompressed_Lsb_Y_1@23@UUncompressed@23@@boost@@V?$list@VIntX@v2@security@vanetza@@V?$allocator@VIntX@v2@security@vanetza@@@std@@@std@@V?$list@UItsAidSsp@v2@security@vanetza@@V?$allocator@UItsAidSsp@v2@security@vanetza@@@std@@@std@@@boost@@QEGBAPEBV?$list@UItsAidSsp@v2@security@vanetza@@V?$allocator@UItsAidSsp@v2@security@vanetza@@@std@@@std@@AEAU?$get_visitor@$$CBV?$list@UItsAidSsp@v2@security@vanetza@@V?$allocator@UItsAidSsp@v2@security@vanetza@@@std@@@std@@@variant@detail@1@@Z
	??$apply_visitor@U?$get_visitor@$$CBV?$list@V?$array@E$02@std@@V?$allocator@V?$array@E$02@std@@@2@@std@@@variant@detail@boost@@@?$variant@_KUTime64WithStandardDeviation@v2@security@vanetza@@IUThreeDLocation@234@V?$list@V?$array@E$02@std@@V?$allocator@V?$array@E$02@std@@@2@@std@@VIntX@234@V?$variant@$$TV?$array@E$07@std@@V?$recursive_wrapper@UCertificate@v2@security@vanetza@@@boost@@V?$list@UCertificate@v2@security@vanetza@@V?$allocator@UCertificate@v2@security@vanetza@@@std@@@2@UCertificateDigestWithOtherAlgorithm@v2@security@vanetza@@@boost@@V?$variant@V?$array@E$0M@@std@@$$V@boost@@V?$list@URecipientInfo@v2@security@vanetza@@V?$allocator@URecipientInfo@v2@security@vanetza@@@std@@@7@@boost@@QEGBAPEBV?$list@V?$array@E$02@std@@V?$allocator@V?$array@E$02@std@@@2@@std@@AEAU?$get_visitor@$$CBV?$list@V?$array@E$02@std@@V?$allocator@V?$array@E$02@std@@@2@@std@@@variant@detail@1@@Z
	??$apply_visitor@U?$get_visitor@$$CBV?$list@VIntX@v2@security@vanetza@@V?$allocator@VIntX@v2@security@vanetza@@@std@@@std@@@variant@detail@boost@@@?$variant@UVerificationKey@v2@security@vanetza@@UEncryptionKey@234@USubjectAssurance@234@V?$variant@UX_Coordinate_Only@security@vanetza@@UCompressed_Lsb_Y_0@23@UCompressed_Lsb_Y_1@23@UUncompressed@23@@boost@@V?$list@VIntX@v2@security@vanetza@@V?$allocator@VIntX@v2@security@vanetza@@@std@@@std@@V?$list@UItsAidSsp@v2@security@vanetza@@V?$allocator@UItsAidSsp@v2@security@vanetza@@@std@@@std@@@boost@@QEGBAPEBV?$list@VIntX@v2@security@vanetza@@V?$allocator@VIntX@v2@security@vanetza@@@std@@@std@@AEAU?$get_visitor@$$CBV?$list@VIntX@v2@security@vanetza@@V?$allocator@VIntX@v2@security@vanetza@@@std@@@std@@@variant@detail@1@@Z
	??$apply_visitor@U?$get_visitor@$$CBV?$variant@$$TV?$array@E$07@std@@V?$recursive_wrapper@UCertificate@v2@security@vanetza@@@boost@@V?$list@UCertificate@v2@security@vanetza@@V?$allocator@UCertificate@v2@security@vanetza@@@std@@@2@UCertificateDigestWithOtherAlgorithm@v2@security@vanetza@@@boost@@@variant@detail@boost@@@?$variant@_KUTime64WithStandardDeviation@v2@security@vanetza@@IUThreeDLocation@234@V?$list@V?$array@E$02@std@@V?$allocator@V?$array@E$02@std@@@2@@std@@VIntX@234@V?$variant@$$TV?$array@E$07@std@@V?$recursive_wrapper@UCertificate@v2@security@vanetza@@@boost@@V?$list@UCertificate@v2@security@vanetza@@V?$allocator@UCertificate@v2@security@vanetza@@@std@@@2@UCertificateDigestWithOtherAlgorithm@v2@security@vanetza@@@boost@@V?$variant@V?$array@E$0M@@std@@$$V@boost@@V?$list@URecipientInfo@v2@security@vanetza@@V?$allocator@URecipientInfo@v2@security@vanetza@@@std@@@7@@boost@@QEGBAPEBV?$variant@$$TV?$array@E$07@std@@V?$recursive_wrapper@UCertificate@v2@security@vanetza@@@boost@@V?$list@UCertificate@v2@security@vanetza@@V?$allocator@UCertificate@v2@security@vanetza@@@std@@@2@UCertificateDigestWithOtherAlgorithm@v2@security@vanetza@@@1@AEAU?$get_visitor@$$CBV?$variant@$$TV?$array@E$07@std@@V?$recursive_wrapper@UCertificate@v2@security@vanetza@@@boost@@V?$list@UCertificate@v2@security@vanetza@@V?$allocator@UCertificate@v2@security@vanetza@@@std@@@2@UCertificateDigestWithOtherAlgorithm@v2@security@vanetza@@@boost@@@variant@detail@1@@Z
	??$apply_visitor@U?$get_visitor@$$CBV?$variant@UNoneRegion@v2@security@vanetza@@UCircularRegion@234@V?$list@URectangularRegion@v2@security@vanetza@@V?$allocator@URectangularRegion@v2@security@vanetza@@@std@@@std@@V?$list@UTwoDLocation@v2@security@vanetza@@V?$allocator@UTwoDLocation@v2@security@vanetza@@@std@@@7@UIdentifiedRegion@234@@boost@@@variant@detail@boost@@@?$variant@IUStartAndEndValidity@v2@security@vanetza@@UStartAndDurationValidity@234@V?$variant@UNoneRegion@v2@security@vanetza@@UCircularRegion@234@V?$list@URectangularRegion@v2@security@vanetza@@V?$allocator@URectangularRegion@v2@security@vanetza@@@std@@@std@@V?$list@UTwoDLocation@v2@security@vanetza@@V?$allocator@UTwoDLocation@v2@security@vanetza@@@std@@@7@UIdentifiedRegion@234@@boost@@@boost@@QEGBAPEBV?$variant@UNoneRegion@v2@security@vanetza@@UCircularRegion@234@V?$list@URectangularRegion@v2@security@vanetza@@V?$allocator@URectangularRegion@v2@security@vanetza@@@std@@@std@@V?$list@UTwoDLocation@v2@security@vanetza@@V?$allocator@UTwoDLocation@v2@security@vanetza@@@std@@@7@UIdentifiedRegion@234@@1@AEAU?$get_visitor@$$CBV?$variant@UNoneRegion@v2@security@vanetza@@UCircularRegion@234@V?$list@URectangularRegion@v2@security@vanetza@@V?$allocator@URectangularRegion@v2@security@vanetza@@@std@@@std@@V?$list@UTwoDLocation@v2@security@vanetza@@V?$allocator@UTwoDLocation@v2@security@vanetza@@@std@@@7@UIdentifiedRegion@234@@boost@@@variant@detail@1@@Z
	??$apply_visitor@U?$get_visitor@$$CBV?$variant@USecuredMessage@v2@security@vanetza@@U1v3@34@@boost@@@variant@detail@boost@@@?$variant@V?$variant@USecuredMessage@v2@security@vanetza@@U1v3@34@@boost@@W4SignConfirmError@security@vanetza@@@boost@@QEGBAPEBV?$variant@USecuredMessage@v2@security@vanetza@@U1v3@34@@1@AEAU?$get_visitor@$$CBV?$variant@USecuredMessage@v2@security@vanetza@@U1v3@34@@boost@@@variant@detail@1@@Z
	??$apply_visitor@U?$get_visitor@$$CBVIntX@v2@security@vanetza@@@variant@detail@boost@@@?$variant@_KUTime64WithStandardDeviation@v2@security@vanetza@@IUThreeDLocation@234@V?$list@V?$array@E$02@std@@V?$allocator@V?$array@E$02@std@@@2@@std@@VIntX@234@V?$variant@$$TV?$array@E$07@std@@V?$recursive_wrapper@UCertificate@v2@security@vanetza@@@boost@@V?$list@UCertificate@v2@security@vanetza@@V?$allocator@UCertificate@v2@security@vanetza@@@std@@@2@UCertificateDigestWithOtherAlgorithm@v2@security@vanetza@@@boost@@V?$variant@V?$array@E$0M@@std@@$$V@boost@@V?$list@URecipientInfo@v2@security@vanetza@@V?$allocator@URecipientInfo@v2@security@vanetza@@@std@@@7@@boost@@QEGBAPEBVIntX@v2@security@vanetza@@AEAU?$get_visitor@$$CBVIntX@v2@security@vanetza@@@variant@detail@1@@Z
	??$apply_visitor@U?$get_visitor@$$CB_K@variant@detail@boost@@@?$variant@_KUTime64WithStandardDeviation@v2@security@vanetza@@IUThreeDLocation@234@V?$list@V?$array@E$02@std@@V?$allocator@V?$array@E$02@std@@@2@@std@@VIntX@234@V?$variant@$$TV?$array@E$07@std@@V?$recursive_wrapper@UCertificate@v2@security@vanetza@@@boost@@V?$list@UCertificate@v2@security@vanetza@@V?$allocator@UCertificate@v2@security@vanetza@@@std@@@2@UCertificateDigestWithOtherAlgorithm@v2@security@vanetza@@@boost@@V?$variant@V?$array@E$0M@@std@@$$V@boost@@V?$list@URecipientInfo@v2@security@vanetza@@V?$allocator@URecipientInfo@v2@security@vanetza@@@std@@@7@@boost@@QEGBAPEB_KAEAU?$get_visitor@$$CB_K@variant@detail@1@@Z
	??$apply_visitor@U?$get_visitor@UStartAndEndValidity@v2@security@vanetza@@@variant@detail@boost@@@?$variant@IUStartAndEndValidity@v2@security@vanetza@@UStartAndDurationValidity@234@V?$variant@UNoneRegion@v2@security@vanetza@@UCircularRegion@234@V?$list@URectangularRegion@v2@security@vanetza@@V?$allocator@URectangularRegion@v2@security@vanetza@@@std@@@std@@V?$list@UTwoDLocation@v2@security@vanetza@@V?$allocator@UTwoDLocation@v2@security@vanetza@@@std@@@7@UIdentifiedRegion@234@@boost@@@boost@@QEGAAPEAUStartAndEndValidity@v2@security@vanetza@@AEAU?$get_visitor@UStartAndEndValidity@v2@security@vanetza@@@variant@detail@1@@Z
	??$apply_visitor@U?$get_visitor@V?$array@E$07@std@@@variant@detail@boost@@@?$variant@$$TV?$array@E$07@std@@V?$recursive_wrapper@UCertificate@v2@security@vanetza@@@boost@@V?$list@UCertificate@v2@security@vanetza@@V?$allocator@UCertificate@v2@security@vanetza@@@std@@@2@UCertificateDigestWithOtherAlgorithm@v2@security@vanetza@@@boost@@QEGAAPEAV?$array@E$07@std@@AEAU?$get_visitor@V?$array@E$07@std@@@variant@detail@1@@Z
	??$apply_visitor@U?$get_visitor@V?$list@UItsAidSsp@v2@security@vanetza@@V?$allocator@UItsAidSsp@v2@security@vanetza@@@std@@@std@@@variant@detail@boost@@@?$variant@UVerificationKey@v2@security@vanetza@@UEncryptionKey@234@USubjectAssurance@234@V?$variant@UX_Coordinate_Only@security@vanetza@@UCompressed_Lsb_Y_0@23@UCompressed_Lsb_Y_1@23@UUncompressed@23@@boost@@V?$list@VIntX@v2@security@vanetza@@V?$allocator@VIntX@v2@security@vanetza@@@std@@@std@@V?$list@UItsAidSsp@v2@security@vanetza@@V?$allocator@UItsAidSsp@v2@security@vanetza@@@std@@@std@@@boost@@QEGAAPEAV?$list@UItsAidSsp@v2@security@vanetza@@V?$allocator@UItsAidSsp@v2@security@vanetza@@@std@@@std@@AEAU?$get_visitor@V?$list@UItsAidSsp@v2@security@vanetza@@V?$allocator@UItsAidSsp@v2@security@vanetza@@@std@@@std@@@variant@detail@1@@Z
	??$apply_visitor@U?$get_visitor@V?$list@VIntX@v2@security@vanetza@@V?$allocator@VIntX@v2@security@vanetza@@@std@@@std@@@variant@detail@boost@@@?$variant@UVerificationKey@v2@security@vanetza@@UEncryptionKey@234@USubjectAssurance@234@V?$variant@UX_Coordinate_Only@security@vanetza@@UCompressed_Lsb_Y_0@23@UCompressed_Lsb_Y_1@23@UUncompressed@23@@boost@@V?$list@VIntX@v2@security@vanetza@@V?$allocator@VIntX@v2@security@vanetza@@@std@@@std@@V?$list@UItsAidSsp@v2@security@vanetza@@V?$allocator@UItsAidSsp@v2@security@vanetza@@@std@@@std@@@boost@@QEGAAPEAV?$list@VIntX@v2@security@vanetza@@V?$allocator@VIntX@v2@security@vanetza@@@std@@@std@@AEAU?$get_visitor@V?$list@VIntX@v2@security@vanetza@@V?$allocator@VIntX@v2@security@vanetza@@@std@@@std@@@variant@detail@1@@Z
	??$apply_visitor@U?$get_visitor@V?$variant@USecuredMessage@v2@security@vanetza@@U1v3@34@@boost@@@variant@detail@boost@@@?$variant@V?$variant@USecuredMessage@v2@security@vanetza@@U1v3@34@@boost@@W4SignConfirmError@security@vanetza@@@boost@@QEGAAPEAV?$variant@USecuredMessage@v2@security@vanetza@@U1v3@34@@1@AEAU?$get_visitor@V?$variant@USecuredMessage@v2@security@vanetza@@U1v3@34@@boost@@@variant@detail@1@@Z
	??$apply_visitor@USerializeVisitor@security@vanetza@@@?$variant@AEBUSecuredMessage@v2@security@vanetza@@AEBU1v3@34@@boost@@QEGBAXAEAUSerializeVisitor@security@vanetza@@@Z
	??$apply_visitor@USerializeVisitor@security@vanetza@@@?$variant@USecuredMessage@v2@security@vanetza@@U1v3@34@@boost@@QEGBAXAEAUSerializeVisitor@security@vanetza@@@Z
	??$apply_visitor@V?$direct_assigner@I@variant@detail@boost@@@?$variant@IUStartAndEndValidity@v2@security@vanetza@@UStartAndDurationValidity@234@V?$variant@UNoneRegion@v2@security@vanetza@@UCircularRegion@234@V?$list@URectangularRegion@v2@security@vanetza@@V?$allocator@URectangularRegion@v2@security@vanetza@@@std@@@std@@V?$list@UTwoDLocation@v2@security@vanetza@@V?$allocator@UTwoDLocation@v2@security@vanetza@@@std@@@7@UIdentifiedRegion@234@@boost@@@boost@@QEGAA_NAEAV?$direct_assigner@I@variant@detail@1@@Z
	??$apply_visitor@V?$direct_assigner@I@variant@detail@boost@@@?$variant@_KUTime64WithStandardDeviation@v2@security@vanetza@@IUThreeDLocation@234@V?$list@V?$array@E$02@std@@V?$allocator@V?$array@E$02@std@@@2@@std@@VIntX@234@V?$variant@$$TV?$array@E$07@std@@V?$recursive_wrapper@UCertificate@v2@security@vanetza@@@boost@@V?$list@UCertificate@v2@security@vanetza@@V?$allocator@UCertificate@v2@security@vanetza@@@std@@@2@UCertificateDigestWithOtherAlgorithm@v2@security@vanetza@@@boost@@V?$variant@V?$array@E$0M@@std@@$$V@boost@@V?$list@URecipientInfo@v2@security@vanetza@@V?$allocator@URecipientInfo@v2@security@vanetza@@@std@@@7@@boost@@QEGAA_NAEAV?$direct_assigner@I@variant@detail@1@@Z
	??$apply_visitor@V?$direct_assigner@UCertificate@v2@security@vanetza@@@variant@detail@boost@@@?$variant@$$TV?$array@E$07@std@@V?$recursive_wrapper@UCertificate@v2@security@vanetza@@@boost@@V?$list@UCertificate@v2@security@vanetza@@V?$allocator@UCertificate@v2@security@vanetza@@@std@@@2@UCertificateDigestWithOtherAlgorithm@v2@security@vanetza@@@boost@@QEGAA_NAEAV?$direct_assigner@UCertificate@v2@security@vanetza@@@variant@detail@1@@Z
	??$apply_visitor@V?$direct_assigner@UCertificateDigestWithOtherAlgorithm@v2@security@vanetza@@@variant@detail@boost@@@?$variant@$$TV?$array@E$07@std@@V?$recursive_wrapper@UCertificate@v2@security@vanetza@@@boost@@V?$list@UCertificate@v2@security@vanetza@@V?$allocator@UCertificate@v2@security@vanetza@@@std@@@2@UCertificateDigestWithOtherAlgorithm@v2@security@vanetza@@@boost@@QEGAA_NAEAV?$direct_assigner@UCertificateDigestWithOtherAlgorithm@v2@security@vanetza@@@variant@detail@1@@Z
	??$apply_visitor@V?$direct_assigner@UCircularRegion@v2@security@vanetza@@@variant@detail@boost@@@?$variant@UNoneRegion@v2@security@vanetza@@UCircularRegion@234@V?$list@URectangularRegion@v2@security@vanetza@@V?$allocator@URectangularRegion@v2@security@vanetza@@@std@@@std@@V?$list@UTwoDLocation@v2@security@vanetza@@V?$allocator@UTwoDLocation@v2@security@vanetza@@@std@@@7@UIdentifiedRegion@234@@boost@@QEGAA_NAEAV?$direct_assigner@UCircularRegion@v2@security@vanetza@@@variant@detail@1@@Z
	??$apply_visitor@V?$direct_assigner@UCompressed_Lsb_Y_0@security@vanetza@@@variant@detail@boost@@@?$variant@UX_Coordinate_Only@security@vanetza@@UCompressed_Lsb_Y_0@23@UCompressed_Lsb_Y_1@23@UUncompressed@23@@boost@@QEGAA_NAEAV?$direct_assigner@UCompressed_Lsb_Y_0@security@vanetza@@@variant@detail@1@@Z
	??$apply_visitor@V?$direct_assigner@UCompressed_Lsb_Y_1@security@vanetza@@@variant@detail@boost@@@?$variant@UX_Coordinate_Only@security@vanetza@@UCompressed_Lsb_Y_0@23@UCompressed_Lsb_Y_1@23@UUncompressed@23@@boost@@QEGAA_NAEAV?$direct_assigner@UCompressed_Lsb_Y_1@security@vanetza@@@variant@detail@1@@Z
	??$apply_visitor@V?$direct_assigner@UEcdsaSignature@security@vanetza@@@variant@detail@boost@@@?$variant@UEcdsaSignature@security@vanetza@@VEcdsaSignatureFuture@23@@boost@@QEGAA_NAEAV?$direct_assigner@UEcdsaSignature@security@vanetza@@@variant@detail@1@@Z
	??$apply_visitor@V?$direct_assigner@UEncryptionKey@v2@security@vanetza@@@variant@detail@boost@@@?$variant@UVerificationKey@v2@security@vanetza@@UEncryptionKey@234@USubjectAssurance@234@V?$variant@UX_Coordinate_Only@security@vanetza@@UCompressed_Lsb_Y_0@23@UCompressed_Lsb_Y_1@23@UUncompressed@23@@boost@@V?$list@VIntX@v2@security@vanetza@@V?$allocator@VIntX@v2@security@vanetza@@@std@@@std@@V?$list@UItsAidSsp@v2@security@vanetza@@V?$allocator@UItsAidSsp@v2@security@vanetza@@@std@@@std@@@boost@@QEGAA_NAEAV?$direct_assigner@UEncryptionKey@v2@security@vanetza@@@variant@detail@1@@Z
	??$apply_visitor@V?$direct_assigner@UIdentifiedRegion@v2@security@vanetza@@@variant@detail@boost@@@?$variant@UNoneRegion@v2@security@vanetza@@UCircularRegion@234@V?$list@URectangularRegion@v2@security@vanetza@@V?$allocator@URectangularRegion@v2@security@vanetza@@@std@@@std@@V?$list@UTwoDLocation@v2@security@vanetza@@V?$allocator@UTwoDLocation@v2@security@vanetza@@@std@@@7@UIdentifiedRegion@234@@boost@@QEGAA_NAEAV?$direct_assigner@UIdentifiedRegion@v2@security@vanetza@@@variant@detail@1@@Z
	??$apply_visitor@V?$direct_assigner@UNoneRegion@v2@security@vanetza@@@variant@detail@boost@@@?$variant@UNoneRegion@v2@security@vanetza@@UCircularRegion@234@V?$list@URectangularRegion@v2@security@vanetza@@V?$allocator@URectangularRegion@v2@security@vanetza@@@std@@@std@@V?$list@UTwoDLocation@v2@security@vanetza@@V?$allocator@UTwoDLocation@v2@security@vanetza@@@std@@@7@UIdentifiedRegion@234@@boost@@QEGAA_NAEAV?$direct_assigner@UNoneRegion@v2@security@vanetza@@@variant@detail@1@@Z
	??$apply_visitor@V?$direct_assigner@USignature@v2@security@vanetza@@@variant@detail@boost@@@?$variant@USignature@v2@security@vanetza@@$$V@boost@@QEGAA_NAEAV?$direct_assigner@USignature@v2@security@vanetza@@@variant@detail@1@@Z
	??$apply_visitor@V?$direct_assigner@UStartAndDurationValidity@v2@security@vanetza@@@variant@detail@boost@@@?$variant@IUStartAndEndValidity@v2@security@vanetza@@UStartAndDurationValidity@234@V?$variant@UNoneRegion@v2@security@vanetza@@UCircularRegion@234@V?$list@URectangularRegion@v2@security@vanetza@@V?$allocator@URectangularRegion@v2@security@vanetza@@@std@@@std@@V?$list@UTwoDLocation@v2@security@vanetza@@V?$allocator@UTwoDLocation@v2@security@vanetza@@@std@@@7@UIdentifiedRegion@234@@boost@@@boost@@QEGAA_NAEAV?$direct_assigner@UStartAndDurationValidity@v2@security@vanetza@@@variant@detail@1@@Z
	??$apply_visitor@V?$direct_assigner@UStartAndEndValidity@v2@security@vanetza@@@variant@detail@boost@@@?$variant@IUStartAndEndValidity@v2@security@vanetza@@UStartAndDurationValidity@234@V?$variant@UNoneRegion@v2@security@vanetza@@UCircularRegion@234@V?$list@URectangularRegion@v2@security@vanetza@@V?$allocator@URectangularRegion@v2@security@vanetza@@@std@@@std@@V?$list@UTwoDLocation@v2@security@vanetza@@V?$allocator@UTwoDLocation@v2@security@vanetza@@@std@@@7@UIdentifiedRegion@234@@boost@@@boost@@QEGAA_NAEAV?$direct_assigner@UStartAndEndValidity@v2@security@vanetza@@@variant@detail@1@@Z
	??$apply_visitor@V?$direct_assigner@USubjectAssurance@v2@security@vanetza@@@variant@detail@boost@@@?$variant@UVerificationKey@v2@security@vanetza@@UEncryptionKey@234@USubjectAssurance@234@V?$variant@UX_Coordinate_Only@security@vanetza@@UCompressed_Lsb_Y_0@23@UCompressed_Lsb_Y_1@23@UUncompressed@23@@boost@@V?$list@VIntX@v2@security@vanetza@@V?$allocator@VIntX@v2@security@vanetza@@@std@@@std@@V?$list@UItsAidSsp@v2@security@vanetza@@V?$allocator@UItsAidSsp@v2@security@vanetza@@@std@@@std@@@boost@@QEGAA_NAEAV?$direct_assigner@USubjectAssurance@v2@security@vanetza@@@variant@detail@1@@Z
	??$apply_visitor@V?$direct_assigner@UThreeDLocation@v2@security@vanetza@@@variant@detail@boost@@@?$variant@_KUTime64WithStandardDeviation@v2@security@vanetza@@IUThreeDLocation@234@V?$list@V?$array@E$02@std@@V?$allocator@V?$array@E$02@std@@@2@@std@@VIntX@234@V?$variant@$$TV?$array@E$07@std@@V?$recursive_wrapper@UCertificate@v2@security@vanetza@@@boost@@V?$list@UCertificate@v2@security@vanetza@@V?$allocator@UCertificate@v2@security@vanetza@@@std@@@2@UCertificateDigestWithOtherAlgorithm@v2@security@vanetza@@@boost@@V?$variant@V?$array@E$0M@@std@@$$V@boost@@V?$list@URecipientInfo@v2@security@vanetza@@V?$allocator@URecipientInfo@v2@security@vanetza@@@std@@@7@@boost@@QEGAA_NAEAV?$direct_assigner@UThreeDLocation@v2@security@vanetza@@@variant@detail@1@@Z
	??$apply_visitor@V?$direct_assigner@UTime64WithStandardDeviation@v2@security@vanetza@@@variant@detail@boost@@@?$variant@_KUTime64WithStandardDeviation@v2@security@vanetza@@IUThreeDLocation@234@V?$list@V?$array@E$02@std@@V?$allocator@V?$array@E$02@std@@@2@@std@@VIntX@234@V?$variant@$$TV?$array@E$07@std@@V?$recursive_wrapper@UCertificate@v2@security@vanetza@@@boost@@V?$list@UCertificate@v2@security@vanetza@@V?$allocator@UCertificate@v2@security@vanetza@@@std@@@2@UCertificateDigestWithOtherAlgorithm@v2@security@vanetza@@@boost@@V?$variant@V?$array@E$0M@@std@@$$V@boost@@V?$list@URecipientInfo@v2@security@vanetza@@V?$allocator@URecipientInfo@v2@security@vanetza@@@std@@@7@@boost@@QEGAA_NAEAV?$direct_assigner@UTime64WithStandardDeviation@v2@security@vanetza@@@variant@detail@1@@Z
	??$apply_visitor@V?$direct_assigner@UUncompressed@security@vanetza@@@variant@detail@boost@@@?$variant@UX_Coordinate_Only@security@vanetza@@UCompressed_Lsb_Y_0@23@UCompressed_Lsb_Y_1@23@UUncompressed@23@@boost@@QEGAA_NAEAV?$direct_assigner@UUncompressed@security@vanetza@@@variant@detail@1@@Z
	??$apply_visitor@V?$direct_assigner@UVerificationKey@v2@security@vanetza@@@variant@detail@boost@@@?$variant@UVerificationKey@v2@security@vanetza@@UEncryptionKey@234@USubjectAssurance@234@V?$variant@UX_Coordinate_Only@security@vanetza@@UCompressed_Lsb_Y_0@23@UCompressed_Lsb_Y_1@23@UUncompressed@23@@boost@@V?$list@VIntX@v2@security@vanetza@@V?$allocator@VIntX@v2@security@vanetza@@@std@@@std@@V?$list@UItsAidSsp@v2@security@vanetza@@V?$allocator@UItsAidSsp@v2@security@vanetza@@@std@@@std@@@boost@@QEGAA_NAEAV?$direct_assigner@UVerificationKey@v2@security@vanetza@@@variant@detail@1@@Z
	??$apply_visitor@V?$direct_assigner@UX_Coordinate_Only@security@vanetza@@@variant@detail@boost@@@?$variant@UX_Coordinate_Only@security@vanetza@@UCompressed_Lsb_Y_0@23@UCompressed_Lsb_Y_1@23@UUncompressed@23@@boost@@QEGAA_NAEAV?$direct_assigner@UX_Coordinate_Only@security@vanetza@@@variant@detail@1@@Z
	??$apply_visitor@V?$direct_assigner@Uecdsa_nistp256_with_sha256@v2@security@vanetza@@@variant@detail@boost@@@?$variant@Uecdsa_nistp256_with_sha256@v2@security@vanetza@@Uecies_nistp256@234@@boost@@QEGAA_NAEAV?$direct_assigner@Uecdsa_nistp256_with_sha256@v2@security@vanetza@@@variant@detail@1@@Z
	??$apply_visitor@V?$direct_assigner@Uecies_nistp256@v2@security@vanetza@@@variant@detail@boost@@@?$variant@Uecdsa_nistp256_with_sha256@v2@security@vanetza@@Uecies_nistp256@234@@boost@@QEGAA_NAEAV?$direct_assigner@Uecies_nistp256@v2@security@vanetza@@@variant@detail@1@@Z
	??$apply_visitor@V?$direct_assigner@V?$array@E$07@std@@@variant@detail@boost@@@?$variant@$$TV?$array@E$07@std@@V?$recursive_wrapper@UCertificate@v2@security@vanetza@@@boost@@V?$list@UCertificate@v2@security@vanetza@@V?$allocator@UCertificate@v2@security@vanetza@@@std@@@2@UCertificateDigestWithOtherAlgorithm@v2@security@vanetza@@@boost@@QEGAA_NAEAV?$direct_assigner@V?$array@E$07@std@@@variant@detail@1@@Z
	??$apply_visitor@V?$direct_assigner@V?$array@E$0M@@std@@@variant@detail@boost@@@?$variant@V?$array@E$0M@@std@@$$V@boost@@QEGAA_NAEAV?$direct_assigner@V?$array@E$0M@@std@@@variant@detail@1@@Z
	??$apply_visitor@V?$direct_assigner@V?$list@UCertificate@v2@security@vanetza@@V?$allocator@UCertificate@v2@security@vanetza@@@std@@@std@@@variant@detail@boost@@@?$variant@$$TV?$array@E$07@std@@V?$recursive_wrapper@UCertificate@v2@security@vanetza@@@boost@@V?$list@UCertificate@v2@security@vanetza@@V?$allocator@UCertificate@v2@security@vanetza@@@std@@@2@UCertificateDigestWithOtherAlgorithm@v2@security@vanetza@@@boost@@QEGAA_NAEAV?$direct_assigner@V?$list@UCertificate@v2@security@vanetza@@V?$allocator@UCertificate@v2@security@vanetza@@@std@@@std@@@variant@detail@1@@Z
	??$apply_visitor@V?$direct_assigner@V?$list@UItsAidSsp@v2@security@vanetza@@V?$allocator@UItsAidSsp@v2@security@vanetza@@@std@@@std@@@variant@detail@boost@@@?$variant@UVerificationKey@v2@security@vanetza@@UEncryptionKey@234@USubjectAssurance@234@V?$variant@UX_Coordinate_Only@security@vanetza@@UCompressed_Lsb_Y_0@23@UCompressed_Lsb_Y_1@23@UUncompressed@23@@boost@@V?$list@VIntX@v2@security@vanetza@@V?$allocator@VIntX@v2@security@vanetza@@@std@@@std@@V?$list@UItsAidSsp@v2@security@vanetza@@V?$allocator@UItsAidSsp@v2@security@vanetza@@@std@@@std@@@boost@@QEGAA_NAEAV?$direct_assigner@V?$list@UItsAidSsp@v2@security@vanetza@@V?$allocator@UItsAidSsp@v2@security@vanetza@@@std@@@std@@@variant@detail@1@@Z
	??$apply_visitor@V?$direct_assigner@V?$list@URecipientInfo@v2@security@vanetza@@V?$allocator@URecipientInfo@v2@security@vanetza@@@std@@@std@@@variant@detail@boost@@@?$variant@_KUTime64WithStandardDeviation@v2@security@vanetza@@IUThreeDLocation@234@V?$list@V?$array@E$02@std@@V?$allocator@V?$array@E$02@std@@@2@@std@@VIntX@234@V?$variant@$$TV?$array@E$07@std@@V?$recursive_wrapper@UCertificate@v2@security@vanetza@@@boost@@V?$list@UCertificate@v2@security@vanetza@@V?$allocator@UCertificate@v2@security@vanetza@@@std@@@2@UCertificateDigestWithOtherAlgorithm@v2@security@vanetza@@@boost@@V?$variant@V?$array@E$0M@@std@@$$V@boost@@V?$list@URecipientInfo@v2@security@vanetza@@V?$allocator@URecipientInfo@v2@security@vanetza@@@std@@@7@@boost@@QEGAA_NAEAV?$direct_assigner@V?$list@URecipientInfo@v2@security@vanetza@@V?$allocator@URecipientInfo@v2@security@vanetza@@@std@@@std@@@variant@detail@1@@Z
	??$apply_visitor@V?$direct_assigner@V?$list@URectangularRegion@v2@security@vanetza@@V?$allocator@URectangularRegion@v2@security@vanetza@@@std@@@std@@@variant@detail@boost@@@?$variant@UNoneRegion@v2@security@vanetza@@UCircularRegion@234@V?$list@URectangularRegion@v2@security@vanetza@@V?$allocator@URectangularRegion@v2@security@vanetza@@@std@@@std@@V?$list@UTwoDLocation@v2@security@vanetza@@V?$allocator@UTwoDLocation@v2@security@vanetza@@@std@@@7@UIdentifiedRegion@234@@boost@@QEGAA_NAEAV?$direct_assigner@V?$list@URectangularRegion@v2@security@vanetza@@V?$allocator@URectangularRegion@v2@security@vanetza@@@std@@@std@@@variant@detail@1@@Z
	??$apply_visitor@V?$direct_assigner@V?$list@UTwoDLocation@v2@security@vanetza@@V?$allocator@UTwoDLocation@v2@security@vanetza@@@std@@@std@@@variant@detail@boost@@@?$variant@UNoneRegion@v2@security@vanetza@@UCircularRegion@234@V?$list@URectangularRegion@v2@security@vanetza@@V?$allocator@URectangularRegion@v2@security@vanetza@@@std@@@std@@V?$list@UTwoDLocation@v2@security@vanetza@@V?$allocator@UTwoDLocation@v2@security@vanetza@@@std@@@7@UIdentifiedRegion@234@@boost@@QEGAA_NAEAV?$direct_assigner@V?$list@UTwoDLocation@v2@security@vanetza@@V?$allocator@UTwoDLocation@v2@security@vanetza@@@std@@@std@@@variant@detail@1@@Z
	??$apply_visitor@V?$direct_assigner@V?$list@V?$array@E$02@std@@V?$allocator@V?$array@E$02@std@@@2@@std@@@variant@detail@boost@@@?$variant@_KUTime64WithStandardDeviation@v2@security@vanetza@@IUThreeDLocation@234@V?$list@V?$array@E$02@std@@V?$allocator@V?$array@E$02@std@@@2@@std@@VIntX@234@V?$variant@$$TV?$array@E$07@std@@V?$recursive_wrapper@UCertificate@v2@security@vanetza@@@boost@@V?$list@UCertificate@v2@security@vanetza@@V?$allocator@UCertificate@v2@security@vanetza@@@std@@@2@UCertificateDigestWithOtherAlgorithm@v2@security@vanetza@@@boost@@V?$variant@V?$array@E$0M@@std@@$$V@boost@@V?$list@URecipientInfo@v2@security@vanetza@@V?$allocator@URecipientInfo@v2@security@vanetza@@@std@@@7@@boost@@QEGAA_NAEAV?$direct_assigner@V?$list@V?$array@E$02@std@@V?$allocator@V?$array@E$02@std@@@2@@std@@@variant@detail@1@@Z
	??$apply_visitor@V?$direct_assigner@V?$list@VIntX@v2@security@vanetza@@V?$allocator@VIntX@v2@security@vanetza@@@std@@@std@@@variant@detail@boost@@@?$variant@UVerificationKey@v2@security@vanetza@@UEncryptionKey@234@USubjectAssurance@234@V?$variant@UX_Coordinate_Only@security@vanetza@@UCompressed_Lsb_Y_0@23@UCompressed_Lsb_Y_1@23@UUncompressed@23@@boost@@V?$list@VIntX@v2@security@vanetza@@V?$allocator@VIntX@v2@security@vanetza@@@std@@@std@@V?$list@UItsAidSsp@v2@security@vanetza@@V?$allocator@UItsAidSsp@v2@security@vanetza@@@std@@@std@@@boost@@QEGAA_NAEAV?$direct_assigner@V?$list@VIntX@v2@security@vanetza@@V?$allocator@VIntX@v2@security@vanetza@@@std@@@std@@@variant@detail@1@@Z
	??$apply_visitor@V?$direct_assigner@V?$variant@$$TV?$array@E$07@std@@V?$recursive_wrapper@UCertificate@v2@security@vanetza@@@boost@@V?$list@UCertificate@v2@security@vanetza@@V?$allocator@UCertificate@v2@security@vanetza@@@std@@@2@UCertificateDigestWithOtherAlgorithm@v2@security@vanetza@@@boost@@@variant@detail@boost@@@?$variant@_KUTime64WithStandardDeviation@v2@security@vanetza@@IUThreeDLocation@234@V?$list@V?$array@E$02@std@@V?$allocator@V?$array@E$02@std@@@2@@std@@VIntX@234@V?$variant@$$TV?$array@E$07@std@@V?$recursive_wrapper@UCertificate@v2@security@vanetza@@@boost@@V?$list@UCertificate@v2@security@vanetza@@V?$allocator@UCertificate@v2@security@vanetza@@@std@@@2@UCertificateDigestWithOtherAlgorithm@v2@security@vanetza@@@boost@@V?$variant@V?$array@E$0M@@std@@$$V@boost@@V?$list@URecipientInfo@v2@security@vanetza@@V?$allocator@URecipientInfo@v2@security@vanetza@@@std@@@7@@boost@@QEGAA_NAEAV?$direct_assigner@V?$variant@$$TV?$array@E$07@std@@V?$recursive_wrapper@UCertificate@v2@security@vanetza@@@boost@@V?$list@UCertificate@v2@security@vanetza@@V?$allocator@UCertificate@v2@security@vanetza@@@std@@@2@UCertificateDigestWithOtherAlgorithm@v2@security@vanetza@@@boost@@@variant@detail@1@@Z
	??$apply_visitor@V?$direct_assigner@V?$variant@UNoneRegion@v2@security@vanetza@@UCircularRegion@234@V?$list@URectangularRegion@v2@security@vanetza@@V?$allocator@URectangularRegion@v2@security@vanetza@@@std@@@std@@V?$list@UTwoDLocation@v2@security@vanetza@@V?$allocator@UTwoDLocation@v2@security@vanetza@@@std@@@7@UIdentifiedRegion@234@@boost@@@variant@detail@boost@@@?$variant@IUStartAndEndValidity@v2@security@vanetza@@UStartAndDurationValidity@234@V?$variant@UNoneRegion@v2@security@vanetza@@UCircularRegion@234@V?$list@URectangularRegion@v2@security@vanetza@@V?$allocator@URectangularRegion@v2@security@vanetza@@@std@@@std@@V?$list@UTwoDLocation@v2@security@vanetza@@V?$allocator@UTwoDLocation@v2@security@vanetza@@@std@@@7@UIdentifiedRegion@234@@boost@@@boost@@QEGAA_NAEAV?$direct_assigner@V?$variant@UNoneRegion@v2@security@vanetza@@UCircularRegion@234@V?$list@URectangularRegion@v2@security@vanetza@@V?$allocator@URectangularRegion@v2@security@vanetza@@@std@@@std@@V?$list@UTwoDLocation@v2@security@vanetza@@V?$allocator@UTwoDLocation@v2@security@vanetza@@@std@@@7@UIdentifiedRegion@234@@boost@@@variant@detail@1@@Z
	??$apply_visitor@V?$direct_assigner@V?$variant@V?$array@E$0M@@std@@$$V@boost@@@variant@detail@boost@@@?$variant@_KUTime64WithStandardDeviation@v2@security@vanetza@@IUThreeDLocation@234@V?$list@V?$array@E$02@std@@V?$allocator@V?$array@E$02@std@@@2@@std@@VIntX@234@V?$variant@$$TV?$array@E$07@std@@V?$recursive_wrapper@UCertificate@v2@security@vanetza@@@boost@@V?$list@UCertificate@v2@security@vanetza@@V?$allocator@UCertificate@v2@security@vanetza@@@std@@@2@UCertificateDigestWithOtherAlgorithm@v2@security@vanetza@@@boost@@V?$variant@V?$array@E$0M@@std@@$$V@boost@@V?$list@URecipientInfo@v2@security@vanetza@@V?$allocator@URecipientInfo@v2@security@vanetza@@@std@@@7@@boost@@QEGAA_NAEAV?$direct_assigner@V?$variant@V?$array@E$0M@@std@@$$V@boost@@@variant@detail@1@@Z
	??$apply_visitor@V?$direct_assigner@VIntX@v2@security@vanetza@@@variant@detail@boost@@@?$variant@_KUTime64WithStandardDeviation@v2@security@vanetza@@IUThreeDLocation@234@V?$list@V?$array@E$02@std@@V?$allocator@V?$array@E$02@std@@@2@@std@@VIntX@234@V?$variant@$$TV?$array@E$07@std@@V?$recursive_wrapper@UCertificate@v2@security@vanetza@@@boost@@V?$list@UCertificate@v2@security@vanetza@@V?$allocator@UCertificate@v2@security@vanetza@@@std@@@2@UCertificateDigestWithOtherAlgorithm@v2@security@vanetza@@@boost@@V?$variant@V?$array@E$0M@@std@@$$V@boost@@V?$list@URecipientInfo@v2@security@vanetza@@V?$allocator@URecipientInfo@v2@security@vanetza@@@std@@@7@@boost@@QEGAA_NAEAV?$direct_assigner@VIntX@v2@security@vanetza@@@variant@detail@1@@Z
	??$apply_visitor@V?$direct_assigner@W4VerificationReport@security@vanetza@@@variant@detail@boost@@@?$variant@Ublank@boost@@W4VerificationReport@security@vanetza@@@boost@@QEGAA_NAEAV?$direct_assigner@W4VerificationReport@security@vanetza@@@variant@detail@1@@Z
	??$apply_visitor@V?$direct_assigner@_K@variant@detail@boost@@@?$variant@_KUTime64WithStandardDeviation@v2@security@vanetza@@IUThreeDLocation@234@V?$list@V?$array@E$02@std@@V?$allocator@V?$array@E$02@std@@@2@@std@@VIntX@234@V?$variant@$$TV?$array@E$07@std@@V?$recursive_wrapper@UCertificate@v2@security@vanetza@@@boost@@V?$list@UCertificate@v2@security@vanetza@@V?$allocator@UCertificate@v2@security@vanetza@@@std@@@2@UCertificateDigestWithOtherAlgorithm@v2@security@vanetza@@@boost@@V?$variant@V?$array@E$0M@@std@@$$V@boost@@V?$list@URecipientInfo@v2@security@vanetza@@V?$allocator@URecipientInfo@v2@security@vanetza@@@std@@@7@@boost@@QEGAA_NAEAV?$direct_assigner@_K@variant@detail@1@@Z
	??$apply_visitor@V?$direct_mover@$$T@variant@detail@boost@@@?$variant@$$TV?$array@E$07@std@@V?$recursive_wrapper@UCertificate@v2@security@vanetza@@@boost@@V?$list@UCertificate@v2@security@vanetza@@V?$allocator@UCertificate@v2@security@vanetza@@@std@@@2@UCertificateDigestWithOtherAlgorithm@v2@security@vanetza@@@boost@@QEGAA_NAEAV?$direct_mover@$$T@variant@detail@1@@Z
	??$apply_visitor@V?$direct_mover@UEcdsaSignature@security@vanetza@@@variant@detail@boost@@@?$variant@UEcdsaSignature@security@vanetza@@VEcdsaSignatureFuture@23@@boost@@QEGAA_NAEAV?$direct_mover@UEcdsaSignature@security@vanetza@@@variant@detail@1@@Z
	??$apply_visitor@V?$direct_mover@UEciesEncryptedKey@v2@security@vanetza@@@variant@detail@boost@@@?$variant@UEciesEncryptedKey@v2@security@vanetza@@UOpaqueKey@234@@boost@@QEGAA_NAEAV?$direct_mover@UEciesEncryptedKey@v2@security@vanetza@@@variant@detail@1@@Z
	??$apply_visitor@V?$direct_mover@UOpaqueKey@v2@security@vanetza@@@variant@detail@boost@@@?$variant@UEciesEncryptedKey@v2@security@vanetza@@UOpaqueKey@234@@boost@@QEGAA_NAEAV?$direct_mover@UOpaqueKey@v2@security@vanetza@@@variant@detail@1@@Z
	??$apply_visitor@V?$direct_mover@UX_Coordinate_Only@security@vanetza@@@variant@detail@boost@@@?$variant@UX_Coordinate_Only@security@vanetza@@UCompressed_Lsb_Y_0@23@UCompressed_Lsb_Y_1@23@UUncompressed@23@@boost@@QEGAA_NAEAV?$direct_mover@UX_Coordinate_Only@security@vanetza@@@variant@detail@1@@Z
	??$apply_visitor@V?$direct_mover@V?$array@E$07@std@@@variant@detail@boost@@@?$variant@$$TV?$array@E$07@std@@V?$recursive_wrapper@UCertificate@v2@security@vanetza@@@boost@@V?$list@UCertificate@v2@security@vanetza@@V?$allocator@UCertificate@v2@security@vanetza@@@std@@@2@UCertificateDigestWithOtherAlgorithm@v2@security@vanetza@@@boost@@QEGAA_NAEAV?$direct_mover@V?$array@E$07@std@@@variant@detail@1@@Z
	??$apply_visitor@V?$direct_mover@VChunkPacket@vanetza@@@variant@detail@boost@@@?$variant@VChunkPacket@vanetza@@VCohesivePacket@2@@boost@@QEGAA_NAEAV?$direct_mover@VChunkPacket@vanetza@@@variant@detail@1@@Z
	??$apply_visitor@V?$direct_mover@VCohesivePacket@vanetza@@@variant@detail@boost@@@?$variant@VChunkPacket@vanetza@@VCohesivePacket@2@@boost@@QEGAA_NAEAV?$direct_mover@VCohesivePacket@vanetza@@@variant@detail@1@@Z
	??$apply_visitor@VEccPointLengthVisitor@security@vanetza@@@?$variant@UX_Coordinate_Only@security@vanetza@@UCompressed_Lsb_Y_0@23@UCompressed_Lsb_Y_1@23@UUncompressed@23@@boost@@QEGBA_KAEAVEccPointLengthVisitor@security@vanetza@@@Z
	??$apply_visitor@VEccPointVisitor@security@vanetza@@@?$variant@UX_Coordinate_Only@security@vanetza@@UCompressed_Lsb_Y_0@23@UCompressed_Lsb_Y_1@23@UUncompressed@23@@boost@@QEGBA?AV?$vector@EV?$allocator@E@std@@@std@@AEAVEccPointVisitor@security@vanetza@@@Z
	??$assign@PEAE$0A@@?$vector@EV?$allocator@E@std@@@std@@QEAAXPEAE0@Z
	??$assign@V?$_Array_const_iterator@E$0CA@@std@@$0A@@?$vector@EV?$allocator@E@std@@@std@@QEAAXV?$_Array_const_iterator@E$0CA@@1@0@Z
	??$assign@V?$_List_unchecked_const_iterator@V?$_List_val@U?$_List_simple_types@V?$array@E$02@std@@@std@@@std@@U_Iterator_base0@2@@std@@$0A@@?$list@V?$array@E$02@std@@V?$allocator@V?$array@E$02@std@@@2@@std@@QEAAXV?$_List_unchecked_const_iterator@V?$_List_val@U?$_List_simple_types@V?$array@E$02@std@@@std@@@std@@U_Iterator_base0@2@@1@0@Z
	??$assign@V?$_List_unchecked_const_iterator@V?$_List_val@U?$_List_simple_types@VIntX@v2@security@vanetza@@@std@@@std@@U_Iterator_base0@2@@std@@$0A@@?$list@VIntX@v2@security@vanetza@@V?$allocator@VIntX@v2@security@vanetza@@@std@@@std@@QEAAXV?$_List_unchecked_const_iterator@V?$_List_val@U?$_List_simple_types@VIntX@v2@security@vanetza@@@std@@@std@@U_Iterator_base0@2@@1@0@Z
	??$assign_impl@UCircularRegion@v2@security@vanetza@@@assigner@?$variant@UNoneRegion@v2@security@vanetza@@UCircularRegion@234@V?$list@URectangularRegion@v2@security@vanetza@@V?$allocator@URectangularRegion@v2@security@vanetza@@@std@@@std@@V?$list@UTwoDLocation@v2@security@vanetza@@V?$allocator@UTwoDLocation@v2@security@vanetza@@@std@@@7@UIdentifiedRegion@234@@boost@@IEBAXAEBUCircularRegion@v2@security@vanetza@@U?$bool_@$0A@@mpl@2@1U?$bool_@$00@82@@Z
	??$assign_impl@UCircularRegion@v2@security@vanetza@@@move_assigner@?$variant@UNoneRegion@v2@security@vanetza@@UCircularRegion@234@V?$list@URectangularRegion@v2@security@vanetza@@V?$allocator@URectangularRegion@v2@security@vanetza@@@std@@@std@@V?$list@UTwoDLocation@v2@security@vanetza@@V?$allocator@UTwoDLocation@v2@security@vanetza@@@std@@@7@UIdentifiedRegion@234@@boost@@AEBAXAEAUCircularRegion@v2@security@vanetza@@U?$bool_@$0A@@mpl@2@1U?$bool_@$00@82@@Z
	??$assign_impl@UThreeDLocation@v2@security@vanetza@@@move_assigner@?$variant@_KUTime64WithStandardDeviation@v2@security@vanetza@@IUThreeDLocation@234@V?$list@V?$array@E$02@std@@V?$allocator@V?$array@E$02@std@@@2@@std@@VIntX@234@V?$variant@$$TV?$array@E$07@std@@V?$recursive_wrapper@UCertificate@v2@security@vanetza@@@boost@@V?$list@UCertificate@v2@security@vanetza@@V?$allocator@UCertificate@v2@security@vanetza@@@std@@@2@UCertificateDigestWithOtherAlgorithm@v2@security@vanetza@@@boost@@V?$variant@V?$array@E$0M@@std@@$$V@boost@@V?$list@URecipientInfo@v2@security@vanetza@@V?$allocator@URecipientInfo@v2@security@vanetza@@@std@@@7@@boost@@AEBAXAEAUThreeDLocation@v2@security@vanetza@@U?$bool_@$0A@@mpl@2@1U?$bool_@$00@82@@Z
	??$assign_impl@V?$backup_holder@VChunkPacket@vanetza@@@variant@detail@boost@@@assigner@?$variant@VChunkPacket@vanetza@@VCohesivePacket@2@@boost@@IEBAXAEBV?$backup_holder@VChunkPacket@vanetza@@@variant@detail@2@U?$bool_@$0A@@mpl@2@11@Z
	??$assign_impl@V?$list@UCertificate@v2@security@vanetza@@V?$allocator@UCertificate@v2@security@vanetza@@@std@@@std@@@assigner@?$variant@$$TV?$array@E$07@std@@V?$recursive_wrapper@UCertificate@v2@security@vanetza@@@boost@@V?$list@UCertificate@v2@security@vanetza@@V?$allocator@UCertificate@v2@security@vanetza@@@std@@@2@UCertificateDigestWithOtherAlgorithm@v2@security@vanetza@@@boost@@IEBAXAEBV?$list@UCertificate@v2@security@vanetza@@V?$allocator@UCertificate@v2@security@vanetza@@@std@@@std@@U?$bool_@$0A@@mpl@2@1U?$bool_@$00@62@@Z
	??$assign_impl@V?$list@UCertificate@v2@security@vanetza@@V?$allocator@UCertificate@v2@security@vanetza@@@std@@@std@@@move_assigner@?$variant@$$TV?$array@E$07@std@@V?$recursive_wrapper@UCertificate@v2@security@vanetza@@@boost@@V?$list@UCertificate@v2@security@vanetza@@V?$allocator@UCertificate@v2@security@vanetza@@@std@@@2@UCertificateDigestWithOtherAlgorithm@v2@security@vanetza@@@boost@@AEBAXAEAV?$list@UCertificate@v2@security@vanetza@@V?$allocator@UCertificate@v2@security@vanetza@@@std@@@std@@U?$bool_@$0A@@mpl@2@1U?$bool_@$00@62@@Z
	??$assign_impl@V?$list@UItsAidSsp@v2@security@vanetza@@V?$allocator@UItsAidSsp@v2@security@vanetza@@@std@@@std@@@assigner@?$variant@UVerificationKey@v2@security@vanetza@@UEncryptionKey@234@USubjectAssurance@234@V?$variant@UX_Coordinate_Only@security@vanetza@@UCompressed_Lsb_Y_0@23@UCompressed_Lsb_Y_1@23@UUncompressed@23@@boost@@V?$list@VIntX@v2@security@vanetza@@V?$allocator@VIntX@v2@security@vanetza@@@std@@@std@@V?$list@UItsAidSsp@v2@security@vanetza@@V?$allocator@UItsAidSsp@v2@security@vanetza@@@std@@@std@@@boost@@IEBAXAEBV?$list@UItsAidSsp@v2@security@vanetza@@V?$allocator@UItsAidSsp@v2@security@vanetza@@@std@@@std@@U?$bool_@$0A@@mpl@2@1U?$bool_@$00@62@@Z
	??$assign_impl@V?$list@UItsAidSsp@v2@security@vanetza@@V?$allocator@UItsAidSsp@v2@security@vanetza@@@std@@@std@@@move_assigner@?$variant@UVerificationKey@v2@security@vanetza@@UEncryptionKey@234@USubjectAssurance@234@V?$variant@UX_Coordinate_Only@security@vanetza@@UCompressed_Lsb_Y_0@23@UCompressed_Lsb_Y_1@23@UUncompressed@23@@boost@@V?$list@VIntX@v2@security@vanetza@@V?$allocator@VIntX@v2@security@vanetza@@@std@@@std@@V?$list@UItsAidSsp@v2@security@vanetza@@V?$allocator@UItsAidSsp@v2@security@vanetza@@@std@@@std@@@boost@@AEBAXAEAV?$list@UItsAidSsp@v2@security@vanetza@@V?$allocator@UItsAidSsp@v2@security@vanetza@@@std@@@std@@U?$bool_@$0A@@mpl@2@1U?$bool_@$00@62@@Z
	??$assign_impl@V?$list@URecipientInfo@v2@security@vanetza@@V?$allocator@URecipientInfo@v2@security@vanetza@@@std@@@std@@@move_assigner@?$variant@_KUTime64WithStandardDeviation@v2@security@vanetza@@IUThreeDLocation@234@V?$list@V?$array@E$02@std@@V?$allocator@V?$array@E$02@std@@@2@@std@@VIntX@234@V?$variant@$$TV?$array@E$07@std@@V?$recursive_wrapper@UCertificate@v2@security@vanetza@@@boost@@V?$list@UCertificate@v2@security@vanetza@@V?$allocator@UCertificate@v2@security@vanetza@@@std@@@2@UCertificateDigestWithOtherAlgorithm@v2@security@vanetza@@@boost@@V?$variant@V?$array@E$0M@@std@@$$V@boost@@V?$list@URecipientInfo@v2@security@vanetza@@V?$allocator@URecipientInfo@v2@security@vanetza@@@std@@@7@@boost@@AEBAXAEAV?$list@URecipientInfo@v2@security@vanetza@@V?$allocator@URecipientInfo@v2@security@vanetza@@@std@@@std@@U?$bool_@$0A@@mpl@2@1U?$bool_@$00@62@@Z
	??$assign_impl@V?$list@URectangularRegion@v2@security@vanetza@@V?$allocator@URectangularRegion@v2@security@vanetza@@@std@@@std@@@assigner@?$variant@UNoneRegion@v2@security@vanetza@@UCircularRegion@234@V?$list@URectangularRegion@v2@security@vanetza@@V?$allocator@URectangularRegion@v2@security@vanetza@@@std@@@std@@V?$list@UTwoDLocation@v2@security@vanetza@@V?$allocator@UTwoDLocation@v2@security@vanetza@@@std@@@7@UIdentifiedRegion@234@@boost@@IEBAXAEBV?$list@URectangularRegion@v2@security@vanetza@@V?$allocator@URectangularRegion@v2@security@vanetza@@@std@@@std@@U?$bool_@$0A@@mpl@2@1U?$bool_@$00@62@@Z
	??$assign_impl@V?$list@URectangularRegion@v2@security@vanetza@@V?$allocator@URectangularRegion@v2@security@vanetza@@@std@@@std@@@move_assigner@?$variant@UNoneRegion@v2@security@vanetza@@UCircularRegion@234@V?$list@URectangularRegion@v2@security@vanetza@@V?$allocator@URectangularRegion@v2@security@vanetza@@@std@@@std@@V?$list@UTwoDLocation@v2@security@vanetza@@V?$allocator@UTwoDLocation@v2@security@vanetza@@@std@@@7@UIdentifiedRegion@234@@boost@@AEBAXAEAV?$list@URectangularRegion@v2@security@vanetza@@V?$allocator@URectangularRegion@v2@security@vanetza@@@std@@@std@@U?$bool_@$0A@@mpl@2@1U?$bool_@$00@62@@Z
	??$assign_impl@V?$list@UTwoDLocation@v2@security@vanetza@@V?$allocator@UTwoDLocation@v2@security@vanetza@@@std@@@std@@@assigner@?$variant@UNoneRegion@v2@security@vanetza@@UCircularRegion@234@V?$list@URectangularRegion@v2@security@vanetza@@V?$allocator@URectangularRegion@v2@security@vanetza@@@std@@@std@@V?$list@UTwoDLocation@v2@security@vanetza@@V?$allocator@UTwoDLocation@v2@security@vanetza@@@std@@@7@UIdentifiedRegion@234@@boost@@IEBAXAEBV?$list@UTwoDLocation@v2@security@vanetza@@V?$allocator@UTwoDLocation@v2@security@vanetza@@@std@@@std@@U?$bool_@$0A@@mpl@2@1U?$bool_@$00@62@@Z
	??$assign_impl@V?$list@UTwoDLocation@v2@security@vanetza@@V?$allocator@UTwoDLocation@v2@security@vanetza@@@std@@@std@@@move_assigner@?$variant@UNoneRegion@v2@security@vanetza@@UCircularRegion@234@V?$list@URectangularRegion@v2@security@vanetza@@V?$allocator@URectangularRegion@v2@security@vanetza@@@std@@@std@@V?$list@UTwoDLocation@v2@security@vanetza@@V?$allocator@UTwoDLocation@v2@security@vanetza@@@std@@@7@UIdentifiedRegion@234@@boost@@AEBAXAEAV?$list@UTwoDLocation@v2@security@vanetza@@V?$allocator@UTwoDLocation@v2@security@vanetza@@@std@@@std@@U?$bool_@$0A@@mpl@2@1U?$bool_@$00@62@@Z
	??$assign_impl@V?$list@V?$array@E$02@std@@V?$allocator@V?$array@E$02@std@@@2@@std@@@move_assigner@?$variant@_KUTime64WithStandardDeviation@v2@security@vanetza@@IUThreeDLocation@234@V?$list@V?$array@E$02@std@@V?$allocator@V?$array@E$02@std@@@2@@std@@VIntX@234@V?$variant@$$TV?$array@E$07@std@@V?$recursive_wrapper@UCertificate@v2@security@vanetza@@@boost@@V?$list@UCertificate@v2@security@vanetza@@V?$allocator@UCertificate@v2@security@vanetza@@@std@@@2@UCertificateDigestWithOtherAlgorithm@v2@security@vanetza@@@boost@@V?$variant@V?$array@E$0M@@std@@$$V@boost@@V?$list@URecipientInfo@v2@security@vanetza@@V?$allocator@URecipientInfo@v2@security@vanetza@@@std@@@7@@boost@@AEBAXAEAV?$list@V?$array@E$02@std@@V?$allocator@V?$array@E$02@std@@@2@@std@@U?$bool_@$0A@@mpl@2@1U?$bool_@$00@62@@Z
	??$assign_impl@V?$list@VIntX@v2@security@vanetza@@V?$allocator@VIntX@v2@security@vanetza@@@std@@@std@@@assigner@?$variant@UVerificationKey@v2@security@vanetza@@UEncryptionKey@234@USubjectAssurance@234@V?$variant@UX_Coordinate_Only@security@vanetza@@UCompressed_Lsb_Y_0@23@UCompressed_Lsb_Y_1@23@UUncompressed@23@@boost@@V?$list@VIntX@v2@security@vanetza@@V?$allocator@VIntX@v2@security@vanetza@@@std@@@std@@V?$list@UItsAidSsp@v2@security@vanetza@@V?$allocator@UItsAidSsp@v2@security@vanetza@@@std@@@std@@@boost@@IEBAXAEBV?$list@VIntX@v2@security@vanetza@@V?$allocator@VIntX@v2@security@vanetza@@@std@@@std@@U?$bool_@$0A@@mpl@2@1U?$bool_@$00@62@@Z
	??$assign_impl@V?$list@VIntX@v2@security@vanetza@@V?$allocator@VIntX@v2@security@vanetza@@@std@@@std@@@move_assigner@?$variant@UVerificationKey@v2@security@vanetza@@UEncryptionKey@234@USubjectAssurance@234@V?$variant@UX_Coordinate_Only@security@vanetza@@UCompressed_Lsb_Y_0@23@UCompressed_Lsb_Y_1@23@UUncompressed@23@@boost@@V?$list@VIntX@v2@security@vanetza@@V?$allocator@VIntX@v2@security@vanetza@@@std@@@std@@V?$list@UItsAidSsp@v2@security@vanetza@@V?$allocator@UItsAidSsp@v2@security@vanetza@@@std@@@std@@@boost@@AEBAXAEAV?$list@VIntX@v2@security@vanetza@@V?$allocator@VIntX@v2@security@vanetza@@@std@@@std@@U?$bool_@$0A@@mpl@2@1U?$bool_@$00@62@@Z
	??$assign_impl@V?$recursive_wrapper@UCertificate@v2@security@vanetza@@@boost@@@assigner@?$variant@$$TV?$array@E$07@std@@V?$recursive_wrapper@UCertificate@v2@security@vanetza@@@boost@@V?$list@UCertificate@v2@security@vanetza@@V?$allocator@UCertificate@v2@security@vanetza@@@std@@@2@UCertificateDigestWithOtherAlgorithm@v2@security@vanetza@@@boost@@IEBAXAEBV?$recursive_wrapper@UCertificate@v2@security@vanetza@@@2@U?$bool_@$0A@@mpl@2@1U?$bool_@$00@52@@Z
	??$assign_impl@V?$recursive_wrapper@UCertificate@v2@security@vanetza@@@boost@@@move_assigner@?$variant@$$TV?$array@E$07@std@@V?$recursive_wrapper@UCertificate@v2@security@vanetza@@@boost@@V?$list@UCertificate@v2@security@vanetza@@V?$allocator@UCertificate@v2@security@vanetza@@@std@@@2@UCertificateDigestWithOtherAlgorithm@v2@security@vanetza@@@boost@@AEBAXAEAV?$recursive_wrapper@UCertificate@v2@security@vanetza@@@2@U?$bool_@$0A@@mpl@2@1U?$bool_@$00@52@@Z
	??$assign_impl@V?$variant@$$TV?$array@E$07@std@@V?$recursive_wrapper@UCertificate@v2@security@vanetza@@@boost@@V?$list@UCertificate@v2@security@vanetza@@V?$allocator@UCertificate@v2@security@vanetza@@@std@@@2@UCertificateDigestWithOtherAlgorithm@v2@security@vanetza@@@boost@@@move_assigner@?$variant@_KUTime64WithStandardDeviation@v2@security@vanetza@@IUThreeDLocation@234@V?$list@V?$array@E$02@std@@V?$allocator@V?$array@E$02@std@@@2@@std@@VIntX@234@V?$variant@$$TV?$array@E$07@std@@V?$recursive_wrapper@UCertificate@v2@security@vanetza@@@boost@@V?$list@UCertificate@v2@security@vanetza@@V?$allocator@UCertificate@v2@security@vanetza@@@std@@@2@UCertificateDigestWithOtherAlgorithm@v2@security@vanetza@@@boost@@V?$variant@V?$array@E$0M@@std@@$$V@boost@@V?$list@URecipientInfo@v2@security@vanetza@@V?$allocator@URecipientInfo@v2@security@vanetza@@@std@@@7@@boost@@AEBAXAEAV?$variant@$$TV?$array@E$07@std@@V?$recursive_wrapper@UCertificate@v2@security@vanetza@@@boost@@V?$list@UCertificate@v2@security@vanetza@@V?$allocator@UCertificate@v2@security@vanetza@@@std@@@2@UCertificateDigestWithOtherAlgorithm@v2@security@vanetza@@@2@U?$bool_@$0A@@mpl@2@1U?$bool_@$00@52@@Z
	??$assign_impl@V?$variant@UNoneRegion@v2@security@vanetza@@UCircularRegion@234@V?$list@URectangularRegion@v2@security@vanetza@@V?$allocator@URectangularRegion@v2@security@vanetza@@@std@@@std@@V?$list@UTwoDLocation@v2@security@vanetza@@V?$allocator@UTwoDLocation@v2@security@vanetza@@@std@@@7@UIdentifiedRegion@234@@boost@@@assigner@?$variant@IUStartAndEndValidity@v2@security@vanetza@@UStartAndDurationValidity@234@V?$variant@UNoneRegion@v2@security@vanetza@@UCircularRegion@234@V?$list@URectangularRegion@v2@security@vanetza@@V?$allocator@URectangularRegion@v2@security@vanetza@@@std@@@std@@V?$list@UTwoDLocation@v2@security@vanetza@@V?$allocator@UTwoDLocation@v2@security@vanetza@@@std@@@7@UIdentifiedRegion@234@@boost@@@boost@@IEBAXAEBV?$variant@UNoneRegion@v2@security@vanetza@@UCircularRegion@234@V?$list@URectangularRegion@v2@security@vanetza@@V?$allocator@URectangularRegion@v2@security@vanetza@@@std@@@std@@V?$list@UTwoDLocation@v2@security@vanetza@@V?$allocator@UTwoDLocation@v2@security@vanetza@@@std@@@7@UIdentifiedRegion@234@@2@U?$bool_@$0A@@mpl@2@1U?$bool_@$00@52@@Z
	??$assign_impl@V?$variant@UNoneRegion@v2@security@vanetza@@UCircularRegion@234@V?$list@URectangularRegion@v2@security@vanetza@@V?$allocator@URectangularRegion@v2@security@vanetza@@@std@@@std@@V?$list@UTwoDLocation@v2@security@vanetza@@V?$allocator@UTwoDLocation@v2@security@vanetza@@@std@@@7@UIdentifiedRegion@234@@boost@@@move_assigner@?$variant@IUStartAndEndValidity@v2@security@vanetza@@UStartAndDurationValidity@234@V?$variant@UNoneRegion@v2@security@vanetza@@UCircularRegion@234@V?$list@URectangularRegion@v2@security@vanetza@@V?$allocator@URectangularRegion@v2@security@vanetza@@@std@@@std@@V?$list@UTwoDLocation@v2@security@vanetza@@V?$allocator@UTwoDLocation@v2@security@vanetza@@@std@@@7@UIdentifiedRegion@234@@boost@@@boost@@AEBAXAEAV?$variant@UNoneRegion@v2@security@vanetza@@UCircularRegion@234@V?$list@URectangularRegion@v2@security@vanetza@@V?$allocator@URectangularRegion@v2@security@vanetza@@@std@@@std@@V?$list@UTwoDLocation@v2@security@vanetza@@V?$allocator@UTwoDLocation@v2@security@vanetza@@@std@@@7@UIdentifiedRegion@234@@2@U?$bool_@$0A@@mpl@2@1U?$bool_@$00@52@@Z
	??$assign_impl@VChunkPacket@vanetza@@@assigner@?$variant@VChunkPacket@vanetza@@VCohesivePacket@2@@boost@@IEBAXAEBVChunkPacket@vanetza@@U?$bool_@$0A@@mpl@2@11@Z
	??$atomic_compare_exchange@J@details@Concurrency@@YAJAEAU?$atomic@J@std@@JJ@Z
	??$atomic_exchange@J@details@Concurrency@@YAJAEAU?$atomic@J@std@@J@Z
	??$backup_assign_impl@VChunkPacket@vanetza@@@?$backup_assigner@V?$variant@VChunkPacket@vanetza@@VCohesivePacket@2@@boost@@@variant@detail@boost@@AEAAXAEAV?$backup_holder@VChunkPacket@vanetza@@@123@U?$bool_@$0A@@mpl@3@J@Z
	??$backup_assign_impl@VChunkPacket@vanetza@@@?$backup_assigner@V?$variant@VChunkPacket@vanetza@@VCohesivePacket@2@@boost@@@variant@detail@boost@@AEAAXAEAVChunkPacket@vanetza@@U?$bool_@$0A@@mpl@3@H@Z
	??$backup_assign_impl@VCohesivePacket@vanetza@@@?$backup_assigner@V?$variant@VChunkPacket@vanetza@@VCohesivePacket@2@@boost@@@variant@detail@boost@@AEAAXAEAVCohesivePacket@vanetza@@U?$bool_@$00@mpl@3@H@Z
	??$call_member_close@V?$linked_streambuf@DU?$char_traits@D@std@@@detail@iostreams@boost@@@detail@iostreams@boost@@YA?AV?$member_close_operation@V?$linked_streambuf@DU?$char_traits@D@std@@@detail@iostreams@boost@@@012@AEAV?$linked_streambuf@DU?$char_traits@D@std@@@012@H@Z
	??$call_once@V<lambda_0e64988457575224279dcb6d61e61bdd>@@$$V@std@@YAXAEAUonce_flag@0@$$QEAV<lambda_0e64988457575224279dcb6d61e61bdd>@@@Z
	??$call_put_head@DU?$char_traits@D@std@@$$CBG@detail@io@boost@@YAXAEAV?$basic_ostream@DU?$char_traits@D@std@@@std@@PEBX@Z
	??$call_put_last@DU?$char_traits@D@std@@$$CBG@detail@io@boost@@YAXAEAV?$basic_ostream@DU?$char_traits@D@std@@@std@@PEBX@Z
	??$call_reset@V?$optional@V?$concept_adapter@Vbyte_buffer_sink@vanetza@@@detail@iostreams@boost@@@detail@iostreams@boost@@@detail@iostreams@boost@@YA?AV?$reset_operation@V?$optional@V?$concept_adapter@Vbyte_buffer_sink@vanetza@@@detail@iostreams@boost@@@detail@iostreams@boost@@@012@AEAV?$optional@V?$concept_adapter@Vbyte_buffer_sink@vanetza@@@detail@iostreams@boost@@@012@@Z
	??$cast_storage@V?$variant@UX_Coordinate_Only@security@vanetza@@UCompressed_Lsb_Y_0@23@UCompressed_Lsb_Y_1@23@UUncompressed@23@@boost@@@variant@detail@boost@@YAAEBV?$variant@UX_Coordinate_Only@security@vanetza@@UCompressed_Lsb_Y_0@23@UCompressed_Lsb_Y_1@23@UUncompressed@23@@2@PEBX@Z
	??$clear_and_dispose@U?$node_disposer@U?$heap_node@UExpiry@CertificateCache@v2@security@vanetza@@$00@detail@heap@boost@@U?$heap_node_base@$0A@@234@V?$allocator@U?$parent_pointing_heap_node@UExpiry@CertificateCache@v2@security@vanetza@@@detail@heap@boost@@@std@@@detail@heap@boost@@@?$list_impl@U?$bhtraits@U?$heap_node_base@$0A@@detail@heap@boost@@U?$list_node_traits@PEAX@intrusive@4@$00Udft_tag@64@$00@intrusive@boost@@_K$00X@intrusive@boost@@QEAAXU?$node_disposer@U?$heap_node@UExpiry@CertificateCache@v2@security@vanetza@@$00@detail@heap@boost@@U?$heap_node_base@$0A@@234@V?$allocator@U?$parent_pointing_heap_node@UExpiry@CertificateCache@v2@security@vanetza@@@detail@heap@boost@@@std@@@detail@heap@2@@Z
	??$clear_flags@H@detail@iostreams@boost@@YA?AV?$clear_flags_operation@H@012@AEAH@Z
	??$clear_subtree@V?$allocator@U?$parent_pointing_heap_node@UExpiry@CertificateCache@v2@security@vanetza@@@detail@heap@boost@@@std@@@?$heap_node@UExpiry@CertificateCache@v2@security@vanetza@@$00@detail@heap@boost@@QEAAXAEAV?$allocator@U?$parent_pointing_heap_node@UExpiry@CertificateCache@v2@security@vanetza@@@detail@heap@boost@@@std@@@Z
	??$close@Vbyte_buffer_sink@vanetza@@@iostreams@boost@@YAXAEAVbyte_buffer_sink@vanetza@@H@Z
	??$close_all@Vbyte_buffer_sink@vanetza@@@detail@iostreams@boost@@YAXAEAVbyte_buffer_sink@vanetza@@@Z
	??$const_or_not@V?$ctype@D@std@@@detail@io@boost@@YAAEBV?$ctype@D@std@@AEBV34@@Z
	??$construct_impl@V?$backup_holder@VChunkPacket@vanetza@@@variant@detail@boost@@@?$backup_assigner@V?$variant@VChunkPacket@vanetza@@VCohesivePacket@2@@boost@@@variant@detail@boost@@CAXPEAXPEBX@Z
	??$construct_impl@VChunkPacket@vanetza@@@?$backup_assigner@V?$variant@VChunkPacket@vanetza@@VCohesivePacket@2@@boost@@@variant@detail@boost@@CAXPEAXPEBX@Z
	??$convert_construct@$$CBV?$variant@USecuredMessage@v2@security@vanetza@@U1v3@34@@boost@@@?$variant@AEBUSecuredMessage@v2@security@vanetza@@AEBU1v3@34@@boost@@AEAAXAEBV?$variant@USecuredMessage@v2@security@vanetza@@U1v3@34@@1@JU?$bool_@$00@mpl@1@@Z
	??$convert_endian@E$00$0A@@detail@vanetza@@YAEAEBE@Z
	??$convert_endian@F$00$0A@@detail@vanetza@@YAFAEBF@Z
	??$convert_endian@G$00$0A@@detail@vanetza@@YAGAEBG@Z
	??$convert_endian@I$00$0A@@detail@vanetza@@YAIAEBI@Z
	??$convert_endian@_K$00$0A@@detail@vanetza@@YA_KAEB_K@Z
	??$deserialize@E@vanetza@@YAXAEAVInputArchive@0@AEAE@Z
	??$deserialize@F@vanetza@@YAXAEAVInputArchive@0@AEAF@Z
	??$deserialize@G@vanetza@@YAXAEAVInputArchive@0@AEAG@Z
	??$deserialize@I@vanetza@@YAXAEAVInputArchive@0@AEAI@Z
	??$deserialize@UCertificate@v2@security@vanetza@@$$V@v2@security@vanetza@@YA_KAEAVInputArchive@2@AEAV?$list@UCertificate@v2@security@vanetza@@V?$allocator@UCertificate@v2@security@vanetza@@@std@@@std@@@Z
	??$deserialize@UItsAidSsp@v2@security@vanetza@@$$V@v2@security@vanetza@@YA_KAEAVInputArchive@2@AEAV?$list@UItsAidSsp@v2@security@vanetza@@V?$allocator@UItsAidSsp@v2@security@vanetza@@@std@@@std@@@Z
	??$deserialize@URecipientInfo@v2@security@vanetza@@AEAW4SymmetricAlgorithm@234@@v2@security@vanetza@@YA_KAEAVInputArchive@2@AEAV?$list@URecipientInfo@v2@security@vanetza@@V?$allocator@URecipientInfo@v2@security@vanetza@@@std@@@std@@AEAW4SymmetricAlgorithm@012@@Z
	??$deserialize@V?$unit@U?$list@U?$dim@Ulength_base_dimension@units@boost@@V?$static_rational@$00$00@23@@units@boost@@Udimensionless_type@23@@units@boost@@U?$homogeneous_system@U?$list@Umeter_base_unit@si@units@boost@@U?$list@U?$scaled_base_unit@Ugram_base_unit@cgs@units@boost@@U?$scale@$09V?$static_rational@$02$00@units@boost@@@34@@units@boost@@U?$list@Usecond_base_unit@si@units@boost@@U?$list@Uampere_base_unit@si@units@boost@@U?$list@Ukelvin_base_unit@si@units@boost@@U?$list@Umole_base_unit@si@units@boost@@U?$list@Ucandela_base_unit@si@units@boost@@U?$list@Uradian_base_unit@angle@units@boost@@U?$list@Usteradian_base_unit@angle@units@boost@@Udimensionless_type@34@@34@@34@@34@@34@@34@@34@@23@@34@@units@boost@@@23@X@units@boost@@G@vanetza@@YAXAEAVInputArchive@0@AEAV?$quantity@V?$unit@U?$list@U?$dim@Ulength_base_dimension@units@boost@@V?$static_rational@$00$00@23@@units@boost@@Udimensionless_type@23@@units@boost@@U?$homogeneous_system@U?$list@Umeter_base_unit@si@units@boost@@U?$list@U?$scaled_base_unit@Ugram_base_unit@cgs@units@boost@@U?$scale@$09V?$static_rational@$02$00@units@boost@@@34@@units@boost@@U?$list@Usecond_base_unit@si@units@boost@@U?$list@Uampere_base_unit@si@units@boost@@U?$list@Ukelvin_base_unit@si@units@boost@@U?$list@Umole_base_unit@si@units@boost@@U?$list@Ucandela_base_unit@si@units@boost@@U?$list@Uradian_base_unit@angle@units@boost@@U?$list@Usteradian_base_unit@angle@units@boost@@Udimensionless_type@34@@34@@34@@34@@34@@34@@34@@23@@34@@units@boost@@@23@X@units@boost@@G@units@boost@@@Z
	??$deserialize@V?$unit@U?$list@U?$dim@Uplane_angle_base_dimension@units@boost@@V?$static_rational@$00$00@23@@units@boost@@Udimensionless_type@23@@units@boost@@U?$heterogeneous_system@U?$heterogeneous_system_impl@U?$list@U?$heterogeneous_system_dim@Udegree_base_unit@angle@units@boost@@V?$static_rational@$00$00@34@@units@boost@@Udimensionless_type@23@@units@boost@@U?$list@U?$dim@Uplane_angle_base_dimension@units@boost@@V?$static_rational@$00$00@23@@units@boost@@Udimensionless_type@23@@23@U?$list@U?$scale_list_dim@U?$scale@$09V?$static_rational@$0?6$00@units@boost@@@units@boost@@@units@boost@@Udimensionless_type@23@@23@@units@boost@@@23@X@units@boost@@H@vanetza@@YAXAEAVInputArchive@0@AEAV?$quantity@V?$unit@U?$list@U?$dim@Uplane_angle_base_dimension@units@boost@@V?$static_rational@$00$00@23@@units@boost@@Udimensionless_type@23@@units@boost@@U?$heterogeneous_system@U?$heterogeneous_system_impl@U?$list@U?$heterogeneous_system_dim@Udegree_base_unit@angle@units@boost@@V?$static_rational@$00$00@34@@units@boost@@Udimensionless_type@23@@units@boost@@U?$list@U?$dim@Uplane_angle_base_dimension@units@boost@@V?$static_rational@$00$00@23@@units@boost@@Udimensionless_type@23@@23@U?$list@U?$scale_list_dim@U?$scale@$09V?$static_rational@$0?6$00@units@boost@@@units@boost@@@units@boost@@Udimensionless_type@23@@23@@units@boost@@@23@X@units@boost@@H@units@boost@@@Z
	??$deserialize@V?$variant@IUStartAndEndValidity@v2@security@vanetza@@UStartAndDurationValidity@234@V?$variant@UNoneRegion@v2@security@vanetza@@UCircularRegion@234@V?$list@URectangularRegion@v2@security@vanetza@@V?$allocator@URectangularRegion@v2@security@vanetza@@@std@@@std@@V?$list@UTwoDLocation@v2@security@vanetza@@V?$allocator@UTwoDLocation@v2@security@vanetza@@@std@@@7@UIdentifiedRegion@234@@boost@@@boost@@$$V@v2@security@vanetza@@YA_KAEAVInputArchive@2@AEAV?$list@V?$variant@IUStartAndEndValidity@v2@security@vanetza@@UStartAndDurationValidity@234@V?$variant@UNoneRegion@v2@security@vanetza@@UCircularRegion@234@V?$list@URectangularRegion@v2@security@vanetza@@V?$allocator@URectangularRegion@v2@security@vanetza@@@std@@@std@@V?$list@UTwoDLocation@v2@security@vanetza@@V?$allocator@UTwoDLocation@v2@security@vanetza@@@std@@@7@UIdentifiedRegion@234@@boost@@@boost@@V?$allocator@V?$variant@IUStartAndEndValidity@v2@security@vanetza@@UStartAndDurationValidity@234@V?$variant@UNoneRegion@v2@security@vanetza@@UCircularRegion@234@V?$list@URectangularRegion@v2@security@vanetza@@V?$allocator@URectangularRegion@v2@security@vanetza@@@std@@@std@@V?$list@UTwoDLocation@v2@security@vanetza@@V?$allocator@UTwoDLocation@v2@security@vanetza@@@std@@@7@UIdentifiedRegion@234@@boost@@@boost@@@std@@@std@@@Z
	??$deserialize@V?$variant@USignature@v2@security@vanetza@@$$V@boost@@$$V@v2@security@vanetza@@YA_KAEAVInputArchive@2@AEAV?$list@V?$variant@USignature@v2@security@vanetza@@$$V@boost@@V?$allocator@V?$variant@USignature@v2@security@vanetza@@$$V@boost@@@std@@@std@@@Z
	??$deserialize@V?$variant@UVerificationKey@v2@security@vanetza@@UEncryptionKey@234@USubjectAssurance@234@V?$variant@UX_Coordinate_Only@security@vanetza@@UCompressed_Lsb_Y_0@23@UCompressed_Lsb_Y_1@23@UUncompressed@23@@boost@@V?$list@VIntX@v2@security@vanetza@@V?$allocator@VIntX@v2@security@vanetza@@@std@@@std@@V?$list@UItsAidSsp@v2@security@vanetza@@V?$allocator@UItsAidSsp@v2@security@vanetza@@@std@@@std@@@boost@@$$V@v2@security@vanetza@@YA_KAEAVInputArchive@2@AEAV?$list@V?$variant@UVerificationKey@v2@security@vanetza@@UEncryptionKey@234@USubjectAssurance@234@V?$variant@UX_Coordinate_Only@security@vanetza@@UCompressed_Lsb_Y_0@23@UCompressed_Lsb_Y_1@23@UUncompressed@23@@boost@@V?$list@VIntX@v2@security@vanetza@@V?$allocator@VIntX@v2@security@vanetza@@@std@@@std@@V?$list@UItsAidSsp@v2@security@vanetza@@V?$allocator@UItsAidSsp@v2@security@vanetza@@@std@@@std@@@boost@@V?$allocator@V?$variant@UVerificationKey@v2@security@vanetza@@UEncryptionKey@234@USubjectAssurance@234@V?$variant@UX_Coordinate_Only@security@vanetza@@UCompressed_Lsb_Y_0@23@UCompressed_Lsb_Y_1@23@UUncompressed@23@@boost@@V?$list@VIntX@v2@security@vanetza@@V?$allocator@VIntX@v2@security@vanetza@@@std@@@std@@V?$list@UItsAidSsp@v2@security@vanetza@@V?$allocator@UItsAidSsp@v2@security@vanetza@@@std@@@std@@@boost@@@std@@@std@@@Z
	??$deserialize@VIntX@v2@security@vanetza@@$$V@v2@security@vanetza@@YA_KAEAVInputArchive@2@AEAV?$list@VIntX@v2@security@vanetza@@V?$allocator@VIntX@v2@security@vanetza@@@std@@@std@@@Z
	??$deserialize@W4EccPointType@v2@security@vanetza@@@vanetza@@YAXAEAVInputArchive@0@AEAW4EccPointType@v2@security@0@@Z
	??$deserialize@W4HeaderFieldType@v2@security@vanetza@@@vanetza@@YAXAEAVInputArchive@0@AEAW4HeaderFieldType@v2@security@0@@Z
	??$deserialize@W4PayloadType@v2@security@vanetza@@@vanetza@@YAXAEAVInputArchive@0@AEAW4PayloadType@v2@security@0@@Z
	??$deserialize@W4PublicKeyAlgorithm@v2@security@vanetza@@@vanetza@@YAXAEAVInputArchive@0@AEAW4PublicKeyAlgorithm@v2@security@0@@Z
	??$deserialize@W4RegionDictionary@v2@security@vanetza@@@vanetza@@YAXAEAVInputArchive@0@AEAW4RegionDictionary@v2@security@0@@Z
	??$deserialize@W4RegionType@v2@security@vanetza@@@vanetza@@YAXAEAVInputArchive@0@AEAW4RegionType@v2@security@0@@Z
	??$deserialize@W4SignerInfoType@v2@security@vanetza@@@vanetza@@YAXAEAVInputArchive@0@AEAW4SignerInfoType@v2@security@0@@Z
	??$deserialize@W4SubjectAttributeType@v2@security@vanetza@@@vanetza@@YAXAEAVInputArchive@0@AEAW4SubjectAttributeType@v2@security@0@@Z
	??$deserialize@W4SubjectType@v2@security@vanetza@@@vanetza@@YAXAEAVInputArchive@0@AEAW4SubjectType@v2@security@0@@Z
	??$deserialize@W4SymmetricAlgorithm@v2@security@vanetza@@@vanetza@@YAXAEAVInputArchive@0@AEAW4SymmetricAlgorithm@v2@security@0@@Z
	??$deserialize@W4TrailerFieldType@v2@security@vanetza@@@vanetza@@YAXAEAVInputArchive@0@AEAW4TrailerFieldType@v2@security@0@@Z
	??$deserialize@W4ValidityRestrictionType@v2@security@vanetza@@@vanetza@@YAXAEAVInputArchive@0@AEAW4ValidityRestrictionType@v2@security@0@@Z
	??$deserialize@_K@vanetza@@YAXAEAVInputArchive@0@AEA_K@Z
	??$destroy@U?$pair@$$CBV?$basic_string@DU?$char_traits@D@std@@V?$allocator@D@2@@std@@V?$function@$$A6A?AV?$unique_ptr@VBackend@security@vanetza@@U?$default_delete@VBackend@security@vanetza@@@std@@@std@@XZ@2@@std@@@?$_Default_allocator_traits@V?$allocator@U?$_Tree_node@U?$pair@$$CBV?$basic_string@DU?$char_traits@D@std@@V?$allocator@D@2@@std@@V?$function@$$A6A?AV?$unique_ptr@VBackend@security@vanetza@@U?$default_delete@VBackend@security@vanetza@@@std@@@std@@XZ@2@@std@@PEAX@std@@@std@@@std@@SAXAEAV?$allocator@U?$_Tree_node@U?$pair@$$CBV?$basic_string@DU?$char_traits@D@std@@V?$allocator@D@2@@std@@V?$function@$$A6A?AV?$unique_ptr@VBackend@security@vanetza@@U?$default_delete@VBackend@security@vanetza@@@std@@@std@@XZ@2@@std@@PEAX@std@@@1@QEAU?$pair@$$CBV?$basic_string@DU?$char_traits@D@std@@V?$allocator@D@2@@std@@V?$function@$$A6A?AV?$unique_ptr@VBackend@security@vanetza@@U?$default_delete@VBackend@security@vanetza@@@std@@@std@@XZ@2@@1@@Z
	??$destroy_node@U?$parent_pointing_heap_node@UExpiry@CertificateCache@v2@security@vanetza@@@detail@heap@boost@@@detail@heap@boost@@YAXAEAU?$parent_pointing_heap_node@UExpiry@CertificateCache@v2@security@vanetza@@@012@@Z
	??$emplace@AEAV?$array@E$07@std@@UCertificate@v3@security@vanetza@@@?$_Hash@V?$_Umap_traits@V?$array@E$07@std@@UCertificate@v3@security@vanetza@@V?$_Uhash_compare@V?$array@E$07@std@@U?$hash@V?$array@E$07@std@@@2@U?$equal_to@V?$array@E$07@std@@@2@@2@V?$allocator@U?$pair@$$CBV?$array@E$07@std@@UCertificate@v3@security@vanetza@@@std@@@2@$0A@@std@@@std@@QEAA?AU?$pair@V?$_List_iterator@V?$_List_val@U?$_List_simple_types@U?$pair@$$CBV?$array@E$07@std@@UCertificate@v3@security@vanetza@@@std@@@std@@@std@@@std@@_N@1@AEAV?$array@E$07@1@$$QEAUCertificate@v3@security@vanetza@@@Z
	??$emplace@AEBV?$array@E$02@std@@AEAV?$_List_iterator@V?$_List_val@U?$_List_simple_types@V?$array@E$02@std@@@std@@@std@@@2@@?$_Hash@V?$_Umap_traits@V?$array@E$02@std@@V?$_List_iterator@V?$_List_val@U?$_List_simple_types@V?$array@E$02@std@@@std@@@std@@@2@V?$_Uhash_compare@V?$array@E$02@std@@U?$hash@V?$array@E$02@std@@@2@U?$equal_to@V?$array@E$02@std@@@2@@2@V?$allocator@U?$pair@$$CBV?$array@E$02@std@@V?$_List_iterator@V?$_List_val@U?$_List_simple_types@V?$array@E$02@std@@@std@@@std@@@2@@std@@@2@$0A@@std@@@std@@QEAA?AU?$pair@V?$_List_iterator@V?$_List_val@U?$_List_simple_types@U?$pair@$$CBV?$array@E$02@std@@V?$_List_iterator@V?$_List_val@U?$_List_simple_types@V?$array@E$02@std@@@std@@@std@@@2@@std@@@std@@@std@@@std@@_N@1@AEBV?$array@E$02@1@AEAV?$_List_iterator@V?$_List_val@U?$_List_simple_types@V?$array@E$02@std@@@std@@@std@@@1@@Z
	??$emplace@AEBV?$array@E$07@std@@@?$_Hash@V?$_Uset_traits@V?$array@E$07@std@@V?$_Uhash_compare@V?$array@E$07@std@@U?$hash@V?$array@E$07@std@@@2@U?$equal_to@V?$array@E$07@std@@@2@@2@V?$allocator@V?$array@E$07@std@@@2@$0A@@std@@@std@@QEAA?AU?$pair@V?$_List_const_iterator@V?$_List_val@U?$_List_simple_types@V?$array@E$07@std@@@std@@@std@@@std@@_N@1@AEBV?$array@E$07@1@@Z
	??$emplace@V?$array@E$02@std@@AEAV?$_List_iterator@V?$_List_val@U?$_List_simple_types@U?$pair@$$CBV?$array@E$07@std@@UCertificate@v3@security@vanetza@@@std@@@std@@@std@@@2@@?$_Hash@V?$_Umap_traits@V?$array@E$02@std@@V?$_List_iterator@V?$_List_val@U?$_List_simple_types@U?$pair@$$CBV?$array@E$07@std@@UCertificate@v3@security@vanetza@@@std@@@std@@@std@@@2@V?$_Uhash_compare@V?$array@E$02@std@@U?$hash@V?$array@E$02@std@@@2@U?$equal_to@V?$array@E$02@std@@@2@@2@V?$allocator@U?$pair@$$CBV?$array@E$02@std@@V?$_List_iterator@V?$_List_val@U?$_List_simple_types@U?$pair@$$CBV?$array@E$07@std@@UCertificate@v3@security@vanetza@@@std@@@std@@@std@@@2@@std@@@2@$0A@@std@@@std@@QEAA?AU?$pair@V?$_List_iterator@V?$_List_val@U?$_List_simple_types@U?$pair@$$CBV?$array@E$02@std@@V?$_List_iterator@V?$_List_val@U?$_List_simple_types@U?$pair@$$CBV?$array@E$07@std@@UCertificate@v3@security@vanetza@@@std@@@std@@@std@@@2@@std@@@std@@@std@@@std@@_N@1@$$QEAV?$array@E$02@1@AEAV?$_List_iterator@V?$_List_val@U?$_List_simple_types@U?$pair@$$CBV?$array@E$07@std@@UCertificate@v3@security@vanetza@@@std@@@std@@@std@@@1@@Z
	??$endian_cast@$00E@vanetza@@YA?AV?$EndianType@E$00@0@E@Z
	??$endian_cast@$00F@vanetza@@YA?AV?$EndianType@F$00@0@F@Z
	??$endian_cast@$00G@vanetza@@YA?AV?$EndianType@G$00@0@G@Z
	??$endian_cast@$00I@vanetza@@YA?AV?$EndianType@I$00@0@I@Z
	??$endian_cast@$00_K@vanetza@@YA?AV?$EndianType@_K$00@0@_K@Z
	??$execute_all@V?$member_close_operation@V?$linked_streambuf@DU?$char_traits@D@std@@@detail@iostreams@boost@@@detail@iostreams@boost@@@detail@iostreams@boost@@YAHV?$member_close_operation@V?$linked_streambuf@DU?$char_traits@D@std@@@detail@iostreams@boost@@@012@@Z
	??$execute_all@V?$member_close_operation@V?$linked_streambuf@DU?$char_traits@D@std@@@detail@iostreams@boost@@@detail@iostreams@boost@@V1234@@detail@iostreams@boost@@YAHV?$member_close_operation@V?$linked_streambuf@DU?$char_traits@D@std@@@detail@iostreams@boost@@@012@0@Z
	??$execute_all@V?$member_close_operation@V?$linked_streambuf@DU?$char_traits@D@std@@@detail@iostreams@boost@@@detail@iostreams@boost@@V1234@V?$reset_operation@V?$optional@V?$concept_adapter@Vbyte_buffer_sink@vanetza@@@detail@iostreams@boost@@@detail@iostreams@boost@@@234@@detail@iostreams@boost@@YAHV?$member_close_operation@V?$linked_streambuf@DU?$char_traits@D@std@@@detail@iostreams@boost@@@012@0V?$reset_operation@V?$optional@V?$concept_adapter@Vbyte_buffer_sink@vanetza@@@detail@iostreams@boost@@@detail@iostreams@boost@@@012@@Z
	??$execute_all@V?$member_close_operation@V?$linked_streambuf@DU?$char_traits@D@std@@@detail@iostreams@boost@@@detail@iostreams@boost@@V1234@V?$reset_operation@V?$optional@V?$concept_adapter@Vbyte_buffer_sink@vanetza@@@detail@iostreams@boost@@@detail@iostreams@boost@@@234@V?$clear_flags_operation@H@234@@detail@iostreams@boost@@YAHV?$member_close_operation@V?$linked_streambuf@DU?$char_traits@D@std@@@detail@iostreams@boost@@@012@0V?$reset_operation@V?$optional@V?$concept_adapter@Vbyte_buffer_sink@vanetza@@@detail@iostreams@boost@@@detail@iostreams@boost@@@012@V?$clear_flags_operation@H@012@@Z
	??$feed_impl@DU?$char_traits@D@std@@V?$allocator@D@2@AEBU?$put_holder@DU?$char_traits@D@std@@@detail@io@boost@@@detail@io@boost@@YAAEAV?$basic_format@DU?$char_traits@D@std@@V?$allocator@D@2@@2@AEAV32@AEBU?$put_holder@DU?$char_traits@D@std@@@012@@Z
	??$fill@PEAU?$format_item@DU?$char_traits@D@std@@V?$allocator@D@2@@detail@io@boost@@U1234@@std@@YAXQEAU?$format_item@DU?$char_traits@D@std@@V?$allocator@D@2@@detail@io@boost@@0AEBU1234@@Z
	??$fill@PEAV?$_List_unchecked_const_iterator@V?$_List_val@U?$_List_simple_types@V?$array@E$07@std@@@std@@@std@@U_Iterator_base0@2@@std@@V12@@std@@YAXQEAV?$_List_unchecked_const_iterator@V?$_List_val@U?$_List_simple_types@V?$array@E$07@std@@@std@@@std@@U_Iterator_base0@2@@0@0AEBV10@@Z
	??$fill@PEAV?$_List_unchecked_iterator@V?$_List_val@U?$_List_simple_types@U?$pair@$$CBV?$array@E$02@std@@V?$_List_iterator@V?$_List_val@U?$_List_simple_types@U?$pair@$$CBV?$array@E$07@std@@UCertificate@v3@security@vanetza@@@std@@@std@@@std@@@2@@std@@@std@@@std@@@std@@V12@@std@@YAXQEAV?$_List_unchecked_iterator@V?$_List_val@U?$_List_simple_types@U?$pair@$$CBV?$array@E$02@std@@V?$_List_iterator@V?$_List_val@U?$_List_simple_types@U?$pair@$$CBV?$array@E$07@std@@UCertificate@v3@security@vanetza@@@std@@@std@@@std@@@2@@std@@@std@@@std@@@0@0AEBV10@@Z
	??$fill@PEAV?$_List_unchecked_iterator@V?$_List_val@U?$_List_simple_types@U?$pair@$$CBV?$array@E$02@std@@V?$_List_iterator@V?$_List_val@U?$_List_simple_types@V?$array@E$02@std@@@std@@@std@@@2@@std@@@std@@@std@@@std@@V12@@std@@YAXQEAV?$_List_unchecked_iterator@V?$_List_val@U?$_List_simple_types@U?$pair@$$CBV?$array@E$02@std@@V?$_List_iterator@V?$_List_val@U?$_List_simple_types@V?$array@E$02@std@@@std@@@std@@@2@@std@@@std@@@std@@@0@0AEBV10@@Z
	??$fill@PEAV?$_List_unchecked_iterator@V?$_List_val@U?$_List_simple_types@U?$pair@$$CBV?$array@E$07@std@@UCertificate@v3@security@vanetza@@@std@@@std@@@std@@@std@@V12@@std@@YAXQEAV?$_List_unchecked_iterator@V?$_List_val@U?$_List_simple_types@U?$pair@$$CBV?$array@E$07@std@@UCertificate@v3@security@vanetza@@@std@@@std@@@std@@@0@0AEBV10@@Z
	??$find_max_child@V?$list@U?$heap_node_base@$0A@@detail@heap@boost@@U?$constant_time_size@$00@intrusive@4@@intrusive@boost@@U?$parent_pointing_heap_node@UExpiry@CertificateCache@v2@security@vanetza@@@detail@heap@3@U?$greater@UExpiry@CertificateCache@v2@security@vanetza@@@std@@@detail@heap@boost@@YAPEAU?$parent_pointing_heap_node@UExpiry@CertificateCache@v2@security@vanetza@@@012@AEBV?$list@U?$heap_node_base@$0A@@detail@heap@boost@@U?$constant_time_size@$00@intrusive@4@@intrusive@2@AEBU?$greater@UExpiry@CertificateCache@v2@security@vanetza@@@std@@@Z
	??$flush@Vbyte_buffer_sink@vanetza@@@iostreams@boost@@YA_NAEAVbyte_buffer_sink@vanetza@@@Z
	??$forced_return@H@variant@detail@boost@@YAHXZ
	??$forced_return@I@variant@detail@boost@@YAIXZ
	??$forced_return@PEAUStartAndEndValidity@v2@security@vanetza@@@variant@detail@boost@@YAPEAUStartAndEndValidity@v2@security@vanetza@@XZ
	??$forced_return@PEAUVanetza_Security_Signature@@@variant@detail@boost@@YAPEAUVanetza_Security_Signature@@XZ
	??$forced_return@PEAV?$array@E$07@std@@@variant@detail@boost@@YAPEAV?$array@E$07@std@@XZ
	??$forced_return@PEAV?$list@UItsAidSsp@v2@security@vanetza@@V?$allocator@UItsAidSsp@v2@security@vanetza@@@std@@@std@@@variant@detail@boost@@YAPEAV?$list@UItsAidSsp@v2@security@vanetza@@V?$allocator@UItsAidSsp@v2@security@vanetza@@@std@@@std@@XZ
	??$forced_return@PEAV?$list@VIntX@v2@security@vanetza@@V?$allocator@VIntX@v2@security@vanetza@@@std@@@std@@@variant@detail@boost@@YAPEAV?$list@VIntX@v2@security@vanetza@@V?$allocator@VIntX@v2@security@vanetza@@@std@@@std@@XZ
	??$forced_return@PEAV?$variant@USecuredMessage@v2@security@vanetza@@U1v3@34@@boost@@@variant@detail@boost@@YAPEAV?$variant@USecuredMessage@v2@security@vanetza@@U1v3@34@@2@XZ
	??$forced_return@PEBUCertificate@v2@security@vanetza@@@variant@detail@boost@@YAPEBUCertificate@v2@security@vanetza@@XZ
	??$forced_return@PEBUEcdsaSignature@security@vanetza@@@variant@detail@boost@@YAPEBUEcdsaSignature@security@vanetza@@XZ
	??$forced_return@PEBUSignature@v2@security@vanetza@@@variant@detail@boost@@YAPEBUSignature@v2@security@vanetza@@XZ
	??$forced_return@PEBUStartAndEndValidity@v2@security@vanetza@@@variant@detail@boost@@YAPEBUStartAndEndValidity@v2@security@vanetza@@XZ
	??$forced_return@PEBUSubjectAssurance@v2@security@vanetza@@@variant@detail@boost@@YAPEBUSubjectAssurance@v2@security@vanetza@@XZ
	??$forced_return@PEBUThreeDLocation@v2@security@vanetza@@@variant@detail@boost@@YAPEBUThreeDLocation@v2@security@vanetza@@XZ
	??$forced_return@PEBUVanetza_Security_CertificateBase@@@variant@detail@boost@@YAPEBUVanetza_Security_CertificateBase@@XZ
	??$forced_return@PEBUVerificationKey@v2@security@vanetza@@@variant@detail@boost@@YAPEBUVerificationKey@v2@security@vanetza@@XZ
	??$forced_return@PEBUecdsa_nistp256_with_sha256@v2@security@vanetza@@@variant@detail@boost@@YAPEBUecdsa_nistp256_with_sha256@v2@security@vanetza@@XZ
	??$forced_return@PEBV?$array@E$07@std@@@variant@detail@boost@@YAPEBV?$array@E$07@std@@XZ
	??$forced_return@PEBV?$list@UCertificate@v2@security@vanetza@@V?$allocator@UCertificate@v2@security@vanetza@@@std@@@std@@@variant@detail@boost@@YAPEBV?$list@UCertificate@v2@security@vanetza@@V?$allocator@UCertificate@v2@security@vanetza@@@std@@@std@@XZ
	??$forced_return@PEBV?$list@UItsAidSsp@v2@security@vanetza@@V?$allocator@UItsAidSsp@v2@security@vanetza@@@std@@@std@@@variant@detail@boost@@YAPEBV?$list@UItsAidSsp@v2@security@vanetza@@V?$allocator@UItsAidSsp@v2@security@vanetza@@@std@@@std@@XZ
	??$forced_return@PEBV?$list@V?$array@E$02@std@@V?$allocator@V?$array@E$02@std@@@2@@std@@@variant@detail@boost@@YAPEBV?$list@V?$array@E$02@std@@V?$allocator@V?$array@E$02@std@@@2@@std@@XZ
	??$forced_return@PEBV?$list@VIntX@v2@security@vanetza@@V?$allocator@VIntX@v2@security@vanetza@@@std@@@std@@@variant@detail@boost@@YAPEBV?$list@VIntX@v2@security@vanetza@@V?$allocator@VIntX@v2@security@vanetza@@@std@@@std@@XZ
	??$forced_return@PEBV?$variant@$$TV?$array@E$07@std@@V?$recursive_wrapper@UCertificate@v2@security@vanetza@@@boost@@V?$list@UCertificate@v2@security@vanetza@@V?$allocator@UCertificate@v2@security@vanetza@@@std@@@2@UCertificateDigestWithOtherAlgorithm@v2@security@vanetza@@@boost@@@variant@detail@boost@@YAPEBV?$variant@$$TV?$array@E$07@std@@V?$recursive_wrapper@UCertificate@v2@security@vanetza@@@boost@@V?$list@UCertificate@v2@security@vanetza@@V?$allocator@UCertificate@v2@security@vanetza@@@std@@@2@UCertificateDigestWithOtherAlgorithm@v2@security@vanetza@@@2@XZ
	??$forced_return@PEBV?$variant@UNoneRegion@v2@security@vanetza@@UCircularRegion@234@V?$list@URectangularRegion@v2@security@vanetza@@V?$allocator@URectangularRegion@v2@security@vanetza@@@std@@@std@@V?$list@UTwoDLocation@v2@security@vanetza@@V?$allocator@UTwoDLocation@v2@security@vanetza@@@std@@@7@UIdentifiedRegion@234@@boost@@@variant@detail@boost@@YAPEBV?$variant@UNoneRegion@v2@security@vanetza@@UCircularRegion@234@V?$list@URectangularRegion@v2@security@vanetza@@V?$allocator@URectangularRegion@v2@security@vanetza@@@std@@@std@@V?$list@UTwoDLocation@v2@security@vanetza@@V?$allocator@UTwoDLocation@v2@security@vanetza@@@std@@@7@UIdentifiedRegion@234@@2@XZ
	??$forced_return@PEBV?$variant@USecuredMessage@v2@security@vanetza@@U1v3@34@@boost@@@variant@detail@boost@@YAPEBV?$variant@USecuredMessage@v2@security@vanetza@@U1v3@34@@2@XZ
	??$forced_return@PEBVIntX@v2@security@vanetza@@@variant@detail@boost@@YAPEBVIntX@v2@security@vanetza@@XZ
	??$forced_return@PEB_K@variant@detail@boost@@YAPEB_KXZ
	??$forced_return@UEncapConfirm@security@vanetza@@@variant@detail@boost@@YA?AUEncapConfirm@security@vanetza@@XZ
	??$forced_return@UVanetza_Security_EccP256CurvePoint@@@variant@detail@boost@@YA?AUVanetza_Security_EccP256CurvePoint@@XZ
	??$forced_return@UVanetza_Security_Signature@@@variant@detail@boost@@YA?AUVanetza_Security_Signature@@XZ
	??$forced_return@UVerifyConfirm@security@vanetza@@@variant@detail@boost@@YA?AUVerifyConfirm@security@vanetza@@XZ
	??$forced_return@V?$optional@V?$array@E$07@std@@@boost@@@variant@detail@boost@@YA?AV?$optional@V?$array@E$07@std@@@2@XZ
	??$forced_return@V?$variant@UX_Coordinate_Only@security@vanetza@@UCompressed_Lsb_Y_0@23@UCompressed_Lsb_Y_1@23@UUncompressed@23@@boost@@@variant@detail@boost@@YA?AV?$variant@UX_Coordinate_Only@security@vanetza@@UCompressed_Lsb_Y_0@23@UCompressed_Lsb_Y_1@23@UUncompressed@23@@2@XZ
	??$forced_return@V?$variant@VChunkPacket@vanetza@@VCohesivePacket@2@@boost@@@variant@detail@boost@@YA?AV?$variant@VChunkPacket@vanetza@@VCohesivePacket@2@@2@XZ
	??$forced_return@V?$vector@EV?$allocator@E@std@@@std@@@variant@detail@boost@@YA?AV?$vector@EV?$allocator@E@std@@@std@@XZ
	??$forced_return@W4EccPointType@v2@security@vanetza@@@variant@detail@boost@@YA?AW4EccPointType@v2@security@vanetza@@XZ
	??$forced_return@W4HeaderFieldType@v2@security@vanetza@@@variant@detail@boost@@YA?AW4HeaderFieldType@v2@security@vanetza@@XZ
	??$forced_return@W4PublicKeyAlgorithm@v2@security@vanetza@@@variant@detail@boost@@YA?AW4PublicKeyAlgorithm@v2@security@vanetza@@XZ
	??$forced_return@W4RegionType@v2@security@vanetza@@@variant@detail@boost@@YA?AW4RegionType@v2@security@vanetza@@XZ
	??$forced_return@W4SignerInfoType@v2@security@vanetza@@@variant@detail@boost@@YA?AW4SignerInfoType@v2@security@vanetza@@XZ
	??$forced_return@W4SubjectAttributeType@v2@security@vanetza@@@variant@detail@boost@@YA?AW4SubjectAttributeType@v2@security@vanetza@@XZ
	??$forced_return@W4SymmetricAlgorithm@v2@security@vanetza@@@variant@detail@boost@@YA?AW4SymmetricAlgorithm@v2@security@vanetza@@XZ
	??$forced_return@W4TrailerFieldType@v2@security@vanetza@@@variant@detail@boost@@YA?AW4TrailerFieldType@v2@security@vanetza@@XZ
	??$forced_return@W4ValidityRestrictionType@v2@security@vanetza@@@variant@detail@boost@@YA?AW4ValidityRestrictionType@v2@security@vanetza@@XZ
	??$forced_return@X@variant@detail@boost@@YAXXZ
	??$forced_return@_K@variant@detail@boost@@YA_KXZ
	??$forced_return@_N@variant@detail@boost@@YA_NXZ
	??$get_local_deleter@VNo_Op@?$basic_oaltstringstream@DU?$char_traits@D@std@@V?$allocator@D@2@@io@boost@@@detail@boost@@YAPEAVNo_Op@?$basic_oaltstringstream@DU?$char_traits@D@std@@V?$allocator@D@2@@io@1@PEAV2341@@Z
	??$get_size@UCertificate@v2@security@vanetza@@@v2@security@vanetza@@YA_KAEBV?$list@UCertificate@v2@security@vanetza@@V?$allocator@UCertificate@v2@security@vanetza@@@std@@@std@@@Z
	??$get_size@UItsAidSsp@v2@security@vanetza@@@v2@security@vanetza@@YA_KAEBV?$list@UItsAidSsp@v2@security@vanetza@@V?$allocator@UItsAidSsp@v2@security@vanetza@@@std@@@std@@@Z
	??$get_size@URecipientInfo@v2@security@vanetza@@@v2@security@vanetza@@YA_KAEBV?$list@URecipientInfo@v2@security@vanetza@@V?$allocator@URecipientInfo@v2@security@vanetza@@@std@@@std@@@Z
	??$get_size@V?$variant@IUStartAndEndValidity@v2@security@vanetza@@UStartAndDurationValidity@234@V?$variant@UNoneRegion@v2@security@vanetza@@UCircularRegion@234@V?$list@URectangularRegion@v2@security@vanetza@@V?$allocator@URectangularRegion@v2@security@vanetza@@@std@@@std@@V?$list@UTwoDLocation@v2@security@vanetza@@V?$allocator@UTwoDLocation@v2@security@vanetza@@@std@@@7@UIdentifiedRegion@234@@boost@@@boost@@@v2@security@vanetza@@YA_KAEBV?$list@V?$variant@IUStartAndEndValidity@v2@security@vanetza@@UStartAndDurationValidity@234@V?$variant@UNoneRegion@v2@security@vanetza@@UCircularRegion@234@V?$list@URectangularRegion@v2@security@vanetza@@V?$allocator@URectangularRegion@v2@security@vanetza@@@std@@@std@@V?$list@UTwoDLocation@v2@security@vanetza@@V?$allocator@UTwoDLocation@v2@security@vanetza@@@std@@@7@UIdentifiedRegion@234@@boost@@@boost@@V?$allocator@V?$variant@IUStartAndEndValidity@v2@security@vanetza@@UStartAndDurationValidity@234@V?$variant@UNoneRegion@v2@security@vanetza@@UCircularRegion@234@V?$list@URectangularRegion@v2@security@vanetza@@V?$allocator@URectangularRegion@v2@security@vanetza@@@std@@@std@@V?$list@UTwoDLocation@v2@security@vanetza@@V?$allocator@UTwoDLocation@v2@security@vanetza@@@std@@@7@UIdentifiedRegion@234@@boost@@@boost@@@std@@@std@@@Z
	??$get_size@V?$variant@USignature@v2@security@vanetza@@$$V@boost@@@v2@security@vanetza@@YA_KAEBV?$list@V?$variant@USignature@v2@security@vanetza@@$$V@boost@@V?$allocator@V?$variant@USignature@v2@security@vanetza@@$$V@boost@@@std@@@std@@@Z
	??$get_size@V?$variant@UVerificationKey@v2@security@vanetza@@UEncryptionKey@234@USubjectAssurance@234@V?$variant@UX_Coordinate_Only@security@vanetza@@UCompressed_Lsb_Y_0@23@UCompressed_Lsb_Y_1@23@UUncompressed@23@@boost@@V?$list@VIntX@v2@security@vanetza@@V?$allocator@VIntX@v2@security@vanetza@@@std@@@std@@V?$list@UItsAidSsp@v2@security@vanetza@@V?$allocator@UItsAidSsp@v2@security@vanetza@@@std@@@std@@@boost@@@v2@security@vanetza@@YA_KAEBV?$list@V?$variant@UVerificationKey@v2@security@vanetza@@UEncryptionKey@234@USubjectAssurance@234@V?$variant@UX_Coordinate_Only@security@vanetza@@UCompressed_Lsb_Y_0@23@UCompressed_Lsb_Y_1@23@UUncompressed@23@@boost@@V?$list@VIntX@v2@security@vanetza@@V?$allocator@VIntX@v2@security@vanetza@@@std@@@std@@V?$list@UItsAidSsp@v2@security@vanetza@@V?$allocator@UItsAidSsp@v2@security@vanetza@@@std@@@std@@@boost@@V?$allocator@V?$variant@UVerificationKey@v2@security@vanetza@@UEncryptionKey@234@USubjectAssurance@234@V?$variant@UX_Coordinate_Only@security@vanetza@@UCompressed_Lsb_Y_0@23@UCompressed_Lsb_Y_1@23@UUncompressed@23@@boost@@V?$list@VIntX@v2@security@vanetza@@V?$allocator@VIntX@v2@security@vanetza@@@std@@@std@@V?$list@UItsAidSsp@v2@security@vanetza@@V?$allocator@UItsAidSsp@v2@security@vanetza@@@std@@@std@@@boost@@@std@@@std@@@Z
	??$get_size@V?$variant@_KUTime64WithStandardDeviation@v2@security@vanetza@@IUThreeDLocation@234@V?$list@V?$array@E$02@std@@V?$allocator@V?$array@E$02@std@@@2@@std@@VIntX@234@V?$variant@$$TV?$array@E$07@std@@V?$recursive_wrapper@UCertificate@v2@security@vanetza@@@boost@@V?$list@UCertificate@v2@security@vanetza@@V?$allocator@UCertificate@v2@security@vanetza@@@std@@@2@UCertificateDigestWithOtherAlgorithm@v2@security@vanetza@@@boost@@V?$variant@V?$array@E$0M@@std@@$$V@boost@@V?$list@URecipientInfo@v2@security@vanetza@@V?$allocator@URecipientInfo@v2@security@vanetza@@@std@@@7@@boost@@@v2@security@vanetza@@YA_KAEBV?$list@V?$variant@_KUTime64WithStandardDeviation@v2@security@vanetza@@IUThreeDLocation@234@V?$list@V?$array@E$02@std@@V?$allocator@V?$array@E$02@std@@@2@@std@@VIntX@234@V?$variant@$$TV?$array@E$07@std@@V?$recursive_wrapper@UCertificate@v2@security@vanetza@@@boost@@V?$list@UCertificate@v2@security@vanetza@@V?$allocator@UCertificate@v2@security@vanetza@@@std@@@2@UCertificateDigestWithOtherAlgorithm@v2@security@vanetza@@@boost@@V?$variant@V?$array@E$0M@@std@@$$V@boost@@V?$list@URecipientInfo@v2@security@vanetza@@V?$allocator@URecipientInfo@v2@security@vanetza@@@std@@@7@@boost@@V?$allocator@V?$variant@_KUTime64WithStandardDeviation@v2@security@vanetza@@IUThreeDLocation@234@V?$list@V?$array@E$02@std@@V?$allocator@V?$array@E$02@std@@@2@@std@@VIntX@234@V?$variant@$$TV?$array@E$07@std@@V?$recursive_wrapper@UCertificate@v2@security@vanetza@@@boost@@V?$list@UCertificate@v2@security@vanetza@@V?$allocator@UCertificate@v2@security@vanetza@@@std@@@2@UCertificateDigestWithOtherAlgorithm@v2@security@vanetza@@@boost@@V?$variant@V?$array@E$0M@@std@@$$V@boost@@V?$list@URecipientInfo@v2@security@vanetza@@V?$allocator@URecipientInfo@v2@security@vanetza@@@std@@@7@@boost@@@std@@@std@@@Z
	??$get_size@VIntX@v2@security@vanetza@@@v2@security@vanetza@@YA_KAEBV?$list@VIntX@v2@security@vanetza@@V?$allocator@VIntX@v2@security@vanetza@@@std@@@std@@@Z
	??$hash_value@E$0CA@@boost@@YA_KAEBV?$array@E$0CA@@std@@@Z
	??$hash_value@E@boost@@YA_KE@Z
	??$host_cast@E@vanetza@@YA?AV?$EndianType@E$00@0@E@Z
	??$host_cast@F@vanetza@@YA?AV?$EndianType@F$00@0@F@Z
	??$host_cast@G@vanetza@@YA?AV?$EndianType@G$00@0@G@Z
	??$host_cast@I@vanetza@@YA?AV?$EndianType@I$00@0@I@Z
	??$host_cast@_K@vanetza@@YA?AV?$EndianType@_K$00@0@_K@Z
	??$hton@G@vanetza@@YAGG@Z
	??$hton@H@vanetza@@YAHH@Z
	??$imbue@Vbyte_buffer_sink@vanetza@@Vlocale@std@@@iostreams@boost@@YAXAEAVbyte_buffer_sink@vanetza@@AEBVlocale@std@@@Z
	??$min@_J@std@@YAAEB_JAEB_J0@Z
	??$mk_str@DU?$char_traits@D@std@@V?$allocator@D@2@@detail@io@boost@@YAXAEAV?$basic_string@DU?$char_traits@D@std@@V?$allocator@D@2@@std@@PEBD_K_JDHD_N@Z
	??$ntoh@E@vanetza@@YAEE@Z
	??$ntoh@F@vanetza@@YAFF@Z
	??$ntoh@G@vanetza@@YAGG@Z
	??$ntoh@H@vanetza@@YAHH@Z
	??$ntoh@I@vanetza@@YAII@Z
	??$ntoh@_K@vanetza@@YA_K_K@Z
	??$optimal_buffer_size@Vbyte_buffer_sink@vanetza@@@iostreams@boost@@YA_JAEBVbyte_buffer_sink@vanetza@@@Z
	??$parse_printf_directive@DU?$char_traits@D@std@@V?$allocator@D@2@V?$_String_const_iterator@V?$_String_val@U?$_Simple_types@D@std@@@std@@@2@V?$ctype@D@2@@detail@io@boost@@YA_NAEAV?$_String_const_iterator@V?$_String_val@U?$_Simple_types@D@std@@@std@@@std@@AEBV34@PEAU?$format_item@DU?$char_traits@D@std@@V?$allocator@D@2@@012@AEBV?$ctype@D@4@_KE@Z
	??$put@DU?$char_traits@D@std@@V?$allocator@D@2@AEBU?$put_holder@DU?$char_traits@D@std@@@detail@io@boost@@@detail@io@boost@@YAXAEBU?$put_holder@DU?$char_traits@D@std@@@012@AEBU?$format_item@DU?$char_traits@D@std@@V?$allocator@D@2@@012@AEAV?$basic_string@DU?$char_traits@D@std@@V?$allocator@D@2@@std@@AEAV?$basic_altstringbuf@DU?$char_traits@D@std@@V?$allocator@D@2@@12@PEAVlocale@6@@Z
	??$read@V?$linked_streambuf@DU?$char_traits@D@std@@@detail@iostreams@boost@@@?$concept_adapter@Vbyte_buffer_sink@vanetza@@@detail@iostreams@boost@@QEAA_JPEAD_JPEAV?$linked_streambuf@DU?$char_traits@D@std@@@123@@Z
	??$read@Vbyte_buffer_sink@vanetza@@V?$linked_streambuf@DU?$char_traits@D@std@@@detail@iostreams@boost@@@?$device_wrapper_impl@Uoutput@iostreams@boost@@@detail@iostreams@boost@@SA_JAEAVbyte_buffer_sink@vanetza@@PEAV?$linked_streambuf@DU?$char_traits@D@std@@@123@PEAD_J@Z
	??$seek@V?$linked_streambuf@DU?$char_traits@D@std@@@detail@iostreams@boost@@@?$concept_adapter@Vbyte_buffer_sink@vanetza@@@detail@iostreams@boost@@QEAA?AV?$fpos@U_Mbstatet@@@std@@_JHHPEAV?$linked_streambuf@DU?$char_traits@D@std@@@123@@Z
	??$seek@Vbyte_buffer_sink@vanetza@@@?$device_wrapper_impl@Uany_tag@iostreams@boost@@@detail@iostreams@boost@@SA?AV?$fpos@U_Mbstatet@@@std@@AEAVbyte_buffer_sink@vanetza@@_JHHUany_tag@23@@Z
	??$seek@Vbyte_buffer_sink@vanetza@@V?$linked_streambuf@DU?$char_traits@D@std@@@detail@iostreams@boost@@@?$device_wrapper_impl@Uany_tag@iostreams@boost@@@detail@iostreams@boost@@SA?AV?$fpos@U_Mbstatet@@@std@@AEAVbyte_buffer_sink@vanetza@@PEAV?$linked_streambuf@DU?$char_traits@D@std@@@123@_JHH@Z
	??$serialize@E$00@vanetza@@YAXAEAVOutputArchive@0@V?$EndianType@E$00@0@@Z
	??$serialize@F$00@vanetza@@YAXAEAVOutputArchive@0@V?$EndianType@F$00@0@@Z
	??$serialize@G$00@vanetza@@YAXAEAVOutputArchive@0@V?$EndianType@G$00@0@@Z
	??$serialize@I$00@vanetza@@YAXAEAVOutputArchive@0@V?$EndianType@I$00@0@@Z
	??$serialize@UCertificate@v2@security@vanetza@@$$V@v2@security@vanetza@@YAXAEAVOutputArchive@2@AEBV?$list@UCertificate@v2@security@vanetza@@V?$allocator@UCertificate@v2@security@vanetza@@@std@@@std@@@Z
	??$serialize@UItsAidSsp@v2@security@vanetza@@$$V@v2@security@vanetza@@YAXAEAVOutputArchive@2@AEBV?$list@UItsAidSsp@v2@security@vanetza@@V?$allocator@UItsAidSsp@v2@security@vanetza@@@std@@@std@@@Z
	??$serialize@URecipientInfo@v2@security@vanetza@@W4SymmetricAlgorithm@234@@v2@security@vanetza@@YAXAEAVOutputArchive@2@AEBV?$list@URecipientInfo@v2@security@vanetza@@V?$allocator@URecipientInfo@v2@security@vanetza@@@std@@@std@@$$QEAW4SymmetricAlgorithm@012@@Z
	??$serialize@V?$unit@U?$list@U?$dim@Ulength_base_dimension@units@boost@@V?$static_rational@$00$00@23@@units@boost@@Udimensionless_type@23@@units@boost@@U?$homogeneous_system@U?$list@Umeter_base_unit@si@units@boost@@U?$list@U?$scaled_base_unit@Ugram_base_unit@cgs@units@boost@@U?$scale@$09V?$static_rational@$02$00@units@boost@@@34@@units@boost@@U?$list@Usecond_base_unit@si@units@boost@@U?$list@Uampere_base_unit@si@units@boost@@U?$list@Ukelvin_base_unit@si@units@boost@@U?$list@Umole_base_unit@si@units@boost@@U?$list@Ucandela_base_unit@si@units@boost@@U?$list@Uradian_base_unit@angle@units@boost@@U?$list@Usteradian_base_unit@angle@units@boost@@Udimensionless_type@34@@34@@34@@34@@34@@34@@34@@23@@34@@units@boost@@@23@X@units@boost@@G@vanetza@@YAXAEAVOutputArchive@0@V?$quantity@V?$unit@U?$list@U?$dim@Ulength_base_dimension@units@boost@@V?$static_rational@$00$00@23@@units@boost@@Udimensionless_type@23@@units@boost@@U?$homogeneous_system@U?$list@Umeter_base_unit@si@units@boost@@U?$list@U?$scaled_base_unit@Ugram_base_unit@cgs@units@boost@@U?$scale@$09V?$static_rational@$02$00@units@boost@@@34@@units@boost@@U?$list@Usecond_base_unit@si@units@boost@@U?$list@Uampere_base_unit@si@units@boost@@U?$list@Ukelvin_base_unit@si@units@boost@@U?$list@Umole_base_unit@si@units@boost@@U?$list@Ucandela_base_unit@si@units@boost@@U?$list@Uradian_base_unit@angle@units@boost@@U?$list@Usteradian_base_unit@angle@units@boost@@Udimensionless_type@34@@34@@34@@34@@34@@34@@34@@23@@34@@units@boost@@@23@X@units@boost@@G@units@boost@@@Z
	??$serialize@V?$unit@U?$list@U?$dim@Uplane_angle_base_dimension@units@boost@@V?$static_rational@$00$00@23@@units@boost@@Udimensionless_type@23@@units@boost@@U?$heterogeneous_system@U?$heterogeneous_system_impl@U?$list@U?$heterogeneous_system_dim@Udegree_base_unit@angle@units@boost@@V?$static_rational@$00$00@34@@units@boost@@Udimensionless_type@23@@units@boost@@U?$list@U?$dim@Uplane_angle_base_dimension@units@boost@@V?$static_rational@$00$00@23@@units@boost@@Udimensionless_type@23@@23@U?$list@U?$scale_list_dim@U?$scale@$09V?$static_rational@$0?6$00@units@boost@@@units@boost@@@units@boost@@Udimensionless_type@23@@23@@units@boost@@@23@X@units@boost@@H@vanetza@@YAXAEAVOutputArchive@0@V?$quantity@V?$unit@U?$list@U?$dim@Uplane_angle_base_dimension@units@boost@@V?$static_rational@$00$00@23@@units@boost@@Udimensionless_type@23@@units@boost@@U?$heterogeneous_system@U?$heterogeneous_system_impl@U?$list@U?$heterogeneous_system_dim@Udegree_base_unit@angle@units@boost@@V?$static_rational@$00$00@34@@units@boost@@Udimensionless_type@23@@units@boost@@U?$list@U?$dim@Uplane_angle_base_dimension@units@boost@@V?$static_rational@$00$00@23@@units@boost@@Udimensionless_type@23@@23@U?$list@U?$scale_list_dim@U?$scale@$09V?$static_rational@$0?6$00@units@boost@@@units@boost@@@units@boost@@Udimensionless_type@23@@23@@units@boost@@@23@X@units@boost@@H@units@boost@@@Z
	??$serialize@V?$variant@IUStartAndEndValidity@v2@security@vanetza@@UStartAndDurationValidity@234@V?$variant@UNoneRegion@v2@security@vanetza@@UCircularRegion@234@V?$list@URectangularRegion@v2@security@vanetza@@V?$allocator@URectangularRegion@v2@security@vanetza@@@std@@@std@@V?$list@UTwoDLocation@v2@security@vanetza@@V?$allocator@UTwoDLocation@v2@security@vanetza@@@std@@@7@UIdentifiedRegion@234@@boost@@@boost@@$$V@v2@security@vanetza@@YAXAEAVOutputArchive@2@AEBV?$list@V?$variant@IUStartAndEndValidity@v2@security@vanetza@@UStartAndDurationValidity@234@V?$variant@UNoneRegion@v2@security@vanetza@@UCircularRegion@234@V?$list@URectangularRegion@v2@security@vanetza@@V?$allocator@URectangularRegion@v2@security@vanetza@@@std@@@std@@V?$list@UTwoDLocation@v2@security@vanetza@@V?$allocator@UTwoDLocation@v2@security@vanetza@@@std@@@7@UIdentifiedRegion@234@@boost@@@boost@@V?$allocator@V?$variant@IUStartAndEndValidity@v2@security@vanetza@@UStartAndDurationValidity@234@V?$variant@UNoneRegion@v2@security@vanetza@@UCircularRegion@234@V?$list@URectangularRegion@v2@security@vanetza@@V?$allocator@URectangularRegion@v2@security@vanetza@@@std@@@std@@V?$list@UTwoDLocation@v2@security@vanetza@@V?$allocator@UTwoDLocation@v2@security@vanetza@@@std@@@7@UIdentifiedRegion@234@@boost@@@boost@@@std@@@std@@@Z
	??$serialize@V?$variant@USignature@v2@security@vanetza@@$$V@boost@@$$V@v2@security@vanetza@@YAXAEAVOutputArchive@2@AEBV?$list@V?$variant@USignature@v2@security@vanetza@@$$V@boost@@V?$allocator@V?$variant@USignature@v2@security@vanetza@@$$V@boost@@@std@@@std@@@Z
	??$serialize@V?$variant@UVerificationKey@v2@security@vanetza@@UEncryptionKey@234@USubjectAssurance@234@V?$variant@UX_Coordinate_Only@security@vanetza@@UCompressed_Lsb_Y_0@23@UCompressed_Lsb_Y_1@23@UUncompressed@23@@boost@@V?$list@VIntX@v2@security@vanetza@@V?$allocator@VIntX@v2@security@vanetza@@@std@@@std@@V?$list@UItsAidSsp@v2@security@vanetza@@V?$allocator@UItsAidSsp@v2@security@vanetza@@@std@@@std@@@boost@@$$V@v2@security@vanetza@@YAXAEAVOutputArchive@2@AEBV?$list@V?$variant@UVerificationKey@v2@security@vanetza@@UEncryptionKey@234@USubjectAssurance@234@V?$variant@UX_Coordinate_Only@security@vanetza@@UCompressed_Lsb_Y_0@23@UCompressed_Lsb_Y_1@23@UUncompressed@23@@boost@@V?$list@VIntX@v2@security@vanetza@@V?$allocator@VIntX@v2@security@vanetza@@@std@@@std@@V?$list@UItsAidSsp@v2@security@vanetza@@V?$allocator@UItsAidSsp@v2@security@vanetza@@@std@@@std@@@boost@@V?$allocator@V?$variant@UVerificationKey@v2@security@vanetza@@UEncryptionKey@234@USubjectAssurance@234@V?$variant@UX_Coordinate_Only@security@vanetza@@UCompressed_Lsb_Y_0@23@UCompressed_Lsb_Y_1@23@UUncompressed@23@@boost@@V?$list@VIntX@v2@security@vanetza@@V?$allocator@VIntX@v2@security@vanetza@@@std@@@std@@V?$list@UItsAidSsp@v2@security@vanetza@@V?$allocator@UItsAidSsp@v2@security@vanetza@@@std@@@std@@@boost@@@std@@@std@@@Z
	??$serialize@V?$variant@_KUTime64WithStandardDeviation@v2@security@vanetza@@IUThreeDLocation@234@V?$list@V?$array@E$02@std@@V?$allocator@V?$array@E$02@std@@@2@@std@@VIntX@234@V?$variant@$$TV?$array@E$07@std@@V?$recursive_wrapper@UCertificate@v2@security@vanetza@@@boost@@V?$list@UCertificate@v2@security@vanetza@@V?$allocator@UCertificate@v2@security@vanetza@@@std@@@2@UCertificateDigestWithOtherAlgorithm@v2@security@vanetza@@@boost@@V?$variant@V?$array@E$0M@@std@@$$V@boost@@V?$list@URecipientInfo@v2@security@vanetza@@V?$allocator@URecipientInfo@v2@security@vanetza@@@std@@@7@@boost@@$$V@v2@security@vanetza@@YAXAEAVOutputArchive@2@AEBV?$list@V?$variant@_KUTime64WithStandardDeviation@v2@security@vanetza@@IUThreeDLocation@234@V?$list@V?$array@E$02@std@@V?$allocator@V?$array@E$02@std@@@2@@std@@VIntX@234@V?$variant@$$TV?$array@E$07@std@@V?$recursive_wrapper@UCertificate@v2@security@vanetza@@@boost@@V?$list@UCertificate@v2@security@vanetza@@V?$allocator@UCertificate@v2@security@vanetza@@@std@@@2@UCertificateDigestWithOtherAlgorithm@v2@security@vanetza@@@boost@@V?$variant@V?$array@E$0M@@std@@$$V@boost@@V?$list@URecipientInfo@v2@security@vanetza@@V?$allocator@URecipientInfo@v2@security@vanetza@@@std@@@7@@boost@@V?$allocator@V?$variant@_KUTime64WithStandardDeviation@v2@security@vanetza@@IUThreeDLocation@234@V?$list@V?$array@E$02@std@@V?$allocator@V?$array@E$02@std@@@2@@std@@VIntX@234@V?$variant@$$TV?$array@E$07@std@@V?$recursive_wrapper@UCertificate@v2@security@vanetza@@@boost@@V?$list@UCertificate@v2@security@vanetza@@V?$allocator@UCertificate@v2@security@vanetza@@@std@@@2@UCertificateDigestWithOtherAlgorithm@v2@security@vanetza@@@boost@@V?$variant@V?$array@E$0M@@std@@$$V@boost@@V?$list@URecipientInfo@v2@security@vanetza@@V?$allocator@URecipientInfo@v2@security@vanetza@@@std@@@7@@boost@@@std@@@std@@@Z
	??$serialize@VIntX@v2@security@vanetza@@$$V@v2@security@vanetza@@YAXAEAVOutputArchive@2@AEBV?$list@VIntX@v2@security@vanetza@@V?$allocator@VIntX@v2@security@vanetza@@@std@@@std@@@Z
	??$serialize@W4EccPointType@v2@security@vanetza@@@vanetza@@YAXAEAVOutputArchive@0@AEBW4EccPointType@v2@security@0@@Z
	??$serialize@W4HeaderFieldType@v2@security@vanetza@@@vanetza@@YAXAEAVOutputArchive@0@AEBW4HeaderFieldType@v2@security@0@@Z
	??$serialize@W4PayloadType@v2@security@vanetza@@@vanetza@@YAXAEAVOutputArchive@0@AEBW4PayloadType@v2@security@0@@Z
	??$serialize@W4PublicKeyAlgorithm@v2@security@vanetza@@@vanetza@@YAXAEAVOutputArchive@0@AEBW4PublicKeyAlgorithm@v2@security@0@@Z
	??$serialize@W4RegionDictionary@v2@security@vanetza@@@vanetza@@YAXAEAVOutputArchive@0@AEBW4RegionDictionary@v2@security@0@@Z
	??$serialize@W4RegionType@v2@security@vanetza@@@vanetza@@YAXAEAVOutputArchive@0@AEBW4RegionType@v2@security@0@@Z
	??$serialize@W4SignerInfoType@v2@security@vanetza@@@vanetza@@YAXAEAVOutputArchive@0@AEBW4SignerInfoType@v2@security@0@@Z
	??$serialize@W4SubjectAttributeType@v2@security@vanetza@@@vanetza@@YAXAEAVOutputArchive@0@AEBW4SubjectAttributeType@v2@security@0@@Z
	??$serialize@W4SubjectType@v2@security@vanetza@@@vanetza@@YAXAEAVOutputArchive@0@AEBW4SubjectType@v2@security@0@@Z
	??$serialize@W4SymmetricAlgorithm@v2@security@vanetza@@@vanetza@@YAXAEAVOutputArchive@0@AEBW4SymmetricAlgorithm@v2@security@0@@Z
	??$serialize@W4TrailerFieldType@v2@security@vanetza@@@vanetza@@YAXAEAVOutputArchive@0@AEBW4TrailerFieldType@v2@security@0@@Z
	??$serialize@W4ValidityRestrictionType@v2@security@vanetza@@@vanetza@@YAXAEAVOutputArchive@0@AEBW4ValidityRestrictionType@v2@security@0@@Z
	??$serialize@_K$00@vanetza@@YAXAEAVOutputArchive@0@V?$EndianType@_K$00@0@@Z
	??$serialize_into_buffer@UCertificate@v2@security@vanetza@@@vanetza@@YAXAEBUCertificate@v2@security@0@AEAV?$vector@EV?$allocator@E@std@@@std@@@Z
	??$setfill@D@std@@YA?AU?$_Fillobj@D@0@D@Z
	??$siftup@V?$binomial_heap@UExpiry@CertificateCache@v2@security@vanetza@@U?$compare@U?$greater@UExpiry@CertificateCache@v2@security@vanetza@@@std@@@heap@boost@@Uvoid_@parameter@8@U9parameter@8@U9parameter@8@@heap@boost@@@?$binomial_heap@UExpiry@CertificateCache@v2@security@vanetza@@U?$compare@U?$greater@UExpiry@CertificateCache@v2@security@vanetza@@@std@@@heap@boost@@Uvoid_@parameter@8@U9parameter@8@U9parameter@8@@heap@boost@@AEAAXPEAU?$parent_pointing_heap_node@UExpiry@CertificateCache@v2@security@vanetza@@@detail@12@AEBV012@@Z
	??$sort@U?$cmp_by_degree@U?$parent_pointing_heap_node@UExpiry@CertificateCache@v2@security@vanetza@@@detail@heap@boost@@@detail@heap@boost@@@?$list_impl@U?$bhtraits@U?$heap_node_base@$0A@@detail@heap@boost@@U?$list_node_traits@PEAX@intrusive@4@$00Udft_tag@64@$00@intrusive@boost@@_K$00X@intrusive@boost@@QEAAXU?$cmp_by_degree@U?$parent_pointing_heap_node@UExpiry@CertificateCache@v2@security@vanetza@@@detail@heap@boost@@@detail@heap@2@@Z
	??$str2int@HV?$_String_const_iterator@V?$_String_val@U?$_Simple_types@D@std@@@std@@@std@@V?$ctype@D@2@@detail@io@boost@@YA?AV?$_String_const_iterator@V?$_String_val@U?$_Simple_types@D@std@@@std@@@std@@AEBV34@0AEAHAEBV?$ctype@D@4@@Z
	??$str2int@_JV?$_String_const_iterator@V?$_String_val@U?$_Simple_types@D@std@@@std@@@std@@V?$ctype@D@2@@detail@io@boost@@YA?AV?$_String_const_iterator@V?$_String_val@U?$_Simple_types@D@std@@@std@@@std@@AEBV34@0AEA_JAEBV?$ctype@D@4@@Z
	??$throw_exception@Vbad_format_string@io@boost@@@boost@@YAXAEBVbad_format_string@io@0@@Z
	??$throw_exception@Vbad_get@boost@@@boost@@YAXAEBVbad_get@0@@Z
	??$throw_exception@Vbad_optional_access@boost@@@boost@@YAXAEBVbad_optional_access@0@@Z
	??$throw_exception@Vfailure@ios_base@std@@@boost@@YAXAEBVfailure@ios_base@std@@@Z
	??$throw_exception@Vtoo_few_args@io@boost@@@boost@@YAXAEBVtoo_few_args@io@0@@Z
	??$throw_exception@Vtoo_many_args@io@boost@@@boost@@YAXAEBVtoo_many_args@io@0@@Z
	??$trim_size_impl@_K@v2@security@vanetza@@YA_K_KPEAX@Z
	??$uninitialized_fill@PEAV?$_List_unchecked_const_iterator@V?$_List_val@U?$_List_simple_types@V?$array@E$07@std@@@std@@@std@@U_Iterator_base0@2@@std@@V12@@std@@YAXQEAV?$_List_unchecked_const_iterator@V?$_List_val@U?$_List_simple_types@V?$array@E$07@std@@@std@@@std@@U_Iterator_base0@2@@0@0AEBV10@@Z
	??$uninitialized_fill@PEAV?$_List_unchecked_iterator@V?$_List_val@U?$_List_simple_types@U?$pair@$$CBV?$array@E$02@std@@V?$_List_iterator@V?$_List_val@U?$_List_simple_types@U?$pair@$$CBV?$array@E$07@std@@UCertificate@v3@security@vanetza@@@std@@@std@@@std@@@2@@std@@@std@@@std@@@std@@V12@@std@@YAXQEAV?$_List_unchecked_iterator@V?$_List_val@U?$_List_simple_types@U?$pair@$$CBV?$array@E$02@std@@V?$_List_iterator@V?$_List_val@U?$_List_simple_types@U?$pair@$$CBV?$array@E$07@std@@UCertificate@v3@security@vanetza@@@std@@@std@@@std@@@2@@std@@@std@@@std@@@0@0AEBV10@@Z
	??$uninitialized_fill@PEAV?$_List_unchecked_iterator@V?$_List_val@U?$_List_simple_types@U?$pair@$$CBV?$array@E$02@std@@V?$_List_iterator@V?$_List_val@U?$_List_simple_types@V?$array@E$02@std@@@std@@@std@@@2@@std@@@std@@@std@@@std@@V12@@std@@YAXQEAV?$_List_unchecked_iterator@V?$_List_val@U?$_List_simple_types@U?$pair@$$CBV?$array@E$02@std@@V?$_List_iterator@V?$_List_val@U?$_List_simple_types@V?$array@E$02@std@@@std@@@std@@@2@@std@@@std@@@std@@@0@0AEBV10@@Z
	??$uninitialized_fill@PEAV?$_List_unchecked_iterator@V?$_List_val@U?$_List_simple_types@U?$pair@$$CBV?$array@E$07@std@@UCertificate@v3@security@vanetza@@@std@@@std@@@std@@@std@@V12@@std@@YAXQEAV?$_List_unchecked_iterator@V?$_List_val@U?$_List_simple_types@U?$pair@$$CBV?$array@E$07@std@@UCertificate@v3@security@vanetza@@@std@@@std@@@std@@@0@0AEBV10@@Z
	??$unwrap@Vbyte_buffer_sink@vanetza@@@detail@iostreams@boost@@YAAEAVbyte_buffer_sink@vanetza@@AEAV34@@Z
	??$unwrap@Vbyte_buffer_sink@vanetza@@@detail@iostreams@boost@@YAAEBVbyte_buffer_sink@vanetza@@AEBV34@@Z
	??$upper_bound_from_fstring@V?$basic_string@DU?$char_traits@D@std@@V?$allocator@D@2@@std@@V?$ctype@D@2@@detail@io@boost@@YAHAEBV?$basic_string@DU?$char_traits@D@std@@V?$allocator@D@2@@std@@DAEBV?$ctype@D@4@E@Z
	??$use_facet@V?$codecvt@DDU_Mbstatet@@@std@@@std@@YAAEBV?$codecvt@DDU_Mbstatet@@@0@AEBVlocale@0@@Z
	??$use_facet@V?$ctype@D@std@@@std@@YAAEBV?$ctype@D@0@AEBVlocale@0@@Z
	??$visitation_impl@U?$int_@$0BE@@mpl@boost@@U?$visitation_impl_step@U?$l_iter@Ul_end@mpl@boost@@@mpl@boost@@U123@@variant@detail@3@Uassign_storage@563@PEAXUhas_fallback_type_@?$variant@$$TV?$array@E$07@std@@V?$recursive_wrapper@UCertificate@v2@security@vanetza@@@boost@@V?$list@UCertificate@v2@security@vanetza@@V?$allocator@UCertificate@v2@security@vanetza@@@std@@@2@UCertificateDigestWithOtherAlgorithm@v2@security@vanetza@@@3@@variant@detail@boost@@YAXHHAEAUassign_storage@012@PEAXU?$bool_@$00@mpl@2@Uhas_fallback_type_@?$variant@$$TV?$array@E$07@std@@V?$recursive_wrapper@UCertificate@v2@security@vanetza@@@boost@@V?$list@UCertificate@v2@security@vanetza@@V?$allocator@UCertificate@v2@security@vanetza@@@std@@@2@UCertificateDigestWithOtherAlgorithm@v2@security@vanetza@@@2@PEAU?$int_@$0BE@@52@PEAU?$visitation_impl_step@U?$l_iter@Ul_end@mpl@boost@@@mpl@boost@@U123@@012@@Z
	??$visitation_impl@U?$int_@$0BE@@mpl@boost@@U?$visitation_impl_step@U?$l_iter@Ul_end@mpl@boost@@@mpl@boost@@U123@@variant@detail@3@Uassign_storage@563@PEAXUhas_fallback_type_@?$variant@IUStartAndEndValidity@v2@security@vanetza@@UStartAndDurationValidity@234@V?$variant@UNoneRegion@v2@security@vanetza@@UCircularRegion@234@V?$list@URectangularRegion@v2@security@vanetza@@V?$allocator@URectangularRegion@v2@security@vanetza@@@std@@@std@@V?$list@UTwoDLocation@v2@security@vanetza@@V?$allocator@UTwoDLocation@v2@security@vanetza@@@std@@@7@UIdentifiedRegion@234@@boost@@@3@@variant@detail@boost@@YAXHHAEAUassign_storage@012@PEAXU?$bool_@$00@mpl@2@Uhas_fallback_type_@?$variant@IUStartAndEndValidity@v2@security@vanetza@@UStartAndDurationValidity@234@V?$variant@UNoneRegion@v2@security@vanetza@@UCircularRegion@234@V?$list@URectangularRegion@v2@security@vanetza@@V?$allocator@URectangularRegion@v2@security@vanetza@@@std@@@std@@V?$list@UTwoDLocation@v2@security@vanetza@@V?$allocator@UTwoDLocation@v2@security@vanetza@@@std@@@7@UIdentifiedRegion@234@@boost@@@2@PEAU?$int_@$0BE@@52@PEAU?$visitation_impl_step@U?$l_iter@Ul_end@mpl@boost@@@mpl@boost@@U123@@012@@Z
	??$visitation_impl@U?$int_@$0BE@@mpl@boost@@U?$visitation_impl_step@U?$l_iter@Ul_end@mpl@boost@@@mpl@boost@@U123@@variant@detail@3@Uassign_storage@563@PEAXUhas_fallback_type_@?$variant@UEcdsaSignature@security@vanetza@@VEcdsaSignatureFuture@23@@3@@variant@detail@boost@@YAXHHAEAUassign_storage@012@PEAXU?$bool_@$00@mpl@2@Uhas_fallback_type_@?$variant@UEcdsaSignature@security@vanetza@@VEcdsaSignatureFuture@23@@2@PEAU?$int_@$0BE@@52@PEAU?$visitation_impl_step@U?$l_iter@Ul_end@mpl@boost@@@mpl@boost@@U123@@012@@Z
	??$visitation_impl@U?$int_@$0BE@@mpl@boost@@U?$visitation_impl_step@U?$l_iter@Ul_end@mpl@boost@@@mpl@boost@@U123@@variant@detail@3@Uassign_storage@563@PEAXUhas_fallback_type_@?$variant@UEciesEncryptedKey@v2@security@vanetza@@UOpaqueKey@234@@3@@variant@detail@boost@@YAXHHAEAUassign_storage@012@PEAXU?$bool_@$00@mpl@2@Uhas_fallback_type_@?$variant@UEciesEncryptedKey@v2@security@vanetza@@UOpaqueKey@234@@2@PEAU?$int_@$0BE@@52@PEAU?$visitation_impl_step@U?$l_iter@Ul_end@mpl@boost@@@mpl@boost@@U123@@012@@Z
	??$visitation_impl@U?$int_@$0BE@@mpl@boost@@U?$visitation_impl_step@U?$l_iter@Ul_end@mpl@boost@@@mpl@boost@@U123@@variant@detail@3@Uassign_storage@563@PEAXUhas_fallback_type_@?$variant@UNoneRegion@v2@security@vanetza@@UCircularRegion@234@V?$list@URectangularRegion@v2@security@vanetza@@V?$allocator@URectangularRegion@v2@security@vanetza@@@std@@@std@@V?$list@UTwoDLocation@v2@security@vanetza@@V?$allocator@UTwoDLocation@v2@security@vanetza@@@std@@@7@UIdentifiedRegion@234@@3@@variant@detail@boost@@YAXHHAEAUassign_storage@012@PEAXU?$bool_@$00@mpl@2@Uhas_fallback_type_@?$variant@UNoneRegion@v2@security@vanetza@@UCircularRegion@234@V?$list@URectangularRegion@v2@security@vanetza@@V?$allocator@URectangularRegion@v2@security@vanetza@@@std@@@std@@V?$list@UTwoDLocation@v2@security@vanetza@@V?$allocator@UTwoDLocation@v2@security@vanetza@@@std@@@7@UIdentifiedRegion@234@@2@PEAU?$int_@$0BE@@52@PEAU?$visitation_impl_step@U?$l_iter@Ul_end@mpl@boost@@@mpl@boost@@U123@@012@@Z
	??$visitation_impl@U?$int_@$0BE@@mpl@boost@@U?$visitation_impl_step@U?$l_iter@Ul_end@mpl@boost@@@mpl@boost@@U123@@variant@detail@3@Uassign_storage@563@PEAXUhas_fallback_type_@?$variant@UVerificationKey@v2@security@vanetza@@UEncryptionKey@234@USubjectAssurance@234@V?$variant@UX_Coordinate_Only@security@vanetza@@UCompressed_Lsb_Y_0@23@UCompressed_Lsb_Y_1@23@UUncompressed@23@@boost@@V?$list@VIntX@v2@security@vanetza@@V?$allocator@VIntX@v2@security@vanetza@@@std@@@std@@V?$list@UItsAidSsp@v2@security@vanetza@@V?$allocator@UItsAidSsp@v2@security@vanetza@@@std@@@std@@@3@@variant@detail@boost@@YAXHHAEAUassign_storage@012@PEAXU?$bool_@$00@mpl@2@Uhas_fallback_type_@?$variant@UVerificationKey@v2@security@vanetza@@UEncryptionKey@234@USubjectAssurance@234@V?$variant@UX_Coordinate_Only@security@vanetza@@UCompressed_Lsb_Y_0@23@UCompressed_Lsb_Y_1@23@UUncompressed@23@@boost@@V?$list@VIntX@v2@security@vanetza@@V?$allocator@VIntX@v2@security@vanetza@@@std@@@std@@V?$list@UItsAidSsp@v2@security@vanetza@@V?$allocator@UItsAidSsp@v2@security@vanetza@@@std@@@std@@@2@PEAU?$int_@$0BE@@52@PEAU?$visitation_impl_step@U?$l_iter@Ul_end@mpl@boost@@@mpl@boost@@U123@@012@@Z
	??$visitation_impl@U?$int_@$0BE@@mpl@boost@@U?$visitation_impl_step@U?$l_iter@Ul_end@mpl@boost@@@mpl@boost@@U123@@variant@detail@3@Uassign_storage@563@PEAXUhas_fallback_type_@?$variant@UX_Coordinate_Only@security@vanetza@@UCompressed_Lsb_Y_0@23@UCompressed_Lsb_Y_1@23@UUncompressed@23@@3@@variant@detail@boost@@YAXHHAEAUassign_storage@012@PEAXU?$bool_@$00@mpl@2@Uhas_fallback_type_@?$variant@UX_Coordinate_Only@security@vanetza@@UCompressed_Lsb_Y_0@23@UCompressed_Lsb_Y_1@23@UUncompressed@23@@2@PEAU?$int_@$0BE@@52@PEAU?$visitation_impl_step@U?$l_iter@Ul_end@mpl@boost@@@mpl@boost@@U123@@012@@Z
	??$visitation_impl@U?$int_@$0BE@@mpl@boost@@U?$visitation_impl_step@U?$l_iter@Ul_end@mpl@boost@@@mpl@boost@@U123@@variant@detail@3@Uassign_storage@563@PEAXUhas_fallback_type_@?$variant@Uecdsa_nistp256_with_sha256@v2@security@vanetza@@Uecies_nistp256@234@@3@@variant@detail@boost@@YAXHHAEAUassign_storage@012@PEAXU?$bool_@$00@mpl@2@Uhas_fallback_type_@?$variant@Uecdsa_nistp256_with_sha256@v2@security@vanetza@@Uecies_nistp256@234@@2@PEAU?$int_@$0BE@@52@PEAU?$visitation_impl_step@U?$l_iter@Ul_end@mpl@boost@@@mpl@boost@@U123@@012@@Z
	??$visitation_impl@U?$int_@$0BE@@mpl@boost@@U?$visitation_impl_step@U?$l_iter@Ul_end@mpl@boost@@@mpl@boost@@U123@@variant@detail@3@Uassign_storage@563@PEAXUhas_fallback_type_@?$variant@V?$array@E$0M@@std@@$$V@3@@variant@detail@boost@@YAXHHAEAUassign_storage@012@PEAXU?$bool_@$00@mpl@2@Uhas_fallback_type_@?$variant@V?$array@E$0M@@std@@$$V@2@PEAU?$int_@$0BE@@52@PEAU?$visitation_impl_step@U?$l_iter@Ul_end@mpl@boost@@@mpl@boost@@U123@@012@@Z
	??$visitation_impl@U?$int_@$0BE@@mpl@boost@@U?$visitation_impl_step@U?$l_iter@Ul_end@mpl@boost@@@mpl@boost@@U123@@variant@detail@3@Udestroyer@563@PEAXUhas_fallback_type_@?$variant@$$TV?$array@E$07@std@@V?$recursive_wrapper@UCertificate@v2@security@vanetza@@@boost@@V?$list@UCertificate@v2@security@vanetza@@V?$allocator@UCertificate@v2@security@vanetza@@@std@@@2@UCertificateDigestWithOtherAlgorithm@v2@security@vanetza@@@3@@variant@detail@boost@@YAXHHAEAUdestroyer@012@PEAXU?$bool_@$00@mpl@2@Uhas_fallback_type_@?$variant@$$TV?$array@E$07@std@@V?$recursive_wrapper@UCertificate@v2@security@vanetza@@@boost@@V?$list@UCertificate@v2@security@vanetza@@V?$allocator@UCertificate@v2@security@vanetza@@@std@@@2@UCertificateDigestWithOtherAlgorithm@v2@security@vanetza@@@2@PEAU?$int_@$0BE@@52@PEAU?$visitation_impl_step@U?$l_iter@Ul_end@mpl@boost@@@mpl@boost@@U123@@012@@Z
	??$visitation_impl@U?$int_@$0BE@@mpl@boost@@U?$visitation_impl_step@U?$l_iter@Ul_end@mpl@boost@@@mpl@boost@@U123@@variant@detail@3@Udestroyer@563@PEAXUhas_fallback_type_@?$variant@IUStartAndEndValidity@v2@security@vanetza@@UStartAndDurationValidity@234@V?$variant@UNoneRegion@v2@security@vanetza@@UCircularRegion@234@V?$list@URectangularRegion@v2@security@vanetza@@V?$allocator@URectangularRegion@v2@security@vanetza@@@std@@@std@@V?$list@UTwoDLocation@v2@security@vanetza@@V?$allocator@UTwoDLocation@v2@security@vanetza@@@std@@@7@UIdentifiedRegion@234@@boost@@@3@@variant@detail@boost@@YAXHHAEAUdestroyer@012@PEAXU?$bool_@$00@mpl@2@Uhas_fallback_type_@?$variant@IUStartAndEndValidity@v2@security@vanetza@@UStartAndDurationValidity@234@V?$variant@UNoneRegion@v2@security@vanetza@@UCircularRegion@234@V?$list@URectangularRegion@v2@security@vanetza@@V?$allocator@URectangularRegion@v2@security@vanetza@@@std@@@std@@V?$list@UTwoDLocation@v2@security@vanetza@@V?$allocator@UTwoDLocation@v2@security@vanetza@@@std@@@7@UIdentifiedRegion@234@@boost@@@2@PEAU?$int_@$0BE@@52@PEAU?$visitation_impl_step@U?$l_iter@Ul_end@mpl@boost@@@mpl@boost@@U123@@012@@Z
	??$visitation_impl@U?$int_@$0BE@@mpl@boost@@U?$visitation_impl_step@U?$l_iter@Ul_end@mpl@boost@@@mpl@boost@@U123@@variant@detail@3@Udestroyer@563@PEAXUhas_fallback_type_@?$variant@UEcdsaSignature@security@vanetza@@VEcdsaSignatureFuture@23@@3@@variant@detail@boost@@YAXHHAEAUdestroyer@012@PEAXU?$bool_@$00@mpl@2@Uhas_fallback_type_@?$variant@UEcdsaSignature@security@vanetza@@VEcdsaSignatureFuture@23@@2@PEAU?$int_@$0BE@@52@PEAU?$visitation_impl_step@U?$l_iter@Ul_end@mpl@boost@@@mpl@boost@@U123@@012@@Z
	??$visitation_impl@U?$int_@$0BE@@mpl@boost@@U?$visitation_impl_step@U?$l_iter@Ul_end@mpl@boost@@@mpl@boost@@U123@@variant@detail@3@Udestroyer@563@PEAXUhas_fallback_type_@?$variant@UEciesEncryptedKey@v2@security@vanetza@@UOpaqueKey@234@@3@@variant@detail@boost@@YAXHHAEAUdestroyer@012@PEAXU?$bool_@$00@mpl@2@Uhas_fallback_type_@?$variant@UEciesEncryptedKey@v2@security@vanetza@@UOpaqueKey@234@@2@PEAU?$int_@$0BE@@52@PEAU?$visitation_impl_step@U?$l_iter@Ul_end@mpl@boost@@@mpl@boost@@U123@@012@@Z
	??$visitation_impl@U?$int_@$0BE@@mpl@boost@@U?$visitation_impl_step@U?$l_iter@Ul_end@mpl@boost@@@mpl@boost@@U123@@variant@detail@3@Udestroyer@563@PEAXUhas_fallback_type_@?$variant@UNoneRegion@v2@security@vanetza@@UCircularRegion@234@V?$list@URectangularRegion@v2@security@vanetza@@V?$allocator@URectangularRegion@v2@security@vanetza@@@std@@@std@@V?$list@UTwoDLocation@v2@security@vanetza@@V?$allocator@UTwoDLocation@v2@security@vanetza@@@std@@@7@UIdentifiedRegion@234@@3@@variant@detail@boost@@YAXHHAEAUdestroyer@012@PEAXU?$bool_@$00@mpl@2@Uhas_fallback_type_@?$variant@UNoneRegion@v2@security@vanetza@@UCircularRegion@234@V?$list@URectangularRegion@v2@security@vanetza@@V?$allocator@URectangularRegion@v2@security@vanetza@@@std@@@std@@V?$list@UTwoDLocation@v2@security@vanetza@@V?$allocator@UTwoDLocation@v2@security@vanetza@@@std@@@7@UIdentifiedRegion@234@@2@PEAU?$int_@$0BE@@52@PEAU?$visitation_impl_step@U?$l_iter@Ul_end@mpl@boost@@@mpl@boost@@U123@@012@@Z
	??$visitation_impl@U?$int_@$0BE@@mpl@boost@@U?$visitation_impl_step@U?$l_iter@Ul_end@mpl@boost@@@mpl@boost@@U123@@variant@detail@3@Udestroyer@563@PEAXUhas_fallback_type_@?$variant@USecuredMessage@v2@security@vanetza@@U1v3@34@@3@@variant@detail@boost@@YAXHHAEAUdestroyer@012@PEAXU?$bool_@$00@mpl@2@Uhas_fallback_type_@?$variant@USecuredMessage@v2@security@vanetza@@U1v3@34@@2@PEAU?$int_@$0BE@@52@PEAU?$visitation_impl_step@U?$l_iter@Ul_end@mpl@boost@@@mpl@boost@@U123@@012@@Z
	??$visitation_impl@U?$int_@$0BE@@mpl@boost@@U?$visitation_impl_step@U?$l_iter@Ul_end@mpl@boost@@@mpl@boost@@U123@@variant@detail@3@Udestroyer@563@PEAXUhas_fallback_type_@?$variant@USignature@v2@security@vanetza@@$$V@3@@variant@detail@boost@@YAXHHAEAUdestroyer@012@PEAXU?$bool_@$00@mpl@2@Uhas_fallback_type_@?$variant@USignature@v2@security@vanetza@@$$V@2@PEAU?$int_@$0BE@@52@PEAU?$visitation_impl_step@U?$l_iter@Ul_end@mpl@boost@@@mpl@boost@@U123@@012@@Z
	??$visitation_impl@U?$int_@$0BE@@mpl@boost@@U?$visitation_impl_step@U?$l_iter@Ul_end@mpl@boost@@@mpl@boost@@U123@@variant@detail@3@Udestroyer@563@PEAXUhas_fallback_type_@?$variant@UVerificationKey@v2@security@vanetza@@UEncryptionKey@234@USubjectAssurance@234@V?$variant@UX_Coordinate_Only@security@vanetza@@UCompressed_Lsb_Y_0@23@UCompressed_Lsb_Y_1@23@UUncompressed@23@@boost@@V?$list@VIntX@v2@security@vanetza@@V?$allocator@VIntX@v2@security@vanetza@@@std@@@std@@V?$list@UItsAidSsp@v2@security@vanetza@@V?$allocator@UItsAidSsp@v2@security@vanetza@@@std@@@std@@@3@@variant@detail@boost@@YAXHHAEAUdestroyer@012@PEAXU?$bool_@$00@mpl@2@Uhas_fallback_type_@?$variant@UVerificationKey@v2@security@vanetza@@UEncryptionKey@234@USubjectAssurance@234@V?$variant@UX_Coordinate_Only@security@vanetza@@UCompressed_Lsb_Y_0@23@UCompressed_Lsb_Y_1@23@UUncompressed@23@@boost@@V?$list@VIntX@v2@security@vanetza@@V?$allocator@VIntX@v2@security@vanetza@@@std@@@std@@V?$list@UItsAidSsp@v2@security@vanetza@@V?$allocator@UItsAidSsp@v2@security@vanetza@@@std@@@std@@@2@PEAU?$int_@$0BE@@52@PEAU?$visitation_impl_step@U?$l_iter@Ul_end@mpl@boost@@@mpl@boost@@U123@@012@@Z
	??$visitation_impl@U?$int_@$0BE@@mpl@boost@@U?$visitation_impl_step@U?$l_iter@Ul_end@mpl@boost@@@mpl@boost@@U123@@variant@detail@3@Udestroyer@563@PEAXUhas_fallback_type_@?$variant@UX_Coordinate_Only@security@vanetza@@UCompressed_Lsb_Y_0@23@UCompressed_Lsb_Y_1@23@UUncompressed@23@@3@@variant@detail@boost@@YAXHHAEAUdestroyer@012@PEAXU?$bool_@$00@mpl@2@Uhas_fallback_type_@?$variant@UX_Coordinate_Only@security@vanetza@@UCompressed_Lsb_Y_0@23@UCompressed_Lsb_Y_1@23@UUncompressed@23@@2@PEAU?$int_@$0BE@@52@PEAU?$visitation_impl_step@U?$l_iter@Ul_end@mpl@boost@@@mpl@boost@@U123@@012@@Z
	??$visitation_impl@U?$int_@$0BE@@mpl@boost@@U?$visitation_impl_step@U?$l_iter@Ul_end@mpl@boost@@@mpl@boost@@U123@@variant@detail@3@Udestroyer@563@PEAXUhas_fallback_type_@?$variant@Uecdsa_nistp256_with_sha256@v2@security@vanetza@@Uecies_nistp256@234@@3@@variant@detail@boost@@YAXHHAEAUdestroyer@012@PEAXU?$bool_@$00@mpl@2@Uhas_fallback_type_@?$variant@Uecdsa_nistp256_with_sha256@v2@security@vanetza@@Uecies_nistp256@234@@2@PEAU?$int_@$0BE@@52@PEAU?$visitation_impl_step@U?$l_iter@Ul_end@mpl@boost@@@mpl@boost@@U123@@012@@Z
	??$visitation_impl@U?$int_@$0BE@@mpl@boost@@U?$visitation_impl_step@U?$l_iter@Ul_end@mpl@boost@@@mpl@boost@@U123@@variant@detail@3@Udestroyer@563@PEAXUhas_fallback_type_@?$variant@VChunkPacket@vanetza@@VCohesivePacket@2@@3@@variant@detail@boost@@YAXHHAEAUdestroyer@012@PEAXU?$bool_@$00@mpl@2@Uhas_fallback_type_@?$variant@VChunkPacket@vanetza@@VCohesivePacket@2@@2@PEAU?$int_@$0BE@@52@PEAU?$visitation_impl_step@U?$l_iter@Ul_end@mpl@boost@@@mpl@boost@@U123@@012@@Z
	??$visitation_impl@U?$int_@$0BE@@mpl@boost@@U?$visitation_impl_step@U?$l_iter@Ul_end@mpl@boost@@@mpl@boost@@U123@@variant@detail@3@Udestroyer@563@PEAXUhas_fallback_type_@?$variant@_KUTime64WithStandardDeviation@v2@security@vanetza@@IUThreeDLocation@234@V?$list@V?$array@E$02@std@@V?$allocator@V?$array@E$02@std@@@2@@std@@VIntX@234@V?$variant@$$TV?$array@E$07@std@@V?$recursive_wrapper@UCertificate@v2@security@vanetza@@@boost@@V?$list@UCertificate@v2@security@vanetza@@V?$allocator@UCertificate@v2@security@vanetza@@@std@@@2@UCertificateDigestWithOtherAlgorithm@v2@security@vanetza@@@boost@@V?$variant@V?$array@E$0M@@std@@$$V@boost@@V?$list@URecipientInfo@v2@security@vanetza@@V?$allocator@URecipientInfo@v2@security@vanetza@@@std@@@7@@3@@variant@detail@boost@@YAXHHAEAUdestroyer@012@PEAXU?$bool_@$00@mpl@2@Uhas_fallback_type_@?$variant@_KUTime64WithStandardDeviation@v2@security@vanetza@@IUThreeDLocation@234@V?$list@V?$array@E$02@std@@V?$allocator@V?$array@E$02@std@@@2@@std@@VIntX@234@V?$variant@$$TV?$array@E$07@std@@V?$recursive_wrapper@UCertificate@v2@security@vanetza@@@boost@@V?$list@UCertificate@v2@security@vanetza@@V?$allocator@UCertificate@v2@security@vanetza@@@std@@@2@UCertificateDigestWithOtherAlgorithm@v2@security@vanetza@@@boost@@V?$variant@V?$array@E$0M@@std@@$$V@boost@@V?$list@URecipientInfo@v2@security@vanetza@@V?$allocator@URecipientInfo@v2@security@vanetza@@@std@@@7@@2@PEAU?$int_@$0BE@@52@PEAU?$visitation_impl_step@U?$l_iter@Ul_end@mpl@boost@@@mpl@boost@@U123@@012@@Z
	??$visitation_impl@U?$int_@$0BE@@mpl@boost@@U?$visitation_impl_step@U?$l_iter@Ul_end@mpl@boost@@@mpl@boost@@U123@@variant@detail@3@Umove_storage@563@PEAXUhas_fallback_type_@?$variant@$$TV?$array@E$07@std@@V?$recursive_wrapper@UCertificate@v2@security@vanetza@@@boost@@V?$list@UCertificate@v2@security@vanetza@@V?$allocator@UCertificate@v2@security@vanetza@@@std@@@2@UCertificateDigestWithOtherAlgorithm@v2@security@vanetza@@@3@@variant@detail@boost@@YAXHHAEAUmove_storage@012@PEAXU?$bool_@$00@mpl@2@Uhas_fallback_type_@?$variant@$$TV?$array@E$07@std@@V?$recursive_wrapper@UCertificate@v2@security@vanetza@@@boost@@V?$list@UCertificate@v2@security@vanetza@@V?$allocator@UCertificate@v2@security@vanetza@@@std@@@2@UCertificateDigestWithOtherAlgorithm@v2@security@vanetza@@@2@PEAU?$int_@$0BE@@52@PEAU?$visitation_impl_step@U?$l_iter@Ul_end@mpl@boost@@@mpl@boost@@U123@@012@@Z
	??$visitation_impl@U?$int_@$0BE@@mpl@boost@@U?$visitation_impl_step@U?$l_iter@Ul_end@mpl@boost@@@mpl@boost@@U123@@variant@detail@3@Umove_storage@563@PEAXUhas_fallback_type_@?$variant@IUStartAndEndValidity@v2@security@vanetza@@UStartAndDurationValidity@234@V?$variant@UNoneRegion@v2@security@vanetza@@UCircularRegion@234@V?$list@URectangularRegion@v2@security@vanetza@@V?$allocator@URectangularRegion@v2@security@vanetza@@@std@@@std@@V?$list@UTwoDLocation@v2@security@vanetza@@V?$allocator@UTwoDLocation@v2@security@vanetza@@@std@@@7@UIdentifiedRegion@234@@boost@@@3@@variant@detail@boost@@YAXHHAEAUmove_storage@012@PEAXU?$bool_@$00@mpl@2@Uhas_fallback_type_@?$variant@IUStartAndEndValidity@v2@security@vanetza@@UStartAndDurationValidity@234@V?$variant@UNoneRegion@v2@security@vanetza@@UCircularRegion@234@V?$list@URectangularRegion@v2@security@vanetza@@V?$allocator@URectangularRegion@v2@security@vanetza@@@std@@@std@@V?$list@UTwoDLocation@v2@security@vanetza@@V?$allocator@UTwoDLocation@v2@security@vanetza@@@std@@@7@UIdentifiedRegion@234@@boost@@@2@PEAU?$int_@$0BE@@52@PEAU?$visitation_impl_step@U?$l_iter@Ul_end@mpl@boost@@@mpl@boost@@U123@@012@@Z
	??$visitation_impl@U?$int_@$0BE@@mpl@boost@@U?$visitation_impl_step@U?$l_iter@Ul_end@mpl@boost@@@mpl@boost@@U123@@variant@detail@3@Umove_storage@563@PEAXUhas_fallback_type_@?$variant@UEcdsaSignature@security@vanetza@@VEcdsaSignatureFuture@23@@3@@variant@detail@boost@@YAXHHAEAUmove_storage@012@PEAXU?$bool_@$00@mpl@2@Uhas_fallback_type_@?$variant@UEcdsaSignature@security@vanetza@@VEcdsaSignatureFuture@23@@2@PEAU?$int_@$0BE@@52@PEAU?$visitation_impl_step@U?$l_iter@Ul_end@mpl@boost@@@mpl@boost@@U123@@012@@Z
	??$visitation_impl@U?$int_@$0BE@@mpl@boost@@U?$visitation_impl_step@U?$l_iter@Ul_end@mpl@boost@@@mpl@boost@@U123@@variant@detail@3@Umove_storage@563@PEAXUhas_fallback_type_@?$variant@UEciesEncryptedKey@v2@security@vanetza@@UOpaqueKey@234@@3@@variant@detail@boost@@YAXHHAEAUmove_storage@012@PEAXU?$bool_@$00@mpl@2@Uhas_fallback_type_@?$variant@UEciesEncryptedKey@v2@security@vanetza@@UOpaqueKey@234@@2@PEAU?$int_@$0BE@@52@PEAU?$visitation_impl_step@U?$l_iter@Ul_end@mpl@boost@@@mpl@boost@@U123@@012@@Z
	??$visitation_impl@U?$int_@$0BE@@mpl@boost@@U?$visitation_impl_step@U?$l_iter@Ul_end@mpl@boost@@@mpl@boost@@U123@@variant@detail@3@Umove_storage@563@PEAXUhas_fallback_type_@?$variant@UNoneRegion@v2@security@vanetza@@UCircularRegion@234@V?$list@URectangularRegion@v2@security@vanetza@@V?$allocator@URectangularRegion@v2@security@vanetza@@@std@@@std@@V?$list@UTwoDLocation@v2@security@vanetza@@V?$allocator@UTwoDLocation@v2@security@vanetza@@@std@@@7@UIdentifiedRegion@234@@3@@variant@detail@boost@@YAXHHAEAUmove_storage@012@PEAXU?$bool_@$00@mpl@2@Uhas_fallback_type_@?$variant@UNoneRegion@v2@security@vanetza@@UCircularRegion@234@V?$list@URectangularRegion@v2@security@vanetza@@V?$allocator@URectangularRegion@v2@security@vanetza@@@std@@@std@@V?$list@UTwoDLocation@v2@security@vanetza@@V?$allocator@UTwoDLocation@v2@security@vanetza@@@std@@@7@UIdentifiedRegion@234@@2@PEAU?$int_@$0BE@@52@PEAU?$visitation_impl_step@U?$l_iter@Ul_end@mpl@boost@@@mpl@boost@@U123@@012@@Z
	??$visitation_impl@U?$int_@$0BE@@mpl@boost@@U?$visitation_impl_step@U?$l_iter@Ul_end@mpl@boost@@@mpl@boost@@U123@@variant@detail@3@Umove_storage@563@PEAXUhas_fallback_type_@?$variant@USignature@v2@security@vanetza@@$$V@3@@variant@detail@boost@@YAXHHAEAUmove_storage@012@PEAXU?$bool_@$00@mpl@2@Uhas_fallback_type_@?$variant@USignature@v2@security@vanetza@@$$V@2@PEAU?$int_@$0BE@@52@PEAU?$visitation_impl_step@U?$l_iter@Ul_end@mpl@boost@@@mpl@boost@@U123@@012@@Z
	??$visitation_impl@U?$int_@$0BE@@mpl@boost@@U?$visitation_impl_step@U?$l_iter@Ul_end@mpl@boost@@@mpl@boost@@U123@@variant@detail@3@Umove_storage@563@PEAXUhas_fallback_type_@?$variant@UVerificationKey@v2@security@vanetza@@UEncryptionKey@234@USubjectAssurance@234@V?$variant@UX_Coordinate_Only@security@vanetza@@UCompressed_Lsb_Y_0@23@UCompressed_Lsb_Y_1@23@UUncompressed@23@@boost@@V?$list@VIntX@v2@security@vanetza@@V?$allocator@VIntX@v2@security@vanetza@@@std@@@std@@V?$list@UItsAidSsp@v2@security@vanetza@@V?$allocator@UItsAidSsp@v2@security@vanetza@@@std@@@std@@@3@@variant@detail@boost@@YAXHHAEAUmove_storage@012@PEAXU?$bool_@$00@mpl@2@Uhas_fallback_type_@?$variant@UVerificationKey@v2@security@vanetza@@UEncryptionKey@234@USubjectAssurance@234@V?$variant@UX_Coordinate_Only@security@vanetza@@UCompressed_Lsb_Y_0@23@UCompressed_Lsb_Y_1@23@UUncompressed@23@@boost@@V?$list@VIntX@v2@security@vanetza@@V?$allocator@VIntX@v2@security@vanetza@@@std@@@std@@V?$list@UItsAidSsp@v2@security@vanetza@@V?$allocator@UItsAidSsp@v2@security@vanetza@@@std@@@std@@@2@PEAU?$int_@$0BE@@52@PEAU?$visitation_impl_step@U?$l_iter@Ul_end@mpl@boost@@@mpl@boost@@U123@@012@@Z
	??$visitation_impl@U?$int_@$0BE@@mpl@boost@@U?$visitation_impl_step@U?$l_iter@Ul_end@mpl@boost@@@mpl@boost@@U123@@variant@detail@3@Umove_storage@563@PEAXUhas_fallback_type_@?$variant@UX_Coordinate_Only@security@vanetza@@UCompressed_Lsb_Y_0@23@UCompressed_Lsb_Y_1@23@UUncompressed@23@@3@@variant@detail@boost@@YAXHHAEAUmove_storage@012@PEAXU?$bool_@$00@mpl@2@Uhas_fallback_type_@?$variant@UX_Coordinate_Only@security@vanetza@@UCompressed_Lsb_Y_0@23@UCompressed_Lsb_Y_1@23@UUncompressed@23@@2@PEAU?$int_@$0BE@@52@PEAU?$visitation_impl_step@U?$l_iter@Ul_end@mpl@boost@@@mpl@boost@@U123@@012@@Z
	??$visitation_impl@U?$int_@$0BE@@mpl@boost@@U?$visitation_impl_step@U?$l_iter@Ul_end@mpl@boost@@@mpl@boost@@U123@@variant@detail@3@Umove_storage@563@PEAXUhas_fallback_type_@?$variant@Ublank@boost@@W4VerificationReport@security@vanetza@@@3@@variant@detail@boost@@YAXHHAEAUmove_storage@012@PEAXU?$bool_@$00@mpl@2@Uhas_fallback_type_@?$variant@Ublank@boost@@W4VerificationReport@security@vanetza@@@2@PEAU?$int_@$0BE@@52@PEAU?$visitation_impl_step@U?$l_iter@Ul_end@mpl@boost@@@mpl@boost@@U123@@012@@Z
	??$visitation_impl@U?$int_@$0BE@@mpl@boost@@U?$visitation_impl_step@U?$l_iter@Ul_end@mpl@boost@@@mpl@boost@@U123@@variant@detail@3@Umove_storage@563@PEAXUhas_fallback_type_@?$variant@Uecdsa_nistp256_with_sha256@v2@security@vanetza@@Uecies_nistp256@234@@3@@variant@detail@boost@@YAXHHAEAUmove_storage@012@PEAXU?$bool_@$00@mpl@2@Uhas_fallback_type_@?$variant@Uecdsa_nistp256_with_sha256@v2@security@vanetza@@Uecies_nistp256@234@@2@PEAU?$int_@$0BE@@52@PEAU?$visitation_impl_step@U?$l_iter@Ul_end@mpl@boost@@@mpl@boost@@U123@@012@@Z
	??$visitation_impl@U?$int_@$0BE@@mpl@boost@@U?$visitation_impl_step@U?$l_iter@Ul_end@mpl@boost@@@mpl@boost@@U123@@variant@detail@3@Umove_storage@563@PEAXUhas_fallback_type_@?$variant@V?$array@E$0M@@std@@$$V@3@@variant@detail@boost@@YAXHHAEAUmove_storage@012@PEAXU?$bool_@$00@mpl@2@Uhas_fallback_type_@?$variant@V?$array@E$0M@@std@@$$V@2@PEAU?$int_@$0BE@@52@PEAU?$visitation_impl_step@U?$l_iter@Ul_end@mpl@boost@@@mpl@boost@@U123@@012@@Z
	??$visitation_impl@U?$int_@$0BE@@mpl@boost@@U?$visitation_impl_step@U?$l_iter@Ul_end@mpl@boost@@@mpl@boost@@U123@@variant@detail@3@Umove_storage@563@PEAXUhas_fallback_type_@?$variant@VChunkPacket@vanetza@@VCohesivePacket@2@@3@@variant@detail@boost@@YAXHHAEAUmove_storage@012@PEAXU?$bool_@$00@mpl@2@Uhas_fallback_type_@?$variant@VChunkPacket@vanetza@@VCohesivePacket@2@@2@PEAU?$int_@$0BE@@52@PEAU?$visitation_impl_step@U?$l_iter@Ul_end@mpl@boost@@@mpl@boost@@U123@@012@@Z
	??$visitation_impl@U?$int_@$0BE@@mpl@boost@@U?$visitation_impl_step@U?$l_iter@Ul_end@mpl@boost@@@mpl@boost@@U123@@variant@detail@3@Umove_storage@563@PEAXUhas_fallback_type_@?$variant@_KUTime64WithStandardDeviation@v2@security@vanetza@@IUThreeDLocation@234@V?$list@V?$array@E$02@std@@V?$allocator@V?$array@E$02@std@@@2@@std@@VIntX@234@V?$variant@$$TV?$array@E$07@std@@V?$recursive_wrapper@UCertificate@v2@security@vanetza@@@boost@@V?$list@UCertificate@v2@security@vanetza@@V?$allocator@UCertificate@v2@security@vanetza@@@std@@@2@UCertificateDigestWithOtherAlgorithm@v2@security@vanetza@@@boost@@V?$variant@V?$array@E$0M@@std@@$$V@boost@@V?$list@URecipientInfo@v2@security@vanetza@@V?$allocator@URecipientInfo@v2@security@vanetza@@@std@@@7@@3@@variant@detail@boost@@YAXHHAEAUmove_storage@012@PEAXU?$bool_@$00@mpl@2@Uhas_fallback_type_@?$variant@_KUTime64WithStandardDeviation@v2@security@vanetza@@IUThreeDLocation@234@V?$list@V?$array@E$02@std@@V?$allocator@V?$array@E$02@std@@@2@@std@@VIntX@234@V?$variant@$$TV?$array@E$07@std@@V?$recursive_wrapper@UCertificate@v2@security@vanetza@@@boost@@V?$list@UCertificate@v2@security@vanetza@@V?$allocator@UCertificate@v2@security@vanetza@@@std@@@2@UCertificateDigestWithOtherAlgorithm@v2@security@vanetza@@@boost@@V?$variant@V?$array@E$0M@@std@@$$V@boost@@V?$list@URecipientInfo@v2@security@vanetza@@V?$allocator@URecipientInfo@v2@security@vanetza@@@std@@@7@@2@PEAU?$int_@$0BE@@52@PEAU?$visitation_impl_step@U?$l_iter@Ul_end@mpl@boost@@@mpl@boost@@U123@@012@@Z
	??$visitation_impl@U?$int_@$0BE@@mpl@boost@@U?$visitation_impl_step@U?$l_iter@Ul_end@mpl@boost@@@mpl@boost@@U123@@variant@detail@3@V?$backup_assigner@V?$variant@VChunkPacket@vanetza@@VCohesivePacket@2@@boost@@@563@PEAXUhas_fallback_type_@?$variant@VChunkPacket@vanetza@@VCohesivePacket@2@@3@@variant@detail@boost@@YAXHHAEAV?$backup_assigner@V?$variant@VChunkPacket@vanetza@@VCohesivePacket@2@@boost@@@012@PEAXU?$bool_@$00@mpl@2@Uhas_fallback_type_@?$variant@VChunkPacket@vanetza@@VCohesivePacket@2@@2@PEAU?$int_@$0BE@@52@PEAU?$visitation_impl_step@U?$l_iter@Ul_end@mpl@boost@@@mpl@boost@@U123@@012@@Z
	??$visitation_impl@U?$int_@$0BE@@mpl@boost@@U?$visitation_impl_step@U?$l_iter@Ul_end@mpl@boost@@@mpl@boost@@U123@@variant@detail@3@V?$invoke_visitor@$$CBUItsAidVisitor@security@vanetza@@$0A@@563@PEBXUhas_fallback_type_@?$variant@AEBUSecuredMessage@v2@security@vanetza@@AEBU1v3@34@@3@@variant@detail@boost@@YAIHHAEAV?$invoke_visitor@$$CBUItsAidVisitor@security@vanetza@@$0A@@012@PEBXU?$bool_@$00@mpl@2@Uhas_fallback_type_@?$variant@AEBUSecuredMessage@v2@security@vanetza@@AEBU1v3@34@@2@PEAU?$int_@$0BE@@52@PEAU?$visitation_impl_step@U?$l_iter@Ul_end@mpl@boost@@@mpl@boost@@U123@@012@@Z
	??$visitation_impl@U?$int_@$0BE@@mpl@boost@@U?$visitation_impl_step@U?$l_iter@Ul_end@mpl@boost@@@mpl@boost@@U123@@variant@detail@3@V?$invoke_visitor@$$CBUItsAidVisitor@security@vanetza@@$0A@@563@PEBXUhas_fallback_type_@?$variant@USecuredMessage@v2@security@vanetza@@U1v3@34@@3@@variant@detail@boost@@YAIHHAEAV?$invoke_visitor@$$CBUItsAidVisitor@security@vanetza@@$0A@@012@PEBXU?$bool_@$00@mpl@2@Uhas_fallback_type_@?$variant@USecuredMessage@v2@security@vanetza@@U1v3@34@@2@PEAU?$int_@$0BE@@52@PEAU?$visitation_impl_step@U?$l_iter@Ul_end@mpl@boost@@@mpl@boost@@U123@@012@@Z
	??$visitation_impl@U?$int_@$0BE@@mpl@boost@@U?$visitation_impl_step@U?$l_iter@Ul_end@mpl@boost@@@mpl@boost@@U123@@variant@detail@3@V?$invoke_visitor@$$CBUPayloadCopyVisitor@security@vanetza@@$0A@@563@PEBXUhas_fallback_type_@?$variant@AEBUSecuredMessage@v2@security@vanetza@@AEBU1v3@34@@3@@variant@detail@boost@@YA?AV?$variant@VChunkPacket@vanetza@@VCohesivePacket@2@@2@HHAEAV?$invoke_visitor@$$CBUPayloadCopyVisitor@security@vanetza@@$0A@@012@PEBXU?$bool_@$00@mpl@2@Uhas_fallback_type_@?$variant@AEBUSecuredMessage@v2@security@vanetza@@AEBU1v3@34@@2@PEAU?$int_@$0BE@@62@PEAU?$visitation_impl_step@U?$l_iter@Ul_end@mpl@boost@@@mpl@boost@@U123@@012@@Z
	??$visitation_impl@U?$int_@$0BE@@mpl@boost@@U?$visitation_impl_step@U?$l_iter@Ul_end@mpl@boost@@@mpl@boost@@U123@@variant@detail@3@V?$invoke_visitor@$$CBUPayloadCopyVisitor@security@vanetza@@$0A@@563@PEBXUhas_fallback_type_@?$variant@USecuredMessage@v2@security@vanetza@@U1v3@34@@3@@variant@detail@boost@@YA?AV?$variant@VChunkPacket@vanetza@@VCohesivePacket@2@@2@HHAEAV?$invoke_visitor@$$CBUPayloadCopyVisitor@security@vanetza@@$0A@@012@PEBXU?$bool_@$00@mpl@2@Uhas_fallback_type_@?$variant@USecuredMessage@v2@security@vanetza@@U1v3@34@@2@PEAU?$int_@$0BE@@62@PEAU?$visitation_impl_step@U?$l_iter@Ul_end@mpl@boost@@@mpl@boost@@U123@@012@@Z
	??$visitation_impl@U?$int_@$0BE@@mpl@boost@@U?$visitation_impl_step@U?$l_iter@Ul_end@mpl@boost@@@mpl@boost@@U123@@variant@detail@3@V?$invoke_visitor@U?$get_visitor@$$CBUCertificate@v2@security@vanetza@@@variant@detail@boost@@$0A@@563@PEBXUhas_fallback_type_@?$variant@$$TV?$array@E$07@std@@V?$recursive_wrapper@UCertificate@v2@security@vanetza@@@boost@@V?$list@UCertificate@v2@security@vanetza@@V?$allocator@UCertificate@v2@security@vanetza@@@std@@@2@UCertificateDigestWithOtherAlgorithm@v2@security@vanetza@@@3@@variant@detail@boost@@YAPEBUCertificate@v2@security@vanetza@@HHAEAV?$invoke_visitor@U?$get_visitor@$$CBUCertificate@v2@security@vanetza@@@variant@detail@boost@@$0A@@012@PEBXU?$bool_@$00@mpl@2@Uhas_fallback_type_@?$variant@$$TV?$array@E$07@std@@V?$recursive_wrapper@UCertificate@v2@security@vanetza@@@boost@@V?$list@UCertificate@v2@security@vanetza@@V?$allocator@UCertificate@v2@security@vanetza@@@std@@@2@UCertificateDigestWithOtherAlgorithm@v2@security@vanetza@@@2@PEAU?$int_@$0BE@@92@PEAU?$visitation_impl_step@U?$l_iter@Ul_end@mpl@boost@@@mpl@boost@@U123@@012@@Z
	??$visitation_impl@U?$int_@$0BE@@mpl@boost@@U?$visitation_impl_step@U?$l_iter@Ul_end@mpl@boost@@@mpl@boost@@U123@@variant@detail@3@V?$invoke_visitor@U?$get_visitor@$$CBUSignature@v2@security@vanetza@@@variant@detail@boost@@$0A@@563@PEBXUhas_fallback_type_@?$variant@USignature@v2@security@vanetza@@$$V@3@@variant@detail@boost@@YAPEBUSignature@v2@security@vanetza@@HHAEAV?$invoke_visitor@U?$get_visitor@$$CBUSignature@v2@security@vanetza@@@variant@detail@boost@@$0A@@012@PEBXU?$bool_@$00@mpl@2@Uhas_fallback_type_@?$variant@USignature@v2@security@vanetza@@$$V@2@PEAU?$int_@$0BE@@92@PEAU?$visitation_impl_step@U?$l_iter@Ul_end@mpl@boost@@@mpl@boost@@U123@@012@@Z
	??$visitation_impl@U?$int_@$0BE@@mpl@boost@@U?$visitation_impl_step@U?$l_iter@Ul_end@mpl@boost@@@mpl@boost@@U123@@variant@detail@3@V?$invoke_visitor@U?$get_visitor@$$CBUStartAndEndValidity@v2@security@vanetza@@@variant@detail@boost@@$0A@@563@PEBXUhas_fallback_type_@?$variant@IUStartAndEndValidity@v2@security@vanetza@@UStartAndDurationValidity@234@V?$variant@UNoneRegion@v2@security@vanetza@@UCircularRegion@234@V?$list@URectangularRegion@v2@security@vanetza@@V?$allocator@URectangularRegion@v2@security@vanetza@@@std@@@std@@V?$list@UTwoDLocation@v2@security@vanetza@@V?$allocator@UTwoDLocation@v2@security@vanetza@@@std@@@7@UIdentifiedRegion@234@@boost@@@3@@variant@detail@boost@@YAPEBUStartAndEndValidity@v2@security@vanetza@@HHAEAV?$invoke_visitor@U?$get_visitor@$$CBUStartAndEndValidity@v2@security@vanetza@@@variant@detail@boost@@$0A@@012@PEBXU?$bool_@$00@mpl@2@Uhas_fallback_type_@?$variant@IUStartAndEndValidity@v2@security@vanetza@@UStartAndDurationValidity@234@V?$variant@UNoneRegion@v2@security@vanetza@@UCircularRegion@234@V?$list@URectangularRegion@v2@security@vanetza@@V?$allocator@URectangularRegion@v2@security@vanetza@@@std@@@std@@V?$list@UTwoDLocation@v2@security@vanetza@@V?$allocator@UTwoDLocation@v2@security@vanetza@@@std@@@7@UIdentifiedRegion@234@@boost@@@2@PEAU?$int_@$0BE@@92@PEAU?$visitation_impl_step@U?$l_iter@Ul_end@mpl@boost@@@mpl@boost@@U123@@012@@Z
	??$visitation_impl@U?$int_@$0BE@@mpl@boost@@U?$visitation_impl_step@U?$l_iter@Ul_end@mpl@boost@@@mpl@boost@@U123@@variant@detail@3@V?$invoke_visitor@U?$get_visitor@$$CBUSubjectAssurance@v2@security@vanetza@@@variant@detail@boost@@$0A@@563@PEBXUhas_fallback_type_@?$variant@UVerificationKey@v2@security@vanetza@@UEncryptionKey@234@USubjectAssurance@234@V?$variant@UX_Coordinate_Only@security@vanetza@@UCompressed_Lsb_Y_0@23@UCompressed_Lsb_Y_1@23@UUncompressed@23@@boost@@V?$list@VIntX@v2@security@vanetza@@V?$allocator@VIntX@v2@security@vanetza@@@std@@@std@@V?$list@UItsAidSsp@v2@security@vanetza@@V?$allocator@UItsAidSsp@v2@security@vanetza@@@std@@@std@@@3@@variant@detail@boost@@YAPEBUSubjectAssurance@v2@security@vanetza@@HHAEAV?$invoke_visitor@U?$get_visitor@$$CBUSubjectAssurance@v2@security@vanetza@@@variant@detail@boost@@$0A@@012@PEBXU?$bool_@$00@mpl@2@Uhas_fallback_type_@?$variant@UVerificationKey@v2@security@vanetza@@UEncryptionKey@234@USubjectAssurance@234@V?$variant@UX_Coordinate_Only@security@vanetza@@UCompressed_Lsb_Y_0@23@UCompressed_Lsb_Y_1@23@UUncompressed@23@@boost@@V?$list@VIntX@v2@security@vanetza@@V?$allocator@VIntX@v2@security@vanetza@@@std@@@std@@V?$list@UItsAidSsp@v2@security@vanetza@@V?$allocator@UItsAidSsp@v2@security@vanetza@@@std@@@std@@@2@PEAU?$int_@$0BE@@92@PEAU?$visitation_impl_step@U?$l_iter@Ul_end@mpl@boost@@@mpl@boost@@U123@@012@@Z
	??$visitation_impl@U?$int_@$0BE@@mpl@boost@@U?$visitation_impl_step@U?$l_iter@Ul_end@mpl@boost@@@mpl@boost@@U123@@variant@detail@3@V?$invoke_visitor@U?$get_visitor@$$CBUThreeDLocation@v2@security@vanetza@@@variant@detail@boost@@$0A@@563@PEBXUhas_fallback_type_@?$variant@_KUTime64WithStandardDeviation@v2@security@vanetza@@IUThreeDLocation@234@V?$list@V?$array@E$02@std@@V?$allocator@V?$array@E$02@std@@@2@@std@@VIntX@234@V?$variant@$$TV?$array@E$07@std@@V?$recursive_wrapper@UCertificate@v2@security@vanetza@@@boost@@V?$list@UCertificate@v2@security@vanetza@@V?$allocator@UCertificate@v2@security@vanetza@@@std@@@2@UCertificateDigestWithOtherAlgorithm@v2@security@vanetza@@@boost@@V?$variant@V?$array@E$0M@@std@@$$V@boost@@V?$list@URecipientInfo@v2@security@vanetza@@V?$allocator@URecipientInfo@v2@security@vanetza@@@std@@@7@@3@@variant@detail@boost@@YAPEBUThreeDLocation@v2@security@vanetza@@HHAEAV?$invoke_visitor@U?$get_visitor@$$CBUThreeDLocation@v2@security@vanetza@@@variant@detail@boost@@$0A@@012@PEBXU?$bool_@$00@mpl@2@Uhas_fallback_type_@?$variant@_KUTime64WithStandardDeviation@v2@security@vanetza@@IUThreeDLocation@234@V?$list@V?$array@E$02@std@@V?$allocator@V?$array@E$02@std@@@2@@std@@VIntX@234@V?$variant@$$TV?$array@E$07@std@@V?$recursive_wrapper@UCertificate@v2@security@vanetza@@@boost@@V?$list@UCertificate@v2@security@vanetza@@V?$allocator@UCertificate@v2@security@vanetza@@@std@@@2@UCertificateDigestWithOtherAlgorithm@v2@security@vanetza@@@boost@@V?$variant@V?$array@E$0M@@std@@$$V@boost@@V?$list@URecipientInfo@v2@security@vanetza@@V?$allocator@URecipientInfo@v2@security@vanetza@@@std@@@7@@2@PEAU?$int_@$0BE@@92@PEAU?$visitation_impl_step@U?$l_iter@Ul_end@mpl@boost@@@mpl@boost@@U123@@012@@Z
	??$visitation_impl@U?$int_@$0BE@@mpl@boost@@U?$visitation_impl_step@U?$l_iter@Ul_end@mpl@boost@@@mpl@boost@@U123@@variant@detail@3@V?$invoke_visitor@U?$get_visitor@$$CBUVerificationKey@v2@security@vanetza@@@variant@detail@boost@@$0A@@563@PEBXUhas_fallback_type_@?$variant@UVerificationKey@v2@security@vanetza@@UEncryptionKey@234@USubjectAssurance@234@V?$variant@UX_Coordinate_Only@security@vanetza@@UCompressed_Lsb_Y_0@23@UCompressed_Lsb_Y_1@23@UUncompressed@23@@boost@@V?$list@VIntX@v2@security@vanetza@@V?$allocator@VIntX@v2@security@vanetza@@@std@@@std@@V?$list@UItsAidSsp@v2@security@vanetza@@V?$allocator@UItsAidSsp@v2@security@vanetza@@@std@@@std@@@3@@variant@detail@boost@@YAPEBUVerificationKey@v2@security@vanetza@@HHAEAV?$invoke_visitor@U?$get_visitor@$$CBUVerificationKey@v2@security@vanetza@@@variant@detail@boost@@$0A@@012@PEBXU?$bool_@$00@mpl@2@Uhas_fallback_type_@?$variant@UVerificationKey@v2@security@vanetza@@UEncryptionKey@234@USubjectAssurance@234@V?$variant@UX_Coordinate_Only@security@vanetza@@UCompressed_Lsb_Y_0@23@UCompressed_Lsb_Y_1@23@UUncompressed@23@@boost@@V?$list@VIntX@v2@security@vanetza@@V?$allocator@VIntX@v2@security@vanetza@@@std@@@std@@V?$list@UItsAidSsp@v2@security@vanetza@@V?$allocator@UItsAidSsp@v2@security@vanetza@@@std@@@std@@@2@PEAU?$int_@$0BE@@92@PEAU?$visitation_impl_step@U?$l_iter@Ul_end@mpl@boost@@@mpl@boost@@U123@@012@@Z
	??$visitation_impl@U?$int_@$0BE@@mpl@boost@@U?$visitation_impl_step@U?$l_iter@Ul_end@mpl@boost@@@mpl@boost@@U123@@variant@detail@3@V?$invoke_visitor@U?$get_visitor@$$CBUecdsa_nistp256_with_sha256@v2@security@vanetza@@@variant@detail@boost@@$0A@@563@PEBXUhas_fallback_type_@?$variant@Uecdsa_nistp256_with_sha256@v2@security@vanetza@@Uecies_nistp256@234@@3@@variant@detail@boost@@YAPEBUecdsa_nistp256_with_sha256@v2@security@vanetza@@HHAEAV?$invoke_visitor@U?$get_visitor@$$CBUecdsa_nistp256_with_sha256@v2@security@vanetza@@@variant@detail@boost@@$0A@@012@PEBXU?$bool_@$00@mpl@2@Uhas_fallback_type_@?$variant@Uecdsa_nistp256_with_sha256@v2@security@vanetza@@Uecies_nistp256@234@@2@PEAU?$int_@$0BE@@92@PEAU?$visitation_impl_step@U?$l_iter@Ul_end@mpl@boost@@@mpl@boost@@U123@@012@@Z
	??$visitation_impl@U?$int_@$0BE@@mpl@boost@@U?$visitation_impl_step@U?$l_iter@Ul_end@mpl@boost@@@mpl@boost@@U123@@variant@detail@3@V?$invoke_visitor@U?$get_visitor@$$CBV?$array@E$07@std@@@variant@detail@boost@@$0A@@563@PEBXUhas_fallback_type_@?$variant@$$TV?$array@E$07@std@@V?$recursive_wrapper@UCertificate@v2@security@vanetza@@@boost@@V?$list@UCertificate@v2@security@vanetza@@V?$allocator@UCertificate@v2@security@vanetza@@@std@@@2@UCertificateDigestWithOtherAlgorithm@v2@security@vanetza@@@3@@variant@detail@boost@@YAPEBV?$array@E$07@std@@HHAEAV?$invoke_visitor@U?$get_visitor@$$CBV?$array@E$07@std@@@variant@detail@boost@@$0A@@012@PEBXU?$bool_@$00@mpl@2@Uhas_fallback_type_@?$variant@$$TV?$array@E$07@std@@V?$recursive_wrapper@UCertificate@v2@security@vanetza@@@boost@@V?$list@UCertificate@v2@security@vanetza@@V?$allocator@UCertificate@v2@security@vanetza@@@std@@@2@UCertificateDigestWithOtherAlgorithm@v2@security@vanetza@@@2@PEAU?$int_@$0BE@@72@PEAU?$visitation_impl_step@U?$l_iter@Ul_end@mpl@boost@@@mpl@boost@@U123@@012@@Z
	??$visitation_impl@U?$int_@$0BE@@mpl@boost@@U?$visitation_impl_step@U?$l_iter@Ul_end@mpl@boost@@@mpl@boost@@U123@@variant@detail@3@V?$invoke_visitor@U?$get_visitor@$$CBV?$list@UCertificate@v2@security@vanetza@@V?$allocator@UCertificate@v2@security@vanetza@@@std@@@std@@@variant@detail@boost@@$0A@@563@PEBXUhas_fallback_type_@?$variant@$$TV?$array@E$07@std@@V?$recursive_wrapper@UCertificate@v2@security@vanetza@@@boost@@V?$list@UCertificate@v2@security@vanetza@@V?$allocator@UCertificate@v2@security@vanetza@@@std@@@2@UCertificateDigestWithOtherAlgorithm@v2@security@vanetza@@@3@@variant@detail@boost@@YAPEBV?$list@UCertificate@v2@security@vanetza@@V?$allocator@UCertificate@v2@security@vanetza@@@std@@@std@@HHAEAV?$invoke_visitor@U?$get_visitor@$$CBV?$list@UCertificate@v2@security@vanetza@@V?$allocator@UCertificate@v2@security@vanetza@@@std@@@std@@@variant@detail@boost@@$0A@@012@PEBXU?$bool_@$00@mpl@2@Uhas_fallback_type_@?$variant@$$TV?$array@E$07@std@@V?$recursive_wrapper@UCertificate@v2@security@vanetza@@@boost@@V?$list@UCertificate@v2@security@vanetza@@V?$allocator@UCertificate@v2@security@vanetza@@@std@@@2@UCertificateDigestWithOtherAlgorithm@v2@security@vanetza@@@2@PEAU?$int_@$0BE@@72@PEAU?$visitation_impl_step@U?$l_iter@Ul_end@mpl@boost@@@mpl@boost@@U123@@012@@Z
	??$visitation_impl@U?$int_@$0BE@@mpl@boost@@U?$visitation_impl_step@U?$l_iter@Ul_end@mpl@boost@@@mpl@boost@@U123@@variant@detail@3@V?$invoke_visitor@U?$get_visitor@$$CBV?$list@UItsAidSsp@v2@security@vanetza@@V?$allocator@UItsAidSsp@v2@security@vanetza@@@std@@@std@@@variant@detail@boost@@$0A@@563@PEBXUhas_fallback_type_@?$variant@UVerificationKey@v2@security@vanetza@@UEncryptionKey@234@USubjectAssurance@234@V?$variant@UX_Coordinate_Only@security@vanetza@@UCompressed_Lsb_Y_0@23@UCompressed_Lsb_Y_1@23@UUncompressed@23@@boost@@V?$list@VIntX@v2@security@vanetza@@V?$allocator@VIntX@v2@security@vanetza@@@std@@@std@@V?$list@UItsAidSsp@v2@security@vanetza@@V?$allocator@UItsAidSsp@v2@security@vanetza@@@std@@@std@@@3@@variant@detail@boost@@YAPEBV?$list@UItsAidSsp@v2@security@vanetza@@V?$allocator@UItsAidSsp@v2@security@vanetza@@@std@@@std@@HHAEAV?$invoke_visitor@U?$get_visitor@$$CBV?$list@UItsAidSsp@v2@security@vanetza@@V?$allocator@UItsAidSsp@v2@security@vanetza@@@std@@@std@@@variant@detail@boost@@$0A@@012@PEBXU?$bool_@$00@mpl@2@Uhas_fallback_type_@?$variant@UVerificationKey@v2@security@vanetza@@UEncryptionKey@234@USubjectAssurance@234@V?$variant@UX_Coordinate_Only@security@vanetza@@UCompressed_Lsb_Y_0@23@UCompressed_Lsb_Y_1@23@UUncompressed@23@@boost@@V?$list@VIntX@v2@security@vanetza@@V?$allocator@VIntX@v2@security@vanetza@@@std@@@std@@V?$list@UItsAidSsp@v2@security@vanetza@@V?$allocator@UItsAidSsp@v2@security@vanetza@@@std@@@std@@@2@PEAU?$int_@$0BE@@72@PEAU?$visitation_impl_step@U?$l_iter@Ul_end@mpl@boost@@@mpl@boost@@U123@@012@@Z
	??$visitation_impl@U?$int_@$0BE@@mpl@boost@@U?$visitation_impl_step@U?$l_iter@Ul_end@mpl@boost@@@mpl@boost@@U123@@variant@detail@3@V?$invoke_visitor@U?$get_visitor@$$CBV?$list@V?$array@E$02@std@@V?$allocator@V?$array@E$02@std@@@2@@std@@@variant@detail@boost@@$0A@@563@PEBXUhas_fallback_type_@?$variant@_KUTime64WithStandardDeviation@v2@security@vanetza@@IUThreeDLocation@234@V?$list@V?$array@E$02@std@@V?$allocator@V?$array@E$02@std@@@2@@std@@VIntX@234@V?$variant@$$TV?$array@E$07@std@@V?$recursive_wrapper@UCertificate@v2@security@vanetza@@@boost@@V?$list@UCertificate@v2@security@vanetza@@V?$allocator@UCertificate@v2@security@vanetza@@@std@@@2@UCertificateDigestWithOtherAlgorithm@v2@security@vanetza@@@boost@@V?$variant@V?$array@E$0M@@std@@$$V@boost@@V?$list@URecipientInfo@v2@security@vanetza@@V?$allocator@URecipientInfo@v2@security@vanetza@@@std@@@7@@3@@variant@detail@boost@@YAPEBV?$list@V?$array@E$02@std@@V?$allocator@V?$array@E$02@std@@@2@@std@@HHAEAV?$invoke_visitor@U?$get_visitor@$$CBV?$list@V?$array@E$02@std@@V?$allocator@V?$array@E$02@std@@@2@@std@@@variant@detail@boost@@$0A@@012@PEBXU?$bool_@$00@mpl@2@Uhas_fallback_type_@?$variant@_KUTime64WithStandardDeviation@v2@security@vanetza@@IUThreeDLocation@234@V?$list@V?$array@E$02@std@@V?$allocator@V?$array@E$02@std@@@2@@std@@VIntX@234@V?$variant@$$TV?$array@E$07@std@@V?$recursive_wrapper@UCertificate@v2@security@vanetza@@@boost@@V?$list@UCertificate@v2@security@vanetza@@V?$allocator@UCertificate@v2@security@vanetza@@@std@@@2@UCertificateDigestWithOtherAlgorithm@v2@security@vanetza@@@boost@@V?$variant@V?$array@E$0M@@std@@$$V@boost@@V?$list@URecipientInfo@v2@security@vanetza@@V?$allocator@URecipientInfo@v2@security@vanetza@@@std@@@7@@2@PEAU?$int_@$0BE@@72@PEAU?$visitation_impl_step@U?$l_iter@Ul_end@mpl@boost@@@mpl@boost@@U123@@012@@Z
	??$visitation_impl@U?$int_@$0BE@@mpl@boost@@U?$visitation_impl_step@U?$l_iter@Ul_end@mpl@boost@@@mpl@boost@@U123@@variant@detail@3@V?$invoke_visitor@U?$get_visitor@$$CBV?$list@VIntX@v2@security@vanetza@@V?$allocator@VIntX@v2@security@vanetza@@@std@@@std@@@variant@detail@boost@@$0A@@563@PEBXUhas_fallback_type_@?$variant@UVerificationKey@v2@security@vanetza@@UEncryptionKey@234@USubjectAssurance@234@V?$variant@UX_Coordinate_Only@security@vanetza@@UCompressed_Lsb_Y_0@23@UCompressed_Lsb_Y_1@23@UUncompressed@23@@boost@@V?$list@VIntX@v2@security@vanetza@@V?$allocator@VIntX@v2@security@vanetza@@@std@@@std@@V?$list@UItsAidSsp@v2@security@vanetza@@V?$allocator@UItsAidSsp@v2@security@vanetza@@@std@@@std@@@3@@variant@detail@boost@@YAPEBV?$list@VIntX@v2@security@vanetza@@V?$allocator@VIntX@v2@security@vanetza@@@std@@@std@@HHAEAV?$invoke_visitor@U?$get_visitor@$$CBV?$list@VIntX@v2@security@vanetza@@V?$allocator@VIntX@v2@security@vanetza@@@std@@@std@@@variant@detail@boost@@$0A@@012@PEBXU?$bool_@$00@mpl@2@Uhas_fallback_type_@?$variant@UVerificationKey@v2@security@vanetza@@UEncryptionKey@234@USubjectAssurance@234@V?$variant@UX_Coordinate_Only@security@vanetza@@UCompressed_Lsb_Y_0@23@UCompressed_Lsb_Y_1@23@UUncompressed@23@@boost@@V?$list@VIntX@v2@security@vanetza@@V?$allocator@VIntX@v2@security@vanetza@@@std@@@std@@V?$list@UItsAidSsp@v2@security@vanetza@@V?$allocator@UItsAidSsp@v2@security@vanetza@@@std@@@std@@@2@PEAU?$int_@$0BE@@72@PEAU?$visitation_impl_step@U?$l_iter@Ul_end@mpl@boost@@@mpl@boost@@U123@@012@@Z
	??$visitation_impl@U?$int_@$0BE@@mpl@boost@@U?$visitation_impl_step@U?$l_iter@Ul_end@mpl@boost@@@mpl@boost@@U123@@variant@detail@3@V?$invoke_visitor@U?$get_visitor@$$CBV?$variant@$$TV?$array@E$07@std@@V?$recursive_wrapper@UCertificate@v2@security@vanetza@@@boost@@V?$list@UCertificate@v2@security@vanetza@@V?$allocator@UCertificate@v2@security@vanetza@@@std@@@2@UCertificateDigestWithOtherAlgorithm@v2@security@vanetza@@@boost@@@variant@detail@boost@@$0A@@563@PEBXUhas_fallback_type_@?$variant@_KUTime64WithStandardDeviation@v2@security@vanetza@@IUThreeDLocation@234@V?$list@V?$array@E$02@std@@V?$allocator@V?$array@E$02@std@@@2@@std@@VIntX@234@V?$variant@$$TV?$array@E$07@std@@V?$recursive_wrapper@UCertificate@v2@security@vanetza@@@boost@@V?$list@UCertificate@v2@security@vanetza@@V?$allocator@UCertificate@v2@security@vanetza@@@std@@@2@UCertificateDigestWithOtherAlgorithm@v2@security@vanetza@@@boost@@V?$variant@V?$array@E$0M@@std@@$$V@boost@@V?$list@URecipientInfo@v2@security@vanetza@@V?$allocator@URecipientInfo@v2@security@vanetza@@@std@@@7@@3@@variant@detail@boost@@YAPEBV?$variant@$$TV?$array@E$07@std@@V?$recursive_wrapper@UCertificate@v2@security@vanetza@@@boost@@V?$list@UCertificate@v2@security@vanetza@@V?$allocator@UCertificate@v2@security@vanetza@@@std@@@2@UCertificateDigestWithOtherAlgorithm@v2@security@vanetza@@@2@HHAEAV?$invoke_visitor@U?$get_visitor@$$CBV?$variant@$$TV?$array@E$07@std@@V?$recursive_wrapper@UCertificate@v2@security@vanetza@@@boost@@V?$list@UCertificate@v2@security@vanetza@@V?$allocator@UCertificate@v2@security@vanetza@@@std@@@2@UCertificateDigestWithOtherAlgorithm@v2@security@vanetza@@@boost@@@variant@detail@boost@@$0A@@012@PEBXU?$bool_@$00@mpl@2@Uhas_fallback_type_@?$variant@_KUTime64WithStandardDeviation@v2@security@vanetza@@IUThreeDLocation@234@V?$list@V?$array@E$02@std@@V?$allocator@V?$array@E$02@std@@@2@@std@@VIntX@234@V?$variant@$$TV?$array@E$07@std@@V?$recursive_wrapper@UCertificate@v2@security@vanetza@@@boost@@V?$list@UCertificate@v2@security@vanetza@@V?$allocator@UCertificate@v2@security@vanetza@@@std@@@2@UCertificateDigestWithOtherAlgorithm@v2@security@vanetza@@@boost@@V?$variant@V?$array@E$0M@@std@@$$V@boost@@V?$list@URecipientInfo@v2@security@vanetza@@V?$allocator@URecipientInfo@v2@security@vanetza@@@std@@@7@@2@PEAU?$int_@$0BE@@62@PEAU?$visitation_impl_step@U?$l_iter@Ul_end@mpl@boost@@@mpl@boost@@U123@@012@@Z
	??$visitation_impl@U?$int_@$0BE@@mpl@boost@@U?$visitation_impl_step@U?$l_iter@Ul_end@mpl@boost@@@mpl@boost@@U123@@variant@detail@3@V?$invoke_visitor@U?$get_visitor@$$CBV?$variant@UNoneRegion@v2@security@vanetza@@UCircularRegion@234@V?$list@URectangularRegion@v2@security@vanetza@@V?$allocator@URectangularRegion@v2@security@vanetza@@@std@@@std@@V?$list@UTwoDLocation@v2@security@vanetza@@V?$allocator@UTwoDLocation@v2@security@vanetza@@@std@@@7@UIdentifiedRegion@234@@boost@@@variant@detail@boost@@$0A@@563@PEBXUhas_fallback_type_@?$variant@IUStartAndEndValidity@v2@security@vanetza@@UStartAndDurationValidity@234@V?$variant@UNoneRegion@v2@security@vanetza@@UCircularRegion@234@V?$list@URectangularRegion@v2@security@vanetza@@V?$allocator@URectangularRegion@v2@security@vanetza@@@std@@@std@@V?$list@UTwoDLocation@v2@security@vanetza@@V?$allocator@UTwoDLocation@v2@security@vanetza@@@std@@@7@UIdentifiedRegion@234@@boost@@@3@@variant@detail@boost@@YAPEBV?$variant@UNoneRegion@v2@security@vanetza@@UCircularRegion@234@V?$list@URectangularRegion@v2@security@vanetza@@V?$allocator@URectangularRegion@v2@security@vanetza@@@std@@@std@@V?$list@UTwoDLocation@v2@security@vanetza@@V?$allocator@UTwoDLocation@v2@security@vanetza@@@std@@@7@UIdentifiedRegion@234@@2@HHAEAV?$invoke_visitor@U?$get_visitor@$$CBV?$variant@UNoneRegion@v2@security@vanetza@@UCircularRegion@234@V?$list@URectangularRegion@v2@security@vanetza@@V?$allocator@URectangularRegion@v2@security@vanetza@@@std@@@std@@V?$list@UTwoDLocation@v2@security@vanetza@@V?$allocator@UTwoDLocation@v2@security@vanetza@@@std@@@7@UIdentifiedRegion@234@@boost@@@variant@detail@boost@@$0A@@012@PEBXU?$bool_@$00@mpl@2@Uhas_fallback_type_@?$variant@IUStartAndEndValidity@v2@security@vanetza@@UStartAndDurationValidity@234@V?$variant@UNoneRegion@v2@security@vanetza@@UCircularRegion@234@V?$list@URectangularRegion@v2@security@vanetza@@V?$allocator@URectangularRegion@v2@security@vanetza@@@std@@@std@@V?$list@UTwoDLocation@v2@security@vanetza@@V?$allocator@UTwoDLocation@v2@security@vanetza@@@std@@@7@UIdentifiedRegion@234@@boost@@@2@PEAU?$int_@$0BE@@62@PEAU?$visitation_impl_step@U?$l_iter@Ul_end@mpl@boost@@@mpl@boost@@U123@@012@@Z
	??$visitation_impl@U?$int_@$0BE@@mpl@boost@@U?$visitation_impl_step@U?$l_iter@Ul_end@mpl@boost@@@mpl@boost@@U123@@variant@detail@3@V?$invoke_visitor@U?$get_visitor@$$CBV?$variant@USecuredMessage@v2@security@vanetza@@U1v3@34@@boost@@@variant@detail@boost@@$0A@@563@PEBXUhas_fallback_type_@?$variant@V?$variant@USecuredMessage@v2@security@vanetza@@U1v3@34@@boost@@W4SignConfirmError@security@vanetza@@@3@@variant@detail@boost@@YAPEBV?$variant@USecuredMessage@v2@security@vanetza@@U1v3@34@@2@HHAEAV?$invoke_visitor@U?$get_visitor@$$CBV?$variant@USecuredMessage@v2@security@vanetza@@U1v3@34@@boost@@@variant@detail@boost@@$0A@@012@PEBXU?$bool_@$00@mpl@2@Uhas_fallback_type_@?$variant@V?$variant@USecuredMessage@v2@security@vanetza@@U1v3@34@@boost@@W4SignConfirmError@security@vanetza@@@2@PEAU?$int_@$0BE@@62@PEAU?$visitation_impl_step@U?$l_iter@Ul_end@mpl@boost@@@mpl@boost@@U123@@012@@Z
	??$visitation_impl@U?$int_@$0BE@@mpl@boost@@U?$visitation_impl_step@U?$l_iter@Ul_end@mpl@boost@@@mpl@boost@@U123@@variant@detail@3@V?$invoke_visitor@U?$get_visitor@$$CBVIntX@v2@security@vanetza@@@variant@detail@boost@@$0A@@563@PEBXUhas_fallback_type_@?$variant@_KUTime64WithStandardDeviation@v2@security@vanetza@@IUThreeDLocation@234@V?$list@V?$array@E$02@std@@V?$allocator@V?$array@E$02@std@@@2@@std@@VIntX@234@V?$variant@$$TV?$array@E$07@std@@V?$recursive_wrapper@UCertificate@v2@security@vanetza@@@boost@@V?$list@UCertificate@v2@security@vanetza@@V?$allocator@UCertificate@v2@security@vanetza@@@std@@@2@UCertificateDigestWithOtherAlgorithm@v2@security@vanetza@@@boost@@V?$variant@V?$array@E$0M@@std@@$$V@boost@@V?$list@URecipientInfo@v2@security@vanetza@@V?$allocator@URecipientInfo@v2@security@vanetza@@@std@@@7@@3@@variant@detail@boost@@YAPEBVIntX@v2@security@vanetza@@HHAEAV?$invoke_visitor@U?$get_visitor@$$CBVIntX@v2@security@vanetza@@@variant@detail@boost@@$0A@@012@PEBXU?$bool_@$00@mpl@2@Uhas_fallback_type_@?$variant@_KUTime64WithStandardDeviation@v2@security@vanetza@@IUThreeDLocation@234@V?$list@V?$array@E$02@std@@V?$allocator@V?$array@E$02@std@@@2@@std@@VIntX@234@V?$variant@$$TV?$array@E$07@std@@V?$recursive_wrapper@UCertificate@v2@security@vanetza@@@boost@@V?$list@UCertificate@v2@security@vanetza@@V?$allocator@UCertificate@v2@security@vanetza@@@std@@@2@UCertificateDigestWithOtherAlgorithm@v2@security@vanetza@@@boost@@V?$variant@V?$array@E$0M@@std@@$$V@boost@@V?$list@URecipientInfo@v2@security@vanetza@@V?$allocator@URecipientInfo@v2@security@vanetza@@@std@@@7@@2@PEAU?$int_@$0BE@@92@PEAU?$visitation_impl_step@U?$l_iter@Ul_end@mpl@boost@@@mpl@boost@@U123@@012@@Z
	??$visitation_impl@U?$int_@$0BE@@mpl@boost@@U?$visitation_impl_step@U?$l_iter@Ul_end@mpl@boost@@@mpl@boost@@U123@@variant@detail@3@V?$invoke_visitor@U?$get_visitor@$$CB_K@variant@detail@boost@@$0A@@563@PEBXUhas_fallback_type_@?$variant@_KUTime64WithStandardDeviation@v2@security@vanetza@@IUThreeDLocation@234@V?$list@V?$array@E$02@std@@V?$allocator@V?$array@E$02@std@@@2@@std@@VIntX@234@V?$variant@$$TV?$array@E$07@std@@V?$recursive_wrapper@UCertificate@v2@security@vanetza@@@boost@@V?$list@UCertificate@v2@security@vanetza@@V?$allocator@UCertificate@v2@security@vanetza@@@std@@@2@UCertificateDigestWithOtherAlgorithm@v2@security@vanetza@@@boost@@V?$variant@V?$array@E$0M@@std@@$$V@boost@@V?$list@URecipientInfo@v2@security@vanetza@@V?$allocator@URecipientInfo@v2@security@vanetza@@@std@@@7@@3@@variant@detail@boost@@YAPEB_KHHAEAV?$invoke_visitor@U?$get_visitor@$$CB_K@variant@detail@boost@@$0A@@012@PEBXU?$bool_@$00@mpl@2@Uhas_fallback_type_@?$variant@_KUTime64WithStandardDeviation@v2@security@vanetza@@IUThreeDLocation@234@V?$list@V?$array@E$02@std@@V?$allocator@V?$array@E$02@std@@@2@@std@@VIntX@234@V?$variant@$$TV?$array@E$07@std@@V?$recursive_wrapper@UCertificate@v2@security@vanetza@@@boost@@V?$list@UCertificate@v2@security@vanetza@@V?$allocator@UCertificate@v2@security@vanetza@@@std@@@2@UCertificateDigestWithOtherAlgorithm@v2@security@vanetza@@@boost@@V?$variant@V?$array@E$0M@@std@@$$V@boost@@V?$list@URecipientInfo@v2@security@vanetza@@V?$allocator@URecipientInfo@v2@security@vanetza@@@std@@@7@@2@PEAU?$int_@$0BE@@52@PEAU?$visitation_impl_step@U?$l_iter@Ul_end@mpl@boost@@@mpl@boost@@U123@@012@@Z
	??$visitation_impl@U?$int_@$0BE@@mpl@boost@@U?$visitation_impl_step@U?$l_iter@Ul_end@mpl@boost@@@mpl@boost@@U123@@variant@detail@3@V?$invoke_visitor@U?$get_visitor@UStartAndEndValidity@v2@security@vanetza@@@variant@detail@boost@@$0A@@563@PEAXUhas_fallback_type_@?$variant@IUStartAndEndValidity@v2@security@vanetza@@UStartAndDurationValidity@234@V?$variant@UNoneRegion@v2@security@vanetza@@UCircularRegion@234@V?$list@URectangularRegion@v2@security@vanetza@@V?$allocator@URectangularRegion@v2@security@vanetza@@@std@@@std@@V?$list@UTwoDLocation@v2@security@vanetza@@V?$allocator@UTwoDLocation@v2@security@vanetza@@@std@@@7@UIdentifiedRegion@234@@boost@@@3@@variant@detail@boost@@YAPEAUStartAndEndValidity@v2@security@vanetza@@HHAEAV?$invoke_visitor@U?$get_visitor@UStartAndEndValidity@v2@security@vanetza@@@variant@detail@boost@@$0A@@012@PEAXU?$bool_@$00@mpl@2@Uhas_fallback_type_@?$variant@IUStartAndEndValidity@v2@security@vanetza@@UStartAndDurationValidity@234@V?$variant@UNoneRegion@v2@security@vanetza@@UCircularRegion@234@V?$list@URectangularRegion@v2@security@vanetza@@V?$allocator@URectangularRegion@v2@security@vanetza@@@std@@@std@@V?$list@UTwoDLocation@v2@security@vanetza@@V?$allocator@UTwoDLocation@v2@security@vanetza@@@std@@@7@UIdentifiedRegion@234@@boost@@@2@PEAU?$int_@$0BE@@92@PEAU?$visitation_impl_step@U?$l_iter@Ul_end@mpl@boost@@@mpl@boost@@U123@@012@@Z
	??$visitation_impl@U?$int_@$0BE@@mpl@boost@@U?$visitation_impl_step@U?$l_iter@Ul_end@mpl@boost@@@mpl@boost@@U123@@variant@detail@3@V?$invoke_visitor@U?$get_visitor@V?$array@E$07@std@@@variant@detail@boost@@$0A@@563@PEAXUhas_fallback_type_@?$variant@$$TV?$array@E$07@std@@V?$recursive_wrapper@UCertificate@v2@security@vanetza@@@boost@@V?$list@UCertificate@v2@security@vanetza@@V?$allocator@UCertificate@v2@security@vanetza@@@std@@@2@UCertificateDigestWithOtherAlgorithm@v2@security@vanetza@@@3@@variant@detail@boost@@YAPEAV?$array@E$07@std@@HHAEAV?$invoke_visitor@U?$get_visitor@V?$array@E$07@std@@@variant@detail@boost@@$0A@@012@PEAXU?$bool_@$00@mpl@2@Uhas_fallback_type_@?$variant@$$TV?$array@E$07@std@@V?$recursive_wrapper@UCertificate@v2@security@vanetza@@@boost@@V?$list@UCertificate@v2@security@vanetza@@V?$allocator@UCertificate@v2@security@vanetza@@@std@@@2@UCertificateDigestWithOtherAlgorithm@v2@security@vanetza@@@2@PEAU?$int_@$0BE@@72@PEAU?$visitation_impl_step@U?$l_iter@Ul_end@mpl@boost@@@mpl@boost@@U123@@012@@Z
	??$visitation_impl@U?$int_@$0BE@@mpl@boost@@U?$visitation_impl_step@U?$l_iter@Ul_end@mpl@boost@@@mpl@boost@@U123@@variant@detail@3@V?$invoke_visitor@U?$get_visitor@V?$list@UItsAidSsp@v2@security@vanetza@@V?$allocator@UItsAidSsp@v2@security@vanetza@@@std@@@std@@@variant@detail@boost@@$0A@@563@PEAXUhas_fallback_type_@?$variant@UVerificationKey@v2@security@vanetza@@UEncryptionKey@234@USubjectAssurance@234@V?$variant@UX_Coordinate_Only@security@vanetza@@UCompressed_Lsb_Y_0@23@UCompressed_Lsb_Y_1@23@UUncompressed@23@@boost@@V?$list@VIntX@v2@security@vanetza@@V?$allocator@VIntX@v2@security@vanetza@@@std@@@std@@V?$list@UItsAidSsp@v2@security@vanetza@@V?$allocator@UItsAidSsp@v2@security@vanetza@@@std@@@std@@@3@@variant@detail@boost@@YAPEAV?$list@UItsAidSsp@v2@security@vanetza@@V?$allocator@UItsAidSsp@v2@security@vanetza@@@std@@@std@@HHAEAV?$invoke_visitor@U?$get_visitor@V?$list@UItsAidSsp@v2@security@vanetza@@V?$allocator@UItsAidSsp@v2@security@vanetza@@@std@@@std@@@variant@detail@boost@@$0A@@012@PEAXU?$bool_@$00@mpl@2@Uhas_fallback_type_@?$variant@UVerificationKey@v2@security@vanetza@@UEncryptionKey@234@USubjectAssurance@234@V?$variant@UX_Coordinate_Only@security@vanetza@@UCompressed_Lsb_Y_0@23@UCompressed_Lsb_Y_1@23@UUncompressed@23@@boost@@V?$list@VIntX@v2@security@vanetza@@V?$allocator@VIntX@v2@security@vanetza@@@std@@@std@@V?$list@UItsAidSsp@v2@security@vanetza@@V?$allocator@UItsAidSsp@v2@security@vanetza@@@std@@@std@@@2@PEAU?$int_@$0BE@@72@PEAU?$visitation_impl_step@U?$l_iter@Ul_end@mpl@boost@@@mpl@boost@@U123@@012@@Z
	??$visitation_impl@U?$int_@$0BE@@mpl@boost@@U?$visitation_impl_step@U?$l_iter@Ul_end@mpl@boost@@@mpl@boost@@U123@@variant@detail@3@V?$invoke_visitor@U?$get_visitor@V?$list@VIntX@v2@security@vanetza@@V?$allocator@VIntX@v2@security@vanetza@@@std@@@std@@@variant@detail@boost@@$0A@@563@PEAXUhas_fallback_type_@?$variant@UVerificationKey@v2@security@vanetza@@UEncryptionKey@234@USubjectAssurance@234@V?$variant@UX_Coordinate_Only@security@vanetza@@UCompressed_Lsb_Y_0@23@UCompressed_Lsb_Y_1@23@UUncompressed@23@@boost@@V?$list@VIntX@v2@security@vanetza@@V?$allocator@VIntX@v2@security@vanetza@@@std@@@std@@V?$list@UItsAidSsp@v2@security@vanetza@@V?$allocator@UItsAidSsp@v2@security@vanetza@@@std@@@std@@@3@@variant@detail@boost@@YAPEAV?$list@VIntX@v2@security@vanetza@@V?$allocator@VIntX@v2@security@vanetza@@@std@@@std@@HHAEAV?$invoke_visitor@U?$get_visitor@V?$list@VIntX@v2@security@vanetza@@V?$allocator@VIntX@v2@security@vanetza@@@std@@@std@@@variant@detail@boost@@$0A@@012@PEAXU?$bool_@$00@mpl@2@Uhas_fallback_type_@?$variant@UVerificationKey@v2@security@vanetza@@UEncryptionKey@234@USubjectAssurance@234@V?$variant@UX_Coordinate_Only@security@vanetza@@UCompressed_Lsb_Y_0@23@UCompressed_Lsb_Y_1@23@UUncompressed@23@@boost@@V?$list@VIntX@v2@security@vanetza@@V?$allocator@VIntX@v2@security@vanetza@@@std@@@std@@V?$list@UItsAidSsp@v2@security@vanetza@@V?$allocator@UItsAidSsp@v2@security@vanetza@@@std@@@std@@@2@PEAU?$int_@$0BE@@72@PEAU?$visitation_impl_step@U?$l_iter@Ul_end@mpl@boost@@@mpl@boost@@U123@@012@@Z
	??$visitation_impl@U?$int_@$0BE@@mpl@boost@@U?$visitation_impl_step@U?$l_iter@Ul_end@mpl@boost@@@mpl@boost@@U123@@variant@detail@3@V?$invoke_visitor@U?$get_visitor@V?$variant@USecuredMessage@v2@security@vanetza@@U1v3@34@@boost@@@variant@detail@boost@@$0A@@563@PEAXUhas_fallback_type_@?$variant@V?$variant@USecuredMessage@v2@security@vanetza@@U1v3@34@@boost@@W4SignConfirmError@security@vanetza@@@3@@variant@detail@boost@@YAPEAV?$variant@USecuredMessage@v2@security@vanetza@@U1v3@34@@2@HHAEAV?$invoke_visitor@U?$get_visitor@V?$variant@USecuredMessage@v2@security@vanetza@@U1v3@34@@boost@@@variant@detail@boost@@$0A@@012@PEAXU?$bool_@$00@mpl@2@Uhas_fallback_type_@?$variant@V?$variant@USecuredMessage@v2@security@vanetza@@U1v3@34@@boost@@W4SignConfirmError@security@vanetza@@@2@PEAU?$int_@$0BE@@62@PEAU?$visitation_impl_step@U?$l_iter@Ul_end@mpl@boost@@@mpl@boost@@U123@@012@@Z
	??$visitation_impl@U?$int_@$0BE@@mpl@boost@@U?$visitation_impl_step@U?$l_iter@Ul_end@mpl@boost@@@mpl@boost@@U123@@variant@detail@3@V?$invoke_visitor@USerializeVisitor@security@vanetza@@$0A@@563@PEBXUhas_fallback_type_@?$variant@AEBUSecuredMessage@v2@security@vanetza@@AEBU1v3@34@@3@@variant@detail@boost@@YAXHHAEAV?$invoke_visitor@USerializeVisitor@security@vanetza@@$0A@@012@PEBXU?$bool_@$00@mpl@2@Uhas_fallback_type_@?$variant@AEBUSecuredMessage@v2@security@vanetza@@AEBU1v3@34@@2@PEAU?$int_@$0BE@@52@PEAU?$visitation_impl_step@U?$l_iter@Ul_end@mpl@boost@@@mpl@boost@@U123@@012@@Z
	??$visitation_impl@U?$int_@$0BE@@mpl@boost@@U?$visitation_impl_step@U?$l_iter@Ul_end@mpl@boost@@@mpl@boost@@U123@@variant@detail@3@V?$invoke_visitor@USerializeVisitor@security@vanetza@@$0A@@563@PEBXUhas_fallback_type_@?$variant@USecuredMessage@v2@security@vanetza@@U1v3@34@@3@@variant@detail@boost@@YAXHHAEAV?$invoke_visitor@USerializeVisitor@security@vanetza@@$0A@@012@PEBXU?$bool_@$00@mpl@2@Uhas_fallback_type_@?$variant@USecuredMessage@v2@security@vanetza@@U1v3@34@@2@PEAU?$int_@$0BE@@52@PEAU?$visitation_impl_step@U?$l_iter@Ul_end@mpl@boost@@@mpl@boost@@U123@@012@@Z
	??$visitation_impl@U?$int_@$0BE@@mpl@boost@@U?$visitation_impl_step@U?$l_iter@Ul_end@mpl@boost@@@mpl@boost@@U123@@variant@detail@3@V?$invoke_visitor@V?$direct_assigner@I@variant@detail@boost@@$0A@@563@PEAXUhas_fallback_type_@?$variant@IUStartAndEndValidity@v2@security@vanetza@@UStartAndDurationValidity@234@V?$variant@UNoneRegion@v2@security@vanetza@@UCircularRegion@234@V?$list@URectangularRegion@v2@security@vanetza@@V?$allocator@URectangularRegion@v2@security@vanetza@@@std@@@std@@V?$list@UTwoDLocation@v2@security@vanetza@@V?$allocator@UTwoDLocation@v2@security@vanetza@@@std@@@7@UIdentifiedRegion@234@@boost@@@3@@variant@detail@boost@@YA_NHHAEAV?$invoke_visitor@V?$direct_assigner@I@variant@detail@boost@@$0A@@012@PEAXU?$bool_@$00@mpl@2@Uhas_fallback_type_@?$variant@IUStartAndEndValidity@v2@security@vanetza@@UStartAndDurationValidity@234@V?$variant@UNoneRegion@v2@security@vanetza@@UCircularRegion@234@V?$list@URectangularRegion@v2@security@vanetza@@V?$allocator@URectangularRegion@v2@security@vanetza@@@std@@@std@@V?$list@UTwoDLocation@v2@security@vanetza@@V?$allocator@UTwoDLocation@v2@security@vanetza@@@std@@@7@UIdentifiedRegion@234@@boost@@@2@PEAU?$int_@$0BE@@52@PEAU?$visitation_impl_step@U?$l_iter@Ul_end@mpl@boost@@@mpl@boost@@U123@@012@@Z
	??$visitation_impl@U?$int_@$0BE@@mpl@boost@@U?$visitation_impl_step@U?$l_iter@Ul_end@mpl@boost@@@mpl@boost@@U123@@variant@detail@3@V?$invoke_visitor@V?$direct_assigner@I@variant@detail@boost@@$0A@@563@PEAXUhas_fallback_type_@?$variant@_KUTime64WithStandardDeviation@v2@security@vanetza@@IUThreeDLocation@234@V?$list@V?$array@E$02@std@@V?$allocator@V?$array@E$02@std@@@2@@std@@VIntX@234@V?$variant@$$TV?$array@E$07@std@@V?$recursive_wrapper@UCertificate@v2@security@vanetza@@@boost@@V?$list@UCertificate@v2@security@vanetza@@V?$allocator@UCertificate@v2@security@vanetza@@@std@@@2@UCertificateDigestWithOtherAlgorithm@v2@security@vanetza@@@boost@@V?$variant@V?$array@E$0M@@std@@$$V@boost@@V?$list@URecipientInfo@v2@security@vanetza@@V?$allocator@URecipientInfo@v2@security@vanetza@@@std@@@7@@3@@variant@detail@boost@@YA_NHHAEAV?$invoke_visitor@V?$direct_assigner@I@variant@detail@boost@@$0A@@012@PEAXU?$bool_@$00@mpl@2@Uhas_fallback_type_@?$variant@_KUTime64WithStandardDeviation@v2@security@vanetza@@IUThreeDLocation@234@V?$list@V?$array@E$02@std@@V?$allocator@V?$array@E$02@std@@@2@@std@@VIntX@234@V?$variant@$$TV?$array@E$07@std@@V?$recursive_wrapper@UCertificate@v2@security@vanetza@@@boost@@V?$list@UCertificate@v2@security@vanetza@@V?$allocator@UCertificate@v2@security@vanetza@@@std@@@2@UCertificateDigestWithOtherAlgorithm@v2@security@vanetza@@@boost@@V?$variant@V?$array@E$0M@@std@@$$V@boost@@V?$list@URecipientInfo@v2@security@vanetza@@V?$allocator@URecipientInfo@v2@security@vanetza@@@std@@@7@@2@PEAU?$int_@$0BE@@52@PEAU?$visitation_impl_step@U?$l_iter@Ul_end@mpl@boost@@@mpl@boost@@U123@@012@@Z
	??$visitation_impl@U?$int_@$0BE@@mpl@boost@@U?$visitation_impl_step@U?$l_iter@Ul_end@mpl@boost@@@mpl@boost@@U123@@variant@detail@3@V?$invoke_visitor@V?$direct_assigner@UCertificate@v2@security@vanetza@@@variant@detail@boost@@$0A@@563@PEAXUhas_fallback_type_@?$variant@$$TV?$array@E$07@std@@V?$recursive_wrapper@UCertificate@v2@security@vanetza@@@boost@@V?$list@UCertificate@v2@security@vanetza@@V?$allocator@UCertificate@v2@security@vanetza@@@std@@@2@UCertificateDigestWithOtherAlgorithm@v2@security@vanetza@@@3@@variant@detail@boost@@YA_NHHAEAV?$invoke_visitor@V?$direct_assigner@UCertificate@v2@security@vanetza@@@variant@detail@boost@@$0A@@012@PEAXU?$bool_@$00@mpl@2@Uhas_fallback_type_@?$variant@$$TV?$array@E$07@std@@V?$recursive_wrapper@UCertificate@v2@security@vanetza@@@boost@@V?$list@UCertificate@v2@security@vanetza@@V?$allocator@UCertificate@v2@security@vanetza@@@std@@@2@UCertificateDigestWithOtherAlgorithm@v2@security@vanetza@@@2@PEAU?$int_@$0BE@@52@PEAU?$visitation_impl_step@U?$l_iter@Ul_end@mpl@boost@@@mpl@boost@@U123@@012@@Z
	??$visitation_impl@U?$int_@$0BE@@mpl@boost@@U?$visitation_impl_step@U?$l_iter@Ul_end@mpl@boost@@@mpl@boost@@U123@@variant@detail@3@V?$invoke_visitor@V?$direct_assigner@UCertificateDigestWithOtherAlgorithm@v2@security@vanetza@@@variant@detail@boost@@$0A@@563@PEAXUhas_fallback_type_@?$variant@$$TV?$array@E$07@std@@V?$recursive_wrapper@UCertificate@v2@security@vanetza@@@boost@@V?$list@UCertificate@v2@security@vanetza@@V?$allocator@UCertificate@v2@security@vanetza@@@std@@@2@UCertificateDigestWithOtherAlgorithm@v2@security@vanetza@@@3@@variant@detail@boost@@YA_NHHAEAV?$invoke_visitor@V?$direct_assigner@UCertificateDigestWithOtherAlgorithm@v2@security@vanetza@@@variant@detail@boost@@$0A@@012@PEAXU?$bool_@$00@mpl@2@Uhas_fallback_type_@?$variant@$$TV?$array@E$07@std@@V?$recursive_wrapper@UCertificate@v2@security@vanetza@@@boost@@V?$list@UCertificate@v2@security@vanetza@@V?$allocator@UCertificate@v2@security@vanetza@@@std@@@2@UCertificateDigestWithOtherAlgorithm@v2@security@vanetza@@@2@PEAU?$int_@$0BE@@52@PEAU?$visitation_impl_step@U?$l_iter@Ul_end@mpl@boost@@@mpl@boost@@U123@@012@@Z
	??$visitation_impl@U?$int_@$0BE@@mpl@boost@@U?$visitation_impl_step@U?$l_iter@Ul_end@mpl@boost@@@mpl@boost@@U123@@variant@detail@3@V?$invoke_visitor@V?$direct_assigner@UCircularRegion@v2@security@vanetza@@@variant@detail@boost@@$0A@@563@PEAXUhas_fallback_type_@?$variant@UNoneRegion@v2@security@vanetza@@UCircularRegion@234@V?$list@URectangularRegion@v2@security@vanetza@@V?$allocator@URectangularRegion@v2@security@vanetza@@@std@@@std@@V?$list@UTwoDLocation@v2@security@vanetza@@V?$allocator@UTwoDLocation@v2@security@vanetza@@@std@@@7@UIdentifiedRegion@234@@3@@variant@detail@boost@@YA_NHHAEAV?$invoke_visitor@V?$direct_assigner@UCircularRegion@v2@security@vanetza@@@variant@detail@boost@@$0A@@012@PEAXU?$bool_@$00@mpl@2@Uhas_fallback_type_@?$variant@UNoneRegion@v2@security@vanetza@@UCircularRegion@234@V?$list@URectangularRegion@v2@security@vanetza@@V?$allocator@URectangularRegion@v2@security@vanetza@@@std@@@std@@V?$list@UTwoDLocation@v2@security@vanetza@@V?$allocator@UTwoDLocation@v2@security@vanetza@@@std@@@7@UIdentifiedRegion@234@@2@PEAU?$int_@$0BE@@52@PEAU?$visitation_impl_step@U?$l_iter@Ul_end@mpl@boost@@@mpl@boost@@U123@@012@@Z
	??$visitation_impl@U?$int_@$0BE@@mpl@boost@@U?$visitation_impl_step@U?$l_iter@Ul_end@mpl@boost@@@mpl@boost@@U123@@variant@detail@3@V?$invoke_visitor@V?$direct_assigner@UCompressed_Lsb_Y_0@security@vanetza@@@variant@detail@boost@@$0A@@563@PEAXUhas_fallback_type_@?$variant@UX_Coordinate_Only@security@vanetza@@UCompressed_Lsb_Y_0@23@UCompressed_Lsb_Y_1@23@UUncompressed@23@@3@@variant@detail@boost@@YA_NHHAEAV?$invoke_visitor@V?$direct_assigner@UCompressed_Lsb_Y_0@security@vanetza@@@variant@detail@boost@@$0A@@012@PEAXU?$bool_@$00@mpl@2@Uhas_fallback_type_@?$variant@UX_Coordinate_Only@security@vanetza@@UCompressed_Lsb_Y_0@23@UCompressed_Lsb_Y_1@23@UUncompressed@23@@2@PEAU?$int_@$0BE@@52@PEAU?$visitation_impl_step@U?$l_iter@Ul_end@mpl@boost@@@mpl@boost@@U123@@012@@Z
	??$visitation_impl@U?$int_@$0BE@@mpl@boost@@U?$visitation_impl_step@U?$l_iter@Ul_end@mpl@boost@@@mpl@boost@@U123@@variant@detail@3@V?$invoke_visitor@V?$direct_assigner@UCompressed_Lsb_Y_1@security@vanetza@@@variant@detail@boost@@$0A@@563@PEAXUhas_fallback_type_@?$variant@UX_Coordinate_Only@security@vanetza@@UCompressed_Lsb_Y_0@23@UCompressed_Lsb_Y_1@23@UUncompressed@23@@3@@variant@detail@boost@@YA_NHHAEAV?$invoke_visitor@V?$direct_assigner@UCompressed_Lsb_Y_1@security@vanetza@@@variant@detail@boost@@$0A@@012@PEAXU?$bool_@$00@mpl@2@Uhas_fallback_type_@?$variant@UX_Coordinate_Only@security@vanetza@@UCompressed_Lsb_Y_0@23@UCompressed_Lsb_Y_1@23@UUncompressed@23@@2@PEAU?$int_@$0BE@@52@PEAU?$visitation_impl_step@U?$l_iter@Ul_end@mpl@boost@@@mpl@boost@@U123@@012@@Z
	??$visitation_impl@U?$int_@$0BE@@mpl@boost@@U?$visitation_impl_step@U?$l_iter@Ul_end@mpl@boost@@@mpl@boost@@U123@@variant@detail@3@V?$invoke_visitor@V?$direct_assigner@UEcdsaSignature@security@vanetza@@@variant@detail@boost@@$0A@@563@PEAXUhas_fallback_type_@?$variant@UEcdsaSignature@security@vanetza@@VEcdsaSignatureFuture@23@@3@@variant@detail@boost@@YA_NHHAEAV?$invoke_visitor@V?$direct_assigner@UEcdsaSignature@security@vanetza@@@variant@detail@boost@@$0A@@012@PEAXU?$bool_@$00@mpl@2@Uhas_fallback_type_@?$variant@UEcdsaSignature@security@vanetza@@VEcdsaSignatureFuture@23@@2@PEAU?$int_@$0BE@@52@PEAU?$visitation_impl_step@U?$l_iter@Ul_end@mpl@boost@@@mpl@boost@@U123@@012@@Z
	??$visitation_impl@U?$int_@$0BE@@mpl@boost@@U?$visitation_impl_step@U?$l_iter@Ul_end@mpl@boost@@@mpl@boost@@U123@@variant@detail@3@V?$invoke_visitor@V?$direct_assigner@UEncryptionKey@v2@security@vanetza@@@variant@detail@boost@@$0A@@563@PEAXUhas_fallback_type_@?$variant@UVerificationKey@v2@security@vanetza@@UEncryptionKey@234@USubjectAssurance@234@V?$variant@UX_Coordinate_Only@security@vanetza@@UCompressed_Lsb_Y_0@23@UCompressed_Lsb_Y_1@23@UUncompressed@23@@boost@@V?$list@VIntX@v2@security@vanetza@@V?$allocator@VIntX@v2@security@vanetza@@@std@@@std@@V?$list@UItsAidSsp@v2@security@vanetza@@V?$allocator@UItsAidSsp@v2@security@vanetza@@@std@@@std@@@3@@variant@detail@boost@@YA_NHHAEAV?$invoke_visitor@V?$direct_assigner@UEncryptionKey@v2@security@vanetza@@@variant@detail@boost@@$0A@@012@PEAXU?$bool_@$00@mpl@2@Uhas_fallback_type_@?$variant@UVerificationKey@v2@security@vanetza@@UEncryptionKey@234@USubjectAssurance@234@V?$variant@UX_Coordinate_Only@security@vanetza@@UCompressed_Lsb_Y_0@23@UCompressed_Lsb_Y_1@23@UUncompressed@23@@boost@@V?$list@VIntX@v2@security@vanetza@@V?$allocator@VIntX@v2@security@vanetza@@@std@@@std@@V?$list@UItsAidSsp@v2@security@vanetza@@V?$allocator@UItsAidSsp@v2@security@vanetza@@@std@@@std@@@2@PEAU?$int_@$0BE@@52@PEAU?$visitation_impl_step@U?$l_iter@Ul_end@mpl@boost@@@mpl@boost@@U123@@012@@Z
	??$visitation_impl@U?$int_@$0BE@@mpl@boost@@U?$visitation_impl_step@U?$l_iter@Ul_end@mpl@boost@@@mpl@boost@@U123@@variant@detail@3@V?$invoke_visitor@V?$direct_assigner@UIdentifiedRegion@v2@security@vanetza@@@variant@detail@boost@@$0A@@563@PEAXUhas_fallback_type_@?$variant@UNoneRegion@v2@security@vanetza@@UCircularRegion@234@V?$list@URectangularRegion@v2@security@vanetza@@V?$allocator@URectangularRegion@v2@security@vanetza@@@std@@@std@@V?$list@UTwoDLocation@v2@security@vanetza@@V?$allocator@UTwoDLocation@v2@security@vanetza@@@std@@@7@UIdentifiedRegion@234@@3@@variant@detail@boost@@YA_NHHAEAV?$invoke_visitor@V?$direct_assigner@UIdentifiedRegion@v2@security@vanetza@@@variant@detail@boost@@$0A@@012@PEAXU?$bool_@$00@mpl@2@Uhas_fallback_type_@?$variant@UNoneRegion@v2@security@vanetza@@UCircularRegion@234@V?$list@URectangularRegion@v2@security@vanetza@@V?$allocator@URectangularRegion@v2@security@vanetza@@@std@@@std@@V?$list@UTwoDLocation@v2@security@vanetza@@V?$allocator@UTwoDLocation@v2@security@vanetza@@@std@@@7@UIdentifiedRegion@234@@2@PEAU?$int_@$0BE@@52@PEAU?$visitation_impl_step@U?$l_iter@Ul_end@mpl@boost@@@mpl@boost@@U123@@012@@Z
	??$visitation_impl@U?$int_@$0BE@@mpl@boost@@U?$visitation_impl_step@U?$l_iter@Ul_end@mpl@boost@@@mpl@boost@@U123@@variant@detail@3@V?$invoke_visitor@V?$direct_assigner@UNoneRegion@v2@security@vanetza@@@variant@detail@boost@@$0A@@563@PEAXUhas_fallback_type_@?$variant@UNoneRegion@v2@security@vanetza@@UCircularRegion@234@V?$list@URectangularRegion@v2@security@vanetza@@V?$allocator@URectangularRegion@v2@security@vanetza@@@std@@@std@@V?$list@UTwoDLocation@v2@security@vanetza@@V?$allocator@UTwoDLocation@v2@security@vanetza@@@std@@@7@UIdentifiedRegion@234@@3@@variant@detail@boost@@YA_NHHAEAV?$invoke_visitor@V?$direct_assigner@UNoneRegion@v2@security@vanetza@@@variant@detail@boost@@$0A@@012@PEAXU?$bool_@$00@mpl@2@Uhas_fallback_type_@?$variant@UNoneRegion@v2@security@vanetza@@UCircularRegion@234@V?$list@URectangularRegion@v2@security@vanetza@@V?$allocator@URectangularRegion@v2@security@vanetza@@@std@@@std@@V?$list@UTwoDLocation@v2@security@vanetza@@V?$allocator@UTwoDLocation@v2@security@vanetza@@@std@@@7@UIdentifiedRegion@234@@2@PEAU?$int_@$0BE@@52@PEAU?$visitation_impl_step@U?$l_iter@Ul_end@mpl@boost@@@mpl@boost@@U123@@012@@Z
	??$visitation_impl@U?$int_@$0BE@@mpl@boost@@U?$visitation_impl_step@U?$l_iter@Ul_end@mpl@boost@@@mpl@boost@@U123@@variant@detail@3@V?$invoke_visitor@V?$direct_assigner@USignature@v2@security@vanetza@@@variant@detail@boost@@$0A@@563@PEAXUhas_fallback_type_@?$variant@USignature@v2@security@vanetza@@$$V@3@@variant@detail@boost@@YA_NHHAEAV?$invoke_visitor@V?$direct_assigner@USignature@v2@security@vanetza@@@variant@detail@boost@@$0A@@012@PEAXU?$bool_@$00@mpl@2@Uhas_fallback_type_@?$variant@USignature@v2@security@vanetza@@$$V@2@PEAU?$int_@$0BE@@52@PEAU?$visitation_impl_step@U?$l_iter@Ul_end@mpl@boost@@@mpl@boost@@U123@@012@@Z
	??$visitation_impl@U?$int_@$0BE@@mpl@boost@@U?$visitation_impl_step@U?$l_iter@Ul_end@mpl@boost@@@mpl@boost@@U123@@variant@detail@3@V?$invoke_visitor@V?$direct_assigner@UStartAndDurationValidity@v2@security@vanetza@@@variant@detail@boost@@$0A@@563@PEAXUhas_fallback_type_@?$variant@IUStartAndEndValidity@v2@security@vanetza@@UStartAndDurationValidity@234@V?$variant@UNoneRegion@v2@security@vanetza@@UCircularRegion@234@V?$list@URectangularRegion@v2@security@vanetza@@V?$allocator@URectangularRegion@v2@security@vanetza@@@std@@@std@@V?$list@UTwoDLocation@v2@security@vanetza@@V?$allocator@UTwoDLocation@v2@security@vanetza@@@std@@@7@UIdentifiedRegion@234@@boost@@@3@@variant@detail@boost@@YA_NHHAEAV?$invoke_visitor@V?$direct_assigner@UStartAndDurationValidity@v2@security@vanetza@@@variant@detail@boost@@$0A@@012@PEAXU?$bool_@$00@mpl@2@Uhas_fallback_type_@?$variant@IUStartAndEndValidity@v2@security@vanetza@@UStartAndDurationValidity@234@V?$variant@UNoneRegion@v2@security@vanetza@@UCircularRegion@234@V?$list@URectangularRegion@v2@security@vanetza@@V?$allocator@URectangularRegion@v2@security@vanetza@@@std@@@std@@V?$list@UTwoDLocation@v2@security@vanetza@@V?$allocator@UTwoDLocation@v2@security@vanetza@@@std@@@7@UIdentifiedRegion@234@@boost@@@2@PEAU?$int_@$0BE@@52@PEAU?$visitation_impl_step@U?$l_iter@Ul_end@mpl@boost@@@mpl@boost@@U123@@012@@Z
	??$visitation_impl@U?$int_@$0BE@@mpl@boost@@U?$visitation_impl_step@U?$l_iter@Ul_end@mpl@boost@@@mpl@boost@@U123@@variant@detail@3@V?$invoke_visitor@V?$direct_assigner@UStartAndEndValidity@v2@security@vanetza@@@variant@detail@boost@@$0A@@563@PEAXUhas_fallback_type_@?$variant@IUStartAndEndValidity@v2@security@vanetza@@UStartAndDurationValidity@234@V?$variant@UNoneRegion@v2@security@vanetza@@UCircularRegion@234@V?$list@URectangularRegion@v2@security@vanetza@@V?$allocator@URectangularRegion@v2@security@vanetza@@@std@@@std@@V?$list@UTwoDLocation@v2@security@vanetza@@V?$allocator@UTwoDLocation@v2@security@vanetza@@@std@@@7@UIdentifiedRegion@234@@boost@@@3@@variant@detail@boost@@YA_NHHAEAV?$invoke_visitor@V?$direct_assigner@UStartAndEndValidity@v2@security@vanetza@@@variant@detail@boost@@$0A@@012@PEAXU?$bool_@$00@mpl@2@Uhas_fallback_type_@?$variant@IUStartAndEndValidity@v2@security@vanetza@@UStartAndDurationValidity@234@V?$variant@UNoneRegion@v2@security@vanetza@@UCircularRegion@234@V?$list@URectangularRegion@v2@security@vanetza@@V?$allocator@URectangularRegion@v2@security@vanetza@@@std@@@std@@V?$list@UTwoDLocation@v2@security@vanetza@@V?$allocator@UTwoDLocation@v2@security@vanetza@@@std@@@7@UIdentifiedRegion@234@@boost@@@2@PEAU?$int_@$0BE@@52@PEAU?$visitation_impl_step@U?$l_iter@Ul_end@mpl@boost@@@mpl@boost@@U123@@012@@Z
	??$visitation_impl@U?$int_@$0BE@@mpl@boost@@U?$visitation_impl_step@U?$l_iter@Ul_end@mpl@boost@@@mpl@boost@@U123@@variant@detail@3@V?$invoke_visitor@V?$direct_assigner@USubjectAssurance@v2@security@vanetza@@@variant@detail@boost@@$0A@@563@PEAXUhas_fallback_type_@?$variant@UVerificationKey@v2@security@vanetza@@UEncryptionKey@234@USubjectAssurance@234@V?$variant@UX_Coordinate_Only@security@vanetza@@UCompressed_Lsb_Y_0@23@UCompressed_Lsb_Y_1@23@UUncompressed@23@@boost@@V?$list@VIntX@v2@security@vanetza@@V?$allocator@VIntX@v2@security@vanetza@@@std@@@std@@V?$list@UItsAidSsp@v2@security@vanetza@@V?$allocator@UItsAidSsp@v2@security@vanetza@@@std@@@std@@@3@@variant@detail@boost@@YA_NHHAEAV?$invoke_visitor@V?$direct_assigner@USubjectAssurance@v2@security@vanetza@@@variant@detail@boost@@$0A@@012@PEAXU?$bool_@$00@mpl@2@Uhas_fallback_type_@?$variant@UVerificationKey@v2@security@vanetza@@UEncryptionKey@234@USubjectAssurance@234@V?$variant@UX_Coordinate_Only@security@vanetza@@UCompressed_Lsb_Y_0@23@UCompressed_Lsb_Y_1@23@UUncompressed@23@@boost@@V?$list@VIntX@v2@security@vanetza@@V?$allocator@VIntX@v2@security@vanetza@@@std@@@std@@V?$list@UItsAidSsp@v2@security@vanetza@@V?$allocator@UItsAidSsp@v2@security@vanetza@@@std@@@std@@@2@PEAU?$int_@$0BE@@52@PEAU?$visitation_impl_step@U?$l_iter@Ul_end@mpl@boost@@@mpl@boost@@U123@@012@@Z
	??$visitation_impl@U?$int_@$0BE@@mpl@boost@@U?$visitation_impl_step@U?$l_iter@Ul_end@mpl@boost@@@mpl@boost@@U123@@variant@detail@3@V?$invoke_visitor@V?$direct_assigner@UThreeDLocation@v2@security@vanetza@@@variant@detail@boost@@$0A@@563@PEAXUhas_fallback_type_@?$variant@_KUTime64WithStandardDeviation@v2@security@vanetza@@IUThreeDLocation@234@V?$list@V?$array@E$02@std@@V?$allocator@V?$array@E$02@std@@@2@@std@@VIntX@234@V?$variant@$$TV?$array@E$07@std@@V?$recursive_wrapper@UCertificate@v2@security@vanetza@@@boost@@V?$list@UCertificate@v2@security@vanetza@@V?$allocator@UCertificate@v2@security@vanetza@@@std@@@2@UCertificateDigestWithOtherAlgorithm@v2@security@vanetza@@@boost@@V?$variant@V?$array@E$0M@@std@@$$V@boost@@V?$list@URecipientInfo@v2@security@vanetza@@V?$allocator@URecipientInfo@v2@security@vanetza@@@std@@@7@@3@@variant@detail@boost@@YA_NHHAEAV?$invoke_visitor@V?$direct_assigner@UThreeDLocation@v2@security@vanetza@@@variant@detail@boost@@$0A@@012@PEAXU?$bool_@$00@mpl@2@Uhas_fallback_type_@?$variant@_KUTime64WithStandardDeviation@v2@security@vanetza@@IUThreeDLocation@234@V?$list@V?$array@E$02@std@@V?$allocator@V?$array@E$02@std@@@2@@std@@VIntX@234@V?$variant@$$TV?$array@E$07@std@@V?$recursive_wrapper@UCertificate@v2@security@vanetza@@@boost@@V?$list@UCertificate@v2@security@vanetza@@V?$allocator@UCertificate@v2@security@vanetza@@@std@@@2@UCertificateDigestWithOtherAlgorithm@v2@security@vanetza@@@boost@@V?$variant@V?$array@E$0M@@std@@$$V@boost@@V?$list@URecipientInfo@v2@security@vanetza@@V?$allocator@URecipientInfo@v2@security@vanetza@@@std@@@7@@2@PEAU?$int_@$0BE@@52@PEAU?$visitation_impl_step@U?$l_iter@Ul_end@mpl@boost@@@mpl@boost@@U123@@012@@Z
	??$visitation_impl@U?$int_@$0BE@@mpl@boost@@U?$visitation_impl_step@U?$l_iter@Ul_end@mpl@boost@@@mpl@boost@@U123@@variant@detail@3@V?$invoke_visitor@V?$direct_assigner@UTime64WithStandardDeviation@v2@security@vanetza@@@variant@detail@boost@@$0A@@563@PEAXUhas_fallback_type_@?$variant@_KUTime64WithStandardDeviation@v2@security@vanetza@@IUThreeDLocation@234@V?$list@V?$array@E$02@std@@V?$allocator@V?$array@E$02@std@@@2@@std@@VIntX@234@V?$variant@$$TV?$array@E$07@std@@V?$recursive_wrapper@UCertificate@v2@security@vanetza@@@boost@@V?$list@UCertificate@v2@security@vanetza@@V?$allocator@UCertificate@v2@security@vanetza@@@std@@@2@UCertificateDigestWithOtherAlgorithm@v2@security@vanetza@@@boost@@V?$variant@V?$array@E$0M@@std@@$$V@boost@@V?$list@URecipientInfo@v2@security@vanetza@@V?$allocator@URecipientInfo@v2@security@vanetza@@@std@@@7@@3@@variant@detail@boost@@YA_NHHAEAV?$invoke_visitor@V?$direct_assigner@UTime64WithStandardDeviation@v2@security@vanetza@@@variant@detail@boost@@$0A@@012@PEAXU?$bool_@$00@mpl@2@Uhas_fallback_type_@?$variant@_KUTime64WithStandardDeviation@v2@security@vanetza@@IUThreeDLocation@234@V?$list@V?$array@E$02@std@@V?$allocator@V?$array@E$02@std@@@2@@std@@VIntX@234@V?$variant@$$TV?$array@E$07@std@@V?$recursive_wrapper@UCertificate@v2@security@vanetza@@@boost@@V?$list@UCertificate@v2@security@vanetza@@V?$allocator@UCertificate@v2@security@vanetza@@@std@@@2@UCertificateDigestWithOtherAlgorithm@v2@security@vanetza@@@boost@@V?$variant@V?$array@E$0M@@std@@$$V@boost@@V?$list@URecipientInfo@v2@security@vanetza@@V?$allocator@URecipientInfo@v2@security@vanetza@@@std@@@7@@2@PEAU?$int_@$0BE@@52@PEAU?$visitation_impl_step@U?$l_iter@Ul_end@mpl@boost@@@mpl@boost@@U123@@012@@Z
	??$visitation_impl@U?$int_@$0BE@@mpl@boost@@U?$visitation_impl_step@U?$l_iter@Ul_end@mpl@boost@@@mpl@boost@@U123@@variant@detail@3@V?$invoke_visitor@V?$direct_assigner@UUncompressed@security@vanetza@@@variant@detail@boost@@$0A@@563@PEAXUhas_fallback_type_@?$variant@UX_Coordinate_Only@security@vanetza@@UCompressed_Lsb_Y_0@23@UCompressed_Lsb_Y_1@23@UUncompressed@23@@3@@variant@detail@boost@@YA_NHHAEAV?$invoke_visitor@V?$direct_assigner@UUncompressed@security@vanetza@@@variant@detail@boost@@$0A@@012@PEAXU?$bool_@$00@mpl@2@Uhas_fallback_type_@?$variant@UX_Coordinate_Only@security@vanetza@@UCompressed_Lsb_Y_0@23@UCompressed_Lsb_Y_1@23@UUncompressed@23@@2@PEAU?$int_@$0BE@@52@PEAU?$visitation_impl_step@U?$l_iter@Ul_end@mpl@boost@@@mpl@boost@@U123@@012@@Z
	??$visitation_impl@U?$int_@$0BE@@mpl@boost@@U?$visitation_impl_step@U?$l_iter@Ul_end@mpl@boost@@@mpl@boost@@U123@@variant@detail@3@V?$invoke_visitor@V?$direct_assigner@UVerificationKey@v2@security@vanetza@@@variant@detail@boost@@$0A@@563@PEAXUhas_fallback_type_@?$variant@UVerificationKey@v2@security@vanetza@@UEncryptionKey@234@USubjectAssurance@234@V?$variant@UX_Coordinate_Only@security@vanetza@@UCompressed_Lsb_Y_0@23@UCompressed_Lsb_Y_1@23@UUncompressed@23@@boost@@V?$list@VIntX@v2@security@vanetza@@V?$allocator@VIntX@v2@security@vanetza@@@std@@@std@@V?$list@UItsAidSsp@v2@security@vanetza@@V?$allocator@UItsAidSsp@v2@security@vanetza@@@std@@@std@@@3@@variant@detail@boost@@YA_NHHAEAV?$invoke_visitor@V?$direct_assigner@UVerificationKey@v2@security@vanetza@@@variant@detail@boost@@$0A@@012@PEAXU?$bool_@$00@mpl@2@Uhas_fallback_type_@?$variant@UVerificationKey@v2@security@vanetza@@UEncryptionKey@234@USubjectAssurance@234@V?$variant@UX_Coordinate_Only@security@vanetza@@UCompressed_Lsb_Y_0@23@UCompressed_Lsb_Y_1@23@UUncompressed@23@@boost@@V?$list@VIntX@v2@security@vanetza@@V?$allocator@VIntX@v2@security@vanetza@@@std@@@std@@V?$list@UItsAidSsp@v2@security@vanetza@@V?$allocator@UItsAidSsp@v2@security@vanetza@@@std@@@std@@@2@PEAU?$int_@$0BE@@52@PEAU?$visitation_impl_step@U?$l_iter@Ul_end@mpl@boost@@@mpl@boost@@U123@@012@@Z
	??$visitation_impl@U?$int_@$0BE@@mpl@boost@@U?$visitation_impl_step@U?$l_iter@Ul_end@mpl@boost@@@mpl@boost@@U123@@variant@detail@3@V?$invoke_visitor@V?$direct_assigner@UX_Coordinate_Only@security@vanetza@@@variant@detail@boost@@$0A@@563@PEAXUhas_fallback_type_@?$variant@UX_Coordinate_Only@security@vanetza@@UCompressed_Lsb_Y_0@23@UCompressed_Lsb_Y_1@23@UUncompressed@23@@3@@variant@detail@boost@@YA_NHHAEAV?$invoke_visitor@V?$direct_assigner@UX_Coordinate_Only@security@vanetza@@@variant@detail@boost@@$0A@@012@PEAXU?$bool_@$00@mpl@2@Uhas_fallback_type_@?$variant@UX_Coordinate_Only@security@vanetza@@UCompressed_Lsb_Y_0@23@UCompressed_Lsb_Y_1@23@UUncompressed@23@@2@PEAU?$int_@$0BE@@52@PEAU?$visitation_impl_step@U?$l_iter@Ul_end@mpl@boost@@@mpl@boost@@U123@@012@@Z
	??$visitation_impl@U?$int_@$0BE@@mpl@boost@@U?$visitation_impl_step@U?$l_iter@Ul_end@mpl@boost@@@mpl@boost@@U123@@variant@detail@3@V?$invoke_visitor@V?$direct_assigner@Uecdsa_nistp256_with_sha256@v2@security@vanetza@@@variant@detail@boost@@$0A@@563@PEAXUhas_fallback_type_@?$variant@Uecdsa_nistp256_with_sha256@v2@security@vanetza@@Uecies_nistp256@234@@3@@variant@detail@boost@@YA_NHHAEAV?$invoke_visitor@V?$direct_assigner@Uecdsa_nistp256_with_sha256@v2@security@vanetza@@@variant@detail@boost@@$0A@@012@PEAXU?$bool_@$00@mpl@2@Uhas_fallback_type_@?$variant@Uecdsa_nistp256_with_sha256@v2@security@vanetza@@Uecies_nistp256@234@@2@PEAU?$int_@$0BE@@52@PEAU?$visitation_impl_step@U?$l_iter@Ul_end@mpl@boost@@@mpl@boost@@U123@@012@@Z
	??$visitation_impl@U?$int_@$0BE@@mpl@boost@@U?$visitation_impl_step@U?$l_iter@Ul_end@mpl@boost@@@mpl@boost@@U123@@variant@detail@3@V?$invoke_visitor@V?$direct_assigner@Uecies_nistp256@v2@security@vanetza@@@variant@detail@boost@@$0A@@563@PEAXUhas_fallback_type_@?$variant@Uecdsa_nistp256_with_sha256@v2@security@vanetza@@Uecies_nistp256@234@@3@@variant@detail@boost@@YA_NHHAEAV?$invoke_visitor@V?$direct_assigner@Uecies_nistp256@v2@security@vanetza@@@variant@detail@boost@@$0A@@012@PEAXU?$bool_@$00@mpl@2@Uhas_fallback_type_@?$variant@Uecdsa_nistp256_with_sha256@v2@security@vanetza@@Uecies_nistp256@234@@2@PEAU?$int_@$0BE@@52@PEAU?$visitation_impl_step@U?$l_iter@Ul_end@mpl@boost@@@mpl@boost@@U123@@012@@Z
	??$visitation_impl@U?$int_@$0BE@@mpl@boost@@U?$visitation_impl_step@U?$l_iter@Ul_end@mpl@boost@@@mpl@boost@@U123@@variant@detail@3@V?$invoke_visitor@V?$direct_assigner@V?$array@E$07@std@@@variant@detail@boost@@$0A@@563@PEAXUhas_fallback_type_@?$variant@$$TV?$array@E$07@std@@V?$recursive_wrapper@UCertificate@v2@security@vanetza@@@boost@@V?$list@UCertificate@v2@security@vanetza@@V?$allocator@UCertificate@v2@security@vanetza@@@std@@@2@UCertificateDigestWithOtherAlgorithm@v2@security@vanetza@@@3@@variant@detail@boost@@YA_NHHAEAV?$invoke_visitor@V?$direct_assigner@V?$array@E$07@std@@@variant@detail@boost@@$0A@@012@PEAXU?$bool_@$00@mpl@2@Uhas_fallback_type_@?$variant@$$TV?$array@E$07@std@@V?$recursive_wrapper@UCertificate@v2@security@vanetza@@@boost@@V?$list@UCertificate@v2@security@vanetza@@V?$allocator@UCertificate@v2@security@vanetza@@@std@@@2@UCertificateDigestWithOtherAlgorithm@v2@security@vanetza@@@2@PEAU?$int_@$0BE@@52@PEAU?$visitation_impl_step@U?$l_iter@Ul_end@mpl@boost@@@mpl@boost@@U123@@012@@Z
	??$visitation_impl@U?$int_@$0BE@@mpl@boost@@U?$visitation_impl_step@U?$l_iter@Ul_end@mpl@boost@@@mpl@boost@@U123@@variant@detail@3@V?$invoke_visitor@V?$direct_assigner@V?$array@E$0M@@std@@@variant@detail@boost@@$0A@@563@PEAXUhas_fallback_type_@?$variant@V?$array@E$0M@@std@@$$V@3@@variant@detail@boost@@YA_NHHAEAV?$invoke_visitor@V?$direct_assigner@V?$array@E$0M@@std@@@variant@detail@boost@@$0A@@012@PEAXU?$bool_@$00@mpl@2@Uhas_fallback_type_@?$variant@V?$array@E$0M@@std@@$$V@2@PEAU?$int_@$0BE@@52@PEAU?$visitation_impl_step@U?$l_iter@Ul_end@mpl@boost@@@mpl@boost@@U123@@012@@Z
	??$visitation_impl@U?$int_@$0BE@@mpl@boost@@U?$visitation_impl_step@U?$l_iter@Ul_end@mpl@boost@@@mpl@boost@@U123@@variant@detail@3@V?$invoke_visitor@V?$direct_assigner@V?$list@UCertificate@v2@security@vanetza@@V?$allocator@UCertificate@v2@security@vanetza@@@std@@@std@@@variant@detail@boost@@$0A@@563@PEAXUhas_fallback_type_@?$variant@$$TV?$array@E$07@std@@V?$recursive_wrapper@UCertificate@v2@security@vanetza@@@boost@@V?$list@UCertificate@v2@security@vanetza@@V?$allocator@UCertificate@v2@security@vanetza@@@std@@@2@UCertificateDigestWithOtherAlgorithm@v2@security@vanetza@@@3@@variant@detail@boost@@YA_NHHAEAV?$invoke_visitor@V?$direct_assigner@V?$list@UCertificate@v2@security@vanetza@@V?$allocator@UCertificate@v2@security@vanetza@@@std@@@std@@@variant@detail@boost@@$0A@@012@PEAXU?$bool_@$00@mpl@2@Uhas_fallback_type_@?$variant@$$TV?$array@E$07@std@@V?$recursive_wrapper@UCertificate@v2@security@vanetza@@@boost@@V?$list@UCertificate@v2@security@vanetza@@V?$allocator@UCertificate@v2@security@vanetza@@@std@@@2@UCertificateDigestWithOtherAlgorithm@v2@security@vanetza@@@2@PEAU?$int_@$0BE@@52@PEAU?$visitation_impl_step@U?$l_iter@Ul_end@mpl@boost@@@mpl@boost@@U123@@012@@Z
	??$visitation_impl@U?$int_@$0BE@@mpl@boost@@U?$visitation_impl_step@U?$l_iter@Ul_end@mpl@boost@@@mpl@boost@@U123@@variant@detail@3@V?$invoke_visitor@V?$direct_assigner@V?$list@UItsAidSsp@v2@security@vanetza@@V?$allocator@UItsAidSsp@v2@security@vanetza@@@std@@@std@@@variant@detail@boost@@$0A@@563@PEAXUhas_fallback_type_@?$variant@UVerificationKey@v2@security@vanetza@@UEncryptionKey@234@USubjectAssurance@234@V?$variant@UX_Coordinate_Only@security@vanetza@@UCompressed_Lsb_Y_0@23@UCompressed_Lsb_Y_1@23@UUncompressed@23@@boost@@V?$list@VIntX@v2@security@vanetza@@V?$allocator@VIntX@v2@security@vanetza@@@std@@@std@@V?$list@UItsAidSsp@v2@security@vanetza@@V?$allocator@UItsAidSsp@v2@security@vanetza@@@std@@@std@@@3@@variant@detail@boost@@YA_NHHAEAV?$invoke_visitor@V?$direct_assigner@V?$list@UItsAidSsp@v2@security@vanetza@@V?$allocator@UItsAidSsp@v2@security@vanetza@@@std@@@std@@@variant@detail@boost@@$0A@@012@PEAXU?$bool_@$00@mpl@2@Uhas_fallback_type_@?$variant@UVerificationKey@v2@security@vanetza@@UEncryptionKey@234@USubjectAssurance@234@V?$variant@UX_Coordinate_Only@security@vanetza@@UCompressed_Lsb_Y_0@23@UCompressed_Lsb_Y_1@23@UUncompressed@23@@boost@@V?$list@VIntX@v2@security@vanetza@@V?$allocator@VIntX@v2@security@vanetza@@@std@@@std@@V?$list@UItsAidSsp@v2@security@vanetza@@V?$allocator@UItsAidSsp@v2@security@vanetza@@@std@@@std@@@2@PEAU?$int_@$0BE@@52@PEAU?$visitation_impl_step@U?$l_iter@Ul_end@mpl@boost@@@mpl@boost@@U123@@012@@Z
	??$visitation_impl@U?$int_@$0BE@@mpl@boost@@U?$visitation_impl_step@U?$l_iter@Ul_end@mpl@boost@@@mpl@boost@@U123@@variant@detail@3@V?$invoke_visitor@V?$direct_assigner@V?$list@URecipientInfo@v2@security@vanetza@@V?$allocator@URecipientInfo@v2@security@vanetza@@@std@@@std@@@variant@detail@boost@@$0A@@563@PEAXUhas_fallback_type_@?$variant@_KUTime64WithStandardDeviation@v2@security@vanetza@@IUThreeDLocation@234@V?$list@V?$array@E$02@std@@V?$allocator@V?$array@E$02@std@@@2@@std@@VIntX@234@V?$variant@$$TV?$array@E$07@std@@V?$recursive_wrapper@UCertificate@v2@security@vanetza@@@boost@@V?$list@UCertificate@v2@security@vanetza@@V?$allocator@UCertificate@v2@security@vanetza@@@std@@@2@UCertificateDigestWithOtherAlgorithm@v2@security@vanetza@@@boost@@V?$variant@V?$array@E$0M@@std@@$$V@boost@@V?$list@URecipientInfo@v2@security@vanetza@@V?$allocator@URecipientInfo@v2@security@vanetza@@@std@@@7@@3@@variant@detail@boost@@YA_NHHAEAV?$invoke_visitor@V?$direct_assigner@V?$list@URecipientInfo@v2@security@vanetza@@V?$allocator@URecipientInfo@v2@security@vanetza@@@std@@@std@@@variant@detail@boost@@$0A@@012@PEAXU?$bool_@$00@mpl@2@Uhas_fallback_type_@?$variant@_KUTime64WithStandardDeviation@v2@security@vanetza@@IUThreeDLocation@234@V?$list@V?$array@E$02@std@@V?$allocator@V?$array@E$02@std@@@2@@std@@VIntX@234@V?$variant@$$TV?$array@E$07@std@@V?$recursive_wrapper@UCertificate@v2@security@vanetza@@@boost@@V?$list@UCertificate@v2@security@vanetza@@V?$allocator@UCertificate@v2@security@vanetza@@@std@@@2@UCertificateDigestWithOtherAlgorithm@v2@security@vanetza@@@boost@@V?$variant@V?$array@E$0M@@std@@$$V@boost@@V?$list@URecipientInfo@v2@security@vanetza@@V?$allocator@URecipientInfo@v2@security@vanetza@@@std@@@7@@2@PEAU?$int_@$0BE@@52@PEAU?$visitation_impl_step@U?$l_iter@Ul_end@mpl@boost@@@mpl@boost@@U123@@012@@Z
	??$visitation_impl@U?$int_@$0BE@@mpl@boost@@U?$visitation_impl_step@U?$l_iter@Ul_end@mpl@boost@@@mpl@boost@@U123@@variant@detail@3@V?$invoke_visitor@V?$direct_assigner@V?$list@URectangularRegion@v2@security@vanetza@@V?$allocator@URectangularRegion@v2@security@vanetza@@@std@@@std@@@variant@detail@boost@@$0A@@563@PEAXUhas_fallback_type_@?$variant@UNoneRegion@v2@security@vanetza@@UCircularRegion@234@V?$list@URectangularRegion@v2@security@vanetza@@V?$allocator@URectangularRegion@v2@security@vanetza@@@std@@@std@@V?$list@UTwoDLocation@v2@security@vanetza@@V?$allocator@UTwoDLocation@v2@security@vanetza@@@std@@@7@UIdentifiedRegion@234@@3@@variant@detail@boost@@YA_NHHAEAV?$invoke_visitor@V?$direct_assigner@V?$list@URectangularRegion@v2@security@vanetza@@V?$allocator@URectangularRegion@v2@security@vanetza@@@std@@@std@@@variant@detail@boost@@$0A@@012@PEAXU?$bool_@$00@mpl@2@Uhas_fallback_type_@?$variant@UNoneRegion@v2@security@vanetza@@UCircularRegion@234@V?$list@URectangularRegion@v2@security@vanetza@@V?$allocator@URectangularRegion@v2@security@vanetza@@@std@@@std@@V?$list@UTwoDLocation@v2@security@vanetza@@V?$allocator@UTwoDLocation@v2@security@vanetza@@@std@@@7@UIdentifiedRegion@234@@2@PEAU?$int_@$0BE@@52@PEAU?$visitation_impl_step@U?$l_iter@Ul_end@mpl@boost@@@mpl@boost@@U123@@012@@Z
	??$visitation_impl@U?$int_@$0BE@@mpl@boost@@U?$visitation_impl_step@U?$l_iter@Ul_end@mpl@boost@@@mpl@boost@@U123@@variant@detail@3@V?$invoke_visitor@V?$direct_assigner@V?$list@UTwoDLocation@v2@security@vanetza@@V?$allocator@UTwoDLocation@v2@security@vanetza@@@std@@@std@@@variant@detail@boost@@$0A@@563@PEAXUhas_fallback_type_@?$variant@UNoneRegion@v2@security@vanetza@@UCircularRegion@234@V?$list@URectangularRegion@v2@security@vanetza@@V?$allocator@URectangularRegion@v2@security@vanetza@@@std@@@std@@V?$list@UTwoDLocation@v2@security@vanetza@@V?$allocator@UTwoDLocation@v2@security@vanetza@@@std@@@7@UIdentifiedRegion@234@@3@@variant@detail@boost@@YA_NHHAEAV?$invoke_visitor@V?$direct_assigner@V?$list@UTwoDLocation@v2@security@vanetza@@V?$allocator@UTwoDLocation@v2@security@vanetza@@@std@@@std@@@variant@detail@boost@@$0A@@012@PEAXU?$bool_@$00@mpl@2@Uhas_fallback_type_@?$variant@UNoneRegion@v2@security@vanetza@@UCircularRegion@234@V?$list@URectangularRegion@v2@security@vanetza@@V?$allocator@URectangularRegion@v2@security@vanetza@@@std@@@std@@V?$list@UTwoDLocation@v2@security@vanetza@@V?$allocator@UTwoDLocation@v2@security@vanetza@@@std@@@7@UIdentifiedRegion@234@@2@PEAU?$int_@$0BE@@52@PEAU?$visitation_impl_step@U?$l_iter@Ul_end@mpl@boost@@@mpl@boost@@U123@@012@@Z
	??$visitation_impl@U?$int_@$0BE@@mpl@boost@@U?$visitation_impl_step@U?$l_iter@Ul_end@mpl@boost@@@mpl@boost@@U123@@variant@detail@3@V?$invoke_visitor@V?$direct_assigner@V?$list@V?$array@E$02@std@@V?$allocator@V?$array@E$02@std@@@2@@std@@@variant@detail@boost@@$0A@@563@PEAXUhas_fallback_type_@?$variant@_KUTime64WithStandardDeviation@v2@security@vanetza@@IUThreeDLocation@234@V?$list@V?$array@E$02@std@@V?$allocator@V?$array@E$02@std@@@2@@std@@VIntX@234@V?$variant@$$TV?$array@E$07@std@@V?$recursive_wrapper@UCertificate@v2@security@vanetza@@@boost@@V?$list@UCertificate@v2@security@vanetza@@V?$allocator@UCertificate@v2@security@vanetza@@@std@@@2@UCertificateDigestWithOtherAlgorithm@v2@security@vanetza@@@boost@@V?$variant@V?$array@E$0M@@std@@$$V@boost@@V?$list@URecipientInfo@v2@security@vanetza@@V?$allocator@URecipientInfo@v2@security@vanetza@@@std@@@7@@3@@variant@detail@boost@@YA_NHHAEAV?$invoke_visitor@V?$direct_assigner@V?$list@V?$array@E$02@std@@V?$allocator@V?$array@E$02@std@@@2@@std@@@variant@detail@boost@@$0A@@012@PEAXU?$bool_@$00@mpl@2@Uhas_fallback_type_@?$variant@_KUTime64WithStandardDeviation@v2@security@vanetza@@IUThreeDLocation@234@V?$list@V?$array@E$02@std@@V?$allocator@V?$array@E$02@std@@@2@@std@@VIntX@234@V?$variant@$$TV?$array@E$07@std@@V?$recursive_wrapper@UCertificate@v2@security@vanetza@@@boost@@V?$list@UCertificate@v2@security@vanetza@@V?$allocator@UCertificate@v2@security@vanetza@@@std@@@2@UCertificateDigestWithOtherAlgorithm@v2@security@vanetza@@@boost@@V?$variant@V?$array@E$0M@@std@@$$V@boost@@V?$list@URecipientInfo@v2@security@vanetza@@V?$allocator@URecipientInfo@v2@security@vanetza@@@std@@@7@@2@PEAU?$int_@$0BE@@52@PEAU?$visitation_impl_step@U?$l_iter@Ul_end@mpl@boost@@@mpl@boost@@U123@@012@@Z
	??$visitation_impl@U?$int_@$0BE@@mpl@boost@@U?$visitation_impl_step@U?$l_iter@Ul_end@mpl@boost@@@mpl@boost@@U123@@variant@detail@3@V?$invoke_visitor@V?$direct_assigner@V?$list@VIntX@v2@security@vanetza@@V?$allocator@VIntX@v2@security@vanetza@@@std@@@std@@@variant@detail@boost@@$0A@@563@PEAXUhas_fallback_type_@?$variant@UVerificationKey@v2@security@vanetza@@UEncryptionKey@234@USubjectAssurance@234@V?$variant@UX_Coordinate_Only@security@vanetza@@UCompressed_Lsb_Y_0@23@UCompressed_Lsb_Y_1@23@UUncompressed@23@@boost@@V?$list@VIntX@v2@security@vanetza@@V?$allocator@VIntX@v2@security@vanetza@@@std@@@std@@V?$list@UItsAidSsp@v2@security@vanetza@@V?$allocator@UItsAidSsp@v2@security@vanetza@@@std@@@std@@@3@@variant@detail@boost@@YA_NHHAEAV?$invoke_visitor@V?$direct_assigner@V?$list@VIntX@v2@security@vanetza@@V?$allocator@VIntX@v2@security@vanetza@@@std@@@std@@@variant@detail@boost@@$0A@@012@PEAXU?$bool_@$00@mpl@2@Uhas_fallback_type_@?$variant@UVerificationKey@v2@security@vanetza@@UEncryptionKey@234@USubjectAssurance@234@V?$variant@UX_Coordinate_Only@security@vanetza@@UCompressed_Lsb_Y_0@23@UCompressed_Lsb_Y_1@23@UUncompressed@23@@boost@@V?$list@VIntX@v2@security@vanetza@@V?$allocator@VIntX@v2@security@vanetza@@@std@@@std@@V?$list@UItsAidSsp@v2@security@vanetza@@V?$allocator@UItsAidSsp@v2@security@vanetza@@@std@@@std@@@2@PEAU?$int_@$0BE@@52@PEAU?$visitation_impl_step@U?$l_iter@Ul_end@mpl@boost@@@mpl@boost@@U123@@012@@Z
	??$visitation_impl@U?$int_@$0BE@@mpl@boost@@U?$visitation_impl_step@U?$l_iter@Ul_end@mpl@boost@@@mpl@boost@@U123@@variant@detail@3@V?$invoke_visitor@V?$direct_assigner@V?$variant@$$TV?$array@E$07@std@@V?$recursive_wrapper@UCertificate@v2@security@vanetza@@@boost@@V?$list@UCertificate@v2@security@vanetza@@V?$allocator@UCertificate@v2@security@vanetza@@@std@@@2@UCertificateDigestWithOtherAlgorithm@v2@security@vanetza@@@boost@@@variant@detail@boost@@$0A@@563@PEAXUhas_fallback_type_@?$variant@_KUTime64WithStandardDeviation@v2@security@vanetza@@IUThreeDLocation@234@V?$list@V?$array@E$02@std@@V?$allocator@V?$array@E$02@std@@@2@@std@@VIntX@234@V?$variant@$$TV?$array@E$07@std@@V?$recursive_wrapper@UCertificate@v2@security@vanetza@@@boost@@V?$list@UCertificate@v2@security@vanetza@@V?$allocator@UCertificate@v2@security@vanetza@@@std@@@2@UCertificateDigestWithOtherAlgorithm@v2@security@vanetza@@@boost@@V?$variant@V?$array@E$0M@@std@@$$V@boost@@V?$list@URecipientInfo@v2@security@vanetza@@V?$allocator@URecipientInfo@v2@security@vanetza@@@std@@@7@@3@@variant@detail@boost@@YA_NHHAEAV?$invoke_visitor@V?$direct_assigner@V?$variant@$$TV?$array@E$07@std@@V?$recursive_wrapper@UCertificate@v2@security@vanetza@@@boost@@V?$list@UCertificate@v2@security@vanetza@@V?$allocator@UCertificate@v2@security@vanetza@@@std@@@2@UCertificateDigestWithOtherAlgorithm@v2@security@vanetza@@@boost@@@variant@detail@boost@@$0A@@012@PEAXU?$bool_@$00@mpl@2@Uhas_fallback_type_@?$variant@_KUTime64WithStandardDeviation@v2@security@vanetza@@IUThreeDLocation@234@V?$list@V?$array@E$02@std@@V?$allocator@V?$array@E$02@std@@@2@@std@@VIntX@234@V?$variant@$$TV?$array@E$07@std@@V?$recursive_wrapper@UCertificate@v2@security@vanetza@@@boost@@V?$list@UCertificate@v2@security@vanetza@@V?$allocator@UCertificate@v2@security@vanetza@@@std@@@2@UCertificateDigestWithOtherAlgorithm@v2@security@vanetza@@@boost@@V?$variant@V?$array@E$0M@@std@@$$V@boost@@V?$list@URecipientInfo@v2@security@vanetza@@V?$allocator@URecipientInfo@v2@security@vanetza@@@std@@@7@@2@PEAU?$int_@$0BE@@52@PEAU?$visitation_impl_step@U?$l_iter@Ul_end@mpl@boost@@@mpl@boost@@U123@@012@@Z
	??$visitation_impl@U?$int_@$0BE@@mpl@boost@@U?$visitation_impl_step@U?$l_iter@Ul_end@mpl@boost@@@mpl@boost@@U123@@variant@detail@3@V?$invoke_visitor@V?$direct_assigner@V?$variant@UNoneRegion@v2@security@vanetza@@UCircularRegion@234@V?$list@URectangularRegion@v2@security@vanetza@@V?$allocator@URectangularRegion@v2@security@vanetza@@@std@@@std@@V?$list@UTwoDLocation@v2@security@vanetza@@V?$allocator@UTwoDLocation@v2@security@vanetza@@@std@@@7@UIdentifiedRegion@234@@boost@@@variant@detail@boost@@$0A@@563@PEAXUhas_fallback_type_@?$variant@IUStartAndEndValidity@v2@security@vanetza@@UStartAndDurationValidity@234@V?$variant@UNoneRegion@v2@security@vanetza@@UCircularRegion@234@V?$list@URectangularRegion@v2@security@vanetza@@V?$allocator@URectangularRegion@v2@security@vanetza@@@std@@@std@@V?$list@UTwoDLocation@v2@security@vanetza@@V?$allocator@UTwoDLocation@v2@security@vanetza@@@std@@@7@UIdentifiedRegion@234@@boost@@@3@@variant@detail@boost@@YA_NHHAEAV?$invoke_visitor@V?$direct_assigner@V?$variant@UNoneRegion@v2@security@vanetza@@UCircularRegion@234@V?$list@URectangularRegion@v2@security@vanetza@@V?$allocator@URectangularRegion@v2@security@vanetza@@@std@@@std@@V?$list@UTwoDLocation@v2@security@vanetza@@V?$allocator@UTwoDLocation@v2@security@vanetza@@@std@@@7@UIdentifiedRegion@234@@boost@@@variant@detail@boost@@$0A@@012@PEAXU?$bool_@$00@mpl@2@Uhas_fallback_type_@?$variant@IUStartAndEndValidity@v2@security@vanetza@@UStartAndDurationValidity@234@V?$variant@UNoneRegion@v2@security@vanetza@@UCircularRegion@234@V?$list@URectangularRegion@v2@security@vanetza@@V?$allocator@URectangularRegion@v2@security@vanetza@@@std@@@std@@V?$list@UTwoDLocation@v2@security@vanetza@@V?$allocator@UTwoDLocation@v2@security@vanetza@@@std@@@7@UIdentifiedRegion@234@@boost@@@2@PEAU?$int_@$0BE@@52@PEAU?$visitation_impl_step@U?$l_iter@Ul_end@mpl@boost@@@mpl@boost@@U123@@012@@Z
	??$visitation_impl@U?$int_@$0BE@@mpl@boost@@U?$visitation_impl_step@U?$l_iter@Ul_end@mpl@boost@@@mpl@boost@@U123@@variant@detail@3@V?$invoke_visitor@V?$direct_assigner@V?$variant@V?$array@E$0M@@std@@$$V@boost@@@variant@detail@boost@@$0A@@563@PEAXUhas_fallback_type_@?$variant@_KUTime64WithStandardDeviation@v2@security@vanetza@@IUThreeDLocation@234@V?$list@V?$array@E$02@std@@V?$allocator@V?$array@E$02@std@@@2@@std@@VIntX@234@V?$variant@$$TV?$array@E$07@std@@V?$recursive_wrapper@UCertificate@v2@security@vanetza@@@boost@@V?$list@UCertificate@v2@security@vanetza@@V?$allocator@UCertificate@v2@security@vanetza@@@std@@@2@UCertificateDigestWithOtherAlgorithm@v2@security@vanetza@@@boost@@V?$variant@V?$array@E$0M@@std@@$$V@boost@@V?$list@URecipientInfo@v2@security@vanetza@@V?$allocator@URecipientInfo@v2@security@vanetza@@@std@@@7@@3@@variant@detail@boost@@YA_NHHAEAV?$invoke_visitor@V?$direct_assigner@V?$variant@V?$array@E$0M@@std@@$$V@boost@@@variant@detail@boost@@$0A@@012@PEAXU?$bool_@$00@mpl@2@Uhas_fallback_type_@?$variant@_KUTime64WithStandardDeviation@v2@security@vanetza@@IUThreeDLocation@234@V?$list@V?$array@E$02@std@@V?$allocator@V?$array@E$02@std@@@2@@std@@VIntX@234@V?$variant@$$TV?$array@E$07@std@@V?$recursive_wrapper@UCertificate@v2@security@vanetza@@@boost@@V?$list@UCertificate@v2@security@vanetza@@V?$allocator@UCertificate@v2@security@vanetza@@@std@@@2@UCertificateDigestWithOtherAlgorithm@v2@security@vanetza@@@boost@@V?$variant@V?$array@E$0M@@std@@$$V@boost@@V?$list@URecipientInfo@v2@security@vanetza@@V?$allocator@URecipientInfo@v2@security@vanetza@@@std@@@7@@2@PEAU?$int_@$0BE@@52@PEAU?$visitation_impl_step@U?$l_iter@Ul_end@mpl@boost@@@mpl@boost@@U123@@012@@Z
	??$visitation_impl@U?$int_@$0BE@@mpl@boost@@U?$visitation_impl_step@U?$l_iter@Ul_end@mpl@boost@@@mpl@boost@@U123@@variant@detail@3@V?$invoke_visitor@V?$direct_assigner@VIntX@v2@security@vanetza@@@variant@detail@boost@@$0A@@563@PEAXUhas_fallback_type_@?$variant@_KUTime64WithStandardDeviation@v2@security@vanetza@@IUThreeDLocation@234@V?$list@V?$array@E$02@std@@V?$allocator@V?$array@E$02@std@@@2@@std@@VIntX@234@V?$variant@$$TV?$array@E$07@std@@V?$recursive_wrapper@UCertificate@v2@security@vanetza@@@boost@@V?$list@UCertificate@v2@security@vanetza@@V?$allocator@UCertificate@v2@security@vanetza@@@std@@@2@UCertificateDigestWithOtherAlgorithm@v2@security@vanetza@@@boost@@V?$variant@V?$array@E$0M@@std@@$$V@boost@@V?$list@URecipientInfo@v2@security@vanetza@@V?$allocator@URecipientInfo@v2@security@vanetza@@@std@@@7@@3@@variant@detail@boost@@YA_NHHAEAV?$invoke_visitor@V?$direct_assigner@VIntX@v2@security@vanetza@@@variant@detail@boost@@$0A@@012@PEAXU?$bool_@$00@mpl@2@Uhas_fallback_type_@?$variant@_KUTime64WithStandardDeviation@v2@security@vanetza@@IUThreeDLocation@234@V?$list@V?$array@E$02@std@@V?$allocator@V?$array@E$02@std@@@2@@std@@VIntX@234@V?$variant@$$TV?$array@E$07@std@@V?$recursive_wrapper@UCertificate@v2@security@vanetza@@@boost@@V?$list@UCertificate@v2@security@vanetza@@V?$allocator@UCertificate@v2@security@vanetza@@@std@@@2@UCertificateDigestWithOtherAlgorithm@v2@security@vanetza@@@boost@@V?$variant@V?$array@E$0M@@std@@$$V@boost@@V?$list@URecipientInfo@v2@security@vanetza@@V?$allocator@URecipientInfo@v2@security@vanetza@@@std@@@7@@2@PEAU?$int_@$0BE@@52@PEAU?$visitation_impl_step@U?$l_iter@Ul_end@mpl@boost@@@mpl@boost@@U123@@012@@Z
	??$visitation_impl@U?$int_@$0BE@@mpl@boost@@U?$visitation_impl_step@U?$l_iter@Ul_end@mpl@boost@@@mpl@boost@@U123@@variant@detail@3@V?$invoke_visitor@V?$direct_assigner@W4VerificationReport@security@vanetza@@@variant@detail@boost@@$0A@@563@PEAXUhas_fallback_type_@?$variant@Ublank@boost@@W4VerificationReport@security@vanetza@@@3@@variant@detail@boost@@YA_NHHAEAV?$invoke_visitor@V?$direct_assigner@W4VerificationReport@security@vanetza@@@variant@detail@boost@@$0A@@012@PEAXU?$bool_@$00@mpl@2@Uhas_fallback_type_@?$variant@Ublank@boost@@W4VerificationReport@security@vanetza@@@2@PEAU?$int_@$0BE@@52@PEAU?$visitation_impl_step@U?$l_iter@Ul_end@mpl@boost@@@mpl@boost@@U123@@012@@Z
	??$visitation_impl@U?$int_@$0BE@@mpl@boost@@U?$visitation_impl_step@U?$l_iter@Ul_end@mpl@boost@@@mpl@boost@@U123@@variant@detail@3@V?$invoke_visitor@V?$direct_assigner@_K@variant@detail@boost@@$0A@@563@PEAXUhas_fallback_type_@?$variant@_KUTime64WithStandardDeviation@v2@security@vanetza@@IUThreeDLocation@234@V?$list@V?$array@E$02@std@@V?$allocator@V?$array@E$02@std@@@2@@std@@VIntX@234@V?$variant@$$TV?$array@E$07@std@@V?$recursive_wrapper@UCertificate@v2@security@vanetza@@@boost@@V?$list@UCertificate@v2@security@vanetza@@V?$allocator@UCertificate@v2@security@vanetza@@@std@@@2@UCertificateDigestWithOtherAlgorithm@v2@security@vanetza@@@boost@@V?$variant@V?$array@E$0M@@std@@$$V@boost@@V?$list@URecipientInfo@v2@security@vanetza@@V?$allocator@URecipientInfo@v2@security@vanetza@@@std@@@7@@3@@variant@detail@boost@@YA_NHHAEAV?$invoke_visitor@V?$direct_assigner@_K@variant@detail@boost@@$0A@@012@PEAXU?$bool_@$00@mpl@2@Uhas_fallback_type_@?$variant@_KUTime64WithStandardDeviation@v2@security@vanetza@@IUThreeDLocation@234@V?$list@V?$array@E$02@std@@V?$allocator@V?$array@E$02@std@@@2@@std@@VIntX@234@V?$variant@$$TV?$array@E$07@std@@V?$recursive_wrapper@UCertificate@v2@security@vanetza@@@boost@@V?$list@UCertificate@v2@security@vanetza@@V?$allocator@UCertificate@v2@security@vanetza@@@std@@@2@UCertificateDigestWithOtherAlgorithm@v2@security@vanetza@@@boost@@V?$variant@V?$array@E$0M@@std@@$$V@boost@@V?$list@URecipientInfo@v2@security@vanetza@@V?$allocator@URecipientInfo@v2@security@vanetza@@@std@@@7@@2@PEAU?$int_@$0BE@@52@PEAU?$visitation_impl_step@U?$l_iter@Ul_end@mpl@boost@@@mpl@boost@@U123@@012@@Z
	??$visitation_impl@U?$int_@$0BE@@mpl@boost@@U?$visitation_impl_step@U?$l_iter@Ul_end@mpl@boost@@@mpl@boost@@U123@@variant@detail@3@V?$invoke_visitor@V?$direct_mover@$$T@variant@detail@boost@@$0A@@563@PEAXUhas_fallback_type_@?$variant@$$TV?$array@E$07@std@@V?$recursive_wrapper@UCertificate@v2@security@vanetza@@@boost@@V?$list@UCertificate@v2@security@vanetza@@V?$allocator@UCertificate@v2@security@vanetza@@@std@@@2@UCertificateDigestWithOtherAlgorithm@v2@security@vanetza@@@3@@variant@detail@boost@@YA_NHHAEAV?$invoke_visitor@V?$direct_mover@$$T@variant@detail@boost@@$0A@@012@PEAXU?$bool_@$00@mpl@2@Uhas_fallback_type_@?$variant@$$TV?$array@E$07@std@@V?$recursive_wrapper@UCertificate@v2@security@vanetza@@@boost@@V?$list@UCertificate@v2@security@vanetza@@V?$allocator@UCertificate@v2@security@vanetza@@@std@@@2@UCertificateDigestWithOtherAlgorithm@v2@security@vanetza@@@2@PEAU?$int_@$0BE@@52@PEAU?$visitation_impl_step@U?$l_iter@Ul_end@mpl@boost@@@mpl@boost@@U123@@012@@Z
	??$visitation_impl@U?$int_@$0BE@@mpl@boost@@U?$visitation_impl_step@U?$l_iter@Ul_end@mpl@boost@@@mpl@boost@@U123@@variant@detail@3@V?$invoke_visitor@V?$direct_mover@UEcdsaSignature@security@vanetza@@@variant@detail@boost@@$0A@@563@PEAXUhas_fallback_type_@?$variant@UEcdsaSignature@security@vanetza@@VEcdsaSignatureFuture@23@@3@@variant@detail@boost@@YA_NHHAEAV?$invoke_visitor@V?$direct_mover@UEcdsaSignature@security@vanetza@@@variant@detail@boost@@$0A@@012@PEAXU?$bool_@$00@mpl@2@Uhas_fallback_type_@?$variant@UEcdsaSignature@security@vanetza@@VEcdsaSignatureFuture@23@@2@PEAU?$int_@$0BE@@52@PEAU?$visitation_impl_step@U?$l_iter@Ul_end@mpl@boost@@@mpl@boost@@U123@@012@@Z
	??$visitation_impl@U?$int_@$0BE@@mpl@boost@@U?$visitation_impl_step@U?$l_iter@Ul_end@mpl@boost@@@mpl@boost@@U123@@variant@detail@3@V?$invoke_visitor@V?$direct_mover@UEciesEncryptedKey@v2@security@vanetza@@@variant@detail@boost@@$0A@@563@PEAXUhas_fallback_type_@?$variant@UEciesEncryptedKey@v2@security@vanetza@@UOpaqueKey@234@@3@@variant@detail@boost@@YA_NHHAEAV?$invoke_visitor@V?$direct_mover@UEciesEncryptedKey@v2@security@vanetza@@@variant@detail@boost@@$0A@@012@PEAXU?$bool_@$00@mpl@2@Uhas_fallback_type_@?$variant@UEciesEncryptedKey@v2@security@vanetza@@UOpaqueKey@234@@2@PEAU?$int_@$0BE@@52@PEAU?$visitation_impl_step@U?$l_iter@Ul_end@mpl@boost@@@mpl@boost@@U123@@012@@Z
	??$visitation_impl@U?$int_@$0BE@@mpl@boost@@U?$visitation_impl_step@U?$l_iter@Ul_end@mpl@boost@@@mpl@boost@@U123@@variant@detail@3@V?$invoke_visitor@V?$direct_mover@UOpaqueKey@v2@security@vanetza@@@variant@detail@boost@@$0A@@563@PEAXUhas_fallback_type_@?$variant@UEciesEncryptedKey@v2@security@vanetza@@UOpaqueKey@234@@3@@variant@detail@boost@@YA_NHHAEAV?$invoke_visitor@V?$direct_mover@UOpaqueKey@v2@security@vanetza@@@variant@detail@boost@@$0A@@012@PEAXU?$bool_@$00@mpl@2@Uhas_fallback_type_@?$variant@UEciesEncryptedKey@v2@security@vanetza@@UOpaqueKey@234@@2@PEAU?$int_@$0BE@@52@PEAU?$visitation_impl_step@U?$l_iter@Ul_end@mpl@boost@@@mpl@boost@@U123@@012@@Z
	??$visitation_impl@U?$int_@$0BE@@mpl@boost@@U?$visitation_impl_step@U?$l_iter@Ul_end@mpl@boost@@@mpl@boost@@U123@@variant@detail@3@V?$invoke_visitor@V?$direct_mover@UX_Coordinate_Only@security@vanetza@@@variant@detail@boost@@$0A@@563@PEAXUhas_fallback_type_@?$variant@UX_Coordinate_Only@security@vanetza@@UCompressed_Lsb_Y_0@23@UCompressed_Lsb_Y_1@23@UUncompressed@23@@3@@variant@detail@boost@@YA_NHHAEAV?$invoke_visitor@V?$direct_mover@UX_Coordinate_Only@security@vanetza@@@variant@detail@boost@@$0A@@012@PEAXU?$bool_@$00@mpl@2@Uhas_fallback_type_@?$variant@UX_Coordinate_Only@security@vanetza@@UCompressed_Lsb_Y_0@23@UCompressed_Lsb_Y_1@23@UUncompressed@23@@2@PEAU?$int_@$0BE@@52@PEAU?$visitation_impl_step@U?$l_iter@Ul_end@mpl@boost@@@mpl@boost@@U123@@012@@Z
	??$visitation_impl@U?$int_@$0BE@@mpl@boost@@U?$visitation_impl_step@U?$l_iter@Ul_end@mpl@boost@@@mpl@boost@@U123@@variant@detail@3@V?$invoke_visitor@V?$direct_mover@V?$array@E$07@std@@@variant@detail@boost@@$0A@@563@PEAXUhas_fallback_type_@?$variant@$$TV?$array@E$07@std@@V?$recursive_wrapper@UCertificate@v2@security@vanetza@@@boost@@V?$list@UCertificate@v2@security@vanetza@@V?$allocator@UCertificate@v2@security@vanetza@@@std@@@2@UCertificateDigestWithOtherAlgorithm@v2@security@vanetza@@@3@@variant@detail@boost@@YA_NHHAEAV?$invoke_visitor@V?$direct_mover@V?$array@E$07@std@@@variant@detail@boost@@$0A@@012@PEAXU?$bool_@$00@mpl@2@Uhas_fallback_type_@?$variant@$$TV?$array@E$07@std@@V?$recursive_wrapper@UCertificate@v2@security@vanetza@@@boost@@V?$list@UCertificate@v2@security@vanetza@@V?$allocator@UCertificate@v2@security@vanetza@@@std@@@2@UCertificateDigestWithOtherAlgorithm@v2@security@vanetza@@@2@PEAU?$int_@$0BE@@52@PEAU?$visitation_impl_step@U?$l_iter@Ul_end@mpl@boost@@@mpl@boost@@U123@@012@@Z
	??$visitation_impl@U?$int_@$0BE@@mpl@boost@@U?$visitation_impl_step@U?$l_iter@Ul_end@mpl@boost@@@mpl@boost@@U123@@variant@detail@3@V?$invoke_visitor@V?$direct_mover@VChunkPacket@vanetza@@@variant@detail@boost@@$0A@@563@PEAXUhas_fallback_type_@?$variant@VChunkPacket@vanetza@@VCohesivePacket@2@@3@@variant@detail@boost@@YA_NHHAEAV?$invoke_visitor@V?$direct_mover@VChunkPacket@vanetza@@@variant@detail@boost@@$0A@@012@PEAXU?$bool_@$00@mpl@2@Uhas_fallback_type_@?$variant@VChunkPacket@vanetza@@VCohesivePacket@2@@2@PEAU?$int_@$0BE@@52@PEAU?$visitation_impl_step@U?$l_iter@Ul_end@mpl@boost@@@mpl@boost@@U123@@012@@Z
	??$visitation_impl@U?$int_@$0BE@@mpl@boost@@U?$visitation_impl_step@U?$l_iter@Ul_end@mpl@boost@@@mpl@boost@@U123@@variant@detail@3@V?$invoke_visitor@V?$direct_mover@VCohesivePacket@vanetza@@@variant@detail@boost@@$0A@@563@PEAXUhas_fallback_type_@?$variant@VChunkPacket@vanetza@@VCohesivePacket@2@@3@@variant@detail@boost@@YA_NHHAEAV?$invoke_visitor@V?$direct_mover@VCohesivePacket@vanetza@@@variant@detail@boost@@$0A@@012@PEAXU?$bool_@$00@mpl@2@Uhas_fallback_type_@?$variant@VChunkPacket@vanetza@@VCohesivePacket@2@@2@PEAU?$int_@$0BE@@52@PEAU?$visitation_impl_step@U?$l_iter@Ul_end@mpl@boost@@@mpl@boost@@U123@@012@@Z
	??$visitation_impl@U?$int_@$0BE@@mpl@boost@@U?$visitation_impl_step@U?$l_iter@Ul_end@mpl@boost@@@mpl@boost@@U123@@variant@detail@3@V?$invoke_visitor@VEccPointLengthVisitor@security@vanetza@@$0A@@563@PEBXUhas_fallback_type_@?$variant@UX_Coordinate_Only@security@vanetza@@UCompressed_Lsb_Y_0@23@UCompressed_Lsb_Y_1@23@UUncompressed@23@@3@@variant@detail@boost@@YA_KHHAEAV?$invoke_visitor@VEccPointLengthVisitor@security@vanetza@@$0A@@012@PEBXU?$bool_@$00@mpl@2@Uhas_fallback_type_@?$variant@UX_Coordinate_Only@security@vanetza@@UCompressed_Lsb_Y_0@23@UCompressed_Lsb_Y_1@23@UUncompressed@23@@2@PEAU?$int_@$0BE@@52@PEAU?$visitation_impl_step@U?$l_iter@Ul_end@mpl@boost@@@mpl@boost@@U123@@012@@Z
	??$visitation_impl@U?$int_@$0BE@@mpl@boost@@U?$visitation_impl_step@U?$l_iter@Ul_end@mpl@boost@@@mpl@boost@@U123@@variant@detail@3@V?$invoke_visitor@VEccPointVisitor@security@vanetza@@$0A@@563@PEBXUhas_fallback_type_@?$variant@UX_Coordinate_Only@security@vanetza@@UCompressed_Lsb_Y_0@23@UCompressed_Lsb_Y_1@23@UUncompressed@23@@3@@variant@detail@boost@@YA?AV?$vector@EV?$allocator@E@std@@@std@@HHAEAV?$invoke_visitor@VEccPointVisitor@security@vanetza@@$0A@@012@PEBXU?$bool_@$00@mpl@2@Uhas_fallback_type_@?$variant@UX_Coordinate_Only@security@vanetza@@UCompressed_Lsb_Y_0@23@UCompressed_Lsb_Y_1@23@UUncompressed@23@@2@PEAU?$int_@$0BE@@72@PEAU?$visitation_impl_step@U?$l_iter@Ul_end@mpl@boost@@@mpl@boost@@U123@@012@@Z
	??$visitation_impl@U?$int_@$0BE@@mpl@boost@@U?$visitation_impl_step@U?$l_iter@Ul_end@mpl@boost@@@mpl@boost@@U123@@variant@detail@3@Vassigner@?$variant@$$TV?$array@E$07@std@@V?$recursive_wrapper@UCertificate@v2@security@vanetza@@@boost@@V?$list@UCertificate@v2@security@vanetza@@V?$allocator@UCertificate@v2@security@vanetza@@@std@@@2@UCertificateDigestWithOtherAlgorithm@v2@security@vanetza@@@3@PEBXUhas_fallback_type_@83@@variant@detail@boost@@YAXHHAEAVassigner@?$variant@$$TV?$array@E$07@std@@V?$recursive_wrapper@UCertificate@v2@security@vanetza@@@boost@@V?$list@UCertificate@v2@security@vanetza@@V?$allocator@UCertificate@v2@security@vanetza@@@std@@@2@UCertificateDigestWithOtherAlgorithm@v2@security@vanetza@@@2@PEBXU?$bool_@$00@mpl@2@Uhas_fallback_type_@42@PEAU?$int_@$0BE@@62@PEAU?$visitation_impl_step@U?$l_iter@Ul_end@mpl@boost@@@mpl@boost@@U123@@012@@Z
	??$visitation_impl@U?$int_@$0BE@@mpl@boost@@U?$visitation_impl_step@U?$l_iter@Ul_end@mpl@boost@@@mpl@boost@@U123@@variant@detail@3@Vassigner@?$variant@IUStartAndEndValidity@v2@security@vanetza@@UStartAndDurationValidity@234@V?$variant@UNoneRegion@v2@security@vanetza@@UCircularRegion@234@V?$list@URectangularRegion@v2@security@vanetza@@V?$allocator@URectangularRegion@v2@security@vanetza@@@std@@@std@@V?$list@UTwoDLocation@v2@security@vanetza@@V?$allocator@UTwoDLocation@v2@security@vanetza@@@std@@@7@UIdentifiedRegion@234@@boost@@@3@PEBXUhas_fallback_type_@83@@variant@detail@boost@@YAXHHAEAVassigner@?$variant@IUStartAndEndValidity@v2@security@vanetza@@UStartAndDurationValidity@234@V?$variant@UNoneRegion@v2@security@vanetza@@UCircularRegion@234@V?$list@URectangularRegion@v2@security@vanetza@@V?$allocator@URectangularRegion@v2@security@vanetza@@@std@@@std@@V?$list@UTwoDLocation@v2@security@vanetza@@V?$allocator@UTwoDLocation@v2@security@vanetza@@@std@@@7@UIdentifiedRegion@234@@boost@@@2@PEBXU?$bool_@$00@mpl@2@Uhas_fallback_type_@42@PEAU?$int_@$0BE@@62@PEAU?$visitation_impl_step@U?$l_iter@Ul_end@mpl@boost@@@mpl@boost@@U123@@012@@Z
	??$visitation_impl@U?$int_@$0BE@@mpl@boost@@U?$visitation_impl_step@U?$l_iter@Ul_end@mpl@boost@@@mpl@boost@@U123@@variant@detail@3@Vassigner@?$variant@UEcdsaSignature@security@vanetza@@VEcdsaSignatureFuture@23@@3@PEBXUhas_fallback_type_@83@@variant@detail@boost@@YAXHHAEAVassigner@?$variant@UEcdsaSignature@security@vanetza@@VEcdsaSignatureFuture@23@@2@PEBXU?$bool_@$00@mpl@2@Uhas_fallback_type_@42@PEAU?$int_@$0BE@@62@PEAU?$visitation_impl_step@U?$l_iter@Ul_end@mpl@boost@@@mpl@boost@@U123@@012@@Z
	??$visitation_impl@U?$int_@$0BE@@mpl@boost@@U?$visitation_impl_step@U?$l_iter@Ul_end@mpl@boost@@@mpl@boost@@U123@@variant@detail@3@Vassigner@?$variant@UEciesEncryptedKey@v2@security@vanetza@@UOpaqueKey@234@@3@PEBXUhas_fallback_type_@83@@variant@detail@boost@@YAXHHAEAVassigner@?$variant@UEciesEncryptedKey@v2@security@vanetza@@UOpaqueKey@234@@2@PEBXU?$bool_@$00@mpl@2@Uhas_fallback_type_@42@PEAU?$int_@$0BE@@62@PEAU?$visitation_impl_step@U?$l_iter@Ul_end@mpl@boost@@@mpl@boost@@U123@@012@@Z
	??$visitation_impl@U?$int_@$0BE@@mpl@boost@@U?$visitation_impl_step@U?$l_iter@Ul_end@mpl@boost@@@mpl@boost@@U123@@variant@detail@3@Vassigner@?$variant@UNoneRegion@v2@security@vanetza@@UCircularRegion@234@V?$list@URectangularRegion@v2@security@vanetza@@V?$allocator@URectangularRegion@v2@security@vanetza@@@std@@@std@@V?$list@UTwoDLocation@v2@security@vanetza@@V?$allocator@UTwoDLocation@v2@security@vanetza@@@std@@@7@UIdentifiedRegion@234@@3@PEBXUhas_fallback_type_@83@@variant@detail@boost@@YAXHHAEAVassigner@?$variant@UNoneRegion@v2@security@vanetza@@UCircularRegion@234@V?$list@URectangularRegion@v2@security@vanetza@@V?$allocator@URectangularRegion@v2@security@vanetza@@@std@@@std@@V?$list@UTwoDLocation@v2@security@vanetza@@V?$allocator@UTwoDLocation@v2@security@vanetza@@@std@@@7@UIdentifiedRegion@234@@2@PEBXU?$bool_@$00@mpl@2@Uhas_fallback_type_@42@PEAU?$int_@$0BE@@62@PEAU?$visitation_impl_step@U?$l_iter@Ul_end@mpl@boost@@@mpl@boost@@U123@@012@@Z
	??$visitation_impl@U?$int_@$0BE@@mpl@boost@@U?$visitation_impl_step@U?$l_iter@Ul_end@mpl@boost@@@mpl@boost@@U123@@variant@detail@3@Vassigner@?$variant@UVerificationKey@v2@security@vanetza@@UEncryptionKey@234@USubjectAssurance@234@V?$variant@UX_Coordinate_Only@security@vanetza@@UCompressed_Lsb_Y_0@23@UCompressed_Lsb_Y_1@23@UUncompressed@23@@boost@@V?$list@VIntX@v2@security@vanetza@@V?$allocator@VIntX@v2@security@vanetza@@@std@@@std@@V?$list@UItsAidSsp@v2@security@vanetza@@V?$allocator@UItsAidSsp@v2@security@vanetza@@@std@@@std@@@3@PEBXUhas_fallback_type_@83@@variant@detail@boost@@YAXHHAEAVassigner@?$variant@UVerificationKey@v2@security@vanetza@@UEncryptionKey@234@USubjectAssurance@234@V?$variant@UX_Coordinate_Only@security@vanetza@@UCompressed_Lsb_Y_0@23@UCompressed_Lsb_Y_1@23@UUncompressed@23@@boost@@V?$list@VIntX@v2@security@vanetza@@V?$allocator@VIntX@v2@security@vanetza@@@std@@@std@@V?$list@UItsAidSsp@v2@security@vanetza@@V?$allocator@UItsAidSsp@v2@security@vanetza@@@std@@@std@@@2@PEBXU?$bool_@$00@mpl@2@Uhas_fallback_type_@42@PEAU?$int_@$0BE@@62@PEAU?$visitation_impl_step@U?$l_iter@Ul_end@mpl@boost@@@mpl@boost@@U123@@012@@Z
	??$visitation_impl@U?$int_@$0BE@@mpl@boost@@U?$visitation_impl_step@U?$l_iter@Ul_end@mpl@boost@@@mpl@boost@@U123@@variant@detail@3@Vassigner@?$variant@UX_Coordinate_Only@security@vanetza@@UCompressed_Lsb_Y_0@23@UCompressed_Lsb_Y_1@23@UUncompressed@23@@3@PEBXUhas_fallback_type_@83@@variant@detail@boost@@YAXHHAEAVassigner@?$variant@UX_Coordinate_Only@security@vanetza@@UCompressed_Lsb_Y_0@23@UCompressed_Lsb_Y_1@23@UUncompressed@23@@2@PEBXU?$bool_@$00@mpl@2@Uhas_fallback_type_@42@PEAU?$int_@$0BE@@62@PEAU?$visitation_impl_step@U?$l_iter@Ul_end@mpl@boost@@@mpl@boost@@U123@@012@@Z
	??$visitation_impl@U?$int_@$0BE@@mpl@boost@@U?$visitation_impl_step@U?$l_iter@Ul_end@mpl@boost@@@mpl@boost@@U123@@variant@detail@3@Vassigner@?$variant@Uecdsa_nistp256_with_sha256@v2@security@vanetza@@Uecies_nistp256@234@@3@PEBXUhas_fallback_type_@83@@variant@detail@boost@@YAXHHAEAVassigner@?$variant@Uecdsa_nistp256_with_sha256@v2@security@vanetza@@Uecies_nistp256@234@@2@PEBXU?$bool_@$00@mpl@2@Uhas_fallback_type_@42@PEAU?$int_@$0BE@@62@PEAU?$visitation_impl_step@U?$l_iter@Ul_end@mpl@boost@@@mpl@boost@@U123@@012@@Z
	??$visitation_impl@U?$int_@$0BE@@mpl@boost@@U?$visitation_impl_step@U?$l_iter@Ul_end@mpl@boost@@@mpl@boost@@U123@@variant@detail@3@Vassigner@?$variant@V?$array@E$0M@@std@@$$V@3@PEBXUhas_fallback_type_@83@@variant@detail@boost@@YAXHHAEAVassigner@?$variant@V?$array@E$0M@@std@@$$V@2@PEBXU?$bool_@$00@mpl@2@Uhas_fallback_type_@42@PEAU?$int_@$0BE@@62@PEAU?$visitation_impl_step@U?$l_iter@Ul_end@mpl@boost@@@mpl@boost@@U123@@012@@Z
	??$visitation_impl@U?$int_@$0BE@@mpl@boost@@U?$visitation_impl_step@U?$l_iter@Ul_end@mpl@boost@@@mpl@boost@@U123@@variant@detail@3@Vconvert_copy_into@?$variant@AEBUSecuredMessage@v2@security@vanetza@@AEBU1v3@34@@3@PEBXUhas_fallback_type_@?$variant@USecuredMessage@v2@security@vanetza@@U1v3@34@@3@@variant@detail@boost@@YAHHHAEAVconvert_copy_into@?$variant@AEBUSecuredMessage@v2@security@vanetza@@AEBU1v3@34@@2@PEBXU?$bool_@$00@mpl@2@Uhas_fallback_type_@?$variant@USecuredMessage@v2@security@vanetza@@U1v3@34@@2@PEAU?$int_@$0BE@@62@PEAU?$visitation_impl_step@U?$l_iter@Ul_end@mpl@boost@@@mpl@boost@@U123@@012@@Z
	??$visitation_impl@U?$int_@$0BE@@mpl@boost@@U?$visitation_impl_step@U?$l_iter@Ul_end@mpl@boost@@@mpl@boost@@U123@@variant@detail@3@Vcopy_into@563@PEBXUhas_fallback_type_@?$variant@$$TV?$array@E$07@std@@V?$recursive_wrapper@UCertificate@v2@security@vanetza@@@boost@@V?$list@UCertificate@v2@security@vanetza@@V?$allocator@UCertificate@v2@security@vanetza@@@std@@@2@UCertificateDigestWithOtherAlgorithm@v2@security@vanetza@@@3@@variant@detail@boost@@YAXHHAEAVcopy_into@012@PEBXU?$bool_@$00@mpl@2@Uhas_fallback_type_@?$variant@$$TV?$array@E$07@std@@V?$recursive_wrapper@UCertificate@v2@security@vanetza@@@boost@@V?$list@UCertificate@v2@security@vanetza@@V?$allocator@UCertificate@v2@security@vanetza@@@std@@@2@UCertificateDigestWithOtherAlgorithm@v2@security@vanetza@@@2@PEAU?$int_@$0BE@@52@PEAU?$visitation_impl_step@U?$l_iter@Ul_end@mpl@boost@@@mpl@boost@@U123@@012@@Z
	??$visitation_impl@U?$int_@$0BE@@mpl@boost@@U?$visitation_impl_step@U?$l_iter@Ul_end@mpl@boost@@@mpl@boost@@U123@@variant@detail@3@Vcopy_into@563@PEBXUhas_fallback_type_@?$variant@AEBUSecuredMessage@v2@security@vanetza@@AEBU1v3@34@@3@@variant@detail@boost@@YAXHHAEAVcopy_into@012@PEBXU?$bool_@$00@mpl@2@Uhas_fallback_type_@?$variant@AEBUSecuredMessage@v2@security@vanetza@@AEBU1v3@34@@2@PEAU?$int_@$0BE@@52@PEAU?$visitation_impl_step@U?$l_iter@Ul_end@mpl@boost@@@mpl@boost@@U123@@012@@Z
	??$visitation_impl@U?$int_@$0BE@@mpl@boost@@U?$visitation_impl_step@U?$l_iter@Ul_end@mpl@boost@@@mpl@boost@@U123@@variant@detail@3@Vcopy_into@563@PEBXUhas_fallback_type_@?$variant@IUStartAndEndValidity@v2@security@vanetza@@UStartAndDurationValidity@234@V?$variant@UNoneRegion@v2@security@vanetza@@UCircularRegion@234@V?$list@URectangularRegion@v2@security@vanetza@@V?$allocator@URectangularRegion@v2@security@vanetza@@@std@@@std@@V?$list@UTwoDLocation@v2@security@vanetza@@V?$allocator@UTwoDLocation@v2@security@vanetza@@@std@@@7@UIdentifiedRegion@234@@boost@@@3@@variant@detail@boost@@YAXHHAEAVcopy_into@012@PEBXU?$bool_@$00@mpl@2@Uhas_fallback_type_@?$variant@IUStartAndEndValidity@v2@security@vanetza@@UStartAndDurationValidity@234@V?$variant@UNoneRegion@v2@security@vanetza@@UCircularRegion@234@V?$list@URectangularRegion@v2@security@vanetza@@V?$allocator@URectangularRegion@v2@security@vanetza@@@std@@@std@@V?$list@UTwoDLocation@v2@security@vanetza@@V?$allocator@UTwoDLocation@v2@security@vanetza@@@std@@@7@UIdentifiedRegion@234@@boost@@@2@PEAU?$int_@$0BE@@52@PEAU?$visitation_impl_step@U?$l_iter@Ul_end@mpl@boost@@@mpl@boost@@U123@@012@@Z
	??$visitation_impl@U?$int_@$0BE@@mpl@boost@@U?$visitation_impl_step@U?$l_iter@Ul_end@mpl@boost@@@mpl@boost@@U123@@variant@detail@3@Vcopy_into@563@PEBXUhas_fallback_type_@?$variant@UEcdsaSignature@security@vanetza@@VEcdsaSignatureFuture@23@@3@@variant@detail@boost@@YAXHHAEAVcopy_into@012@PEBXU?$bool_@$00@mpl@2@Uhas_fallback_type_@?$variant@UEcdsaSignature@security@vanetza@@VEcdsaSignatureFuture@23@@2@PEAU?$int_@$0BE@@52@PEAU?$visitation_impl_step@U?$l_iter@Ul_end@mpl@boost@@@mpl@boost@@U123@@012@@Z
	??$visitation_impl@U?$int_@$0BE@@mpl@boost@@U?$visitation_impl_step@U?$l_iter@Ul_end@mpl@boost@@@mpl@boost@@U123@@variant@detail@3@Vcopy_into@563@PEBXUhas_fallback_type_@?$variant@UEciesEncryptedKey@v2@security@vanetza@@UOpaqueKey@234@@3@@variant@detail@boost@@YAXHHAEAVcopy_into@012@PEBXU?$bool_@$00@mpl@2@Uhas_fallback_type_@?$variant@UEciesEncryptedKey@v2@security@vanetza@@UOpaqueKey@234@@2@PEAU?$int_@$0BE@@52@PEAU?$visitation_impl_step@U?$l_iter@Ul_end@mpl@boost@@@mpl@boost@@U123@@012@@Z
	??$visitation_impl@U?$int_@$0BE@@mpl@boost@@U?$visitation_impl_step@U?$l_iter@Ul_end@mpl@boost@@@mpl@boost@@U123@@variant@detail@3@Vcopy_into@563@PEBXUhas_fallback_type_@?$variant@UNoneRegion@v2@security@vanetza@@UCircularRegion@234@V?$list@URectangularRegion@v2@security@vanetza@@V?$allocator@URectangularRegion@v2@security@vanetza@@@std@@@std@@V?$list@UTwoDLocation@v2@security@vanetza@@V?$allocator@UTwoDLocation@v2@security@vanetza@@@std@@@7@UIdentifiedRegion@234@@3@@variant@detail@boost@@YAXHHAEAVcopy_into@012@PEBXU?$bool_@$00@mpl@2@Uhas_fallback_type_@?$variant@UNoneRegion@v2@security@vanetza@@UCircularRegion@234@V?$list@URectangularRegion@v2@security@vanetza@@V?$allocator@URectangularRegion@v2@security@vanetza@@@std@@@std@@V?$list@UTwoDLocation@v2@security@vanetza@@V?$allocator@UTwoDLocation@v2@security@vanetza@@@std@@@7@UIdentifiedRegion@234@@2@PEAU?$int_@$0BE@@52@PEAU?$visitation_impl_step@U?$l_iter@Ul_end@mpl@boost@@@mpl@boost@@U123@@012@@Z
	??$visitation_impl@U?$int_@$0BE@@mpl@boost@@U?$visitation_impl_step@U?$l_iter@Ul_end@mpl@boost@@@mpl@boost@@U123@@variant@detail@3@Vcopy_into@563@PEBXUhas_fallback_type_@?$variant@USignature@v2@security@vanetza@@$$V@3@@variant@detail@boost@@YAXHHAEAVcopy_into@012@PEBXU?$bool_@$00@mpl@2@Uhas_fallback_type_@?$variant@USignature@v2@security@vanetza@@$$V@2@PEAU?$int_@$0BE@@52@PEAU?$visitation_impl_step@U?$l_iter@Ul_end@mpl@boost@@@mpl@boost@@U123@@012@@Z
	??$visitation_impl@U?$int_@$0BE@@mpl@boost@@U?$visitation_impl_step@U?$l_iter@Ul_end@mpl@boost@@@mpl@boost@@U123@@variant@detail@3@Vcopy_into@563@PEBXUhas_fallback_type_@?$variant@UVerificationKey@v2@security@vanetza@@UEncryptionKey@234@USubjectAssurance@234@V?$variant@UX_Coordinate_Only@security@vanetza@@UCompressed_Lsb_Y_0@23@UCompressed_Lsb_Y_1@23@UUncompressed@23@@boost@@V?$list@VIntX@v2@security@vanetza@@V?$allocator@VIntX@v2@security@vanetza@@@std@@@std@@V?$list@UItsAidSsp@v2@security@vanetza@@V?$allocator@UItsAidSsp@v2@security@vanetza@@@std@@@std@@@3@@variant@detail@boost@@YAXHHAEAVcopy_into@012@PEBXU?$bool_@$00@mpl@2@Uhas_fallback_type_@?$variant@UVerificationKey@v2@security@vanetza@@UEncryptionKey@234@USubjectAssurance@234@V?$variant@UX_Coordinate_Only@security@vanetza@@UCompressed_Lsb_Y_0@23@UCompressed_Lsb_Y_1@23@UUncompressed@23@@boost@@V?$list@VIntX@v2@security@vanetza@@V?$allocator@VIntX@v2@security@vanetza@@@std@@@std@@V?$list@UItsAidSsp@v2@security@vanetza@@V?$allocator@UItsAidSsp@v2@security@vanetza@@@std@@@std@@@2@PEAU?$int_@$0BE@@52@PEAU?$visitation_impl_step@U?$l_iter@Ul_end@mpl@boost@@@mpl@boost@@U123@@012@@Z
	??$visitation_impl@U?$int_@$0BE@@mpl@boost@@U?$visitation_impl_step@U?$l_iter@Ul_end@mpl@boost@@@mpl@boost@@U123@@variant@detail@3@Vcopy_into@563@PEBXUhas_fallback_type_@?$variant@UX_Coordinate_Only@security@vanetza@@UCompressed_Lsb_Y_0@23@UCompressed_Lsb_Y_1@23@UUncompressed@23@@3@@variant@detail@boost@@YAXHHAEAVcopy_into@012@PEBXU?$bool_@$00@mpl@2@Uhas_fallback_type_@?$variant@UX_Coordinate_Only@security@vanetza@@UCompressed_Lsb_Y_0@23@UCompressed_Lsb_Y_1@23@UUncompressed@23@@2@PEAU?$int_@$0BE@@52@PEAU?$visitation_impl_step@U?$l_iter@Ul_end@mpl@boost@@@mpl@boost@@U123@@012@@Z
	??$visitation_impl@U?$int_@$0BE@@mpl@boost@@U?$visitation_impl_step@U?$l_iter@Ul_end@mpl@boost@@@mpl@boost@@U123@@variant@detail@3@Vcopy_into@563@PEBXUhas_fallback_type_@?$variant@Uecdsa_nistp256_with_sha256@v2@security@vanetza@@Uecies_nistp256@234@@3@@variant@detail@boost@@YAXHHAEAVcopy_into@012@PEBXU?$bool_@$00@mpl@2@Uhas_fallback_type_@?$variant@Uecdsa_nistp256_with_sha256@v2@security@vanetza@@Uecies_nistp256@234@@2@PEAU?$int_@$0BE@@52@PEAU?$visitation_impl_step@U?$l_iter@Ul_end@mpl@boost@@@mpl@boost@@U123@@012@@Z
	??$visitation_impl@U?$int_@$0BE@@mpl@boost@@U?$visitation_impl_step@U?$l_iter@Ul_end@mpl@boost@@@mpl@boost@@U123@@variant@detail@3@Vcopy_into@563@PEBXUhas_fallback_type_@?$variant@V?$array@E$0M@@std@@$$V@3@@variant@detail@boost@@YAXHHAEAVcopy_into@012@PEBXU?$bool_@$00@mpl@2@Uhas_fallback_type_@?$variant@V?$array@E$0M@@std@@$$V@2@PEAU?$int_@$0BE@@52@PEAU?$visitation_impl_step@U?$l_iter@Ul_end@mpl@boost@@@mpl@boost@@U123@@012@@Z
	??$visitation_impl@U?$int_@$0BE@@mpl@boost@@U?$visitation_impl_step@U?$l_iter@Ul_end@mpl@boost@@@mpl@boost@@U123@@variant@detail@3@Vcopy_into@563@PEBXUhas_fallback_type_@?$variant@VChunkPacket@vanetza@@VCohesivePacket@2@@3@@variant@detail@boost@@YAXHHAEAVcopy_into@012@PEBXU?$bool_@$00@mpl@2@Uhas_fallback_type_@?$variant@VChunkPacket@vanetza@@VCohesivePacket@2@@2@PEAU?$int_@$0BE@@52@PEAU?$visitation_impl_step@U?$l_iter@Ul_end@mpl@boost@@@mpl@boost@@U123@@012@@Z
	??$visitation_impl@U?$int_@$0BE@@mpl@boost@@U?$visitation_impl_step@U?$l_iter@Ul_end@mpl@boost@@@mpl@boost@@U123@@variant@detail@3@Vcopy_into@563@PEBXUhas_fallback_type_@?$variant@_KUTime64WithStandardDeviation@v2@security@vanetza@@IUThreeDLocation@234@V?$list@V?$array@E$02@std@@V?$allocator@V?$array@E$02@std@@@2@@std@@VIntX@234@V?$variant@$$TV?$array@E$07@std@@V?$recursive_wrapper@UCertificate@v2@security@vanetza@@@boost@@V?$list@UCertificate@v2@security@vanetza@@V?$allocator@UCertificate@v2@security@vanetza@@@std@@@2@UCertificateDigestWithOtherAlgorithm@v2@security@vanetza@@@boost@@V?$variant@V?$array@E$0M@@std@@$$V@boost@@V?$list@URecipientInfo@v2@security@vanetza@@V?$allocator@URecipientInfo@v2@security@vanetza@@@std@@@7@@3@@variant@detail@boost@@YAXHHAEAVcopy_into@012@PEBXU?$bool_@$00@mpl@2@Uhas_fallback_type_@?$variant@_KUTime64WithStandardDeviation@v2@security@vanetza@@IUThreeDLocation@234@V?$list@V?$array@E$02@std@@V?$allocator@V?$array@E$02@std@@@2@@std@@VIntX@234@V?$variant@$$TV?$array@E$07@std@@V?$recursive_wrapper@UCertificate@v2@security@vanetza@@@boost@@V?$list@UCertificate@v2@security@vanetza@@V?$allocator@UCertificate@v2@security@vanetza@@@std@@@2@UCertificateDigestWithOtherAlgorithm@v2@security@vanetza@@@boost@@V?$variant@V?$array@E$0M@@std@@$$V@boost@@V?$list@URecipientInfo@v2@security@vanetza@@V?$allocator@URecipientInfo@v2@security@vanetza@@@std@@@7@@2@PEAU?$int_@$0BE@@52@PEAU?$visitation_impl_step@U?$l_iter@Ul_end@mpl@boost@@@mpl@boost@@U123@@012@@Z
	??$visitation_impl@U?$int_@$0BE@@mpl@boost@@U?$visitation_impl_step@U?$l_iter@Ul_end@mpl@boost@@@mpl@boost@@U123@@variant@detail@3@Vmove_assigner@?$variant@$$TV?$array@E$07@std@@V?$recursive_wrapper@UCertificate@v2@security@vanetza@@@boost@@V?$list@UCertificate@v2@security@vanetza@@V?$allocator@UCertificate@v2@security@vanetza@@@std@@@2@UCertificateDigestWithOtherAlgorithm@v2@security@vanetza@@@3@PEAXUhas_fallback_type_@83@@variant@detail@boost@@YAXHHAEAVmove_assigner@?$variant@$$TV?$array@E$07@std@@V?$recursive_wrapper@UCertificate@v2@security@vanetza@@@boost@@V?$list@UCertificate@v2@security@vanetza@@V?$allocator@UCertificate@v2@security@vanetza@@@std@@@2@UCertificateDigestWithOtherAlgorithm@v2@security@vanetza@@@2@PEAXU?$bool_@$00@mpl@2@Uhas_fallback_type_@42@PEAU?$int_@$0BE@@62@PEAU?$visitation_impl_step@U?$l_iter@Ul_end@mpl@boost@@@mpl@boost@@U123@@012@@Z
	??$visitation_impl@U?$int_@$0BE@@mpl@boost@@U?$visitation_impl_step@U?$l_iter@Ul_end@mpl@boost@@@mpl@boost@@U123@@variant@detail@3@Vmove_assigner@?$variant@IUStartAndEndValidity@v2@security@vanetza@@UStartAndDurationValidity@234@V?$variant@UNoneRegion@v2@security@vanetza@@UCircularRegion@234@V?$list@URectangularRegion@v2@security@vanetza@@V?$allocator@URectangularRegion@v2@security@vanetza@@@std@@@std@@V?$list@UTwoDLocation@v2@security@vanetza@@V?$allocator@UTwoDLocation@v2@security@vanetza@@@std@@@7@UIdentifiedRegion@234@@boost@@@3@PEAXUhas_fallback_type_@83@@variant@detail@boost@@YAXHHAEAVmove_assigner@?$variant@IUStartAndEndValidity@v2@security@vanetza@@UStartAndDurationValidity@234@V?$variant@UNoneRegion@v2@security@vanetza@@UCircularRegion@234@V?$list@URectangularRegion@v2@security@vanetza@@V?$allocator@URectangularRegion@v2@security@vanetza@@@std@@@std@@V?$list@UTwoDLocation@v2@security@vanetza@@V?$allocator@UTwoDLocation@v2@security@vanetza@@@std@@@7@UIdentifiedRegion@234@@boost@@@2@PEAXU?$bool_@$00@mpl@2@Uhas_fallback_type_@42@PEAU?$int_@$0BE@@62@PEAU?$visitation_impl_step@U?$l_iter@Ul_end@mpl@boost@@@mpl@boost@@U123@@012@@Z
	??$visitation_impl@U?$int_@$0BE@@mpl@boost@@U?$visitation_impl_step@U?$l_iter@Ul_end@mpl@boost@@@mpl@boost@@U123@@variant@detail@3@Vmove_assigner@?$variant@UEcdsaSignature@security@vanetza@@VEcdsaSignatureFuture@23@@3@PEAXUhas_fallback_type_@83@@variant@detail@boost@@YAXHHAEAVmove_assigner@?$variant@UEcdsaSignature@security@vanetza@@VEcdsaSignatureFuture@23@@2@PEAXU?$bool_@$00@mpl@2@Uhas_fallback_type_@42@PEAU?$int_@$0BE@@62@PEAU?$visitation_impl_step@U?$l_iter@Ul_end@mpl@boost@@@mpl@boost@@U123@@012@@Z
	??$visitation_impl@U?$int_@$0BE@@mpl@boost@@U?$visitation_impl_step@U?$l_iter@Ul_end@mpl@boost@@@mpl@boost@@U123@@variant@detail@3@Vmove_assigner@?$variant@UEciesEncryptedKey@v2@security@vanetza@@UOpaqueKey@234@@3@PEAXUhas_fallback_type_@83@@variant@detail@boost@@YAXHHAEAVmove_assigner@?$variant@UEciesEncryptedKey@v2@security@vanetza@@UOpaqueKey@234@@2@PEAXU?$bool_@$00@mpl@2@Uhas_fallback_type_@42@PEAU?$int_@$0BE@@62@PEAU?$visitation_impl_step@U?$l_iter@Ul_end@mpl@boost@@@mpl@boost@@U123@@012@@Z
	??$visitation_impl@U?$int_@$0BE@@mpl@boost@@U?$visitation_impl_step@U?$l_iter@Ul_end@mpl@boost@@@mpl@boost@@U123@@variant@detail@3@Vmove_assigner@?$variant@UNoneRegion@v2@security@vanetza@@UCircularRegion@234@V?$list@URectangularRegion@v2@security@vanetza@@V?$allocator@URectangularRegion@v2@security@vanetza@@@std@@@std@@V?$list@UTwoDLocation@v2@security@vanetza@@V?$allocator@UTwoDLocation@v2@security@vanetza@@@std@@@7@UIdentifiedRegion@234@@3@PEAXUhas_fallback_type_@83@@variant@detail@boost@@YAXHHAEAVmove_assigner@?$variant@UNoneRegion@v2@security@vanetza@@UCircularRegion@234@V?$list@URectangularRegion@v2@security@vanetza@@V?$allocator@URectangularRegion@v2@security@vanetza@@@std@@@std@@V?$list@UTwoDLocation@v2@security@vanetza@@V?$allocator@UTwoDLocation@v2@security@vanetza@@@std@@@7@UIdentifiedRegion@234@@2@PEAXU?$bool_@$00@mpl@2@Uhas_fallback_type_@42@PEAU?$int_@$0BE@@62@PEAU?$visitation_impl_step@U?$l_iter@Ul_end@mpl@boost@@@mpl@boost@@U123@@012@@Z
	??$visitation_impl@U?$int_@$0BE@@mpl@boost@@U?$visitation_impl_step@U?$l_iter@Ul_end@mpl@boost@@@mpl@boost@@U123@@variant@detail@3@Vmove_assigner@?$variant@USignature@v2@security@vanetza@@$$V@3@PEAXUhas_fallback_type_@83@@variant@detail@boost@@YAXHHAEAVmove_assigner@?$variant@USignature@v2@security@vanetza@@$$V@2@PEAXU?$bool_@$00@mpl@2@Uhas_fallback_type_@42@PEAU?$int_@$0BE@@62@PEAU?$visitation_impl_step@U?$l_iter@Ul_end@mpl@boost@@@mpl@boost@@U123@@012@@Z
	??$visitation_impl@U?$int_@$0BE@@mpl@boost@@U?$visitation_impl_step@U?$l_iter@Ul_end@mpl@boost@@@mpl@boost@@U123@@variant@detail@3@Vmove_assigner@?$variant@UVerificationKey@v2@security@vanetza@@UEncryptionKey@234@USubjectAssurance@234@V?$variant@UX_Coordinate_Only@security@vanetza@@UCompressed_Lsb_Y_0@23@UCompressed_Lsb_Y_1@23@UUncompressed@23@@boost@@V?$list@VIntX@v2@security@vanetza@@V?$allocator@VIntX@v2@security@vanetza@@@std@@@std@@V?$list@UItsAidSsp@v2@security@vanetza@@V?$allocator@UItsAidSsp@v2@security@vanetza@@@std@@@std@@@3@PEAXUhas_fallback_type_@83@@variant@detail@boost@@YAXHHAEAVmove_assigner@?$variant@UVerificationKey@v2@security@vanetza@@UEncryptionKey@234@USubjectAssurance@234@V?$variant@UX_Coordinate_Only@security@vanetza@@UCompressed_Lsb_Y_0@23@UCompressed_Lsb_Y_1@23@UUncompressed@23@@boost@@V?$list@VIntX@v2@security@vanetza@@V?$allocator@VIntX@v2@security@vanetza@@@std@@@std@@V?$list@UItsAidSsp@v2@security@vanetza@@V?$allocator@UItsAidSsp@v2@security@vanetza@@@std@@@std@@@2@PEAXU?$bool_@$00@mpl@2@Uhas_fallback_type_@42@PEAU?$int_@$0BE@@62@PEAU?$visitation_impl_step@U?$l_iter@Ul_end@mpl@boost@@@mpl@boost@@U123@@012@@Z
	??$visitation_impl@U?$int_@$0BE@@mpl@boost@@U?$visitation_impl_step@U?$l_iter@Ul_end@mpl@boost@@@mpl@boost@@U123@@variant@detail@3@Vmove_assigner@?$variant@UX_Coordinate_Only@security@vanetza@@UCompressed_Lsb_Y_0@23@UCompressed_Lsb_Y_1@23@UUncompressed@23@@3@PEAXUhas_fallback_type_@83@@variant@detail@boost@@YAXHHAEAVmove_assigner@?$variant@UX_Coordinate_Only@security@vanetza@@UCompressed_Lsb_Y_0@23@UCompressed_Lsb_Y_1@23@UUncompressed@23@@2@PEAXU?$bool_@$00@mpl@2@Uhas_fallback_type_@42@PEAU?$int_@$0BE@@62@PEAU?$visitation_impl_step@U?$l_iter@Ul_end@mpl@boost@@@mpl@boost@@U123@@012@@Z
	??$visitation_impl@U?$int_@$0BE@@mpl@boost@@U?$visitation_impl_step@U?$l_iter@Ul_end@mpl@boost@@@mpl@boost@@U123@@variant@detail@3@Vmove_assigner@?$variant@Ublank@boost@@W4VerificationReport@security@vanetza@@@3@PEAXUhas_fallback_type_@83@@variant@detail@boost@@YAXHHAEAVmove_assigner@?$variant@Ublank@boost@@W4VerificationReport@security@vanetza@@@2@PEAXU?$bool_@$00@mpl@2@Uhas_fallback_type_@42@PEAU?$int_@$0BE@@62@PEAU?$visitation_impl_step@U?$l_iter@Ul_end@mpl@boost@@@mpl@boost@@U123@@012@@Z
	??$visitation_impl@U?$int_@$0BE@@mpl@boost@@U?$visitation_impl_step@U?$l_iter@Ul_end@mpl@boost@@@mpl@boost@@U123@@variant@detail@3@Vmove_assigner@?$variant@Uecdsa_nistp256_with_sha256@v2@security@vanetza@@Uecies_nistp256@234@@3@PEAXUhas_fallback_type_@83@@variant@detail@boost@@YAXHHAEAVmove_assigner@?$variant@Uecdsa_nistp256_with_sha256@v2@security@vanetza@@Uecies_nistp256@234@@2@PEAXU?$bool_@$00@mpl@2@Uhas_fallback_type_@42@PEAU?$int_@$0BE@@62@PEAU?$visitation_impl_step@U?$l_iter@Ul_end@mpl@boost@@@mpl@boost@@U123@@012@@Z
	??$visitation_impl@U?$int_@$0BE@@mpl@boost@@U?$visitation_impl_step@U?$l_iter@Ul_end@mpl@boost@@@mpl@boost@@U123@@variant@detail@3@Vmove_assigner@?$variant@V?$array@E$0M@@std@@$$V@3@PEAXUhas_fallback_type_@83@@variant@detail@boost@@YAXHHAEAVmove_assigner@?$variant@V?$array@E$0M@@std@@$$V@2@PEAXU?$bool_@$00@mpl@2@Uhas_fallback_type_@42@PEAU?$int_@$0BE@@62@PEAU?$visitation_impl_step@U?$l_iter@Ul_end@mpl@boost@@@mpl@boost@@U123@@012@@Z
	??$visitation_impl@U?$int_@$0BE@@mpl@boost@@U?$visitation_impl_step@U?$l_iter@Ul_end@mpl@boost@@@mpl@boost@@U123@@variant@detail@3@Vmove_assigner@?$variant@VChunkPacket@vanetza@@VCohesivePacket@2@@3@PEAXUhas_fallback_type_@83@@variant@detail@boost@@YAXHHAEAVmove_assigner@?$variant@VChunkPacket@vanetza@@VCohesivePacket@2@@2@PEAXU?$bool_@$00@mpl@2@Uhas_fallback_type_@42@PEAU?$int_@$0BE@@62@PEAU?$visitation_impl_step@U?$l_iter@Ul_end@mpl@boost@@@mpl@boost@@U123@@012@@Z
	??$visitation_impl@U?$int_@$0BE@@mpl@boost@@U?$visitation_impl_step@U?$l_iter@Ul_end@mpl@boost@@@mpl@boost@@U123@@variant@detail@3@Vmove_assigner@?$variant@_KUTime64WithStandardDeviation@v2@security@vanetza@@IUThreeDLocation@234@V?$list@V?$array@E$02@std@@V?$allocator@V?$array@E$02@std@@@2@@std@@VIntX@234@V?$variant@$$TV?$array@E$07@std@@V?$recursive_wrapper@UCertificate@v2@security@vanetza@@@boost@@V?$list@UCertificate@v2@security@vanetza@@V?$allocator@UCertificate@v2@security@vanetza@@@std@@@2@UCertificateDigestWithOtherAlgorithm@v2@security@vanetza@@@boost@@V?$variant@V?$array@E$0M@@std@@$$V@boost@@V?$list@URecipientInfo@v2@security@vanetza@@V?$allocator@URecipientInfo@v2@security@vanetza@@@std@@@7@@3@PEAXUhas_fallback_type_@83@@variant@detail@boost@@YAXHHAEAVmove_assigner@?$variant@_KUTime64WithStandardDeviation@v2@security@vanetza@@IUThreeDLocation@234@V?$list@V?$array@E$02@std@@V?$allocator@V?$array@E$02@std@@@2@@std@@VIntX@234@V?$variant@$$TV?$array@E$07@std@@V?$recursive_wrapper@UCertificate@v2@security@vanetza@@@boost@@V?$list@UCertificate@v2@security@vanetza@@V?$allocator@UCertificate@v2@security@vanetza@@@std@@@2@UCertificateDigestWithOtherAlgorithm@v2@security@vanetza@@@boost@@V?$variant@V?$array@E$0M@@std@@$$V@boost@@V?$list@URecipientInfo@v2@security@vanetza@@V?$allocator@URecipientInfo@v2@security@vanetza@@@std@@@7@@2@PEAXU?$bool_@$00@mpl@2@Uhas_fallback_type_@42@PEAU?$int_@$0BE@@62@PEAU?$visitation_impl_step@U?$l_iter@Ul_end@mpl@boost@@@mpl@boost@@U123@@012@@Z
	??$visitation_impl@U?$int_@$0BE@@mpl@boost@@U?$visitation_impl_step@U?$l_iter@Ul_end@mpl@boost@@@mpl@boost@@U123@@variant@detail@3@Vmove_into@563@PEAXUhas_fallback_type_@?$variant@$$TV?$array@E$07@std@@V?$recursive_wrapper@UCertificate@v2@security@vanetza@@@boost@@V?$list@UCertificate@v2@security@vanetza@@V?$allocator@UCertificate@v2@security@vanetza@@@std@@@2@UCertificateDigestWithOtherAlgorithm@v2@security@vanetza@@@3@@variant@detail@boost@@YAXHHAEAVmove_into@012@PEAXU?$bool_@$00@mpl@2@Uhas_fallback_type_@?$variant@$$TV?$array@E$07@std@@V?$recursive_wrapper@UCertificate@v2@security@vanetza@@@boost@@V?$list@UCertificate@v2@security@vanetza@@V?$allocator@UCertificate@v2@security@vanetza@@@std@@@2@UCertificateDigestWithOtherAlgorithm@v2@security@vanetza@@@2@PEAU?$int_@$0BE@@52@PEAU?$visitation_impl_step@U?$l_iter@Ul_end@mpl@boost@@@mpl@boost@@U123@@012@@Z
	??$visitation_impl@U?$int_@$0BE@@mpl@boost@@U?$visitation_impl_step@U?$l_iter@Ul_end@mpl@boost@@@mpl@boost@@U123@@variant@detail@3@Vmove_into@563@PEAXUhas_fallback_type_@?$variant@IUStartAndEndValidity@v2@security@vanetza@@UStartAndDurationValidity@234@V?$variant@UNoneRegion@v2@security@vanetza@@UCircularRegion@234@V?$list@URectangularRegion@v2@security@vanetza@@V?$allocator@URectangularRegion@v2@security@vanetza@@@std@@@std@@V?$list@UTwoDLocation@v2@security@vanetza@@V?$allocator@UTwoDLocation@v2@security@vanetza@@@std@@@7@UIdentifiedRegion@234@@boost@@@3@@variant@detail@boost@@YAXHHAEAVmove_into@012@PEAXU?$bool_@$00@mpl@2@Uhas_fallback_type_@?$variant@IUStartAndEndValidity@v2@security@vanetza@@UStartAndDurationValidity@234@V?$variant@UNoneRegion@v2@security@vanetza@@UCircularRegion@234@V?$list@URectangularRegion@v2@security@vanetza@@V?$allocator@URectangularRegion@v2@security@vanetza@@@std@@@std@@V?$list@UTwoDLocation@v2@security@vanetza@@V?$allocator@UTwoDLocation@v2@security@vanetza@@@std@@@7@UIdentifiedRegion@234@@boost@@@2@PEAU?$int_@$0BE@@52@PEAU?$visitation_impl_step@U?$l_iter@Ul_end@mpl@boost@@@mpl@boost@@U123@@012@@Z
	??$visitation_impl@U?$int_@$0BE@@mpl@boost@@U?$visitation_impl_step@U?$l_iter@Ul_end@mpl@boost@@@mpl@boost@@U123@@variant@detail@3@Vmove_into@563@PEAXUhas_fallback_type_@?$variant@UEcdsaSignature@security@vanetza@@VEcdsaSignatureFuture@23@@3@@variant@detail@boost@@YAXHHAEAVmove_into@012@PEAXU?$bool_@$00@mpl@2@Uhas_fallback_type_@?$variant@UEcdsaSignature@security@vanetza@@VEcdsaSignatureFuture@23@@2@PEAU?$int_@$0BE@@52@PEAU?$visitation_impl_step@U?$l_iter@Ul_end@mpl@boost@@@mpl@boost@@U123@@012@@Z
	??$visitation_impl@U?$int_@$0BE@@mpl@boost@@U?$visitation_impl_step@U?$l_iter@Ul_end@mpl@boost@@@mpl@boost@@U123@@variant@detail@3@Vmove_into@563@PEAXUhas_fallback_type_@?$variant@UEciesEncryptedKey@v2@security@vanetza@@UOpaqueKey@234@@3@@variant@detail@boost@@YAXHHAEAVmove_into@012@PEAXU?$bool_@$00@mpl@2@Uhas_fallback_type_@?$variant@UEciesEncryptedKey@v2@security@vanetza@@UOpaqueKey@234@@2@PEAU?$int_@$0BE@@52@PEAU?$visitation_impl_step@U?$l_iter@Ul_end@mpl@boost@@@mpl@boost@@U123@@012@@Z
	??$visitation_impl@U?$int_@$0BE@@mpl@boost@@U?$visitation_impl_step@U?$l_iter@Ul_end@mpl@boost@@@mpl@boost@@U123@@variant@detail@3@Vmove_into@563@PEAXUhas_fallback_type_@?$variant@UNoneRegion@v2@security@vanetza@@UCircularRegion@234@V?$list@URectangularRegion@v2@security@vanetza@@V?$allocator@URectangularRegion@v2@security@vanetza@@@std@@@std@@V?$list@UTwoDLocation@v2@security@vanetza@@V?$allocator@UTwoDLocation@v2@security@vanetza@@@std@@@7@UIdentifiedRegion@234@@3@@variant@detail@boost@@YAXHHAEAVmove_into@012@PEAXU?$bool_@$00@mpl@2@Uhas_fallback_type_@?$variant@UNoneRegion@v2@security@vanetza@@UCircularRegion@234@V?$list@URectangularRegion@v2@security@vanetza@@V?$allocator@URectangularRegion@v2@security@vanetza@@@std@@@std@@V?$list@UTwoDLocation@v2@security@vanetza@@V?$allocator@UTwoDLocation@v2@security@vanetza@@@std@@@7@UIdentifiedRegion@234@@2@PEAU?$int_@$0BE@@52@PEAU?$visitation_impl_step@U?$l_iter@Ul_end@mpl@boost@@@mpl@boost@@U123@@012@@Z
	??$visitation_impl@U?$int_@$0BE@@mpl@boost@@U?$visitation_impl_step@U?$l_iter@Ul_end@mpl@boost@@@mpl@boost@@U123@@variant@detail@3@Vmove_into@563@PEAXUhas_fallback_type_@?$variant@USecuredMessage@v2@security@vanetza@@U1v3@34@@3@@variant@detail@boost@@YAXHHAEAVmove_into@012@PEAXU?$bool_@$00@mpl@2@Uhas_fallback_type_@?$variant@USecuredMessage@v2@security@vanetza@@U1v3@34@@2@PEAU?$int_@$0BE@@52@PEAU?$visitation_impl_step@U?$l_iter@Ul_end@mpl@boost@@@mpl@boost@@U123@@012@@Z
	??$visitation_impl@U?$int_@$0BE@@mpl@boost@@U?$visitation_impl_step@U?$l_iter@Ul_end@mpl@boost@@@mpl@boost@@U123@@variant@detail@3@Vmove_into@563@PEAXUhas_fallback_type_@?$variant@USignature@v2@security@vanetza@@$$V@3@@variant@detail@boost@@YAXHHAEAVmove_into@012@PEAXU?$bool_@$00@mpl@2@Uhas_fallback_type_@?$variant@USignature@v2@security@vanetza@@$$V@2@PEAU?$int_@$0BE@@52@PEAU?$visitation_impl_step@U?$l_iter@Ul_end@mpl@boost@@@mpl@boost@@U123@@012@@Z
	??$visitation_impl@U?$int_@$0BE@@mpl@boost@@U?$visitation_impl_step@U?$l_iter@Ul_end@mpl@boost@@@mpl@boost@@U123@@variant@detail@3@Vmove_into@563@PEAXUhas_fallback_type_@?$variant@UVerificationKey@v2@security@vanetza@@UEncryptionKey@234@USubjectAssurance@234@V?$variant@UX_Coordinate_Only@security@vanetza@@UCompressed_Lsb_Y_0@23@UCompressed_Lsb_Y_1@23@UUncompressed@23@@boost@@V?$list@VIntX@v2@security@vanetza@@V?$allocator@VIntX@v2@security@vanetza@@@std@@@std@@V?$list@UItsAidSsp@v2@security@vanetza@@V?$allocator@UItsAidSsp@v2@security@vanetza@@@std@@@std@@@3@@variant@detail@boost@@YAXHHAEAVmove_into@012@PEAXU?$bool_@$00@mpl@2@Uhas_fallback_type_@?$variant@UVerificationKey@v2@security@vanetza@@UEncryptionKey@234@USubjectAssurance@234@V?$variant@UX_Coordinate_Only@security@vanetza@@UCompressed_Lsb_Y_0@23@UCompressed_Lsb_Y_1@23@UUncompressed@23@@boost@@V?$list@VIntX@v2@security@vanetza@@V?$allocator@VIntX@v2@security@vanetza@@@std@@@std@@V?$list@UItsAidSsp@v2@security@vanetza@@V?$allocator@UItsAidSsp@v2@security@vanetza@@@std@@@std@@@2@PEAU?$int_@$0BE@@52@PEAU?$visitation_impl_step@U?$l_iter@Ul_end@mpl@boost@@@mpl@boost@@U123@@012@@Z
	??$visitation_impl@U?$int_@$0BE@@mpl@boost@@U?$visitation_impl_step@U?$l_iter@Ul_end@mpl@boost@@@mpl@boost@@U123@@variant@detail@3@Vmove_into@563@PEAXUhas_fallback_type_@?$variant@UX_Coordinate_Only@security@vanetza@@UCompressed_Lsb_Y_0@23@UCompressed_Lsb_Y_1@23@UUncompressed@23@@3@@variant@detail@boost@@YAXHHAEAVmove_into@012@PEAXU?$bool_@$00@mpl@2@Uhas_fallback_type_@?$variant@UX_Coordinate_Only@security@vanetza@@UCompressed_Lsb_Y_0@23@UCompressed_Lsb_Y_1@23@UUncompressed@23@@2@PEAU?$int_@$0BE@@52@PEAU?$visitation_impl_step@U?$l_iter@Ul_end@mpl@boost@@@mpl@boost@@U123@@012@@Z
	??$visitation_impl@U?$int_@$0BE@@mpl@boost@@U?$visitation_impl_step@U?$l_iter@Ul_end@mpl@boost@@@mpl@boost@@U123@@variant@detail@3@Vmove_into@563@PEAXUhas_fallback_type_@?$variant@Uecdsa_nistp256_with_sha256@v2@security@vanetza@@Uecies_nistp256@234@@3@@variant@detail@boost@@YAXHHAEAVmove_into@012@PEAXU?$bool_@$00@mpl@2@Uhas_fallback_type_@?$variant@Uecdsa_nistp256_with_sha256@v2@security@vanetza@@Uecies_nistp256@234@@2@PEAU?$int_@$0BE@@52@PEAU?$visitation_impl_step@U?$l_iter@Ul_end@mpl@boost@@@mpl@boost@@U123@@012@@Z
	??$visitation_impl@U?$int_@$0BE@@mpl@boost@@U?$visitation_impl_step@U?$l_iter@Ul_end@mpl@boost@@@mpl@boost@@U123@@variant@detail@3@Vmove_into@563@PEAXUhas_fallback_type_@?$variant@V?$array@E$0M@@std@@$$V@3@@variant@detail@boost@@YAXHHAEAVmove_into@012@PEAXU?$bool_@$00@mpl@2@Uhas_fallback_type_@?$variant@V?$array@E$0M@@std@@$$V@2@PEAU?$int_@$0BE@@52@PEAU?$visitation_impl_step@U?$l_iter@Ul_end@mpl@boost@@@mpl@boost@@U123@@012@@Z
	??$visitation_impl@U?$int_@$0BE@@mpl@boost@@U?$visitation_impl_step@U?$l_iter@Ul_end@mpl@boost@@@mpl@boost@@U123@@variant@detail@3@Vmove_into@563@PEAXUhas_fallback_type_@?$variant@VChunkPacket@vanetza@@VCohesivePacket@2@@3@@variant@detail@boost@@YAXHHAEAVmove_into@012@PEAXU?$bool_@$00@mpl@2@Uhas_fallback_type_@?$variant@VChunkPacket@vanetza@@VCohesivePacket@2@@2@PEAU?$int_@$0BE@@52@PEAU?$visitation_impl_step@U?$l_iter@Ul_end@mpl@boost@@@mpl@boost@@U123@@012@@Z
	??$visitation_impl@U?$int_@$0BE@@mpl@boost@@U?$visitation_impl_step@U?$l_iter@Ul_end@mpl@boost@@@mpl@boost@@U123@@variant@detail@3@Vmove_into@563@PEAXUhas_fallback_type_@?$variant@_KUTime64WithStandardDeviation@v2@security@vanetza@@IUThreeDLocation@234@V?$list@V?$array@E$02@std@@V?$allocator@V?$array@E$02@std@@@2@@std@@VIntX@234@V?$variant@$$TV?$array@E$07@std@@V?$recursive_wrapper@UCertificate@v2@security@vanetza@@@boost@@V?$list@UCertificate@v2@security@vanetza@@V?$allocator@UCertificate@v2@security@vanetza@@@std@@@2@UCertificateDigestWithOtherAlgorithm@v2@security@vanetza@@@boost@@V?$variant@V?$array@E$0M@@std@@$$V@boost@@V?$list@URecipientInfo@v2@security@vanetza@@V?$allocator@URecipientInfo@v2@security@vanetza@@@std@@@7@@3@@variant@detail@boost@@YAXHHAEAVmove_into@012@PEAXU?$bool_@$00@mpl@2@Uhas_fallback_type_@?$variant@_KUTime64WithStandardDeviation@v2@security@vanetza@@IUThreeDLocation@234@V?$list@V?$array@E$02@std@@V?$allocator@V?$array@E$02@std@@@2@@std@@VIntX@234@V?$variant@$$TV?$array@E$07@std@@V?$recursive_wrapper@UCertificate@v2@security@vanetza@@@boost@@V?$list@UCertificate@v2@security@vanetza@@V?$allocator@UCertificate@v2@security@vanetza@@@std@@@2@UCertificateDigestWithOtherAlgorithm@v2@security@vanetza@@@boost@@V?$variant@V?$array@E$0M@@std@@$$V@boost@@V?$list@URecipientInfo@v2@security@vanetza@@V?$allocator@URecipientInfo@v2@security@vanetza@@@std@@@7@@2@PEAU?$int_@$0BE@@52@PEAU?$visitation_impl_step@U?$l_iter@Ul_end@mpl@boost@@@mpl@boost@@U123@@012@@Z
	??$visitation_impl_invoke@Uassign_storage@variant@detail@boost@@PEAXUhas_fallback_type_@?$variant@$$TV?$array@E$07@std@@V?$recursive_wrapper@UCertificate@v2@security@vanetza@@@boost@@V?$list@UCertificate@v2@security@vanetza@@V?$allocator@UCertificate@v2@security@vanetza@@@std@@@2@UCertificateDigestWithOtherAlgorithm@v2@security@vanetza@@@4@@variant@detail@boost@@YAXHAEAUassign_storage@012@PEAXPEAUapply_visitor_unrolled@012@Uhas_fallback_type_@?$variant@$$TV?$array@E$07@std@@V?$recursive_wrapper@UCertificate@v2@security@vanetza@@@boost@@V?$list@UCertificate@v2@security@vanetza@@V?$allocator@UCertificate@v2@security@vanetza@@@std@@@2@UCertificateDigestWithOtherAlgorithm@v2@security@vanetza@@@2@J@Z
	??$visitation_impl_invoke@Uassign_storage@variant@detail@boost@@PEAXUhas_fallback_type_@?$variant@IUStartAndEndValidity@v2@security@vanetza@@UStartAndDurationValidity@234@V?$variant@UNoneRegion@v2@security@vanetza@@UCircularRegion@234@V?$list@URectangularRegion@v2@security@vanetza@@V?$allocator@URectangularRegion@v2@security@vanetza@@@std@@@std@@V?$list@UTwoDLocation@v2@security@vanetza@@V?$allocator@UTwoDLocation@v2@security@vanetza@@@std@@@7@UIdentifiedRegion@234@@boost@@@4@@variant@detail@boost@@YAXHAEAUassign_storage@012@PEAXPEAUapply_visitor_unrolled@012@Uhas_fallback_type_@?$variant@IUStartAndEndValidity@v2@security@vanetza@@UStartAndDurationValidity@234@V?$variant@UNoneRegion@v2@security@vanetza@@UCircularRegion@234@V?$list@URectangularRegion@v2@security@vanetza@@V?$allocator@URectangularRegion@v2@security@vanetza@@@std@@@std@@V?$list@UTwoDLocation@v2@security@vanetza@@V?$allocator@UTwoDLocation@v2@security@vanetza@@@std@@@7@UIdentifiedRegion@234@@boost@@@2@J@Z
	??$visitation_impl_invoke@Uassign_storage@variant@detail@boost@@PEAXUhas_fallback_type_@?$variant@UEcdsaSignature@security@vanetza@@VEcdsaSignatureFuture@23@@4@@variant@detail@boost@@YAXHAEAUassign_storage@012@PEAXPEAUapply_visitor_unrolled@012@Uhas_fallback_type_@?$variant@UEcdsaSignature@security@vanetza@@VEcdsaSignatureFuture@23@@2@J@Z
	??$visitation_impl_invoke@Uassign_storage@variant@detail@boost@@PEAXUhas_fallback_type_@?$variant@UEciesEncryptedKey@v2@security@vanetza@@UOpaqueKey@234@@4@@variant@detail@boost@@YAXHAEAUassign_storage@012@PEAXPEAUapply_visitor_unrolled@012@Uhas_fallback_type_@?$variant@UEciesEncryptedKey@v2@security@vanetza@@UOpaqueKey@234@@2@J@Z
	??$visitation_impl_invoke@Uassign_storage@variant@detail@boost@@PEAXUhas_fallback_type_@?$variant@UNoneRegion@v2@security@vanetza@@UCircularRegion@234@V?$list@URectangularRegion@v2@security@vanetza@@V?$allocator@URectangularRegion@v2@security@vanetza@@@std@@@std@@V?$list@UTwoDLocation@v2@security@vanetza@@V?$allocator@UTwoDLocation@v2@security@vanetza@@@std@@@7@UIdentifiedRegion@234@@4@@variant@detail@boost@@YAXHAEAUassign_storage@012@PEAXPEAUapply_visitor_unrolled@012@Uhas_fallback_type_@?$variant@UNoneRegion@v2@security@vanetza@@UCircularRegion@234@V?$list@URectangularRegion@v2@security@vanetza@@V?$allocator@URectangularRegion@v2@security@vanetza@@@std@@@std@@V?$list@UTwoDLocation@v2@security@vanetza@@V?$allocator@UTwoDLocation@v2@security@vanetza@@@std@@@7@UIdentifiedRegion@234@@2@J@Z
	??$visitation_impl_invoke@Uassign_storage@variant@detail@boost@@PEAXUhas_fallback_type_@?$variant@UVerificationKey@v2@security@vanetza@@UEncryptionKey@234@USubjectAssurance@234@V?$variant@UX_Coordinate_Only@security@vanetza@@UCompressed_Lsb_Y_0@23@UCompressed_Lsb_Y_1@23@UUncompressed@23@@boost@@V?$list@VIntX@v2@security@vanetza@@V?$allocator@VIntX@v2@security@vanetza@@@std@@@std@@V?$list@UItsAidSsp@v2@security@vanetza@@V?$allocator@UItsAidSsp@v2@security@vanetza@@@std@@@std@@@4@@variant@detail@boost@@YAXHAEAUassign_storage@012@PEAXPEAUapply_visitor_unrolled@012@Uhas_fallback_type_@?$variant@UVerificationKey@v2@security@vanetza@@UEncryptionKey@234@USubjectAssurance@234@V?$variant@UX_Coordinate_Only@security@vanetza@@UCompressed_Lsb_Y_0@23@UCompressed_Lsb_Y_1@23@UUncompressed@23@@boost@@V?$list@VIntX@v2@security@vanetza@@V?$allocator@VIntX@v2@security@vanetza@@@std@@@std@@V?$list@UItsAidSsp@v2@security@vanetza@@V?$allocator@UItsAidSsp@v2@security@vanetza@@@std@@@std@@@2@J@Z
	??$visitation_impl_invoke@Uassign_storage@variant@detail@boost@@PEAXUhas_fallback_type_@?$variant@UX_Coordinate_Only@security@vanetza@@UCompressed_Lsb_Y_0@23@UCompressed_Lsb_Y_1@23@UUncompressed@23@@4@@variant@detail@boost@@YAXHAEAUassign_storage@012@PEAXPEAUapply_visitor_unrolled@012@Uhas_fallback_type_@?$variant@UX_Coordinate_Only@security@vanetza@@UCompressed_Lsb_Y_0@23@UCompressed_Lsb_Y_1@23@UUncompressed@23@@2@J@Z
	??$visitation_impl_invoke@Uassign_storage@variant@detail@boost@@PEAXUhas_fallback_type_@?$variant@Uecdsa_nistp256_with_sha256@v2@security@vanetza@@Uecies_nistp256@234@@4@@variant@detail@boost@@YAXHAEAUassign_storage@012@PEAXPEAUapply_visitor_unrolled@012@Uhas_fallback_type_@?$variant@Uecdsa_nistp256_with_sha256@v2@security@vanetza@@Uecies_nistp256@234@@2@J@Z
	??$visitation_impl_invoke@Uassign_storage@variant@detail@boost@@PEAXUhas_fallback_type_@?$variant@V?$array@E$0M@@std@@$$V@4@@variant@detail@boost@@YAXHAEAUassign_storage@012@PEAXPEAUapply_visitor_unrolled@012@Uhas_fallback_type_@?$variant@V?$array@E$0M@@std@@$$V@2@J@Z
	??$visitation_impl_invoke@Uassign_storage@variant@detail@boost@@PEAXV?$list@UCertificate@v2@security@vanetza@@V?$allocator@UCertificate@v2@security@vanetza@@@std@@@std@@Uhas_fallback_type_@?$variant@$$TV?$array@E$07@std@@V?$recursive_wrapper@UCertificate@v2@security@vanetza@@@boost@@V?$list@UCertificate@v2@security@vanetza@@V?$allocator@UCertificate@v2@security@vanetza@@@std@@@2@UCertificateDigestWithOtherAlgorithm@v2@security@vanetza@@@4@@variant@detail@boost@@YAXHAEAUassign_storage@012@PEAXPEAV?$list@UCertificate@v2@security@vanetza@@V?$allocator@UCertificate@v2@security@vanetza@@@std@@@std@@Uhas_fallback_type_@?$variant@$$TV?$array@E$07@std@@V?$recursive_wrapper@UCertificate@v2@security@vanetza@@@boost@@V?$list@UCertificate@v2@security@vanetza@@V?$allocator@UCertificate@v2@security@vanetza@@@std@@@2@UCertificateDigestWithOtherAlgorithm@v2@security@vanetza@@@2@H@Z
	??$visitation_impl_invoke@Uassign_storage@variant@detail@boost@@PEAXV?$list@URectangularRegion@v2@security@vanetza@@V?$allocator@URectangularRegion@v2@security@vanetza@@@std@@@std@@Uhas_fallback_type_@?$variant@UNoneRegion@v2@security@vanetza@@UCircularRegion@234@V?$list@URectangularRegion@v2@security@vanetza@@V?$allocator@URectangularRegion@v2@security@vanetza@@@std@@@std@@V?$list@UTwoDLocation@v2@security@vanetza@@V?$allocator@UTwoDLocation@v2@security@vanetza@@@std@@@7@UIdentifiedRegion@234@@4@@variant@detail@boost@@YAXHAEAUassign_storage@012@PEAXPEAV?$list@URectangularRegion@v2@security@vanetza@@V?$allocator@URectangularRegion@v2@security@vanetza@@@std@@@std@@Uhas_fallback_type_@?$variant@UNoneRegion@v2@security@vanetza@@UCircularRegion@234@V?$list@URectangularRegion@v2@security@vanetza@@V?$allocator@URectangularRegion@v2@security@vanetza@@@std@@@std@@V?$list@UTwoDLocation@v2@security@vanetza@@V?$allocator@UTwoDLocation@v2@security@vanetza@@@std@@@7@UIdentifiedRegion@234@@2@H@Z
	??$visitation_impl_invoke@Udestroyer@variant@detail@boost@@PEAXUhas_fallback_type_@?$variant@$$TV?$array@E$07@std@@V?$recursive_wrapper@UCertificate@v2@security@vanetza@@@boost@@V?$list@UCertificate@v2@security@vanetza@@V?$allocator@UCertificate@v2@security@vanetza@@@std@@@2@UCertificateDigestWithOtherAlgorithm@v2@security@vanetza@@@4@@variant@detail@boost@@YAXHAEAUdestroyer@012@PEAXPEAUapply_visitor_unrolled@012@Uhas_fallback_type_@?$variant@$$TV?$array@E$07@std@@V?$recursive_wrapper@UCertificate@v2@security@vanetza@@@boost@@V?$list@UCertificate@v2@security@vanetza@@V?$allocator@UCertificate@v2@security@vanetza@@@std@@@2@UCertificateDigestWithOtherAlgorithm@v2@security@vanetza@@@2@J@Z
	??$visitation_impl_invoke@Udestroyer@variant@detail@boost@@PEAXUhas_fallback_type_@?$variant@IUStartAndEndValidity@v2@security@vanetza@@UStartAndDurationValidity@234@V?$variant@UNoneRegion@v2@security@vanetza@@UCircularRegion@234@V?$list@URectangularRegion@v2@security@vanetza@@V?$allocator@URectangularRegion@v2@security@vanetza@@@std@@@std@@V?$list@UTwoDLocation@v2@security@vanetza@@V?$allocator@UTwoDLocation@v2@security@vanetza@@@std@@@7@UIdentifiedRegion@234@@boost@@@4@@variant@detail@boost@@YAXHAEAUdestroyer@012@PEAXPEAUapply_visitor_unrolled@012@Uhas_fallback_type_@?$variant@IUStartAndEndValidity@v2@security@vanetza@@UStartAndDurationValidity@234@V?$variant@UNoneRegion@v2@security@vanetza@@UCircularRegion@234@V?$list@URectangularRegion@v2@security@vanetza@@V?$allocator@URectangularRegion@v2@security@vanetza@@@std@@@std@@V?$list@UTwoDLocation@v2@security@vanetza@@V?$allocator@UTwoDLocation@v2@security@vanetza@@@std@@@7@UIdentifiedRegion@234@@boost@@@2@J@Z
	??$visitation_impl_invoke@Udestroyer@variant@detail@boost@@PEAXUhas_fallback_type_@?$variant@UEcdsaSignature@security@vanetza@@VEcdsaSignatureFuture@23@@4@@variant@detail@boost@@YAXHAEAUdestroyer@012@PEAXPEAUapply_visitor_unrolled@012@Uhas_fallback_type_@?$variant@UEcdsaSignature@security@vanetza@@VEcdsaSignatureFuture@23@@2@J@Z
	??$visitation_impl_invoke@Udestroyer@variant@detail@boost@@PEAXUhas_fallback_type_@?$variant@UEciesEncryptedKey@v2@security@vanetza@@UOpaqueKey@234@@4@@variant@detail@boost@@YAXHAEAUdestroyer@012@PEAXPEAUapply_visitor_unrolled@012@Uhas_fallback_type_@?$variant@UEciesEncryptedKey@v2@security@vanetza@@UOpaqueKey@234@@2@J@Z
	??$visitation_impl_invoke@Udestroyer@variant@detail@boost@@PEAXUhas_fallback_type_@?$variant@UNoneRegion@v2@security@vanetza@@UCircularRegion@234@V?$list@URectangularRegion@v2@security@vanetza@@V?$allocator@URectangularRegion@v2@security@vanetza@@@std@@@std@@V?$list@UTwoDLocation@v2@security@vanetza@@V?$allocator@UTwoDLocation@v2@security@vanetza@@@std@@@7@UIdentifiedRegion@234@@4@@variant@detail@boost@@YAXHAEAUdestroyer@012@PEAXPEAUapply_visitor_unrolled@012@Uhas_fallback_type_@?$variant@UNoneRegion@v2@security@vanetza@@UCircularRegion@234@V?$list@URectangularRegion@v2@security@vanetza@@V?$allocator@URectangularRegion@v2@security@vanetza@@@std@@@std@@V?$list@UTwoDLocation@v2@security@vanetza@@V?$allocator@UTwoDLocation@v2@security@vanetza@@@std@@@7@UIdentifiedRegion@234@@2@J@Z
	??$visitation_impl_invoke@Udestroyer@variant@detail@boost@@PEAXUhas_fallback_type_@?$variant@USecuredMessage@v2@security@vanetza@@U1v3@34@@4@@variant@detail@boost@@YAXHAEAUdestroyer@012@PEAXPEAUapply_visitor_unrolled@012@Uhas_fallback_type_@?$variant@USecuredMessage@v2@security@vanetza@@U1v3@34@@2@J@Z
	??$visitation_impl_invoke@Udestroyer@variant@detail@boost@@PEAXUhas_fallback_type_@?$variant@USignature@v2@security@vanetza@@$$V@4@@variant@detail@boost@@YAXHAEAUdestroyer@012@PEAXPEAUapply_visitor_unrolled@012@Uhas_fallback_type_@?$variant@USignature@v2@security@vanetza@@$$V@2@J@Z
	??$visitation_impl_invoke@Udestroyer@variant@detail@boost@@PEAXUhas_fallback_type_@?$variant@UVerificationKey@v2@security@vanetza@@UEncryptionKey@234@USubjectAssurance@234@V?$variant@UX_Coordinate_Only@security@vanetza@@UCompressed_Lsb_Y_0@23@UCompressed_Lsb_Y_1@23@UUncompressed@23@@boost@@V?$list@VIntX@v2@security@vanetza@@V?$allocator@VIntX@v2@security@vanetza@@@std@@@std@@V?$list@UItsAidSsp@v2@security@vanetza@@V?$allocator@UItsAidSsp@v2@security@vanetza@@@std@@@std@@@4@@variant@detail@boost@@YAXHAEAUdestroyer@012@PEAXPEAUapply_visitor_unrolled@012@Uhas_fallback_type_@?$variant@UVerificationKey@v2@security@vanetza@@UEncryptionKey@234@USubjectAssurance@234@V?$variant@UX_Coordinate_Only@security@vanetza@@UCompressed_Lsb_Y_0@23@UCompressed_Lsb_Y_1@23@UUncompressed@23@@boost@@V?$list@VIntX@v2@security@vanetza@@V?$allocator@VIntX@v2@security@vanetza@@@std@@@std@@V?$list@UItsAidSsp@v2@security@vanetza@@V?$allocator@UItsAidSsp@v2@security@vanetza@@@std@@@std@@@2@J@Z
	??$visitation_impl_invoke@Udestroyer@variant@detail@boost@@PEAXUhas_fallback_type_@?$variant@UX_Coordinate_Only@security@vanetza@@UCompressed_Lsb_Y_0@23@UCompressed_Lsb_Y_1@23@UUncompressed@23@@4@@variant@detail@boost@@YAXHAEAUdestroyer@012@PEAXPEAUapply_visitor_unrolled@012@Uhas_fallback_type_@?$variant@UX_Coordinate_Only@security@vanetza@@UCompressed_Lsb_Y_0@23@UCompressed_Lsb_Y_1@23@UUncompressed@23@@2@J@Z
	??$visitation_impl_invoke@Udestroyer@variant@detail@boost@@PEAXUhas_fallback_type_@?$variant@Uecdsa_nistp256_with_sha256@v2@security@vanetza@@Uecies_nistp256@234@@4@@variant@detail@boost@@YAXHAEAUdestroyer@012@PEAXPEAUapply_visitor_unrolled@012@Uhas_fallback_type_@?$variant@Uecdsa_nistp256_with_sha256@v2@security@vanetza@@Uecies_nistp256@234@@2@J@Z
	??$visitation_impl_invoke@Udestroyer@variant@detail@boost@@PEAXUhas_fallback_type_@?$variant@VChunkPacket@vanetza@@VCohesivePacket@2@@4@@variant@detail@boost@@YAXHAEAUdestroyer@012@PEAXPEAUapply_visitor_unrolled@012@Uhas_fallback_type_@?$variant@VChunkPacket@vanetza@@VCohesivePacket@2@@2@J@Z
	??$visitation_impl_invoke@Udestroyer@variant@detail@boost@@PEAXUhas_fallback_type_@?$variant@_KUTime64WithStandardDeviation@v2@security@vanetza@@IUThreeDLocation@234@V?$list@V?$array@E$02@std@@V?$allocator@V?$array@E$02@std@@@2@@std@@VIntX@234@V?$variant@$$TV?$array@E$07@std@@V?$recursive_wrapper@UCertificate@v2@security@vanetza@@@boost@@V?$list@UCertificate@v2@security@vanetza@@V?$allocator@UCertificate@v2@security@vanetza@@@std@@@2@UCertificateDigestWithOtherAlgorithm@v2@security@vanetza@@@boost@@V?$variant@V?$array@E$0M@@std@@$$V@boost@@V?$list@URecipientInfo@v2@security@vanetza@@V?$allocator@URecipientInfo@v2@security@vanetza@@@std@@@7@@4@@variant@detail@boost@@YAXHAEAUdestroyer@012@PEAXPEAUapply_visitor_unrolled@012@Uhas_fallback_type_@?$variant@_KUTime64WithStandardDeviation@v2@security@vanetza@@IUThreeDLocation@234@V?$list@V?$array@E$02@std@@V?$allocator@V?$array@E$02@std@@@2@@std@@VIntX@234@V?$variant@$$TV?$array@E$07@std@@V?$recursive_wrapper@UCertificate@v2@security@vanetza@@@boost@@V?$list@UCertificate@v2@security@vanetza@@V?$allocator@UCertificate@v2@security@vanetza@@@std@@@2@UCertificateDigestWithOtherAlgorithm@v2@security@vanetza@@@boost@@V?$variant@V?$array@E$0M@@std@@$$V@boost@@V?$list@URecipientInfo@v2@security@vanetza@@V?$allocator@URecipientInfo@v2@security@vanetza@@@std@@@7@@2@J@Z
	??$visitation_impl_invoke@Udestroyer@variant@detail@boost@@PEAXV?$list@UItsAidSsp@v2@security@vanetza@@V?$allocator@UItsAidSsp@v2@security@vanetza@@@std@@@std@@Uhas_fallback_type_@?$variant@UVerificationKey@v2@security@vanetza@@UEncryptionKey@234@USubjectAssurance@234@V?$variant@UX_Coordinate_Only@security@vanetza@@UCompressed_Lsb_Y_0@23@UCompressed_Lsb_Y_1@23@UUncompressed@23@@boost@@V?$list@VIntX@v2@security@vanetza@@V?$allocator@VIntX@v2@security@vanetza@@@std@@@std@@V?$list@UItsAidSsp@v2@security@vanetza@@V?$allocator@UItsAidSsp@v2@security@vanetza@@@std@@@std@@@4@@variant@detail@boost@@YAXHAEAUdestroyer@012@PEAXPEAV?$list@UItsAidSsp@v2@security@vanetza@@V?$allocator@UItsAidSsp@v2@security@vanetza@@@std@@@std@@Uhas_fallback_type_@?$variant@UVerificationKey@v2@security@vanetza@@UEncryptionKey@234@USubjectAssurance@234@V?$variant@UX_Coordinate_Only@security@vanetza@@UCompressed_Lsb_Y_0@23@UCompressed_Lsb_Y_1@23@UUncompressed@23@@boost@@V?$list@VIntX@v2@security@vanetza@@V?$allocator@VIntX@v2@security@vanetza@@@std@@@std@@V?$list@UItsAidSsp@v2@security@vanetza@@V?$allocator@UItsAidSsp@v2@security@vanetza@@@std@@@std@@@2@H@Z
	??$visitation_impl_invoke@Umove_storage@variant@detail@boost@@PEAXUhas_fallback_type_@?$variant@$$TV?$array@E$07@std@@V?$recursive_wrapper@UCertificate@v2@security@vanetza@@@boost@@V?$list@UCertificate@v2@security@vanetza@@V?$allocator@UCertificate@v2@security@vanetza@@@std@@@2@UCertificateDigestWithOtherAlgorithm@v2@security@vanetza@@@4@@variant@detail@boost@@YAXHAEAUmove_storage@012@PEAXPEAUapply_visitor_unrolled@012@Uhas_fallback_type_@?$variant@$$TV?$array@E$07@std@@V?$recursive_wrapper@UCertificate@v2@security@vanetza@@@boost@@V?$list@UCertificate@v2@security@vanetza@@V?$allocator@UCertificate@v2@security@vanetza@@@std@@@2@UCertificateDigestWithOtherAlgorithm@v2@security@vanetza@@@2@J@Z
	??$visitation_impl_invoke@Umove_storage@variant@detail@boost@@PEAXUhas_fallback_type_@?$variant@IUStartAndEndValidity@v2@security@vanetza@@UStartAndDurationValidity@234@V?$variant@UNoneRegion@v2@security@vanetza@@UCircularRegion@234@V?$list@URectangularRegion@v2@security@vanetza@@V?$allocator@URectangularRegion@v2@security@vanetza@@@std@@@std@@V?$list@UTwoDLocation@v2@security@vanetza@@V?$allocator@UTwoDLocation@v2@security@vanetza@@@std@@@7@UIdentifiedRegion@234@@boost@@@4@@variant@detail@boost@@YAXHAEAUmove_storage@012@PEAXPEAUapply_visitor_unrolled@012@Uhas_fallback_type_@?$variant@IUStartAndEndValidity@v2@security@vanetza@@UStartAndDurationValidity@234@V?$variant@UNoneRegion@v2@security@vanetza@@UCircularRegion@234@V?$list@URectangularRegion@v2@security@vanetza@@V?$allocator@URectangularRegion@v2@security@vanetza@@@std@@@std@@V?$list@UTwoDLocation@v2@security@vanetza@@V?$allocator@UTwoDLocation@v2@security@vanetza@@@std@@@7@UIdentifiedRegion@234@@boost@@@2@J@Z
	??$visitation_impl_invoke@Umove_storage@variant@detail@boost@@PEAXUhas_fallback_type_@?$variant@UEcdsaSignature@security@vanetza@@VEcdsaSignatureFuture@23@@4@@variant@detail@boost@@YAXHAEAUmove_storage@012@PEAXPEAUapply_visitor_unrolled@012@Uhas_fallback_type_@?$variant@UEcdsaSignature@security@vanetza@@VEcdsaSignatureFuture@23@@2@J@Z
	??$visitation_impl_invoke@Umove_storage@variant@detail@boost@@PEAXUhas_fallback_type_@?$variant@UEciesEncryptedKey@v2@security@vanetza@@UOpaqueKey@234@@4@@variant@detail@boost@@YAXHAEAUmove_storage@012@PEAXPEAUapply_visitor_unrolled@012@Uhas_fallback_type_@?$variant@UEciesEncryptedKey@v2@security@vanetza@@UOpaqueKey@234@@2@J@Z
	??$visitation_impl_invoke@Umove_storage@variant@detail@boost@@PEAXUhas_fallback_type_@?$variant@UNoneRegion@v2@security@vanetza@@UCircularRegion@234@V?$list@URectangularRegion@v2@security@vanetza@@V?$allocator@URectangularRegion@v2@security@vanetza@@@std@@@std@@V?$list@UTwoDLocation@v2@security@vanetza@@V?$allocator@UTwoDLocation@v2@security@vanetza@@@std@@@7@UIdentifiedRegion@234@@4@@variant@detail@boost@@YAXHAEAUmove_storage@012@PEAXPEAUapply_visitor_unrolled@012@Uhas_fallback_type_@?$variant@UNoneRegion@v2@security@vanetza@@UCircularRegion@234@V?$list@URectangularRegion@v2@security@vanetza@@V?$allocator@URectangularRegion@v2@security@vanetza@@@std@@@std@@V?$list@UTwoDLocation@v2@security@vanetza@@V?$allocator@UTwoDLocation@v2@security@vanetza@@@std@@@7@UIdentifiedRegion@234@@2@J@Z
	??$visitation_impl_invoke@Umove_storage@variant@detail@boost@@PEAXUhas_fallback_type_@?$variant@USignature@v2@security@vanetza@@$$V@4@@variant@detail@boost@@YAXHAEAUmove_storage@012@PEAXPEAUapply_visitor_unrolled@012@Uhas_fallback_type_@?$variant@USignature@v2@security@vanetza@@$$V@2@J@Z
	??$visitation_impl_invoke@Umove_storage@variant@detail@boost@@PEAXUhas_fallback_type_@?$variant@UVerificationKey@v2@security@vanetza@@UEncryptionKey@234@USubjectAssurance@234@V?$variant@UX_Coordinate_Only@security@vanetza@@UCompressed_Lsb_Y_0@23@UCompressed_Lsb_Y_1@23@UUncompressed@23@@boost@@V?$list@VIntX@v2@security@vanetza@@V?$allocator@VIntX@v2@security@vanetza@@@std@@@std@@V?$list@UItsAidSsp@v2@security@vanetza@@V?$allocator@UItsAidSsp@v2@security@vanetza@@@std@@@std@@@4@@variant@detail@boost@@YAXHAEAUmove_storage@012@PEAXPEAUapply_visitor_unrolled@012@Uhas_fallback_type_@?$variant@UVerificationKey@v2@security@vanetza@@UEncryptionKey@234@USubjectAssurance@234@V?$variant@UX_Coordinate_Only@security@vanetza@@UCompressed_Lsb_Y_0@23@UCompressed_Lsb_Y_1@23@UUncompressed@23@@boost@@V?$list@VIntX@v2@security@vanetza@@V?$allocator@VIntX@v2@security@vanetza@@@std@@@std@@V?$list@UItsAidSsp@v2@security@vanetza@@V?$allocator@UItsAidSsp@v2@security@vanetza@@@std@@@std@@@2@J@Z
	??$visitation_impl_invoke@Umove_storage@variant@detail@boost@@PEAXUhas_fallback_type_@?$variant@UX_Coordinate_Only@security@vanetza@@UCompressed_Lsb_Y_0@23@UCompressed_Lsb_Y_1@23@UUncompressed@23@@4@@variant@detail@boost@@YAXHAEAUmove_storage@012@PEAXPEAUapply_visitor_unrolled@012@Uhas_fallback_type_@?$variant@UX_Coordinate_Only@security@vanetza@@UCompressed_Lsb_Y_0@23@UCompressed_Lsb_Y_1@23@UUncompressed@23@@2@J@Z
	??$visitation_impl_invoke@Umove_storage@variant@detail@boost@@PEAXUhas_fallback_type_@?$variant@Ublank@boost@@W4VerificationReport@security@vanetza@@@4@@variant@detail@boost@@YAXHAEAUmove_storage@012@PEAXPEAUapply_visitor_unrolled@012@Uhas_fallback_type_@?$variant@Ublank@boost@@W4VerificationReport@security@vanetza@@@2@J@Z
	??$visitation_impl_invoke@Umove_storage@variant@detail@boost@@PEAXUhas_fallback_type_@?$variant@Uecdsa_nistp256_with_sha256@v2@security@vanetza@@Uecies_nistp256@234@@4@@variant@detail@boost@@YAXHAEAUmove_storage@012@PEAXPEAUapply_visitor_unrolled@012@Uhas_fallback_type_@?$variant@Uecdsa_nistp256_with_sha256@v2@security@vanetza@@Uecies_nistp256@234@@2@J@Z
	??$visitation_impl_invoke@Umove_storage@variant@detail@boost@@PEAXUhas_fallback_type_@?$variant@V?$array@E$0M@@std@@$$V@4@@variant@detail@boost@@YAXHAEAUmove_storage@012@PEAXPEAUapply_visitor_unrolled@012@Uhas_fallback_type_@?$variant@V?$array@E$0M@@std@@$$V@2@J@Z
	??$visitation_impl_invoke@Umove_storage@variant@detail@boost@@PEAXUhas_fallback_type_@?$variant@VChunkPacket@vanetza@@VCohesivePacket@2@@4@@variant@detail@boost@@YAXHAEAUmove_storage@012@PEAXPEAUapply_visitor_unrolled@012@Uhas_fallback_type_@?$variant@VChunkPacket@vanetza@@VCohesivePacket@2@@2@J@Z
	??$visitation_impl_invoke@Umove_storage@variant@detail@boost@@PEAXUhas_fallback_type_@?$variant@_KUTime64WithStandardDeviation@v2@security@vanetza@@IUThreeDLocation@234@V?$list@V?$array@E$02@std@@V?$allocator@V?$array@E$02@std@@@2@@std@@VIntX@234@V?$variant@$$TV?$array@E$07@std@@V?$recursive_wrapper@UCertificate@v2@security@vanetza@@@boost@@V?$list@UCertificate@v2@security@vanetza@@V?$allocator@UCertificate@v2@security@vanetza@@@std@@@2@UCertificateDigestWithOtherAlgorithm@v2@security@vanetza@@@boost@@V?$variant@V?$array@E$0M@@std@@$$V@boost@@V?$list@URecipientInfo@v2@security@vanetza@@V?$allocator@URecipientInfo@v2@security@vanetza@@@std@@@7@@4@@variant@detail@boost@@YAXHAEAUmove_storage@012@PEAXPEAUapply_visitor_unrolled@012@Uhas_fallback_type_@?$variant@_KUTime64WithStandardDeviation@v2@security@vanetza@@IUThreeDLocation@234@V?$list@V?$array@E$02@std@@V?$allocator@V?$array@E$02@std@@@2@@std@@VIntX@234@V?$variant@$$TV?$array@E$07@std@@V?$recursive_wrapper@UCertificate@v2@security@vanetza@@@boost@@V?$list@UCertificate@v2@security@vanetza@@V?$allocator@UCertificate@v2@security@vanetza@@@std@@@2@UCertificateDigestWithOtherAlgorithm@v2@security@vanetza@@@boost@@V?$variant@V?$array@E$0M@@std@@$$V@boost@@V?$list@URecipientInfo@v2@security@vanetza@@V?$allocator@URecipientInfo@v2@security@vanetza@@@std@@@7@@2@J@Z
	??$visitation_impl_invoke@Umove_storage@variant@detail@boost@@PEAXV?$list@UCertificate@v2@security@vanetza@@V?$allocator@UCertificate@v2@security@vanetza@@@std@@@std@@Uhas_fallback_type_@?$variant@$$TV?$array@E$07@std@@V?$recursive_wrapper@UCertificate@v2@security@vanetza@@@boost@@V?$list@UCertificate@v2@security@vanetza@@V?$allocator@UCertificate@v2@security@vanetza@@@std@@@2@UCertificateDigestWithOtherAlgorithm@v2@security@vanetza@@@4@@variant@detail@boost@@YAXHAEAUmove_storage@012@PEAXPEAV?$list@UCertificate@v2@security@vanetza@@V?$allocator@UCertificate@v2@security@vanetza@@@std@@@std@@Uhas_fallback_type_@?$variant@$$TV?$array@E$07@std@@V?$recursive_wrapper@UCertificate@v2@security@vanetza@@@boost@@V?$list@UCertificate@v2@security@vanetza@@V?$allocator@UCertificate@v2@security@vanetza@@@std@@@2@UCertificateDigestWithOtherAlgorithm@v2@security@vanetza@@@2@H@Z
	??$visitation_impl_invoke@Umove_storage@variant@detail@boost@@PEAXV?$list@URecipientInfo@v2@security@vanetza@@V?$allocator@URecipientInfo@v2@security@vanetza@@@std@@@std@@Uhas_fallback_type_@?$variant@_KUTime64WithStandardDeviation@v2@security@vanetza@@IUThreeDLocation@234@V?$list@V?$array@E$02@std@@V?$allocator@V?$array@E$02@std@@@2@@std@@VIntX@234@V?$variant@$$TV?$array@E$07@std@@V?$recursive_wrapper@UCertificate@v2@security@vanetza@@@boost@@V?$list@UCertificate@v2@security@vanetza@@V?$allocator@UCertificate@v2@security@vanetza@@@std@@@2@UCertificateDigestWithOtherAlgorithm@v2@security@vanetza@@@boost@@V?$variant@V?$array@E$0M@@std@@$$V@boost@@V?$list@URecipientInfo@v2@security@vanetza@@V?$allocator@URecipientInfo@v2@security@vanetza@@@std@@@7@@4@@variant@detail@boost@@YAXHAEAUmove_storage@012@PEAXPEAV?$list@URecipientInfo@v2@security@vanetza@@V?$allocator@URecipientInfo@v2@security@vanetza@@@std@@@std@@Uhas_fallback_type_@?$variant@_KUTime64WithStandardDeviation@v2@security@vanetza@@IUThreeDLocation@234@V?$list@V?$array@E$02@std@@V?$allocator@V?$array@E$02@std@@@2@@std@@VIntX@234@V?$variant@$$TV?$array@E$07@std@@V?$recursive_wrapper@UCertificate@v2@security@vanetza@@@boost@@V?$list@UCertificate@v2@security@vanetza@@V?$allocator@UCertificate@v2@security@vanetza@@@std@@@2@UCertificateDigestWithOtherAlgorithm@v2@security@vanetza@@@boost@@V?$variant@V?$array@E$0M@@std@@$$V@boost@@V?$list@URecipientInfo@v2@security@vanetza@@V?$allocator@URecipientInfo@v2@security@vanetza@@@std@@@7@@2@H@Z
	??$visitation_impl_invoke@V?$backup_assigner@V?$variant@VChunkPacket@vanetza@@VCohesivePacket@2@@boost@@@variant@detail@boost@@PEAXUhas_fallback_type_@?$variant@VChunkPacket@vanetza@@VCohesivePacket@2@@4@@variant@detail@boost@@YAXHAEAV?$backup_assigner@V?$variant@VChunkPacket@vanetza@@VCohesivePacket@2@@boost@@@012@PEAXPEAUapply_visitor_unrolled@012@Uhas_fallback_type_@?$variant@VChunkPacket@vanetza@@VCohesivePacket@2@@2@J@Z
	??$visitation_impl_invoke@V?$invoke_visitor@$$CBUItsAidVisitor@security@vanetza@@$0A@@variant@detail@boost@@PEBXUhas_fallback_type_@?$variant@AEBUSecuredMessage@v2@security@vanetza@@AEBU1v3@34@@4@@variant@detail@boost@@YAIHAEAV?$invoke_visitor@$$CBUItsAidVisitor@security@vanetza@@$0A@@012@PEBXPEAUapply_visitor_unrolled@012@Uhas_fallback_type_@?$variant@AEBUSecuredMessage@v2@security@vanetza@@AEBU1v3@34@@2@J@Z
	??$visitation_impl_invoke@V?$invoke_visitor@$$CBUItsAidVisitor@security@vanetza@@$0A@@variant@detail@boost@@PEBXUhas_fallback_type_@?$variant@USecuredMessage@v2@security@vanetza@@U1v3@34@@4@@variant@detail@boost@@YAIHAEAV?$invoke_visitor@$$CBUItsAidVisitor@security@vanetza@@$0A@@012@PEBXPEAUapply_visitor_unrolled@012@Uhas_fallback_type_@?$variant@USecuredMessage@v2@security@vanetza@@U1v3@34@@2@J@Z
	??$visitation_impl_invoke@V?$invoke_visitor@$$CBUPayloadCopyVisitor@security@vanetza@@$0A@@variant@detail@boost@@PEBXUhas_fallback_type_@?$variant@AEBUSecuredMessage@v2@security@vanetza@@AEBU1v3@34@@4@@variant@detail@boost@@YA?AV?$variant@VChunkPacket@vanetza@@VCohesivePacket@2@@2@HAEAV?$invoke_visitor@$$CBUPayloadCopyVisitor@security@vanetza@@$0A@@012@PEBXPEAUapply_visitor_unrolled@012@Uhas_fallback_type_@?$variant@AEBUSecuredMessage@v2@security@vanetza@@AEBU1v3@34@@2@J@Z
	??$visitation_impl_invoke@V?$invoke_visitor@$$CBUPayloadCopyVisitor@security@vanetza@@$0A@@variant@detail@boost@@PEBXUhas_fallback_type_@?$variant@USecuredMessage@v2@security@vanetza@@U1v3@34@@4@@variant@detail@boost@@YA?AV?$variant@VChunkPacket@vanetza@@VCohesivePacket@2@@2@HAEAV?$invoke_visitor@$$CBUPayloadCopyVisitor@security@vanetza@@$0A@@012@PEBXPEAUapply_visitor_unrolled@012@Uhas_fallback_type_@?$variant@USecuredMessage@v2@security@vanetza@@U1v3@34@@2@J@Z
	??$visitation_impl_invoke@V?$invoke_visitor@U?$get_visitor@$$CBUCertificate@v2@security@vanetza@@@variant@detail@boost@@$0A@@variant@detail@boost@@PEBXUhas_fallback_type_@?$variant@$$TV?$array@E$07@std@@V?$recursive_wrapper@UCertificate@v2@security@vanetza@@@boost@@V?$list@UCertificate@v2@security@vanetza@@V?$allocator@UCertificate@v2@security@vanetza@@@std@@@2@UCertificateDigestWithOtherAlgorithm@v2@security@vanetza@@@4@@variant@detail@boost@@YAPEBUCertificate@v2@security@vanetza@@HAEAV?$invoke_visitor@U?$get_visitor@$$CBUCertificate@v2@security@vanetza@@@variant@detail@boost@@$0A@@012@PEBXPEAUapply_visitor_unrolled@012@Uhas_fallback_type_@?$variant@$$TV?$array@E$07@std@@V?$recursive_wrapper@UCertificate@v2@security@vanetza@@@boost@@V?$list@UCertificate@v2@security@vanetza@@V?$allocator@UCertificate@v2@security@vanetza@@@std@@@2@UCertificateDigestWithOtherAlgorithm@v2@security@vanetza@@@2@J@Z
	??$visitation_impl_invoke@V?$invoke_visitor@U?$get_visitor@$$CBUSignature@v2@security@vanetza@@@variant@detail@boost@@$0A@@variant@detail@boost@@PEBXUhas_fallback_type_@?$variant@USignature@v2@security@vanetza@@$$V@4@@variant@detail@boost@@YAPEBUSignature@v2@security@vanetza@@HAEAV?$invoke_visitor@U?$get_visitor@$$CBUSignature@v2@security@vanetza@@@variant@detail@boost@@$0A@@012@PEBXPEAUapply_visitor_unrolled@012@Uhas_fallback_type_@?$variant@USignature@v2@security@vanetza@@$$V@2@J@Z
	??$visitation_impl_invoke@V?$invoke_visitor@U?$get_visitor@$$CBUStartAndEndValidity@v2@security@vanetza@@@variant@detail@boost@@$0A@@variant@detail@boost@@PEBXUhas_fallback_type_@?$variant@IUStartAndEndValidity@v2@security@vanetza@@UStartAndDurationValidity@234@V?$variant@UNoneRegion@v2@security@vanetza@@UCircularRegion@234@V?$list@URectangularRegion@v2@security@vanetza@@V?$allocator@URectangularRegion@v2@security@vanetza@@@std@@@std@@V?$list@UTwoDLocation@v2@security@vanetza@@V?$allocator@UTwoDLocation@v2@security@vanetza@@@std@@@7@UIdentifiedRegion@234@@boost@@@4@@variant@detail@boost@@YAPEBUStartAndEndValidity@v2@security@vanetza@@HAEAV?$invoke_visitor@U?$get_visitor@$$CBUStartAndEndValidity@v2@security@vanetza@@@variant@detail@boost@@$0A@@012@PEBXPEAUapply_visitor_unrolled@012@Uhas_fallback_type_@?$variant@IUStartAndEndValidity@v2@security@vanetza@@UStartAndDurationValidity@234@V?$variant@UNoneRegion@v2@security@vanetza@@UCircularRegion@234@V?$list@URectangularRegion@v2@security@vanetza@@V?$allocator@URectangularRegion@v2@security@vanetza@@@std@@@std@@V?$list@UTwoDLocation@v2@security@vanetza@@V?$allocator@UTwoDLocation@v2@security@vanetza@@@std@@@7@UIdentifiedRegion@234@@boost@@@2@J@Z
	??$visitation_impl_invoke@V?$invoke_visitor@U?$get_visitor@$$CBUSubjectAssurance@v2@security@vanetza@@@variant@detail@boost@@$0A@@variant@detail@boost@@PEBXUhas_fallback_type_@?$variant@UVerificationKey@v2@security@vanetza@@UEncryptionKey@234@USubjectAssurance@234@V?$variant@UX_Coordinate_Only@security@vanetza@@UCompressed_Lsb_Y_0@23@UCompressed_Lsb_Y_1@23@UUncompressed@23@@boost@@V?$list@VIntX@v2@security@vanetza@@V?$allocator@VIntX@v2@security@vanetza@@@std@@@std@@V?$list@UItsAidSsp@v2@security@vanetza@@V?$allocator@UItsAidSsp@v2@security@vanetza@@@std@@@std@@@4@@variant@detail@boost@@YAPEBUSubjectAssurance@v2@security@vanetza@@HAEAV?$invoke_visitor@U?$get_visitor@$$CBUSubjectAssurance@v2@security@vanetza@@@variant@detail@boost@@$0A@@012@PEBXPEAUapply_visitor_unrolled@012@Uhas_fallback_type_@?$variant@UVerificationKey@v2@security@vanetza@@UEncryptionKey@234@USubjectAssurance@234@V?$variant@UX_Coordinate_Only@security@vanetza@@UCompressed_Lsb_Y_0@23@UCompressed_Lsb_Y_1@23@UUncompressed@23@@boost@@V?$list@VIntX@v2@security@vanetza@@V?$allocator@VIntX@v2@security@vanetza@@@std@@@std@@V?$list@UItsAidSsp@v2@security@vanetza@@V?$allocator@UItsAidSsp@v2@security@vanetza@@@std@@@std@@@2@J@Z
	??$visitation_impl_invoke@V?$invoke_visitor@U?$get_visitor@$$CBUThreeDLocation@v2@security@vanetza@@@variant@detail@boost@@$0A@@variant@detail@boost@@PEBXUhas_fallback_type_@?$variant@_KUTime64WithStandardDeviation@v2@security@vanetza@@IUThreeDLocation@234@V?$list@V?$array@E$02@std@@V?$allocator@V?$array@E$02@std@@@2@@std@@VIntX@234@V?$variant@$$TV?$array@E$07@std@@V?$recursive_wrapper@UCertificate@v2@security@vanetza@@@boost@@V?$list@UCertificate@v2@security@vanetza@@V?$allocator@UCertificate@v2@security@vanetza@@@std@@@2@UCertificateDigestWithOtherAlgorithm@v2@security@vanetza@@@boost@@V?$variant@V?$array@E$0M@@std@@$$V@boost@@V?$list@URecipientInfo@v2@security@vanetza@@V?$allocator@URecipientInfo@v2@security@vanetza@@@std@@@7@@4@@variant@detail@boost@@YAPEBUThreeDLocation@v2@security@vanetza@@HAEAV?$invoke_visitor@U?$get_visitor@$$CBUThreeDLocation@v2@security@vanetza@@@variant@detail@boost@@$0A@@012@PEBXPEAUapply_visitor_unrolled@012@Uhas_fallback_type_@?$variant@_KUTime64WithStandardDeviation@v2@security@vanetza@@IUThreeDLocation@234@V?$list@V?$array@E$02@std@@V?$allocator@V?$array@E$02@std@@@2@@std@@VIntX@234@V?$variant@$$TV?$array@E$07@std@@V?$recursive_wrapper@UCertificate@v2@security@vanetza@@@boost@@V?$list@UCertificate@v2@security@vanetza@@V?$allocator@UCertificate@v2@security@vanetza@@@std@@@2@UCertificateDigestWithOtherAlgorithm@v2@security@vanetza@@@boost@@V?$variant@V?$array@E$0M@@std@@$$V@boost@@V?$list@URecipientInfo@v2@security@vanetza@@V?$allocator@URecipientInfo@v2@security@vanetza@@@std@@@7@@2@J@Z
	??$visitation_impl_invoke@V?$invoke_visitor@U?$get_visitor@$$CBUVerificationKey@v2@security@vanetza@@@variant@detail@boost@@$0A@@variant@detail@boost@@PEBXUhas_fallback_type_@?$variant@UVerificationKey@v2@security@vanetza@@UEncryptionKey@234@USubjectAssurance@234@V?$variant@UX_Coordinate_Only@security@vanetza@@UCompressed_Lsb_Y_0@23@UCompressed_Lsb_Y_1@23@UUncompressed@23@@boost@@V?$list@VIntX@v2@security@vanetza@@V?$allocator@VIntX@v2@security@vanetza@@@std@@@std@@V?$list@UItsAidSsp@v2@security@vanetza@@V?$allocator@UItsAidSsp@v2@security@vanetza@@@std@@@std@@@4@@variant@detail@boost@@YAPEBUVerificationKey@v2@security@vanetza@@HAEAV?$invoke_visitor@U?$get_visitor@$$CBUVerificationKey@v2@security@vanetza@@@variant@detail@boost@@$0A@@012@PEBXPEAUapply_visitor_unrolled@012@Uhas_fallback_type_@?$variant@UVerificationKey@v2@security@vanetza@@UEncryptionKey@234@USubjectAssurance@234@V?$variant@UX_Coordinate_Only@security@vanetza@@UCompressed_Lsb_Y_0@23@UCompressed_Lsb_Y_1@23@UUncompressed@23@@boost@@V?$list@VIntX@v2@security@vanetza@@V?$allocator@VIntX@v2@security@vanetza@@@std@@@std@@V?$list@UItsAidSsp@v2@security@vanetza@@V?$allocator@UItsAidSsp@v2@security@vanetza@@@std@@@std@@@2@J@Z
	??$visitation_impl_invoke@V?$invoke_visitor@U?$get_visitor@$$CBUecdsa_nistp256_with_sha256@v2@security@vanetza@@@variant@detail@boost@@$0A@@variant@detail@boost@@PEBXUhas_fallback_type_@?$variant@Uecdsa_nistp256_with_sha256@v2@security@vanetza@@Uecies_nistp256@234@@4@@variant@detail@boost@@YAPEBUecdsa_nistp256_with_sha256@v2@security@vanetza@@HAEAV?$invoke_visitor@U?$get_visitor@$$CBUecdsa_nistp256_with_sha256@v2@security@vanetza@@@variant@detail@boost@@$0A@@012@PEBXPEAUapply_visitor_unrolled@012@Uhas_fallback_type_@?$variant@Uecdsa_nistp256_with_sha256@v2@security@vanetza@@Uecies_nistp256@234@@2@J@Z
	??$visitation_impl_invoke@V?$invoke_visitor@U?$get_visitor@$$CBV?$array@E$07@std@@@variant@detail@boost@@$0A@@variant@detail@boost@@PEBXUhas_fallback_type_@?$variant@$$TV?$array@E$07@std@@V?$recursive_wrapper@UCertificate@v2@security@vanetza@@@boost@@V?$list@UCertificate@v2@security@vanetza@@V?$allocator@UCertificate@v2@security@vanetza@@@std@@@2@UCertificateDigestWithOtherAlgorithm@v2@security@vanetza@@@4@@variant@detail@boost@@YAPEBV?$array@E$07@std@@HAEAV?$invoke_visitor@U?$get_visitor@$$CBV?$array@E$07@std@@@variant@detail@boost@@$0A@@012@PEBXPEAUapply_visitor_unrolled@012@Uhas_fallback_type_@?$variant@$$TV?$array@E$07@std@@V?$recursive_wrapper@UCertificate@v2@security@vanetza@@@boost@@V?$list@UCertificate@v2@security@vanetza@@V?$allocator@UCertificate@v2@security@vanetza@@@std@@@2@UCertificateDigestWithOtherAlgorithm@v2@security@vanetza@@@2@J@Z
	??$visitation_impl_invoke@V?$invoke_visitor@U?$get_visitor@$$CBV?$list@UCertificate@v2@security@vanetza@@V?$allocator@UCertificate@v2@security@vanetza@@@std@@@std@@@variant@detail@boost@@$0A@@variant@detail@boost@@PEBXUhas_fallback_type_@?$variant@$$TV?$array@E$07@std@@V?$recursive_wrapper@UCertificate@v2@security@vanetza@@@boost@@V?$list@UCertificate@v2@security@vanetza@@V?$allocator@UCertificate@v2@security@vanetza@@@std@@@2@UCertificateDigestWithOtherAlgorithm@v2@security@vanetza@@@4@@variant@detail@boost@@YAPEBV?$list@UCertificate@v2@security@vanetza@@V?$allocator@UCertificate@v2@security@vanetza@@@std@@@std@@HAEAV?$invoke_visitor@U?$get_visitor@$$CBV?$list@UCertificate@v2@security@vanetza@@V?$allocator@UCertificate@v2@security@vanetza@@@std@@@std@@@variant@detail@boost@@$0A@@012@PEBXPEAUapply_visitor_unrolled@012@Uhas_fallback_type_@?$variant@$$TV?$array@E$07@std@@V?$recursive_wrapper@UCertificate@v2@security@vanetza@@@boost@@V?$list@UCertificate@v2@security@vanetza@@V?$allocator@UCertificate@v2@security@vanetza@@@std@@@2@UCertificateDigestWithOtherAlgorithm@v2@security@vanetza@@@2@J@Z
	??$visitation_impl_invoke@V?$invoke_visitor@U?$get_visitor@$$CBV?$list@UItsAidSsp@v2@security@vanetza@@V?$allocator@UItsAidSsp@v2@security@vanetza@@@std@@@std@@@variant@detail@boost@@$0A@@variant@detail@boost@@PEBXUhas_fallback_type_@?$variant@UVerificationKey@v2@security@vanetza@@UEncryptionKey@234@USubjectAssurance@234@V?$variant@UX_Coordinate_Only@security@vanetza@@UCompressed_Lsb_Y_0@23@UCompressed_Lsb_Y_1@23@UUncompressed@23@@boost@@V?$list@VIntX@v2@security@vanetza@@V?$allocator@VIntX@v2@security@vanetza@@@std@@@std@@V?$list@UItsAidSsp@v2@security@vanetza@@V?$allocator@UItsAidSsp@v2@security@vanetza@@@std@@@std@@@4@@variant@detail@boost@@YAPEBV?$list@UItsAidSsp@v2@security@vanetza@@V?$allocator@UItsAidSsp@v2@security@vanetza@@@std@@@std@@HAEAV?$invoke_visitor@U?$get_visitor@$$CBV?$list@UItsAidSsp@v2@security@vanetza@@V?$allocator@UItsAidSsp@v2@security@vanetza@@@std@@@std@@@variant@detail@boost@@$0A@@012@PEBXPEAUapply_visitor_unrolled@012@Uhas_fallback_type_@?$variant@UVerificationKey@v2@security@vanetza@@UEncryptionKey@234@USubjectAssurance@234@V?$variant@UX_Coordinate_Only@security@vanetza@@UCompressed_Lsb_Y_0@23@UCompressed_Lsb_Y_1@23@UUncompressed@23@@boost@@V?$list@VIntX@v2@security@vanetza@@V?$allocator@VIntX@v2@security@vanetza@@@std@@@std@@V?$list@UItsAidSsp@v2@security@vanetza@@V?$allocator@UItsAidSsp@v2@security@vanetza@@@std@@@std@@@2@J@Z
	??$visitation_impl_invoke@V?$invoke_visitor@U?$get_visitor@$$CBV?$list@V?$array@E$02@std@@V?$allocator@V?$array@E$02@std@@@2@@std@@@variant@detail@boost@@$0A@@variant@detail@boost@@PEBXUhas_fallback_type_@?$variant@_KUTime64WithStandardDeviation@v2@security@vanetza@@IUThreeDLocation@234@V?$list@V?$array@E$02@std@@V?$allocator@V?$array@E$02@std@@@2@@std@@VIntX@234@V?$variant@$$TV?$array@E$07@std@@V?$recursive_wrapper@UCertificate@v2@security@vanetza@@@boost@@V?$list@UCertificate@v2@security@vanetza@@V?$allocator@UCertificate@v2@security@vanetza@@@std@@@2@UCertificateDigestWithOtherAlgorithm@v2@security@vanetza@@@boost@@V?$variant@V?$array@E$0M@@std@@$$V@boost@@V?$list@URecipientInfo@v2@security@vanetza@@V?$allocator@URecipientInfo@v2@security@vanetza@@@std@@@7@@4@@variant@detail@boost@@YAPEBV?$list@V?$array@E$02@std@@V?$allocator@V?$array@E$02@std@@@2@@std@@HAEAV?$invoke_visitor@U?$get_visitor@$$CBV?$list@V?$array@E$02@std@@V?$allocator@V?$array@E$02@std@@@2@@std@@@variant@detail@boost@@$0A@@012@PEBXPEAUapply_visitor_unrolled@012@Uhas_fallback_type_@?$variant@_KUTime64WithStandardDeviation@v2@security@vanetza@@IUThreeDLocation@234@V?$list@V?$array@E$02@std@@V?$allocator@V?$array@E$02@std@@@2@@std@@VIntX@234@V?$variant@$$TV?$array@E$07@std@@V?$recursive_wrapper@UCertificate@v2@security@vanetza@@@boost@@V?$list@UCertificate@v2@security@vanetza@@V?$allocator@UCertificate@v2@security@vanetza@@@std@@@2@UCertificateDigestWithOtherAlgorithm@v2@security@vanetza@@@boost@@V?$variant@V?$array@E$0M@@std@@$$V@boost@@V?$list@URecipientInfo@v2@security@vanetza@@V?$allocator@URecipientInfo@v2@security@vanetza@@@std@@@7@@2@J@Z
	??$visitation_impl_invoke@V?$invoke_visitor@U?$get_visitor@$$CBV?$list@VIntX@v2@security@vanetza@@V?$allocator@VIntX@v2@security@vanetza@@@std@@@std@@@variant@detail@boost@@$0A@@variant@detail@boost@@PEBXUhas_fallback_type_@?$variant@UVerificationKey@v2@security@vanetza@@UEncryptionKey@234@USubjectAssurance@234@V?$variant@UX_Coordinate_Only@security@vanetza@@UCompressed_Lsb_Y_0@23@UCompressed_Lsb_Y_1@23@UUncompressed@23@@boost@@V?$list@VIntX@v2@security@vanetza@@V?$allocator@VIntX@v2@security@vanetza@@@std@@@std@@V?$list@UItsAidSsp@v2@security@vanetza@@V?$allocator@UItsAidSsp@v2@security@vanetza@@@std@@@std@@@4@@variant@detail@boost@@YAPEBV?$list@VIntX@v2@security@vanetza@@V?$allocator@VIntX@v2@security@vanetza@@@std@@@std@@HAEAV?$invoke_visitor@U?$get_visitor@$$CBV?$list@VIntX@v2@security@vanetza@@V?$allocator@VIntX@v2@security@vanetza@@@std@@@std@@@variant@detail@boost@@$0A@@012@PEBXPEAUapply_visitor_unrolled@012@Uhas_fallback_type_@?$variant@UVerificationKey@v2@security@vanetza@@UEncryptionKey@234@USubjectAssurance@234@V?$variant@UX_Coordinate_Only@security@vanetza@@UCompressed_Lsb_Y_0@23@UCompressed_Lsb_Y_1@23@UUncompressed@23@@boost@@V?$list@VIntX@v2@security@vanetza@@V?$allocator@VIntX@v2@security@vanetza@@@std@@@std@@V?$list@UItsAidSsp@v2@security@vanetza@@V?$allocator@UItsAidSsp@v2@security@vanetza@@@std@@@std@@@2@J@Z
	??$visitation_impl_invoke@V?$invoke_visitor@U?$get_visitor@$$CBV?$variant@$$TV?$array@E$07@std@@V?$recursive_wrapper@UCertificate@v2@security@vanetza@@@boost@@V?$list@UCertificate@v2@security@vanetza@@V?$allocator@UCertificate@v2@security@vanetza@@@std@@@2@UCertificateDigestWithOtherAlgorithm@v2@security@vanetza@@@boost@@@variant@detail@boost@@$0A@@variant@detail@boost@@PEBXUhas_fallback_type_@?$variant@_KUTime64WithStandardDeviation@v2@security@vanetza@@IUThreeDLocation@234@V?$list@V?$array@E$02@std@@V?$allocator@V?$array@E$02@std@@@2@@std@@VIntX@234@V?$variant@$$TV?$array@E$07@std@@V?$recursive_wrapper@UCertificate@v2@security@vanetza@@@boost@@V?$list@UCertificate@v2@security@vanetza@@V?$allocator@UCertificate@v2@security@vanetza@@@std@@@2@UCertificateDigestWithOtherAlgorithm@v2@security@vanetza@@@boost@@V?$variant@V?$array@E$0M@@std@@$$V@boost@@V?$list@URecipientInfo@v2@security@vanetza@@V?$allocator@URecipientInfo@v2@security@vanetza@@@std@@@7@@4@@variant@detail@boost@@YAPEBV?$variant@$$TV?$array@E$07@std@@V?$recursive_wrapper@UCertificate@v2@security@vanetza@@@boost@@V?$list@UCertificate@v2@security@vanetza@@V?$allocator@UCertificate@v2@security@vanetza@@@std@@@2@UCertificateDigestWithOtherAlgorithm@v2@security@vanetza@@@2@HAEAV?$invoke_visitor@U?$get_visitor@$$CBV?$variant@$$TV?$array@E$07@std@@V?$recursive_wrapper@UCertificate@v2@security@vanetza@@@boost@@V?$list@UCertificate@v2@security@vanetza@@V?$allocator@UCertificate@v2@security@vanetza@@@std@@@2@UCertificateDigestWithOtherAlgorithm@v2@security@vanetza@@@boost@@@variant@detail@boost@@$0A@@012@PEBXPEAUapply_visitor_unrolled@012@Uhas_fallback_type_@?$variant@_KUTime64WithStandardDeviation@v2@security@vanetza@@IUThreeDLocation@234@V?$list@V?$array@E$02@std@@V?$allocator@V?$array@E$02@std@@@2@@std@@VIntX@234@V?$variant@$$TV?$array@E$07@std@@V?$recursive_wrapper@UCertificate@v2@security@vanetza@@@boost@@V?$list@UCertificate@v2@security@vanetza@@V?$allocator@UCertificate@v2@security@vanetza@@@std@@@2@UCertificateDigestWithOtherAlgorithm@v2@security@vanetza@@@boost@@V?$variant@V?$array@E$0M@@std@@$$V@boost@@V?$list@URecipientInfo@v2@security@vanetza@@V?$allocator@URecipientInfo@v2@security@vanetza@@@std@@@7@@2@J@Z
	??$visitation_impl_invoke@V?$invoke_visitor@U?$get_visitor@$$CBV?$variant@UNoneRegion@v2@security@vanetza@@UCircularRegion@234@V?$list@URectangularRegion@v2@security@vanetza@@V?$allocator@URectangularRegion@v2@security@vanetza@@@std@@@std@@V?$list@UTwoDLocation@v2@security@vanetza@@V?$allocator@UTwoDLocation@v2@security@vanetza@@@std@@@7@UIdentifiedRegion@234@@boost@@@variant@detail@boost@@$0A@@variant@detail@boost@@PEBXUhas_fallback_type_@?$variant@IUStartAndEndValidity@v2@security@vanetza@@UStartAndDurationValidity@234@V?$variant@UNoneRegion@v2@security@vanetza@@UCircularRegion@234@V?$list@URectangularRegion@v2@security@vanetza@@V?$allocator@URectangularRegion@v2@security@vanetza@@@std@@@std@@V?$list@UTwoDLocation@v2@security@vanetza@@V?$allocator@UTwoDLocation@v2@security@vanetza@@@std@@@7@UIdentifiedRegion@234@@boost@@@4@@variant@detail@boost@@YAPEBV?$variant@UNoneRegion@v2@security@vanetza@@UCircularRegion@234@V?$list@URectangularRegion@v2@security@vanetza@@V?$allocator@URectangularRegion@v2@security@vanetza@@@std@@@std@@V?$list@UTwoDLocation@v2@security@vanetza@@V?$allocator@UTwoDLocation@v2@security@vanetza@@@std@@@7@UIdentifiedRegion@234@@2@HAEAV?$invoke_visitor@U?$get_visitor@$$CBV?$variant@UNoneRegion@v2@security@vanetza@@UCircularRegion@234@V?$list@URectangularRegion@v2@security@vanetza@@V?$allocator@URectangularRegion@v2@security@vanetza@@@std@@@std@@V?$list@UTwoDLocation@v2@security@vanetza@@V?$allocator@UTwoDLocation@v2@security@vanetza@@@std@@@7@UIdentifiedRegion@234@@boost@@@variant@detail@boost@@$0A@@012@PEBXPEAUapply_visitor_unrolled@012@Uhas_fallback_type_@?$variant@IUStartAndEndValidity@v2@security@vanetza@@UStartAndDurationValidity@234@V?$variant@UNoneRegion@v2@security@vanetza@@UCircularRegion@234@V?$list@URectangularRegion@v2@security@vanetza@@V?$allocator@URectangularRegion@v2@security@vanetza@@@std@@@std@@V?$list@UTwoDLocation@v2@security@vanetza@@V?$allocator@UTwoDLocation@v2@security@vanetza@@@std@@@7@UIdentifiedRegion@234@@boost@@@2@J@Z
	??$visitation_impl_invoke@V?$invoke_visitor@U?$get_visitor@$$CBV?$variant@USecuredMessage@v2@security@vanetza@@U1v3@34@@boost@@@variant@detail@boost@@$0A@@variant@detail@boost@@PEBXUhas_fallback_type_@?$variant@V?$variant@USecuredMessage@v2@security@vanetza@@U1v3@34@@boost@@W4SignConfirmError@security@vanetza@@@4@@variant@detail@boost@@YAPEBV?$variant@USecuredMessage@v2@security@vanetza@@U1v3@34@@2@HAEAV?$invoke_visitor@U?$get_visitor@$$CBV?$variant@USecuredMessage@v2@security@vanetza@@U1v3@34@@boost@@@variant@detail@boost@@$0A@@012@PEBXPEAUapply_visitor_unrolled@012@Uhas_fallback_type_@?$variant@V?$variant@USecuredMessage@v2@security@vanetza@@U1v3@34@@boost@@W4SignConfirmError@security@vanetza@@@2@J@Z
	??$visitation_impl_invoke@V?$invoke_visitor@U?$get_visitor@$$CBVIntX@v2@security@vanetza@@@variant@detail@boost@@$0A@@variant@detail@boost@@PEBXUhas_fallback_type_@?$variant@_KUTime64WithStandardDeviation@v2@security@vanetza@@IUThreeDLocation@234@V?$list@V?$array@E$02@std@@V?$allocator@V?$array@E$02@std@@@2@@std@@VIntX@234@V?$variant@$$TV?$array@E$07@std@@V?$recursive_wrapper@UCertificate@v2@security@vanetza@@@boost@@V?$list@UCertificate@v2@security@vanetza@@V?$allocator@UCertificate@v2@security@vanetza@@@std@@@2@UCertificateDigestWithOtherAlgorithm@v2@security@vanetza@@@boost@@V?$variant@V?$array@E$0M@@std@@$$V@boost@@V?$list@URecipientInfo@v2@security@vanetza@@V?$allocator@URecipientInfo@v2@security@vanetza@@@std@@@7@@4@@variant@detail@boost@@YAPEBVIntX@v2@security@vanetza@@HAEAV?$invoke_visitor@U?$get_visitor@$$CBVIntX@v2@security@vanetza@@@variant@detail@boost@@$0A@@012@PEBXPEAUapply_visitor_unrolled@012@Uhas_fallback_type_@?$variant@_KUTime64WithStandardDeviation@v2@security@vanetza@@IUThreeDLocation@234@V?$list@V?$array@E$02@std@@V?$allocator@V?$array@E$02@std@@@2@@std@@VIntX@234@V?$variant@$$TV?$array@E$07@std@@V?$recursive_wrapper@UCertificate@v2@security@vanetza@@@boost@@V?$list@UCertificate@v2@security@vanetza@@V?$allocator@UCertificate@v2@security@vanetza@@@std@@@2@UCertificateDigestWithOtherAlgorithm@v2@security@vanetza@@@boost@@V?$variant@V?$array@E$0M@@std@@$$V@boost@@V?$list@URecipientInfo@v2@security@vanetza@@V?$allocator@URecipientInfo@v2@security@vanetza@@@std@@@7@@2@J@Z
	??$visitation_impl_invoke@V?$invoke_visitor@U?$get_visitor@$$CB_K@variant@detail@boost@@$0A@@variant@detail@boost@@PEBXUhas_fallback_type_@?$variant@_KUTime64WithStandardDeviation@v2@security@vanetza@@IUThreeDLocation@234@V?$list@V?$array@E$02@std@@V?$allocator@V?$array@E$02@std@@@2@@std@@VIntX@234@V?$variant@$$TV?$array@E$07@std@@V?$recursive_wrapper@UCertificate@v2@security@vanetza@@@boost@@V?$list@UCertificate@v2@security@vanetza@@V?$allocator@UCertificate@v2@security@vanetza@@@std@@@2@UCertificateDigestWithOtherAlgorithm@v2@security@vanetza@@@boost@@V?$variant@V?$array@E$0M@@std@@$$V@boost@@V?$list@URecipientInfo@v2@security@vanetza@@V?$allocator@URecipientInfo@v2@security@vanetza@@@std@@@7@@4@@variant@detail@boost@@YAPEB_KHAEAV?$invoke_visitor@U?$get_visitor@$$CB_K@variant@detail@boost@@$0A@@012@PEBXPEAUapply_visitor_unrolled@012@Uhas_fallback_type_@?$variant@_KUTime64WithStandardDeviation@v2@security@vanetza@@IUThreeDLocation@234@V?$list@V?$array@E$02@std@@V?$allocator@V?$array@E$02@std@@@2@@std@@VIntX@234@V?$variant@$$TV?$array@E$07@std@@V?$recursive_wrapper@UCertificate@v2@security@vanetza@@@boost@@V?$list@UCertificate@v2@security@vanetza@@V?$allocator@UCertificate@v2@security@vanetza@@@std@@@2@UCertificateDigestWithOtherAlgorithm@v2@security@vanetza@@@boost@@V?$variant@V?$array@E$0M@@std@@$$V@boost@@V?$list@URecipientInfo@v2@security@vanetza@@V?$allocator@URecipientInfo@v2@security@vanetza@@@std@@@7@@2@J@Z
	??$visitation_impl_invoke@V?$invoke_visitor@U?$get_visitor@UStartAndEndValidity@v2@security@vanetza@@@variant@detail@boost@@$0A@@variant@detail@boost@@PEAXUhas_fallback_type_@?$variant@IUStartAndEndValidity@v2@security@vanetza@@UStartAndDurationValidity@234@V?$variant@UNoneRegion@v2@security@vanetza@@UCircularRegion@234@V?$list@URectangularRegion@v2@security@vanetza@@V?$allocator@URectangularRegion@v2@security@vanetza@@@std@@@std@@V?$list@UTwoDLocation@v2@security@vanetza@@V?$allocator@UTwoDLocation@v2@security@vanetza@@@std@@@7@UIdentifiedRegion@234@@boost@@@4@@variant@detail@boost@@YAPEAUStartAndEndValidity@v2@security@vanetza@@HAEAV?$invoke_visitor@U?$get_visitor@UStartAndEndValidity@v2@security@vanetza@@@variant@detail@boost@@$0A@@012@PEAXPEAUapply_visitor_unrolled@012@Uhas_fallback_type_@?$variant@IUStartAndEndValidity@v2@security@vanetza@@UStartAndDurationValidity@234@V?$variant@UNoneRegion@v2@security@vanetza@@UCircularRegion@234@V?$list@URectangularRegion@v2@security@vanetza@@V?$allocator@URectangularRegion@v2@security@vanetza@@@std@@@std@@V?$list@UTwoDLocation@v2@security@vanetza@@V?$allocator@UTwoDLocation@v2@security@vanetza@@@std@@@7@UIdentifiedRegion@234@@boost@@@2@J@Z
	??$visitation_impl_invoke@V?$invoke_visitor@U?$get_visitor@V?$array@E$07@std@@@variant@detail@boost@@$0A@@variant@detail@boost@@PEAXUhas_fallback_type_@?$variant@$$TV?$array@E$07@std@@V?$recursive_wrapper@UCertificate@v2@security@vanetza@@@boost@@V?$list@UCertificate@v2@security@vanetza@@V?$allocator@UCertificate@v2@security@vanetza@@@std@@@2@UCertificateDigestWithOtherAlgorithm@v2@security@vanetza@@@4@@variant@detail@boost@@YAPEAV?$array@E$07@std@@HAEAV?$invoke_visitor@U?$get_visitor@V?$array@E$07@std@@@variant@detail@boost@@$0A@@012@PEAXPEAUapply_visitor_unrolled@012@Uhas_fallback_type_@?$variant@$$TV?$array@E$07@std@@V?$recursive_wrapper@UCertificate@v2@security@vanetza@@@boost@@V?$list@UCertificate@v2@security@vanetza@@V?$allocator@UCertificate@v2@security@vanetza@@@std@@@2@UCertificateDigestWithOtherAlgorithm@v2@security@vanetza@@@2@J@Z
	??$visitation_impl_invoke@V?$invoke_visitor@U?$get_visitor@V?$list@UItsAidSsp@v2@security@vanetza@@V?$allocator@UItsAidSsp@v2@security@vanetza@@@std@@@std@@@variant@detail@boost@@$0A@@variant@detail@boost@@PEAXUhas_fallback_type_@?$variant@UVerificationKey@v2@security@vanetza@@UEncryptionKey@234@USubjectAssurance@234@V?$variant@UX_Coordinate_Only@security@vanetza@@UCompressed_Lsb_Y_0@23@UCompressed_Lsb_Y_1@23@UUncompressed@23@@boost@@V?$list@VIntX@v2@security@vanetza@@V?$allocator@VIntX@v2@security@vanetza@@@std@@@std@@V?$list@UItsAidSsp@v2@security@vanetza@@V?$allocator@UItsAidSsp@v2@security@vanetza@@@std@@@std@@@4@@variant@detail@boost@@YAPEAV?$list@UItsAidSsp@v2@security@vanetza@@V?$allocator@UItsAidSsp@v2@security@vanetza@@@std@@@std@@HAEAV?$invoke_visitor@U?$get_visitor@V?$list@UItsAidSsp@v2@security@vanetza@@V?$allocator@UItsAidSsp@v2@security@vanetza@@@std@@@std@@@variant@detail@boost@@$0A@@012@PEAXPEAUapply_visitor_unrolled@012@Uhas_fallback_type_@?$variant@UVerificationKey@v2@security@vanetza@@UEncryptionKey@234@USubjectAssurance@234@V?$variant@UX_Coordinate_Only@security@vanetza@@UCompressed_Lsb_Y_0@23@UCompressed_Lsb_Y_1@23@UUncompressed@23@@boost@@V?$list@VIntX@v2@security@vanetza@@V?$allocator@VIntX@v2@security@vanetza@@@std@@@std@@V?$list@UItsAidSsp@v2@security@vanetza@@V?$allocator@UItsAidSsp@v2@security@vanetza@@@std@@@std@@@2@J@Z
	??$visitation_impl_invoke@V?$invoke_visitor@U?$get_visitor@V?$list@VIntX@v2@security@vanetza@@V?$allocator@VIntX@v2@security@vanetza@@@std@@@std@@@variant@detail@boost@@$0A@@variant@detail@boost@@PEAXUhas_fallback_type_@?$variant@UVerificationKey@v2@security@vanetza@@UEncryptionKey@234@USubjectAssurance@234@V?$variant@UX_Coordinate_Only@security@vanetza@@UCompressed_Lsb_Y_0@23@UCompressed_Lsb_Y_1@23@UUncompressed@23@@boost@@V?$list@VIntX@v2@security@vanetza@@V?$allocator@VIntX@v2@security@vanetza@@@std@@@std@@V?$list@UItsAidSsp@v2@security@vanetza@@V?$allocator@UItsAidSsp@v2@security@vanetza@@@std@@@std@@@4@@variant@detail@boost@@YAPEAV?$list@VIntX@v2@security@vanetza@@V?$allocator@VIntX@v2@security@vanetza@@@std@@@std@@HAEAV?$invoke_visitor@U?$get_visitor@V?$list@VIntX@v2@security@vanetza@@V?$allocator@VIntX@v2@security@vanetza@@@std@@@std@@@variant@detail@boost@@$0A@@012@PEAXPEAUapply_visitor_unrolled@012@Uhas_fallback_type_@?$variant@UVerificationKey@v2@security@vanetza@@UEncryptionKey@234@USubjectAssurance@234@V?$variant@UX_Coordinate_Only@security@vanetza@@UCompressed_Lsb_Y_0@23@UCompressed_Lsb_Y_1@23@UUncompressed@23@@boost@@V?$list@VIntX@v2@security@vanetza@@V?$allocator@VIntX@v2@security@vanetza@@@std@@@std@@V?$list@UItsAidSsp@v2@security@vanetza@@V?$allocator@UItsAidSsp@v2@security@vanetza@@@std@@@std@@@2@J@Z
	??$visitation_impl_invoke@V?$invoke_visitor@U?$get_visitor@V?$variant@USecuredMessage@v2@security@vanetza@@U1v3@34@@boost@@@variant@detail@boost@@$0A@@variant@detail@boost@@PEAXUhas_fallback_type_@?$variant@V?$variant@USecuredMessage@v2@security@vanetza@@U1v3@34@@boost@@W4SignConfirmError@security@vanetza@@@4@@variant@detail@boost@@YAPEAV?$variant@USecuredMessage@v2@security@vanetza@@U1v3@34@@2@HAEAV?$invoke_visitor@U?$get_visitor@V?$variant@USecuredMessage@v2@security@vanetza@@U1v3@34@@boost@@@variant@detail@boost@@$0A@@012@PEAXPEAUapply_visitor_unrolled@012@Uhas_fallback_type_@?$variant@V?$variant@USecuredMessage@v2@security@vanetza@@U1v3@34@@boost@@W4SignConfirmError@security@vanetza@@@2@J@Z
	??$visitation_impl_invoke@V?$invoke_visitor@USerializeVisitor@security@vanetza@@$0A@@variant@detail@boost@@PEBXUhas_fallback_type_@?$variant@AEBUSecuredMessage@v2@security@vanetza@@AEBU1v3@34@@4@@variant@detail@boost@@YAXHAEAV?$invoke_visitor@USerializeVisitor@security@vanetza@@$0A@@012@PEBXPEAUapply_visitor_unrolled@012@Uhas_fallback_type_@?$variant@AEBUSecuredMessage@v2@security@vanetza@@AEBU1v3@34@@2@J@Z
	??$visitation_impl_invoke@V?$invoke_visitor@USerializeVisitor@security@vanetza@@$0A@@variant@detail@boost@@PEBXUhas_fallback_type_@?$variant@USecuredMessage@v2@security@vanetza@@U1v3@34@@4@@variant@detail@boost@@YAXHAEAV?$invoke_visitor@USerializeVisitor@security@vanetza@@$0A@@012@PEBXPEAUapply_visitor_unrolled@012@Uhas_fallback_type_@?$variant@USecuredMessage@v2@security@vanetza@@U1v3@34@@2@J@Z
	??$visitation_impl_invoke@V?$invoke_visitor@V?$direct_assigner@I@variant@detail@boost@@$0A@@variant@detail@boost@@PEAXUhas_fallback_type_@?$variant@IUStartAndEndValidity@v2@security@vanetza@@UStartAndDurationValidity@234@V?$variant@UNoneRegion@v2@security@vanetza@@UCircularRegion@234@V?$list@URectangularRegion@v2@security@vanetza@@V?$allocator@URectangularRegion@v2@security@vanetza@@@std@@@std@@V?$list@UTwoDLocation@v2@security@vanetza@@V?$allocator@UTwoDLocation@v2@security@vanetza@@@std@@@7@UIdentifiedRegion@234@@boost@@@4@@variant@detail@boost@@YA_NHAEAV?$invoke_visitor@V?$direct_assigner@I@variant@detail@boost@@$0A@@012@PEAXPEAUapply_visitor_unrolled@012@Uhas_fallback_type_@?$variant@IUStartAndEndValidity@v2@security@vanetza@@UStartAndDurationValidity@234@V?$variant@UNoneRegion@v2@security@vanetza@@UCircularRegion@234@V?$list@URectangularRegion@v2@security@vanetza@@V?$allocator@URectangularRegion@v2@security@vanetza@@@std@@@std@@V?$list@UTwoDLocation@v2@security@vanetza@@V?$allocator@UTwoDLocation@v2@security@vanetza@@@std@@@7@UIdentifiedRegion@234@@boost@@@2@J@Z
	??$visitation_impl_invoke@V?$invoke_visitor@V?$direct_assigner@I@variant@detail@boost@@$0A@@variant@detail@boost@@PEAXUhas_fallback_type_@?$variant@_KUTime64WithStandardDeviation@v2@security@vanetza@@IUThreeDLocation@234@V?$list@V?$array@E$02@std@@V?$allocator@V?$array@E$02@std@@@2@@std@@VIntX@234@V?$variant@$$TV?$array@E$07@std@@V?$recursive_wrapper@UCertificate@v2@security@vanetza@@@boost@@V?$list@UCertificate@v2@security@vanetza@@V?$allocator@UCertificate@v2@security@vanetza@@@std@@@2@UCertificateDigestWithOtherAlgorithm@v2@security@vanetza@@@boost@@V?$variant@V?$array@E$0M@@std@@$$V@boost@@V?$list@URecipientInfo@v2@security@vanetza@@V?$allocator@URecipientInfo@v2@security@vanetza@@@std@@@7@@4@@variant@detail@boost@@YA_NHAEAV?$invoke_visitor@V?$direct_assigner@I@variant@detail@boost@@$0A@@012@PEAXPEAUapply_visitor_unrolled@012@Uhas_fallback_type_@?$variant@_KUTime64WithStandardDeviation@v2@security@vanetza@@IUThreeDLocation@234@V?$list@V?$array@E$02@std@@V?$allocator@V?$array@E$02@std@@@2@@std@@VIntX@234@V?$variant@$$TV?$array@E$07@std@@V?$recursive_wrapper@UCertificate@v2@security@vanetza@@@boost@@V?$list@UCertificate@v2@security@vanetza@@V?$allocator@UCertificate@v2@security@vanetza@@@std@@@2@UCertificateDigestWithOtherAlgorithm@v2@security@vanetza@@@boost@@V?$variant@V?$array@E$0M@@std@@$$V@boost@@V?$list@URecipientInfo@v2@security@vanetza@@V?$allocator@URecipientInfo@v2@security@vanetza@@@std@@@7@@2@J@Z
	??$visitation_impl_invoke@V?$invoke_visitor@V?$direct_assigner@UCertificate@v2@security@vanetza@@@variant@detail@boost@@$0A@@variant@detail@boost@@PEAXUhas_fallback_type_@?$variant@$$TV?$array@E$07@std@@V?$recursive_wrapper@UCertificate@v2@security@vanetza@@@boost@@V?$list@UCertificate@v2@security@vanetza@@V?$allocator@UCertificate@v2@security@vanetza@@@std@@@2@UCertificateDigestWithOtherAlgorithm@v2@security@vanetza@@@4@@variant@detail@boost@@YA_NHAEAV?$invoke_visitor@V?$direct_assigner@UCertificate@v2@security@vanetza@@@variant@detail@boost@@$0A@@012@PEAXPEAUapply_visitor_unrolled@012@Uhas_fallback_type_@?$variant@$$TV?$array@E$07@std@@V?$recursive_wrapper@UCertificate@v2@security@vanetza@@@boost@@V?$list@UCertificate@v2@security@vanetza@@V?$allocator@UCertificate@v2@security@vanetza@@@std@@@2@UCertificateDigestWithOtherAlgorithm@v2@security@vanetza@@@2@J@Z
	??$visitation_impl_invoke@V?$invoke_visitor@V?$direct_assigner@UCertificateDigestWithOtherAlgorithm@v2@security@vanetza@@@variant@detail@boost@@$0A@@variant@detail@boost@@PEAXUhas_fallback_type_@?$variant@$$TV?$array@E$07@std@@V?$recursive_wrapper@UCertificate@v2@security@vanetza@@@boost@@V?$list@UCertificate@v2@security@vanetza@@V?$allocator@UCertificate@v2@security@vanetza@@@std@@@2@UCertificateDigestWithOtherAlgorithm@v2@security@vanetza@@@4@@variant@detail@boost@@YA_NHAEAV?$invoke_visitor@V?$direct_assigner@UCertificateDigestWithOtherAlgorithm@v2@security@vanetza@@@variant@detail@boost@@$0A@@012@PEAXPEAUapply_visitor_unrolled@012@Uhas_fallback_type_@?$variant@$$TV?$array@E$07@std@@V?$recursive_wrapper@UCertificate@v2@security@vanetza@@@boost@@V?$list@UCertificate@v2@security@vanetza@@V?$allocator@UCertificate@v2@security@vanetza@@@std@@@2@UCertificateDigestWithOtherAlgorithm@v2@security@vanetza@@@2@J@Z
	??$visitation_impl_invoke@V?$invoke_visitor@V?$direct_assigner@UCircularRegion@v2@security@vanetza@@@variant@detail@boost@@$0A@@variant@detail@boost@@PEAXUhas_fallback_type_@?$variant@UNoneRegion@v2@security@vanetza@@UCircularRegion@234@V?$list@URectangularRegion@v2@security@vanetza@@V?$allocator@URectangularRegion@v2@security@vanetza@@@std@@@std@@V?$list@UTwoDLocation@v2@security@vanetza@@V?$allocator@UTwoDLocation@v2@security@vanetza@@@std@@@7@UIdentifiedRegion@234@@4@@variant@detail@boost@@YA_NHAEAV?$invoke_visitor@V?$direct_assigner@UCircularRegion@v2@security@vanetza@@@variant@detail@boost@@$0A@@012@PEAXPEAUapply_visitor_unrolled@012@Uhas_fallback_type_@?$variant@UNoneRegion@v2@security@vanetza@@UCircularRegion@234@V?$list@URectangularRegion@v2@security@vanetza@@V?$allocator@URectangularRegion@v2@security@vanetza@@@std@@@std@@V?$list@UTwoDLocation@v2@security@vanetza@@V?$allocator@UTwoDLocation@v2@security@vanetza@@@std@@@7@UIdentifiedRegion@234@@2@J@Z
	??$visitation_impl_invoke@V?$invoke_visitor@V?$direct_assigner@UCompressed_Lsb_Y_0@security@vanetza@@@variant@detail@boost@@$0A@@variant@detail@boost@@PEAXUhas_fallback_type_@?$variant@UX_Coordinate_Only@security@vanetza@@UCompressed_Lsb_Y_0@23@UCompressed_Lsb_Y_1@23@UUncompressed@23@@4@@variant@detail@boost@@YA_NHAEAV?$invoke_visitor@V?$direct_assigner@UCompressed_Lsb_Y_0@security@vanetza@@@variant@detail@boost@@$0A@@012@PEAXPEAUapply_visitor_unrolled@012@Uhas_fallback_type_@?$variant@UX_Coordinate_Only@security@vanetza@@UCompressed_Lsb_Y_0@23@UCompressed_Lsb_Y_1@23@UUncompressed@23@@2@J@Z
	??$visitation_impl_invoke@V?$invoke_visitor@V?$direct_assigner@UCompressed_Lsb_Y_1@security@vanetza@@@variant@detail@boost@@$0A@@variant@detail@boost@@PEAXUhas_fallback_type_@?$variant@UX_Coordinate_Only@security@vanetza@@UCompressed_Lsb_Y_0@23@UCompressed_Lsb_Y_1@23@UUncompressed@23@@4@@variant@detail@boost@@YA_NHAEAV?$invoke_visitor@V?$direct_assigner@UCompressed_Lsb_Y_1@security@vanetza@@@variant@detail@boost@@$0A@@012@PEAXPEAUapply_visitor_unrolled@012@Uhas_fallback_type_@?$variant@UX_Coordinate_Only@security@vanetza@@UCompressed_Lsb_Y_0@23@UCompressed_Lsb_Y_1@23@UUncompressed@23@@2@J@Z
	??$visitation_impl_invoke@V?$invoke_visitor@V?$direct_assigner@UEcdsaSignature@security@vanetza@@@variant@detail@boost@@$0A@@variant@detail@boost@@PEAXUhas_fallback_type_@?$variant@UEcdsaSignature@security@vanetza@@VEcdsaSignatureFuture@23@@4@@variant@detail@boost@@YA_NHAEAV?$invoke_visitor@V?$direct_assigner@UEcdsaSignature@security@vanetza@@@variant@detail@boost@@$0A@@012@PEAXPEAUapply_visitor_unrolled@012@Uhas_fallback_type_@?$variant@UEcdsaSignature@security@vanetza@@VEcdsaSignatureFuture@23@@2@J@Z
	??$visitation_impl_invoke@V?$invoke_visitor@V?$direct_assigner@UEncryptionKey@v2@security@vanetza@@@variant@detail@boost@@$0A@@variant@detail@boost@@PEAXUhas_fallback_type_@?$variant@UVerificationKey@v2@security@vanetza@@UEncryptionKey@234@USubjectAssurance@234@V?$variant@UX_Coordinate_Only@security@vanetza@@UCompressed_Lsb_Y_0@23@UCompressed_Lsb_Y_1@23@UUncompressed@23@@boost@@V?$list@VIntX@v2@security@vanetza@@V?$allocator@VIntX@v2@security@vanetza@@@std@@@std@@V?$list@UItsAidSsp@v2@security@vanetza@@V?$allocator@UItsAidSsp@v2@security@vanetza@@@std@@@std@@@4@@variant@detail@boost@@YA_NHAEAV?$invoke_visitor@V?$direct_assigner@UEncryptionKey@v2@security@vanetza@@@variant@detail@boost@@$0A@@012@PEAXPEAUapply_visitor_unrolled@012@Uhas_fallback_type_@?$variant@UVerificationKey@v2@security@vanetza@@UEncryptionKey@234@USubjectAssurance@234@V?$variant@UX_Coordinate_Only@security@vanetza@@UCompressed_Lsb_Y_0@23@UCompressed_Lsb_Y_1@23@UUncompressed@23@@boost@@V?$list@VIntX@v2@security@vanetza@@V?$allocator@VIntX@v2@security@vanetza@@@std@@@std@@V?$list@UItsAidSsp@v2@security@vanetza@@V?$allocator@UItsAidSsp@v2@security@vanetza@@@std@@@std@@@2@J@Z
	??$visitation_impl_invoke@V?$invoke_visitor@V?$direct_assigner@UIdentifiedRegion@v2@security@vanetza@@@variant@detail@boost@@$0A@@variant@detail@boost@@PEAXUhas_fallback_type_@?$variant@UNoneRegion@v2@security@vanetza@@UCircularRegion@234@V?$list@URectangularRegion@v2@security@vanetza@@V?$allocator@URectangularRegion@v2@security@vanetza@@@std@@@std@@V?$list@UTwoDLocation@v2@security@vanetza@@V?$allocator@UTwoDLocation@v2@security@vanetza@@@std@@@7@UIdentifiedRegion@234@@4@@variant@detail@boost@@YA_NHAEAV?$invoke_visitor@V?$direct_assigner@UIdentifiedRegion@v2@security@vanetza@@@variant@detail@boost@@$0A@@012@PEAXPEAUapply_visitor_unrolled@012@Uhas_fallback_type_@?$variant@UNoneRegion@v2@security@vanetza@@UCircularRegion@234@V?$list@URectangularRegion@v2@security@vanetza@@V?$allocator@URectangularRegion@v2@security@vanetza@@@std@@@std@@V?$list@UTwoDLocation@v2@security@vanetza@@V?$allocator@UTwoDLocation@v2@security@vanetza@@@std@@@7@UIdentifiedRegion@234@@2@J@Z
	??$visitation_impl_invoke@V?$invoke_visitor@V?$direct_assigner@UNoneRegion@v2@security@vanetza@@@variant@detail@boost@@$0A@@variant@detail@boost@@PEAXUhas_fallback_type_@?$variant@UNoneRegion@v2@security@vanetza@@UCircularRegion@234@V?$list@URectangularRegion@v2@security@vanetza@@V?$allocator@URectangularRegion@v2@security@vanetza@@@std@@@std@@V?$list@UTwoDLocation@v2@security@vanetza@@V?$allocator@UTwoDLocation@v2@security@vanetza@@@std@@@7@UIdentifiedRegion@234@@4@@variant@detail@boost@@YA_NHAEAV?$invoke_visitor@V?$direct_assigner@UNoneRegion@v2@security@vanetza@@@variant@detail@boost@@$0A@@012@PEAXPEAUapply_visitor_unrolled@012@Uhas_fallback_type_@?$variant@UNoneRegion@v2@security@vanetza@@UCircularRegion@234@V?$list@URectangularRegion@v2@security@vanetza@@V?$allocator@URectangularRegion@v2@security@vanetza@@@std@@@std@@V?$list@UTwoDLocation@v2@security@vanetza@@V?$allocator@UTwoDLocation@v2@security@vanetza@@@std@@@7@UIdentifiedRegion@234@@2@J@Z
	??$visitation_impl_invoke@V?$invoke_visitor@V?$direct_assigner@USignature@v2@security@vanetza@@@variant@detail@boost@@$0A@@variant@detail@boost@@PEAXUhas_fallback_type_@?$variant@USignature@v2@security@vanetza@@$$V@4@@variant@detail@boost@@YA_NHAEAV?$invoke_visitor@V?$direct_assigner@USignature@v2@security@vanetza@@@variant@detail@boost@@$0A@@012@PEAXPEAUapply_visitor_unrolled@012@Uhas_fallback_type_@?$variant@USignature@v2@security@vanetza@@$$V@2@J@Z
	??$visitation_impl_invoke@V?$invoke_visitor@V?$direct_assigner@UStartAndDurationValidity@v2@security@vanetza@@@variant@detail@boost@@$0A@@variant@detail@boost@@PEAXUhas_fallback_type_@?$variant@IUStartAndEndValidity@v2@security@vanetza@@UStartAndDurationValidity@234@V?$variant@UNoneRegion@v2@security@vanetza@@UCircularRegion@234@V?$list@URectangularRegion@v2@security@vanetza@@V?$allocator@URectangularRegion@v2@security@vanetza@@@std@@@std@@V?$list@UTwoDLocation@v2@security@vanetza@@V?$allocator@UTwoDLocation@v2@security@vanetza@@@std@@@7@UIdentifiedRegion@234@@boost@@@4@@variant@detail@boost@@YA_NHAEAV?$invoke_visitor@V?$direct_assigner@UStartAndDurationValidity@v2@security@vanetza@@@variant@detail@boost@@$0A@@012@PEAXPEAUapply_visitor_unrolled@012@Uhas_fallback_type_@?$variant@IUStartAndEndValidity@v2@security@vanetza@@UStartAndDurationValidity@234@V?$variant@UNoneRegion@v2@security@vanetza@@UCircularRegion@234@V?$list@URectangularRegion@v2@security@vanetza@@V?$allocator@URectangularRegion@v2@security@vanetza@@@std@@@std@@V?$list@UTwoDLocation@v2@security@vanetza@@V?$allocator@UTwoDLocation@v2@security@vanetza@@@std@@@7@UIdentifiedRegion@234@@boost@@@2@J@Z
	??$visitation_impl_invoke@V?$invoke_visitor@V?$direct_assigner@UStartAndEndValidity@v2@security@vanetza@@@variant@detail@boost@@$0A@@variant@detail@boost@@PEAXUhas_fallback_type_@?$variant@IUStartAndEndValidity@v2@security@vanetza@@UStartAndDurationValidity@234@V?$variant@UNoneRegion@v2@security@vanetza@@UCircularRegion@234@V?$list@URectangularRegion@v2@security@vanetza@@V?$allocator@URectangularRegion@v2@security@vanetza@@@std@@@std@@V?$list@UTwoDLocation@v2@security@vanetza@@V?$allocator@UTwoDLocation@v2@security@vanetza@@@std@@@7@UIdentifiedRegion@234@@boost@@@4@@variant@detail@boost@@YA_NHAEAV?$invoke_visitor@V?$direct_assigner@UStartAndEndValidity@v2@security@vanetza@@@variant@detail@boost@@$0A@@012@PEAXPEAUapply_visitor_unrolled@012@Uhas_fallback_type_@?$variant@IUStartAndEndValidity@v2@security@vanetza@@UStartAndDurationValidity@234@V?$variant@UNoneRegion@v2@security@vanetza@@UCircularRegion@234@V?$list@URectangularRegion@v2@security@vanetza@@V?$allocator@URectangularRegion@v2@security@vanetza@@@std@@@std@@V?$list@UTwoDLocation@v2@security@vanetza@@V?$allocator@UTwoDLocation@v2@security@vanetza@@@std@@@7@UIdentifiedRegion@234@@boost@@@2@J@Z
	??$visitation_impl_invoke@V?$invoke_visitor@V?$direct_assigner@USubjectAssurance@v2@security@vanetza@@@variant@detail@boost@@$0A@@variant@detail@boost@@PEAXUhas_fallback_type_@?$variant@UVerificationKey@v2@security@vanetza@@UEncryptionKey@234@USubjectAssurance@234@V?$variant@UX_Coordinate_Only@security@vanetza@@UCompressed_Lsb_Y_0@23@UCompressed_Lsb_Y_1@23@UUncompressed@23@@boost@@V?$list@VIntX@v2@security@vanetza@@V?$allocator@VIntX@v2@security@vanetza@@@std@@@std@@V?$list@UItsAidSsp@v2@security@vanetza@@V?$allocator@UItsAidSsp@v2@security@vanetza@@@std@@@std@@@4@@variant@detail@boost@@YA_NHAEAV?$invoke_visitor@V?$direct_assigner@USubjectAssurance@v2@security@vanetza@@@variant@detail@boost@@$0A@@012@PEAXPEAUapply_visitor_unrolled@012@Uhas_fallback_type_@?$variant@UVerificationKey@v2@security@vanetza@@UEncryptionKey@234@USubjectAssurance@234@V?$variant@UX_Coordinate_Only@security@vanetza@@UCompressed_Lsb_Y_0@23@UCompressed_Lsb_Y_1@23@UUncompressed@23@@boost@@V?$list@VIntX@v2@security@vanetza@@V?$allocator@VIntX@v2@security@vanetza@@@std@@@std@@V?$list@UItsAidSsp@v2@security@vanetza@@V?$allocator@UItsAidSsp@v2@security@vanetza@@@std@@@std@@@2@J@Z
	??$visitation_impl_invoke@V?$invoke_visitor@V?$direct_assigner@UThreeDLocation@v2@security@vanetza@@@variant@detail@boost@@$0A@@variant@detail@boost@@PEAXUhas_fallback_type_@?$variant@_KUTime64WithStandardDeviation@v2@security@vanetza@@IUThreeDLocation@234@V?$list@V?$array@E$02@std@@V?$allocator@V?$array@E$02@std@@@2@@std@@VIntX@234@V?$variant@$$TV?$array@E$07@std@@V?$recursive_wrapper@UCertificate@v2@security@vanetza@@@boost@@V?$list@UCertificate@v2@security@vanetza@@V?$allocator@UCertificate@v2@security@vanetza@@@std@@@2@UCertificateDigestWithOtherAlgorithm@v2@security@vanetza@@@boost@@V?$variant@V?$array@E$0M@@std@@$$V@boost@@V?$list@URecipientInfo@v2@security@vanetza@@V?$allocator@URecipientInfo@v2@security@vanetza@@@std@@@7@@4@@variant@detail@boost@@YA_NHAEAV?$invoke_visitor@V?$direct_assigner@UThreeDLocation@v2@security@vanetza@@@variant@detail@boost@@$0A@@012@PEAXPEAUapply_visitor_unrolled@012@Uhas_fallback_type_@?$variant@_KUTime64WithStandardDeviation@v2@security@vanetza@@IUThreeDLocation@234@V?$list@V?$array@E$02@std@@V?$allocator@V?$array@E$02@std@@@2@@std@@VIntX@234@V?$variant@$$TV?$array@E$07@std@@V?$recursive_wrapper@UCertificate@v2@security@vanetza@@@boost@@V?$list@UCertificate@v2@security@vanetza@@V?$allocator@UCertificate@v2@security@vanetza@@@std@@@2@UCertificateDigestWithOtherAlgorithm@v2@security@vanetza@@@boost@@V?$variant@V?$array@E$0M@@std@@$$V@boost@@V?$list@URecipientInfo@v2@security@vanetza@@V?$allocator@URecipientInfo@v2@security@vanetza@@@std@@@7@@2@J@Z
	??$visitation_impl_invoke@V?$invoke_visitor@V?$direct_assigner@UTime64WithStandardDeviation@v2@security@vanetza@@@variant@detail@boost@@$0A@@variant@detail@boost@@PEAXUhas_fallback_type_@?$variant@_KUTime64WithStandardDeviation@v2@security@vanetza@@IUThreeDLocation@234@V?$list@V?$array@E$02@std@@V?$allocator@V?$array@E$02@std@@@2@@std@@VIntX@234@V?$variant@$$TV?$array@E$07@std@@V?$recursive_wrapper@UCertificate@v2@security@vanetza@@@boost@@V?$list@UCertificate@v2@security@vanetza@@V?$allocator@UCertificate@v2@security@vanetza@@@std@@@2@UCertificateDigestWithOtherAlgorithm@v2@security@vanetza@@@boost@@V?$variant@V?$array@E$0M@@std@@$$V@boost@@V?$list@URecipientInfo@v2@security@vanetza@@V?$allocator@URecipientInfo@v2@security@vanetza@@@std@@@7@@4@@variant@detail@boost@@YA_NHAEAV?$invoke_visitor@V?$direct_assigner@UTime64WithStandardDeviation@v2@security@vanetza@@@variant@detail@boost@@$0A@@012@PEAXPEAUapply_visitor_unrolled@012@Uhas_fallback_type_@?$variant@_KUTime64WithStandardDeviation@v2@security@vanetza@@IUThreeDLocation@234@V?$list@V?$array@E$02@std@@V?$allocator@V?$array@E$02@std@@@2@@std@@VIntX@234@V?$variant@$$TV?$array@E$07@std@@V?$recursive_wrapper@UCertificate@v2@security@vanetza@@@boost@@V?$list@UCertificate@v2@security@vanetza@@V?$allocator@UCertificate@v2@security@vanetza@@@std@@@2@UCertificateDigestWithOtherAlgorithm@v2@security@vanetza@@@boost@@V?$variant@V?$array@E$0M@@std@@$$V@boost@@V?$list@URecipientInfo@v2@security@vanetza@@V?$allocator@URecipientInfo@v2@security@vanetza@@@std@@@7@@2@J@Z
	??$visitation_impl_invoke@V?$invoke_visitor@V?$direct_assigner@UUncompressed@security@vanetza@@@variant@detail@boost@@$0A@@variant@detail@boost@@PEAXUhas_fallback_type_@?$variant@UX_Coordinate_Only@security@vanetza@@UCompressed_Lsb_Y_0@23@UCompressed_Lsb_Y_1@23@UUncompressed@23@@4@@variant@detail@boost@@YA_NHAEAV?$invoke_visitor@V?$direct_assigner@UUncompressed@security@vanetza@@@variant@detail@boost@@$0A@@012@PEAXPEAUapply_visitor_unrolled@012@Uhas_fallback_type_@?$variant@UX_Coordinate_Only@security@vanetza@@UCompressed_Lsb_Y_0@23@UCompressed_Lsb_Y_1@23@UUncompressed@23@@2@J@Z
	??$visitation_impl_invoke@V?$invoke_visitor@V?$direct_assigner@UVerificationKey@v2@security@vanetza@@@variant@detail@boost@@$0A@@variant@detail@boost@@PEAXUhas_fallback_type_@?$variant@UVerificationKey@v2@security@vanetza@@UEncryptionKey@234@USubjectAssurance@234@V?$variant@UX_Coordinate_Only@security@vanetza@@UCompressed_Lsb_Y_0@23@UCompressed_Lsb_Y_1@23@UUncompressed@23@@boost@@V?$list@VIntX@v2@security@vanetza@@V?$allocator@VIntX@v2@security@vanetza@@@std@@@std@@V?$list@UItsAidSsp@v2@security@vanetza@@V?$allocator@UItsAidSsp@v2@security@vanetza@@@std@@@std@@@4@@variant@detail@boost@@YA_NHAEAV?$invoke_visitor@V?$direct_assigner@UVerificationKey@v2@security@vanetza@@@variant@detail@boost@@$0A@@012@PEAXPEAUapply_visitor_unrolled@012@Uhas_fallback_type_@?$variant@UVerificationKey@v2@security@vanetza@@UEncryptionKey@234@USubjectAssurance@234@V?$variant@UX_Coordinate_Only@security@vanetza@@UCompressed_Lsb_Y_0@23@UCompressed_Lsb_Y_1@23@UUncompressed@23@@boost@@V?$list@VIntX@v2@security@vanetza@@V?$allocator@VIntX@v2@security@vanetza@@@std@@@std@@V?$list@UItsAidSsp@v2@security@vanetza@@V?$allocator@UItsAidSsp@v2@security@vanetza@@@std@@@std@@@2@J@Z
	??$visitation_impl_invoke@V?$invoke_visitor@V?$direct_assigner@UX_Coordinate_Only@security@vanetza@@@variant@detail@boost@@$0A@@variant@detail@boost@@PEAXUhas_fallback_type_@?$variant@UX_Coordinate_Only@security@vanetza@@UCompressed_Lsb_Y_0@23@UCompressed_Lsb_Y_1@23@UUncompressed@23@@4@@variant@detail@boost@@YA_NHAEAV?$invoke_visitor@V?$direct_assigner@UX_Coordinate_Only@security@vanetza@@@variant@detail@boost@@$0A@@012@PEAXPEAUapply_visitor_unrolled@012@Uhas_fallback_type_@?$variant@UX_Coordinate_Only@security@vanetza@@UCompressed_Lsb_Y_0@23@UCompressed_Lsb_Y_1@23@UUncompressed@23@@2@J@Z
	??$visitation_impl_invoke@V?$invoke_visitor@V?$direct_assigner@Uecdsa_nistp256_with_sha256@v2@security@vanetza@@@variant@detail@boost@@$0A@@variant@detail@boost@@PEAXUhas_fallback_type_@?$variant@Uecdsa_nistp256_with_sha256@v2@security@vanetza@@Uecies_nistp256@234@@4@@variant@detail@boost@@YA_NHAEAV?$invoke_visitor@V?$direct_assigner@Uecdsa_nistp256_with_sha256@v2@security@vanetza@@@variant@detail@boost@@$0A@@012@PEAXPEAUapply_visitor_unrolled@012@Uhas_fallback_type_@?$variant@Uecdsa_nistp256_with_sha256@v2@security@vanetza@@Uecies_nistp256@234@@2@J@Z
	??$visitation_impl_invoke@V?$invoke_visitor@V?$direct_assigner@Uecies_nistp256@v2@security@vanetza@@@variant@detail@boost@@$0A@@variant@detail@boost@@PEAXUhas_fallback_type_@?$variant@Uecdsa_nistp256_with_sha256@v2@security@vanetza@@Uecies_nistp256@234@@4@@variant@detail@boost@@YA_NHAEAV?$invoke_visitor@V?$direct_assigner@Uecies_nistp256@v2@security@vanetza@@@variant@detail@boost@@$0A@@012@PEAXPEAUapply_visitor_unrolled@012@Uhas_fallback_type_@?$variant@Uecdsa_nistp256_with_sha256@v2@security@vanetza@@Uecies_nistp256@234@@2@J@Z
	??$visitation_impl_invoke@V?$invoke_visitor@V?$direct_assigner@V?$array@E$07@std@@@variant@detail@boost@@$0A@@variant@detail@boost@@PEAXUhas_fallback_type_@?$variant@$$TV?$array@E$07@std@@V?$recursive_wrapper@UCertificate@v2@security@vanetza@@@boost@@V?$list@UCertificate@v2@security@vanetza@@V?$allocator@UCertificate@v2@security@vanetza@@@std@@@2@UCertificateDigestWithOtherAlgorithm@v2@security@vanetza@@@4@@variant@detail@boost@@YA_NHAEAV?$invoke_visitor@V?$direct_assigner@V?$array@E$07@std@@@variant@detail@boost@@$0A@@012@PEAXPEAUapply_visitor_unrolled@012@Uhas_fallback_type_@?$variant@$$TV?$array@E$07@std@@V?$recursive_wrapper@UCertificate@v2@security@vanetza@@@boost@@V?$list@UCertificate@v2@security@vanetza@@V?$allocator@UCertificate@v2@security@vanetza@@@std@@@2@UCertificateDigestWithOtherAlgorithm@v2@security@vanetza@@@2@J@Z
	??$visitation_impl_invoke@V?$invoke_visitor@V?$direct_assigner@V?$array@E$0M@@std@@@variant@detail@boost@@$0A@@variant@detail@boost@@PEAXUhas_fallback_type_@?$variant@V?$array@E$0M@@std@@$$V@4@@variant@detail@boost@@YA_NHAEAV?$invoke_visitor@V?$direct_assigner@V?$array@E$0M@@std@@@variant@detail@boost@@$0A@@012@PEAXPEAUapply_visitor_unrolled@012@Uhas_fallback_type_@?$variant@V?$array@E$0M@@std@@$$V@2@J@Z
	??$visitation_impl_invoke@V?$invoke_visitor@V?$direct_assigner@V?$list@UCertificate@v2@security@vanetza@@V?$allocator@UCertificate@v2@security@vanetza@@@std@@@std@@@variant@detail@boost@@$0A@@variant@detail@boost@@PEAXUhas_fallback_type_@?$variant@$$TV?$array@E$07@std@@V?$recursive_wrapper@UCertificate@v2@security@vanetza@@@boost@@V?$list@UCertificate@v2@security@vanetza@@V?$allocator@UCertificate@v2@security@vanetza@@@std@@@2@UCertificateDigestWithOtherAlgorithm@v2@security@vanetza@@@4@@variant@detail@boost@@YA_NHAEAV?$invoke_visitor@V?$direct_assigner@V?$list@UCertificate@v2@security@vanetza@@V?$allocator@UCertificate@v2@security@vanetza@@@std@@@std@@@variant@detail@boost@@$0A@@012@PEAXPEAUapply_visitor_unrolled@012@Uhas_fallback_type_@?$variant@$$TV?$array@E$07@std@@V?$recursive_wrapper@UCertificate@v2@security@vanetza@@@boost@@V?$list@UCertificate@v2@security@vanetza@@V?$allocator@UCertificate@v2@security@vanetza@@@std@@@2@UCertificateDigestWithOtherAlgorithm@v2@security@vanetza@@@2@J@Z
	??$visitation_impl_invoke@V?$invoke_visitor@V?$direct_assigner@V?$list@UItsAidSsp@v2@security@vanetza@@V?$allocator@UItsAidSsp@v2@security@vanetza@@@std@@@std@@@variant@detail@boost@@$0A@@variant@detail@boost@@PEAXUhas_fallback_type_@?$variant@UVerificationKey@v2@security@vanetza@@UEncryptionKey@234@USubjectAssurance@234@V?$variant@UX_Coordinate_Only@security@vanetza@@UCompressed_Lsb_Y_0@23@UCompressed_Lsb_Y_1@23@UUncompressed@23@@boost@@V?$list@VIntX@v2@security@vanetza@@V?$allocator@VIntX@v2@security@vanetza@@@std@@@std@@V?$list@UItsAidSsp@v2@security@vanetza@@V?$allocator@UItsAidSsp@v2@security@vanetza@@@std@@@std@@@4@@variant@detail@boost@@YA_NHAEAV?$invoke_visitor@V?$direct_assigner@V?$list@UItsAidSsp@v2@security@vanetza@@V?$allocator@UItsAidSsp@v2@security@vanetza@@@std@@@std@@@variant@detail@boost@@$0A@@012@PEAXPEAUapply_visitor_unrolled@012@Uhas_fallback_type_@?$variant@UVerificationKey@v2@security@vanetza@@UEncryptionKey@234@USubjectAssurance@234@V?$variant@UX_Coordinate_Only@security@vanetza@@UCompressed_Lsb_Y_0@23@UCompressed_Lsb_Y_1@23@UUncompressed@23@@boost@@V?$list@VIntX@v2@security@vanetza@@V?$allocator@VIntX@v2@security@vanetza@@@std@@@std@@V?$list@UItsAidSsp@v2@security@vanetza@@V?$allocator@UItsAidSsp@v2@security@vanetza@@@std@@@std@@@2@J@Z
	??$visitation_impl_invoke@V?$invoke_visitor@V?$direct_assigner@V?$list@URecipientInfo@v2@security@vanetza@@V?$allocator@URecipientInfo@v2@security@vanetza@@@std@@@std@@@variant@detail@boost@@$0A@@variant@detail@boost@@PEAXUhas_fallback_type_@?$variant@_KUTime64WithStandardDeviation@v2@security@vanetza@@IUThreeDLocation@234@V?$list@V?$array@E$02@std@@V?$allocator@V?$array@E$02@std@@@2@@std@@VIntX@234@V?$variant@$$TV?$array@E$07@std@@V?$recursive_wrapper@UCertificate@v2@security@vanetza@@@boost@@V?$list@UCertificate@v2@security@vanetza@@V?$allocator@UCertificate@v2@security@vanetza@@@std@@@2@UCertificateDigestWithOtherAlgorithm@v2@security@vanetza@@@boost@@V?$variant@V?$array@E$0M@@std@@$$V@boost@@V?$list@URecipientInfo@v2@security@vanetza@@V?$allocator@URecipientInfo@v2@security@vanetza@@@std@@@7@@4@@variant@detail@boost@@YA_NHAEAV?$invoke_visitor@V?$direct_assigner@V?$list@URecipientInfo@v2@security@vanetza@@V?$allocator@URecipientInfo@v2@security@vanetza@@@std@@@std@@@variant@detail@boost@@$0A@@012@PEAXPEAUapply_visitor_unrolled@012@Uhas_fallback_type_@?$variant@_KUTime64WithStandardDeviation@v2@security@vanetza@@IUThreeDLocation@234@V?$list@V?$array@E$02@std@@V?$allocator@V?$array@E$02@std@@@2@@std@@VIntX@234@V?$variant@$$TV?$array@E$07@std@@V?$recursive_wrapper@UCertificate@v2@security@vanetza@@@boost@@V?$list@UCertificate@v2@security@vanetza@@V?$allocator@UCertificate@v2@security@vanetza@@@std@@@2@UCertificateDigestWithOtherAlgorithm@v2@security@vanetza@@@boost@@V?$variant@V?$array@E$0M@@std@@$$V@boost@@V?$list@URecipientInfo@v2@security@vanetza@@V?$allocator@URecipientInfo@v2@security@vanetza@@@std@@@7@@2@J@Z
	??$visitation_impl_invoke@V?$invoke_visitor@V?$direct_assigner@V?$list@URecipientInfo@v2@security@vanetza@@V?$allocator@URecipientInfo@v2@security@vanetza@@@std@@@std@@@variant@detail@boost@@$0A@@variant@detail@boost@@PEAXV?$list@URecipientInfo@v2@security@vanetza@@V?$allocator@URecipientInfo@v2@security@vanetza@@@std@@@std@@Uhas_fallback_type_@?$variant@_KUTime64WithStandardDeviation@v2@security@vanetza@@IUThreeDLocation@234@V?$list@V?$array@E$02@std@@V?$allocator@V?$array@E$02@std@@@2@@std@@VIntX@234@V?$variant@$$TV?$array@E$07@std@@V?$recursive_wrapper@UCertificate@v2@security@vanetza@@@boost@@V?$list@UCertificate@v2@security@vanetza@@V?$allocator@UCertificate@v2@security@vanetza@@@std@@@2@UCertificateDigestWithOtherAlgorithm@v2@security@vanetza@@@boost@@V?$variant@V?$array@E$0M@@std@@$$V@boost@@V?$list@URecipientInfo@v2@security@vanetza@@V?$allocator@URecipientInfo@v2@security@vanetza@@@std@@@7@@4@@variant@detail@boost@@YA_NHAEAV?$invoke_visitor@V?$direct_assigner@V?$list@URecipientInfo@v2@security@vanetza@@V?$allocator@URecipientInfo@v2@security@vanetza@@@std@@@std@@@variant@detail@boost@@$0A@@012@PEAXPEAV?$list@URecipientInfo@v2@security@vanetza@@V?$allocator@URecipientInfo@v2@security@vanetza@@@std@@@std@@Uhas_fallback_type_@?$variant@_KUTime64WithStandardDeviation@v2@security@vanetza@@IUThreeDLocation@234@V?$list@V?$array@E$02@std@@V?$allocator@V?$array@E$02@std@@@2@@std@@VIntX@234@V?$variant@$$TV?$array@E$07@std@@V?$recursive_wrapper@UCertificate@v2@security@vanetza@@@boost@@V?$list@UCertificate@v2@security@vanetza@@V?$allocator@UCertificate@v2@security@vanetza@@@std@@@2@UCertificateDigestWithOtherAlgorithm@v2@security@vanetza@@@boost@@V?$variant@V?$array@E$0M@@std@@$$V@boost@@V?$list@URecipientInfo@v2@security@vanetza@@V?$allocator@URecipientInfo@v2@security@vanetza@@@std@@@7@@2@H@Z
	??$visitation_impl_invoke@V?$invoke_visitor@V?$direct_assigner@V?$list@URectangularRegion@v2@security@vanetza@@V?$allocator@URectangularRegion@v2@security@vanetza@@@std@@@std@@@variant@detail@boost@@$0A@@variant@detail@boost@@PEAXUhas_fallback_type_@?$variant@UNoneRegion@v2@security@vanetza@@UCircularRegion@234@V?$list@URectangularRegion@v2@security@vanetza@@V?$allocator@URectangularRegion@v2@security@vanetza@@@std@@@std@@V?$list@UTwoDLocation@v2@security@vanetza@@V?$allocator@UTwoDLocation@v2@security@vanetza@@@std@@@7@UIdentifiedRegion@234@@4@@variant@detail@boost@@YA_NHAEAV?$invoke_visitor@V?$direct_assigner@V?$list@URectangularRegion@v2@security@vanetza@@V?$allocator@URectangularRegion@v2@security@vanetza@@@std@@@std@@@variant@detail@boost@@$0A@@012@PEAXPEAUapply_visitor_unrolled@012@Uhas_fallback_type_@?$variant@UNoneRegion@v2@security@vanetza@@UCircularRegion@234@V?$list@URectangularRegion@v2@security@vanetza@@V?$allocator@URectangularRegion@v2@security@vanetza@@@std@@@std@@V?$list@UTwoDLocation@v2@security@vanetza@@V?$allocator@UTwoDLocation@v2@security@vanetza@@@std@@@7@UIdentifiedRegion@234@@2@J@Z
	??$visitation_impl_invoke@V?$invoke_visitor@V?$direct_assigner@V?$list@URectangularRegion@v2@security@vanetza@@V?$allocator@URectangularRegion@v2@security@vanetza@@@std@@@std@@@variant@detail@boost@@$0A@@variant@detail@boost@@PEAXV?$list@URectangularRegion@v2@security@vanetza@@V?$allocator@URectangularRegion@v2@security@vanetza@@@std@@@std@@Uhas_fallback_type_@?$variant@UNoneRegion@v2@security@vanetza@@UCircularRegion@234@V?$list@URectangularRegion@v2@security@vanetza@@V?$allocator@URectangularRegion@v2@security@vanetza@@@std@@@std@@V?$list@UTwoDLocation@v2@security@vanetza@@V?$allocator@UTwoDLocation@v2@security@vanetza@@@std@@@7@UIdentifiedRegion@234@@4@@variant@detail@boost@@YA_NHAEAV?$invoke_visitor@V?$direct_assigner@V?$list@URectangularRegion@v2@security@vanetza@@V?$allocator@URectangularRegion@v2@security@vanetza@@@std@@@std@@@variant@detail@boost@@$0A@@012@PEAXPEAV?$list@URectangularRegion@v2@security@vanetza@@V?$allocator@URectangularRegion@v2@security@vanetza@@@std@@@std@@Uhas_fallback_type_@?$variant@UNoneRegion@v2@security@vanetza@@UCircularRegion@234@V?$list@URectangularRegion@v2@security@vanetza@@V?$allocator@URectangularRegion@v2@security@vanetza@@@std@@@std@@V?$list@UTwoDLocation@v2@security@vanetza@@V?$allocator@UTwoDLocation@v2@security@vanetza@@@std@@@7@UIdentifiedRegion@234@@2@H@Z
	??$visitation_impl_invoke@V?$invoke_visitor@V?$direct_assigner@V?$list@UTwoDLocation@v2@security@vanetza@@V?$allocator@UTwoDLocation@v2@security@vanetza@@@std@@@std@@@variant@detail@boost@@$0A@@variant@detail@boost@@PEAXUhas_fallback_type_@?$variant@UNoneRegion@v2@security@vanetza@@UCircularRegion@234@V?$list@URectangularRegion@v2@security@vanetza@@V?$allocator@URectangularRegion@v2@security@vanetza@@@std@@@std@@V?$list@UTwoDLocation@v2@security@vanetza@@V?$allocator@UTwoDLocation@v2@security@vanetza@@@std@@@7@UIdentifiedRegion@234@@4@@variant@detail@boost@@YA_NHAEAV?$invoke_visitor@V?$direct_assigner@V?$list@UTwoDLocation@v2@security@vanetza@@V?$allocator@UTwoDLocation@v2@security@vanetza@@@std@@@std@@@variant@detail@boost@@$0A@@012@PEAXPEAUapply_visitor_unrolled@012@Uhas_fallback_type_@?$variant@UNoneRegion@v2@security@vanetza@@UCircularRegion@234@V?$list@URectangularRegion@v2@security@vanetza@@V?$allocator@URectangularRegion@v2@security@vanetza@@@std@@@std@@V?$list@UTwoDLocation@v2@security@vanetza@@V?$allocator@UTwoDLocation@v2@security@vanetza@@@std@@@7@UIdentifiedRegion@234@@2@J@Z
	??$visitation_impl_invoke@V?$invoke_visitor@V?$direct_assigner@V?$list@V?$array@E$02@std@@V?$allocator@V?$array@E$02@std@@@2@@std@@@variant@detail@boost@@$0A@@variant@detail@boost@@PEAXUhas_fallback_type_@?$variant@_KUTime64WithStandardDeviation@v2@security@vanetza@@IUThreeDLocation@234@V?$list@V?$array@E$02@std@@V?$allocator@V?$array@E$02@std@@@2@@std@@VIntX@234@V?$variant@$$TV?$array@E$07@std@@V?$recursive_wrapper@UCertificate@v2@security@vanetza@@@boost@@V?$list@UCertificate@v2@security@vanetza@@V?$allocator@UCertificate@v2@security@vanetza@@@std@@@2@UCertificateDigestWithOtherAlgorithm@v2@security@vanetza@@@boost@@V?$variant@V?$array@E$0M@@std@@$$V@boost@@V?$list@URecipientInfo@v2@security@vanetza@@V?$allocator@URecipientInfo@v2@security@vanetza@@@std@@@7@@4@@variant@detail@boost@@YA_NHAEAV?$invoke_visitor@V?$direct_assigner@V?$list@V?$array@E$02@std@@V?$allocator@V?$array@E$02@std@@@2@@std@@@variant@detail@boost@@$0A@@012@PEAXPEAUapply_visitor_unrolled@012@Uhas_fallback_type_@?$variant@_KUTime64WithStandardDeviation@v2@security@vanetza@@IUThreeDLocation@234@V?$list@V?$array@E$02@std@@V?$allocator@V?$array@E$02@std@@@2@@std@@VIntX@234@V?$variant@$$TV?$array@E$07@std@@V?$recursive_wrapper@UCertificate@v2@security@vanetza@@@boost@@V?$list@UCertificate@v2@security@vanetza@@V?$allocator@UCertificate@v2@security@vanetza@@@std@@@2@UCertificateDigestWithOtherAlgorithm@v2@security@vanetza@@@boost@@V?$variant@V?$array@E$0M@@std@@$$V@boost@@V?$list@URecipientInfo@v2@security@vanetza@@V?$allocator@URecipientInfo@v2@security@vanetza@@@std@@@7@@2@J@Z
	??$visitation_impl_invoke@V?$invoke_visitor@V?$direct_assigner@V?$list@VIntX@v2@security@vanetza@@V?$allocator@VIntX@v2@security@vanetza@@@std@@@std@@@variant@detail@boost@@$0A@@variant@detail@boost@@PEAXUhas_fallback_type_@?$variant@UVerificationKey@v2@security@vanetza@@UEncryptionKey@234@USubjectAssurance@234@V?$variant@UX_Coordinate_Only@security@vanetza@@UCompressed_Lsb_Y_0@23@UCompressed_Lsb_Y_1@23@UUncompressed@23@@boost@@V?$list@VIntX@v2@security@vanetza@@V?$allocator@VIntX@v2@security@vanetza@@@std@@@std@@V?$list@UItsAidSsp@v2@security@vanetza@@V?$allocator@UItsAidSsp@v2@security@vanetza@@@std@@@std@@@4@@variant@detail@boost@@YA_NHAEAV?$invoke_visitor@V?$direct_assigner@V?$list@VIntX@v2@security@vanetza@@V?$allocator@VIntX@v2@security@vanetza@@@std@@@std@@@variant@detail@boost@@$0A@@012@PEAXPEAUapply_visitor_unrolled@012@Uhas_fallback_type_@?$variant@UVerificationKey@v2@security@vanetza@@UEncryptionKey@234@USubjectAssurance@234@V?$variant@UX_Coordinate_Only@security@vanetza@@UCompressed_Lsb_Y_0@23@UCompressed_Lsb_Y_1@23@UUncompressed@23@@boost@@V?$list@VIntX@v2@security@vanetza@@V?$allocator@VIntX@v2@security@vanetza@@@std@@@std@@V?$list@UItsAidSsp@v2@security@vanetza@@V?$allocator@UItsAidSsp@v2@security@vanetza@@@std@@@std@@@2@J@Z
	??$visitation_impl_invoke@V?$invoke_visitor@V?$direct_assigner@V?$variant@$$TV?$array@E$07@std@@V?$recursive_wrapper@UCertificate@v2@security@vanetza@@@boost@@V?$list@UCertificate@v2@security@vanetza@@V?$allocator@UCertificate@v2@security@vanetza@@@std@@@2@UCertificateDigestWithOtherAlgorithm@v2@security@vanetza@@@boost@@@variant@detail@boost@@$0A@@variant@detail@boost@@PEAXUhas_fallback_type_@?$variant@_KUTime64WithStandardDeviation@v2@security@vanetza@@IUThreeDLocation@234@V?$list@V?$array@E$02@std@@V?$allocator@V?$array@E$02@std@@@2@@std@@VIntX@234@V?$variant@$$TV?$array@E$07@std@@V?$recursive_wrapper@UCertificate@v2@security@vanetza@@@boost@@V?$list@UCertificate@v2@security@vanetza@@V?$allocator@UCertificate@v2@security@vanetza@@@std@@@2@UCertificateDigestWithOtherAlgorithm@v2@security@vanetza@@@boost@@V?$variant@V?$array@E$0M@@std@@$$V@boost@@V?$list@URecipientInfo@v2@security@vanetza@@V?$allocator@URecipientInfo@v2@security@vanetza@@@std@@@7@@4@@variant@detail@boost@@YA_NHAEAV?$invoke_visitor@V?$direct_assigner@V?$variant@$$TV?$array@E$07@std@@V?$recursive_wrapper@UCertificate@v2@security@vanetza@@@boost@@V?$list@UCertificate@v2@security@vanetza@@V?$allocator@UCertificate@v2@security@vanetza@@@std@@@2@UCertificateDigestWithOtherAlgorithm@v2@security@vanetza@@@boost@@@variant@detail@boost@@$0A@@012@PEAXPEAUapply_visitor_unrolled@012@Uhas_fallback_type_@?$variant@_KUTime64WithStandardDeviation@v2@security@vanetza@@IUThreeDLocation@234@V?$list@V?$array@E$02@std@@V?$allocator@V?$array@E$02@std@@@2@@std@@VIntX@234@V?$variant@$$TV?$array@E$07@std@@V?$recursive_wrapper@UCertificate@v2@security@vanetza@@@boost@@V?$list@UCertificate@v2@security@vanetza@@V?$allocator@UCertificate@v2@security@vanetza@@@std@@@2@UCertificateDigestWithOtherAlgorithm@v2@security@vanetza@@@boost@@V?$variant@V?$array@E$0M@@std@@$$V@boost@@V?$list@URecipientInfo@v2@security@vanetza@@V?$allocator@URecipientInfo@v2@security@vanetza@@@std@@@7@@2@J@Z
	??$visitation_impl_invoke@V?$invoke_visitor@V?$direct_assigner@V?$variant@UNoneRegion@v2@security@vanetza@@UCircularRegion@234@V?$list@URectangularRegion@v2@security@vanetza@@V?$allocator@URectangularRegion@v2@security@vanetza@@@std@@@std@@V?$list@UTwoDLocation@v2@security@vanetza@@V?$allocator@UTwoDLocation@v2@security@vanetza@@@std@@@7@UIdentifiedRegion@234@@boost@@@variant@detail@boost@@$0A@@variant@detail@boost@@PEAXUhas_fallback_type_@?$variant@IUStartAndEndValidity@v2@security@vanetza@@UStartAndDurationValidity@234@V?$variant@UNoneRegion@v2@security@vanetza@@UCircularRegion@234@V?$list@URectangularRegion@v2@security@vanetza@@V?$allocator@URectangularRegion@v2@security@vanetza@@@std@@@std@@V?$list@UTwoDLocation@v2@security@vanetza@@V?$allocator@UTwoDLocation@v2@security@vanetza@@@std@@@7@UIdentifiedRegion@234@@boost@@@4@@variant@detail@boost@@YA_NHAEAV?$invoke_visitor@V?$direct_assigner@V?$variant@UNoneRegion@v2@security@vanetza@@UCircularRegion@234@V?$list@URectangularRegion@v2@security@vanetza@@V?$allocator@URectangularRegion@v2@security@vanetza@@@std@@@std@@V?$list@UTwoDLocation@v2@security@vanetza@@V?$allocator@UTwoDLocation@v2@security@vanetza@@@std@@@7@UIdentifiedRegion@234@@boost@@@variant@detail@boost@@$0A@@012@PEAXPEAUapply_visitor_unrolled@012@Uhas_fallback_type_@?$variant@IUStartAndEndValidity@v2@security@vanetza@@UStartAndDurationValidity@234@V?$variant@UNoneRegion@v2@security@vanetza@@UCircularRegion@234@V?$list@URectangularRegion@v2@security@vanetza@@V?$allocator@URectangularRegion@v2@security@vanetza@@@std@@@std@@V?$list@UTwoDLocation@v2@security@vanetza@@V?$allocator@UTwoDLocation@v2@security@vanetza@@@std@@@7@UIdentifiedRegion@234@@boost@@@2@J@Z
	??$visitation_impl_invoke@V?$invoke_visitor@V?$direct_assigner@V?$variant@V?$array@E$0M@@std@@$$V@boost@@@variant@detail@boost@@$0A@@variant@detail@boost@@PEAXUhas_fallback_type_@?$variant@_KUTime64WithStandardDeviation@v2@security@vanetza@@IUThreeDLocation@234@V?$list@V?$array@E$02@std@@V?$allocator@V?$array@E$02@std@@@2@@std@@VIntX@234@V?$variant@$$TV?$array@E$07@std@@V?$recursive_wrapper@UCertificate@v2@security@vanetza@@@boost@@V?$list@UCertificate@v2@security@vanetza@@V?$allocator@UCertificate@v2@security@vanetza@@@std@@@2@UCertificateDigestWithOtherAlgorithm@v2@security@vanetza@@@boost@@V?$variant@V?$array@E$0M@@std@@$$V@boost@@V?$list@URecipientInfo@v2@security@vanetza@@V?$allocator@URecipientInfo@v2@security@vanetza@@@std@@@7@@4@@variant@detail@boost@@YA_NHAEAV?$invoke_visitor@V?$direct_assigner@V?$variant@V?$array@E$0M@@std@@$$V@boost@@@variant@detail@boost@@$0A@@012@PEAXPEAUapply_visitor_unrolled@012@Uhas_fallback_type_@?$variant@_KUTime64WithStandardDeviation@v2@security@vanetza@@IUThreeDLocation@234@V?$list@V?$array@E$02@std@@V?$allocator@V?$array@E$02@std@@@2@@std@@VIntX@234@V?$variant@$$TV?$array@E$07@std@@V?$recursive_wrapper@UCertificate@v2@security@vanetza@@@boost@@V?$list@UCertificate@v2@security@vanetza@@V?$allocator@UCertificate@v2@security@vanetza@@@std@@@2@UCertificateDigestWithOtherAlgorithm@v2@security@vanetza@@@boost@@V?$variant@V?$array@E$0M@@std@@$$V@boost@@V?$list@URecipientInfo@v2@security@vanetza@@V?$allocator@URecipientInfo@v2@security@vanetza@@@std@@@7@@2@J@Z
	??$visitation_impl_invoke@V?$invoke_visitor@V?$direct_assigner@VIntX@v2@security@vanetza@@@variant@detail@boost@@$0A@@variant@detail@boost@@PEAXUhas_fallback_type_@?$variant@_KUTime64WithStandardDeviation@v2@security@vanetza@@IUThreeDLocation@234@V?$list@V?$array@E$02@std@@V?$allocator@V?$array@E$02@std@@@2@@std@@VIntX@234@V?$variant@$$TV?$array@E$07@std@@V?$recursive_wrapper@UCertificate@v2@security@vanetza@@@boost@@V?$list@UCertificate@v2@security@vanetza@@V?$allocator@UCertificate@v2@security@vanetza@@@std@@@2@UCertificateDigestWithOtherAlgorithm@v2@security@vanetza@@@boost@@V?$variant@V?$array@E$0M@@std@@$$V@boost@@V?$list@URecipientInfo@v2@security@vanetza@@V?$allocator@URecipientInfo@v2@security@vanetza@@@std@@@7@@4@@variant@detail@boost@@YA_NHAEAV?$invoke_visitor@V?$direct_assigner@VIntX@v2@security@vanetza@@@variant@detail@boost@@$0A@@012@PEAXPEAUapply_visitor_unrolled@012@Uhas_fallback_type_@?$variant@_KUTime64WithStandardDeviation@v2@security@vanetza@@IUThreeDLocation@234@V?$list@V?$array@E$02@std@@V?$allocator@V?$array@E$02@std@@@2@@std@@VIntX@234@V?$variant@$$TV?$array@E$07@std@@V?$recursive_wrapper@UCertificate@v2@security@vanetza@@@boost@@V?$list@UCertificate@v2@security@vanetza@@V?$allocator@UCertificate@v2@security@vanetza@@@std@@@2@UCertificateDigestWithOtherAlgorithm@v2@security@vanetza@@@boost@@V?$variant@V?$array@E$0M@@std@@$$V@boost@@V?$list@URecipientInfo@v2@security@vanetza@@V?$allocator@URecipientInfo@v2@security@vanetza@@@std@@@7@@2@J@Z
	??$visitation_impl_invoke@V?$invoke_visitor@V?$direct_assigner@W4VerificationReport@security@vanetza@@@variant@detail@boost@@$0A@@variant@detail@boost@@PEAXUhas_fallback_type_@?$variant@Ublank@boost@@W4VerificationReport@security@vanetza@@@4@@variant@detail@boost@@YA_NHAEAV?$invoke_visitor@V?$direct_assigner@W4VerificationReport@security@vanetza@@@variant@detail@boost@@$0A@@012@PEAXPEAUapply_visitor_unrolled@012@Uhas_fallback_type_@?$variant@Ublank@boost@@W4VerificationReport@security@vanetza@@@2@J@Z
	??$visitation_impl_invoke@V?$invoke_visitor@V?$direct_assigner@_K@variant@detail@boost@@$0A@@variant@detail@boost@@PEAXUhas_fallback_type_@?$variant@_KUTime64WithStandardDeviation@v2@security@vanetza@@IUThreeDLocation@234@V?$list@V?$array@E$02@std@@V?$allocator@V?$array@E$02@std@@@2@@std@@VIntX@234@V?$variant@$$TV?$array@E$07@std@@V?$recursive_wrapper@UCertificate@v2@security@vanetza@@@boost@@V?$list@UCertificate@v2@security@vanetza@@V?$allocator@UCertificate@v2@security@vanetza@@@std@@@2@UCertificateDigestWithOtherAlgorithm@v2@security@vanetza@@@boost@@V?$variant@V?$array@E$0M@@std@@$$V@boost@@V?$list@URecipientInfo@v2@security@vanetza@@V?$allocator@URecipientInfo@v2@security@vanetza@@@std@@@7@@4@@variant@detail@boost@@YA_NHAEAV?$invoke_visitor@V?$direct_assigner@_K@variant@detail@boost@@$0A@@012@PEAXPEAUapply_visitor_unrolled@012@Uhas_fallback_type_@?$variant@_KUTime64WithStandardDeviation@v2@security@vanetza@@IUThreeDLocation@234@V?$list@V?$array@E$02@std@@V?$allocator@V?$array@E$02@std@@@2@@std@@VIntX@234@V?$variant@$$TV?$array@E$07@std@@V?$recursive_wrapper@UCertificate@v2@security@vanetza@@@boost@@V?$list@UCertificate@v2@security@vanetza@@V?$allocator@UCertificate@v2@security@vanetza@@@std@@@2@UCertificateDigestWithOtherAlgorithm@v2@security@vanetza@@@boost@@V?$variant@V?$array@E$0M@@std@@$$V@boost@@V?$list@URecipientInfo@v2@security@vanetza@@V?$allocator@URecipientInfo@v2@security@vanetza@@@std@@@7@@2@J@Z
	??$visitation_impl_invoke@V?$invoke_visitor@V?$direct_mover@$$T@variant@detail@boost@@$0A@@variant@detail@boost@@PEAXUhas_fallback_type_@?$variant@$$TV?$array@E$07@std@@V?$recursive_wrapper@UCertificate@v2@security@vanetza@@@boost@@V?$list@UCertificate@v2@security@vanetza@@V?$allocator@UCertificate@v2@security@vanetza@@@std@@@2@UCertificateDigestWithOtherAlgorithm@v2@security@vanetza@@@4@@variant@detail@boost@@YA_NHAEAV?$invoke_visitor@V?$direct_mover@$$T@variant@detail@boost@@$0A@@012@PEAXPEAUapply_visitor_unrolled@012@Uhas_fallback_type_@?$variant@$$TV?$array@E$07@std@@V?$recursive_wrapper@UCertificate@v2@security@vanetza@@@boost@@V?$list@UCertificate@v2@security@vanetza@@V?$allocator@UCertificate@v2@security@vanetza@@@std@@@2@UCertificateDigestWithOtherAlgorithm@v2@security@vanetza@@@2@J@Z
	??$visitation_impl_invoke@V?$invoke_visitor@V?$direct_mover@UEcdsaSignature@security@vanetza@@@variant@detail@boost@@$0A@@variant@detail@boost@@PEAXUhas_fallback_type_@?$variant@UEcdsaSignature@security@vanetza@@VEcdsaSignatureFuture@23@@4@@variant@detail@boost@@YA_NHAEAV?$invoke_visitor@V?$direct_mover@UEcdsaSignature@security@vanetza@@@variant@detail@boost@@$0A@@012@PEAXPEAUapply_visitor_unrolled@012@Uhas_fallback_type_@?$variant@UEcdsaSignature@security@vanetza@@VEcdsaSignatureFuture@23@@2@J@Z
	??$visitation_impl_invoke@V?$invoke_visitor@V?$direct_mover@UEciesEncryptedKey@v2@security@vanetza@@@variant@detail@boost@@$0A@@variant@detail@boost@@PEAXUhas_fallback_type_@?$variant@UEciesEncryptedKey@v2@security@vanetza@@UOpaqueKey@234@@4@@variant@detail@boost@@YA_NHAEAV?$invoke_visitor@V?$direct_mover@UEciesEncryptedKey@v2@security@vanetza@@@variant@detail@boost@@$0A@@012@PEAXPEAUapply_visitor_unrolled@012@Uhas_fallback_type_@?$variant@UEciesEncryptedKey@v2@security@vanetza@@UOpaqueKey@234@@2@J@Z
	??$visitation_impl_invoke@V?$invoke_visitor@V?$direct_mover@UOpaqueKey@v2@security@vanetza@@@variant@detail@boost@@$0A@@variant@detail@boost@@PEAXUhas_fallback_type_@?$variant@UEciesEncryptedKey@v2@security@vanetza@@UOpaqueKey@234@@4@@variant@detail@boost@@YA_NHAEAV?$invoke_visitor@V?$direct_mover@UOpaqueKey@v2@security@vanetza@@@variant@detail@boost@@$0A@@012@PEAXPEAUapply_visitor_unrolled@012@Uhas_fallback_type_@?$variant@UEciesEncryptedKey@v2@security@vanetza@@UOpaqueKey@234@@2@J@Z
	??$visitation_impl_invoke@V?$invoke_visitor@V?$direct_mover@UX_Coordinate_Only@security@vanetza@@@variant@detail@boost@@$0A@@variant@detail@boost@@PEAXUhas_fallback_type_@?$variant@UX_Coordinate_Only@security@vanetza@@UCompressed_Lsb_Y_0@23@UCompressed_Lsb_Y_1@23@UUncompressed@23@@4@@variant@detail@boost@@YA_NHAEAV?$invoke_visitor@V?$direct_mover@UX_Coordinate_Only@security@vanetza@@@variant@detail@boost@@$0A@@012@PEAXPEAUapply_visitor_unrolled@012@Uhas_fallback_type_@?$variant@UX_Coordinate_Only@security@vanetza@@UCompressed_Lsb_Y_0@23@UCompressed_Lsb_Y_1@23@UUncompressed@23@@2@J@Z
	??$visitation_impl_invoke@V?$invoke_visitor@V?$direct_mover@V?$array@E$07@std@@@variant@detail@boost@@$0A@@variant@detail@boost@@PEAXUhas_fallback_type_@?$variant@$$TV?$array@E$07@std@@V?$recursive_wrapper@UCertificate@v2@security@vanetza@@@boost@@V?$list@UCertificate@v2@security@vanetza@@V?$allocator@UCertificate@v2@security@vanetza@@@std@@@2@UCertificateDigestWithOtherAlgorithm@v2@security@vanetza@@@4@@variant@detail@boost@@YA_NHAEAV?$invoke_visitor@V?$direct_mover@V?$array@E$07@std@@@variant@detail@boost@@$0A@@012@PEAXPEAUapply_visitor_unrolled@012@Uhas_fallback_type_@?$variant@$$TV?$array@E$07@std@@V?$recursive_wrapper@UCertificate@v2@security@vanetza@@@boost@@V?$list@UCertificate@v2@security@vanetza@@V?$allocator@UCertificate@v2@security@vanetza@@@std@@@2@UCertificateDigestWithOtherAlgorithm@v2@security@vanetza@@@2@J@Z
	??$visitation_impl_invoke@V?$invoke_visitor@V?$direct_mover@VChunkPacket@vanetza@@@variant@detail@boost@@$0A@@variant@detail@boost@@PEAXUhas_fallback_type_@?$variant@VChunkPacket@vanetza@@VCohesivePacket@2@@4@@variant@detail@boost@@YA_NHAEAV?$invoke_visitor@V?$direct_mover@VChunkPacket@vanetza@@@variant@detail@boost@@$0A@@012@PEAXPEAUapply_visitor_unrolled@012@Uhas_fallback_type_@?$variant@VChunkPacket@vanetza@@VCohesivePacket@2@@2@J@Z
	??$visitation_impl_invoke@V?$invoke_visitor@V?$direct_mover@VCohesivePacket@vanetza@@@variant@detail@boost@@$0A@@variant@detail@boost@@PEAXUhas_fallback_type_@?$variant@VChunkPacket@vanetza@@VCohesivePacket@2@@4@@variant@detail@boost@@YA_NHAEAV?$invoke_visitor@V?$direct_mover@VCohesivePacket@vanetza@@@variant@detail@boost@@$0A@@012@PEAXPEAUapply_visitor_unrolled@012@Uhas_fallback_type_@?$variant@VChunkPacket@vanetza@@VCohesivePacket@2@@2@J@Z
	??$visitation_impl_invoke@V?$invoke_visitor@VEccPointLengthVisitor@security@vanetza@@$0A@@variant@detail@boost@@PEBXUhas_fallback_type_@?$variant@UX_Coordinate_Only@security@vanetza@@UCompressed_Lsb_Y_0@23@UCompressed_Lsb_Y_1@23@UUncompressed@23@@4@@variant@detail@boost@@YA_KHAEAV?$invoke_visitor@VEccPointLengthVisitor@security@vanetza@@$0A@@012@PEBXPEAUapply_visitor_unrolled@012@Uhas_fallback_type_@?$variant@UX_Coordinate_Only@security@vanetza@@UCompressed_Lsb_Y_0@23@UCompressed_Lsb_Y_1@23@UUncompressed@23@@2@J@Z
	??$visitation_impl_invoke@V?$invoke_visitor@VEccPointVisitor@security@vanetza@@$0A@@variant@detail@boost@@PEBXUhas_fallback_type_@?$variant@UX_Coordinate_Only@security@vanetza@@UCompressed_Lsb_Y_0@23@UCompressed_Lsb_Y_1@23@UUncompressed@23@@4@@variant@detail@boost@@YA?AV?$vector@EV?$allocator@E@std@@@std@@HAEAV?$invoke_visitor@VEccPointVisitor@security@vanetza@@$0A@@012@PEBXPEAUapply_visitor_unrolled@012@Uhas_fallback_type_@?$variant@UX_Coordinate_Only@security@vanetza@@UCompressed_Lsb_Y_0@23@UCompressed_Lsb_Y_1@23@UUncompressed@23@@2@J@Z
	??$visitation_impl_invoke@Vassigner@?$variant@$$TV?$array@E$07@std@@V?$recursive_wrapper@UCertificate@v2@security@vanetza@@@boost@@V?$list@UCertificate@v2@security@vanetza@@V?$allocator@UCertificate@v2@security@vanetza@@@std@@@2@UCertificateDigestWithOtherAlgorithm@v2@security@vanetza@@@boost@@PEBXUhas_fallback_type_@23@@variant@detail@boost@@YAXHAEAVassigner@?$variant@$$TV?$array@E$07@std@@V?$recursive_wrapper@UCertificate@v2@security@vanetza@@@boost@@V?$list@UCertificate@v2@security@vanetza@@V?$allocator@UCertificate@v2@security@vanetza@@@std@@@2@UCertificateDigestWithOtherAlgorithm@v2@security@vanetza@@@2@PEBXPEAUapply_visitor_unrolled@012@Uhas_fallback_type_@42@J@Z
	??$visitation_impl_invoke@Vassigner@?$variant@IUStartAndEndValidity@v2@security@vanetza@@UStartAndDurationValidity@234@V?$variant@UNoneRegion@v2@security@vanetza@@UCircularRegion@234@V?$list@URectangularRegion@v2@security@vanetza@@V?$allocator@URectangularRegion@v2@security@vanetza@@@std@@@std@@V?$list@UTwoDLocation@v2@security@vanetza@@V?$allocator@UTwoDLocation@v2@security@vanetza@@@std@@@7@UIdentifiedRegion@234@@boost@@@boost@@PEBXUhas_fallback_type_@23@@variant@detail@boost@@YAXHAEAVassigner@?$variant@IUStartAndEndValidity@v2@security@vanetza@@UStartAndDurationValidity@234@V?$variant@UNoneRegion@v2@security@vanetza@@UCircularRegion@234@V?$list@URectangularRegion@v2@security@vanetza@@V?$allocator@URectangularRegion@v2@security@vanetza@@@std@@@std@@V?$list@UTwoDLocation@v2@security@vanetza@@V?$allocator@UTwoDLocation@v2@security@vanetza@@@std@@@7@UIdentifiedRegion@234@@boost@@@2@PEBXPEAUapply_visitor_unrolled@012@Uhas_fallback_type_@42@J@Z
	??$visitation_impl_invoke@Vassigner@?$variant@UEcdsaSignature@security@vanetza@@VEcdsaSignatureFuture@23@@boost@@PEBXUEcdsaSignature@security@vanetza@@Uhas_fallback_type_@23@@variant@detail@boost@@YAXHAEAVassigner@?$variant@UEcdsaSignature@security@vanetza@@VEcdsaSignatureFuture@23@@2@PEBXPEAUEcdsaSignature@security@vanetza@@Uhas_fallback_type_@42@H@Z
	??$visitation_impl_invoke@Vassigner@?$variant@UEcdsaSignature@security@vanetza@@VEcdsaSignatureFuture@23@@boost@@PEBXUhas_fallback_type_@23@@variant@detail@boost@@YAXHAEAVassigner@?$variant@UEcdsaSignature@security@vanetza@@VEcdsaSignatureFuture@23@@2@PEBXPEAUapply_visitor_unrolled@012@Uhas_fallback_type_@42@J@Z
	??$visitation_impl_invoke@Vassigner@?$variant@UEcdsaSignature@security@vanetza@@VEcdsaSignatureFuture@23@@boost@@PEBXVEcdsaSignatureFuture@security@vanetza@@Uhas_fallback_type_@23@@variant@detail@boost@@YAXHAEAVassigner@?$variant@UEcdsaSignature@security@vanetza@@VEcdsaSignatureFuture@23@@2@PEBXPEAVEcdsaSignatureFuture@security@vanetza@@Uhas_fallback_type_@42@H@Z
	??$visitation_impl_invoke@Vassigner@?$variant@UEciesEncryptedKey@v2@security@vanetza@@UOpaqueKey@234@@boost@@PEBXUEciesEncryptedKey@v2@security@vanetza@@Uhas_fallback_type_@23@@variant@detail@boost@@YAXHAEAVassigner@?$variant@UEciesEncryptedKey@v2@security@vanetza@@UOpaqueKey@234@@2@PEBXPEAUEciesEncryptedKey@v2@security@vanetza@@Uhas_fallback_type_@42@H@Z
	??$visitation_impl_invoke@Vassigner@?$variant@UEciesEncryptedKey@v2@security@vanetza@@UOpaqueKey@234@@boost@@PEBXUhas_fallback_type_@23@@variant@detail@boost@@YAXHAEAVassigner@?$variant@UEciesEncryptedKey@v2@security@vanetza@@UOpaqueKey@234@@2@PEBXPEAUapply_visitor_unrolled@012@Uhas_fallback_type_@42@J@Z
	??$visitation_impl_invoke@Vassigner@?$variant@UNoneRegion@v2@security@vanetza@@UCircularRegion@234@V?$list@URectangularRegion@v2@security@vanetza@@V?$allocator@URectangularRegion@v2@security@vanetza@@@std@@@std@@V?$list@UTwoDLocation@v2@security@vanetza@@V?$allocator@UTwoDLocation@v2@security@vanetza@@@std@@@7@UIdentifiedRegion@234@@boost@@PEBXUhas_fallback_type_@23@@variant@detail@boost@@YAXHAEAVassigner@?$variant@UNoneRegion@v2@security@vanetza@@UCircularRegion@234@V?$list@URectangularRegion@v2@security@vanetza@@V?$allocator@URectangularRegion@v2@security@vanetza@@@std@@@std@@V?$list@UTwoDLocation@v2@security@vanetza@@V?$allocator@UTwoDLocation@v2@security@vanetza@@@std@@@7@UIdentifiedRegion@234@@2@PEBXPEAUapply_visitor_unrolled@012@Uhas_fallback_type_@42@J@Z
	??$visitation_impl_invoke@Vassigner@?$variant@UVerificationKey@v2@security@vanetza@@UEncryptionKey@234@USubjectAssurance@234@V?$variant@UX_Coordinate_Only@security@vanetza@@UCompressed_Lsb_Y_0@23@UCompressed_Lsb_Y_1@23@UUncompressed@23@@boost@@V?$list@VIntX@v2@security@vanetza@@V?$allocator@VIntX@v2@security@vanetza@@@std@@@std@@V?$list@UItsAidSsp@v2@security@vanetza@@V?$allocator@UItsAidSsp@v2@security@vanetza@@@std@@@std@@@boost@@PEBXUhas_fallback_type_@23@@variant@detail@boost@@YAXHAEAVassigner@?$variant@UVerificationKey@v2@security@vanetza@@UEncryptionKey@234@USubjectAssurance@234@V?$variant@UX_Coordinate_Only@security@vanetza@@UCompressed_Lsb_Y_0@23@UCompressed_Lsb_Y_1@23@UUncompressed@23@@boost@@V?$list@VIntX@v2@security@vanetza@@V?$allocator@VIntX@v2@security@vanetza@@@std@@@std@@V?$list@UItsAidSsp@v2@security@vanetza@@V?$allocator@UItsAidSsp@v2@security@vanetza@@@std@@@std@@@2@PEBXPEAUapply_visitor_unrolled@012@Uhas_fallback_type_@42@J@Z
	??$visitation_impl_invoke@Vassigner@?$variant@UX_Coordinate_Only@security@vanetza@@UCompressed_Lsb_Y_0@23@UCompressed_Lsb_Y_1@23@UUncompressed@23@@boost@@PEBXUhas_fallback_type_@23@@variant@detail@boost@@YAXHAEAVassigner@?$variant@UX_Coordinate_Only@security@vanetza@@UCompressed_Lsb_Y_0@23@UCompressed_Lsb_Y_1@23@UUncompressed@23@@2@PEBXPEAUapply_visitor_unrolled@012@Uhas_fallback_type_@42@J@Z
	??$visitation_impl_invoke@Vassigner@?$variant@Uecdsa_nistp256_with_sha256@v2@security@vanetza@@Uecies_nistp256@234@@boost@@PEBXUhas_fallback_type_@23@@variant@detail@boost@@YAXHAEAVassigner@?$variant@Uecdsa_nistp256_with_sha256@v2@security@vanetza@@Uecies_nistp256@234@@2@PEBXPEAUapply_visitor_unrolled@012@Uhas_fallback_type_@42@J@Z
	??$visitation_impl_invoke@Vassigner@?$variant@V?$array@E$0M@@std@@$$V@boost@@PEBXUhas_fallback_type_@23@@variant@detail@boost@@YAXHAEAVassigner@?$variant@V?$array@E$0M@@std@@$$V@2@PEBXPEAUapply_visitor_unrolled@012@Uhas_fallback_type_@42@J@Z
	??$visitation_impl_invoke@Vconvert_copy_into@?$variant@AEBUSecuredMessage@v2@security@vanetza@@AEBU1v3@34@@boost@@PEBXUhas_fallback_type_@?$variant@USecuredMessage@v2@security@vanetza@@U1v3@34@@3@@variant@detail@boost@@YAHHAEAVconvert_copy_into@?$variant@AEBUSecuredMessage@v2@security@vanetza@@AEBU1v3@34@@2@PEBXPEAUapply_visitor_unrolled@012@Uhas_fallback_type_@?$variant@USecuredMessage@v2@security@vanetza@@U1v3@34@@2@J@Z
	??$visitation_impl_invoke@Vcopy_into@variant@detail@boost@@PEBXUhas_fallback_type_@?$variant@$$TV?$array@E$07@std@@V?$recursive_wrapper@UCertificate@v2@security@vanetza@@@boost@@V?$list@UCertificate@v2@security@vanetza@@V?$allocator@UCertificate@v2@security@vanetza@@@std@@@2@UCertificateDigestWithOtherAlgorithm@v2@security@vanetza@@@4@@variant@detail@boost@@YAXHAEAVcopy_into@012@PEBXPEAUapply_visitor_unrolled@012@Uhas_fallback_type_@?$variant@$$TV?$array@E$07@std@@V?$recursive_wrapper@UCertificate@v2@security@vanetza@@@boost@@V?$list@UCertificate@v2@security@vanetza@@V?$allocator@UCertificate@v2@security@vanetza@@@std@@@2@UCertificateDigestWithOtherAlgorithm@v2@security@vanetza@@@2@J@Z
	??$visitation_impl_invoke@Vcopy_into@variant@detail@boost@@PEBXUhas_fallback_type_@?$variant@AEBUSecuredMessage@v2@security@vanetza@@AEBU1v3@34@@4@@variant@detail@boost@@YAXHAEAVcopy_into@012@PEBXPEAUapply_visitor_unrolled@012@Uhas_fallback_type_@?$variant@AEBUSecuredMessage@v2@security@vanetza@@AEBU1v3@34@@2@J@Z
	??$visitation_impl_invoke@Vcopy_into@variant@detail@boost@@PEBXUhas_fallback_type_@?$variant@IUStartAndEndValidity@v2@security@vanetza@@UStartAndDurationValidity@234@V?$variant@UNoneRegion@v2@security@vanetza@@UCircularRegion@234@V?$list@URectangularRegion@v2@security@vanetza@@V?$allocator@URectangularRegion@v2@security@vanetza@@@std@@@std@@V?$list@UTwoDLocation@v2@security@vanetza@@V?$allocator@UTwoDLocation@v2@security@vanetza@@@std@@@7@UIdentifiedRegion@234@@boost@@@4@@variant@detail@boost@@YAXHAEAVcopy_into@012@PEBXPEAUapply_visitor_unrolled@012@Uhas_fallback_type_@?$variant@IUStartAndEndValidity@v2@security@vanetza@@UStartAndDurationValidity@234@V?$variant@UNoneRegion@v2@security@vanetza@@UCircularRegion@234@V?$list@URectangularRegion@v2@security@vanetza@@V?$allocator@URectangularRegion@v2@security@vanetza@@@std@@@std@@V?$list@UTwoDLocation@v2@security@vanetza@@V?$allocator@UTwoDLocation@v2@security@vanetza@@@std@@@7@UIdentifiedRegion@234@@boost@@@2@J@Z
	??$visitation_impl_invoke@Vcopy_into@variant@detail@boost@@PEBXUhas_fallback_type_@?$variant@UEcdsaSignature@security@vanetza@@VEcdsaSignatureFuture@23@@4@@variant@detail@boost@@YAXHAEAVcopy_into@012@PEBXPEAUapply_visitor_unrolled@012@Uhas_fallback_type_@?$variant@UEcdsaSignature@security@vanetza@@VEcdsaSignatureFuture@23@@2@J@Z
	??$visitation_impl_invoke@Vcopy_into@variant@detail@boost@@PEBXUhas_fallback_type_@?$variant@UEciesEncryptedKey@v2@security@vanetza@@UOpaqueKey@234@@4@@variant@detail@boost@@YAXHAEAVcopy_into@012@PEBXPEAUapply_visitor_unrolled@012@Uhas_fallback_type_@?$variant@UEciesEncryptedKey@v2@security@vanetza@@UOpaqueKey@234@@2@J@Z
	??$visitation_impl_invoke@Vcopy_into@variant@detail@boost@@PEBXUhas_fallback_type_@?$variant@UNoneRegion@v2@security@vanetza@@UCircularRegion@234@V?$list@URectangularRegion@v2@security@vanetza@@V?$allocator@URectangularRegion@v2@security@vanetza@@@std@@@std@@V?$list@UTwoDLocation@v2@security@vanetza@@V?$allocator@UTwoDLocation@v2@security@vanetza@@@std@@@7@UIdentifiedRegion@234@@4@@variant@detail@boost@@YAXHAEAVcopy_into@012@PEBXPEAUapply_visitor_unrolled@012@Uhas_fallback_type_@?$variant@UNoneRegion@v2@security@vanetza@@UCircularRegion@234@V?$list@URectangularRegion@v2@security@vanetza@@V?$allocator@URectangularRegion@v2@security@vanetza@@@std@@@std@@V?$list@UTwoDLocation@v2@security@vanetza@@V?$allocator@UTwoDLocation@v2@security@vanetza@@@std@@@7@UIdentifiedRegion@234@@2@J@Z
	??$visitation_impl_invoke@Vcopy_into@variant@detail@boost@@PEBXUhas_fallback_type_@?$variant@USignature@v2@security@vanetza@@$$V@4@@variant@detail@boost@@YAXHAEAVcopy_into@012@PEBXPEAUapply_visitor_unrolled@012@Uhas_fallback_type_@?$variant@USignature@v2@security@vanetza@@$$V@2@J@Z
	??$visitation_impl_invoke@Vcopy_into@variant@detail@boost@@PEBXUhas_fallback_type_@?$variant@UVerificationKey@v2@security@vanetza@@UEncryptionKey@234@USubjectAssurance@234@V?$variant@UX_Coordinate_Only@security@vanetza@@UCompressed_Lsb_Y_0@23@UCompressed_Lsb_Y_1@23@UUncompressed@23@@boost@@V?$list@VIntX@v2@security@vanetza@@V?$allocator@VIntX@v2@security@vanetza@@@std@@@std@@V?$list@UItsAidSsp@v2@security@vanetza@@V?$allocator@UItsAidSsp@v2@security@vanetza@@@std@@@std@@@4@@variant@detail@boost@@YAXHAEAVcopy_into@012@PEBXPEAUapply_visitor_unrolled@012@Uhas_fallback_type_@?$variant@UVerificationKey@v2@security@vanetza@@UEncryptionKey@234@USubjectAssurance@234@V?$variant@UX_Coordinate_Only@security@vanetza@@UCompressed_Lsb_Y_0@23@UCompressed_Lsb_Y_1@23@UUncompressed@23@@boost@@V?$list@VIntX@v2@security@vanetza@@V?$allocator@VIntX@v2@security@vanetza@@@std@@@std@@V?$list@UItsAidSsp@v2@security@vanetza@@V?$allocator@UItsAidSsp@v2@security@vanetza@@@std@@@std@@@2@J@Z
	??$visitation_impl_invoke@Vcopy_into@variant@detail@boost@@PEBXUhas_fallback_type_@?$variant@UX_Coordinate_Only@security@vanetza@@UCompressed_Lsb_Y_0@23@UCompressed_Lsb_Y_1@23@UUncompressed@23@@4@@variant@detail@boost@@YAXHAEAVcopy_into@012@PEBXPEAUapply_visitor_unrolled@012@Uhas_fallback_type_@?$variant@UX_Coordinate_Only@security@vanetza@@UCompressed_Lsb_Y_0@23@UCompressed_Lsb_Y_1@23@UUncompressed@23@@2@J@Z
	??$visitation_impl_invoke@Vcopy_into@variant@detail@boost@@PEBXUhas_fallback_type_@?$variant@Uecdsa_nistp256_with_sha256@v2@security@vanetza@@Uecies_nistp256@234@@4@@variant@detail@boost@@YAXHAEAVcopy_into@012@PEBXPEAUapply_visitor_unrolled@012@Uhas_fallback_type_@?$variant@Uecdsa_nistp256_with_sha256@v2@security@vanetza@@Uecies_nistp256@234@@2@J@Z
	??$visitation_impl_invoke@Vcopy_into@variant@detail@boost@@PEBXUhas_fallback_type_@?$variant@V?$array@E$0M@@std@@$$V@4@@variant@detail@boost@@YAXHAEAVcopy_into@012@PEBXPEAUapply_visitor_unrolled@012@Uhas_fallback_type_@?$variant@V?$array@E$0M@@std@@$$V@2@J@Z
	??$visitation_impl_invoke@Vcopy_into@variant@detail@boost@@PEBXUhas_fallback_type_@?$variant@VChunkPacket@vanetza@@VCohesivePacket@2@@4@@variant@detail@boost@@YAXHAEAVcopy_into@012@PEBXPEAUapply_visitor_unrolled@012@Uhas_fallback_type_@?$variant@VChunkPacket@vanetza@@VCohesivePacket@2@@2@J@Z
	??$visitation_impl_invoke@Vcopy_into@variant@detail@boost@@PEBXUhas_fallback_type_@?$variant@_KUTime64WithStandardDeviation@v2@security@vanetza@@IUThreeDLocation@234@V?$list@V?$array@E$02@std@@V?$allocator@V?$array@E$02@std@@@2@@std@@VIntX@234@V?$variant@$$TV?$array@E$07@std@@V?$recursive_wrapper@UCertificate@v2@security@vanetza@@@boost@@V?$list@UCertificate@v2@security@vanetza@@V?$allocator@UCertificate@v2@security@vanetza@@@std@@@2@UCertificateDigestWithOtherAlgorithm@v2@security@vanetza@@@boost@@V?$variant@V?$array@E$0M@@std@@$$V@boost@@V?$list@URecipientInfo@v2@security@vanetza@@V?$allocator@URecipientInfo@v2@security@vanetza@@@std@@@7@@4@@variant@detail@boost@@YAXHAEAVcopy_into@012@PEBXPEAUapply_visitor_unrolled@012@Uhas_fallback_type_@?$variant@_KUTime64WithStandardDeviation@v2@security@vanetza@@IUThreeDLocation@234@V?$list@V?$array@E$02@std@@V?$allocator@V?$array@E$02@std@@@2@@std@@VIntX@234@V?$variant@$$TV?$array@E$07@std@@V?$recursive_wrapper@UCertificate@v2@security@vanetza@@@boost@@V?$list@UCertificate@v2@security@vanetza@@V?$allocator@UCertificate@v2@security@vanetza@@@std@@@2@UCertificateDigestWithOtherAlgorithm@v2@security@vanetza@@@boost@@V?$variant@V?$array@E$0M@@std@@$$V@boost@@V?$list@URecipientInfo@v2@security@vanetza@@V?$allocator@URecipientInfo@v2@security@vanetza@@@std@@@7@@2@J@Z
	??$visitation_impl_invoke@Vcopy_into@variant@detail@boost@@PEBXV?$list@UCertificate@v2@security@vanetza@@V?$allocator@UCertificate@v2@security@vanetza@@@std@@@std@@Uhas_fallback_type_@?$variant@$$TV?$array@E$07@std@@V?$recursive_wrapper@UCertificate@v2@security@vanetza@@@boost@@V?$list@UCertificate@v2@security@vanetza@@V?$allocator@UCertificate@v2@security@vanetza@@@std@@@2@UCertificateDigestWithOtherAlgorithm@v2@security@vanetza@@@4@@variant@detail@boost@@YAXHAEAVcopy_into@012@PEBXPEAV?$list@UCertificate@v2@security@vanetza@@V?$allocator@UCertificate@v2@security@vanetza@@@std@@@std@@Uhas_fallback_type_@?$variant@$$TV?$array@E$07@std@@V?$recursive_wrapper@UCertificate@v2@security@vanetza@@@boost@@V?$list@UCertificate@v2@security@vanetza@@V?$allocator@UCertificate@v2@security@vanetza@@@std@@@2@UCertificateDigestWithOtherAlgorithm@v2@security@vanetza@@@2@H@Z
	??$visitation_impl_invoke@Vcopy_into@variant@detail@boost@@PEBXV?$list@UItsAidSsp@v2@security@vanetza@@V?$allocator@UItsAidSsp@v2@security@vanetza@@@std@@@std@@Uhas_fallback_type_@?$variant@UVerificationKey@v2@security@vanetza@@UEncryptionKey@234@USubjectAssurance@234@V?$variant@UX_Coordinate_Only@security@vanetza@@UCompressed_Lsb_Y_0@23@UCompressed_Lsb_Y_1@23@UUncompressed@23@@boost@@V?$list@VIntX@v2@security@vanetza@@V?$allocator@VIntX@v2@security@vanetza@@@std@@@std@@V?$list@UItsAidSsp@v2@security@vanetza@@V?$allocator@UItsAidSsp@v2@security@vanetza@@@std@@@std@@@4@@variant@detail@boost@@YAXHAEAVcopy_into@012@PEBXPEAV?$list@UItsAidSsp@v2@security@vanetza@@V?$allocator@UItsAidSsp@v2@security@vanetza@@@std@@@std@@Uhas_fallback_type_@?$variant@UVerificationKey@v2@security@vanetza@@UEncryptionKey@234@USubjectAssurance@234@V?$variant@UX_Coordinate_Only@security@vanetza@@UCompressed_Lsb_Y_0@23@UCompressed_Lsb_Y_1@23@UUncompressed@23@@boost@@V?$list@VIntX@v2@security@vanetza@@V?$allocator@VIntX@v2@security@vanetza@@@std@@@std@@V?$list@UItsAidSsp@v2@security@vanetza@@V?$allocator@UItsAidSsp@v2@security@vanetza@@@std@@@std@@@2@H@Z
	??$visitation_impl_invoke@Vcopy_into@variant@detail@boost@@PEBXV?$list@URecipientInfo@v2@security@vanetza@@V?$allocator@URecipientInfo@v2@security@vanetza@@@std@@@std@@Uhas_fallback_type_@?$variant@_KUTime64WithStandardDeviation@v2@security@vanetza@@IUThreeDLocation@234@V?$list@V?$array@E$02@std@@V?$allocator@V?$array@E$02@std@@@2@@std@@VIntX@234@V?$variant@$$TV?$array@E$07@std@@V?$recursive_wrapper@UCertificate@v2@security@vanetza@@@boost@@V?$list@UCertificate@v2@security@vanetza@@V?$allocator@UCertificate@v2@security@vanetza@@@std@@@2@UCertificateDigestWithOtherAlgorithm@v2@security@vanetza@@@boost@@V?$variant@V?$array@E$0M@@std@@$$V@boost@@V?$list@URecipientInfo@v2@security@vanetza@@V?$allocator@URecipientInfo@v2@security@vanetza@@@std@@@7@@4@@variant@detail@boost@@YAXHAEAVcopy_into@012@PEBXPEAV?$list@URecipientInfo@v2@security@vanetza@@V?$allocator@URecipientInfo@v2@security@vanetza@@@std@@@std@@Uhas_fallback_type_@?$variant@_KUTime64WithStandardDeviation@v2@security@vanetza@@IUThreeDLocation@234@V?$list@V?$array@E$02@std@@V?$allocator@V?$array@E$02@std@@@2@@std@@VIntX@234@V?$variant@$$TV?$array@E$07@std@@V?$recursive_wrapper@UCertificate@v2@security@vanetza@@@boost@@V?$list@UCertificate@v2@security@vanetza@@V?$allocator@UCertificate@v2@security@vanetza@@@std@@@2@UCertificateDigestWithOtherAlgorithm@v2@security@vanetza@@@boost@@V?$variant@V?$array@E$0M@@std@@$$V@boost@@V?$list@URecipientInfo@v2@security@vanetza@@V?$allocator@URecipientInfo@v2@security@vanetza@@@std@@@7@@2@H@Z
	??$visitation_impl_invoke@Vcopy_into@variant@detail@boost@@PEBXV?$list@URectangularRegion@v2@security@vanetza@@V?$allocator@URectangularRegion@v2@security@vanetza@@@std@@@std@@Uhas_fallback_type_@?$variant@UNoneRegion@v2@security@vanetza@@UCircularRegion@234@V?$list@URectangularRegion@v2@security@vanetza@@V?$allocator@URectangularRegion@v2@security@vanetza@@@std@@@std@@V?$list@UTwoDLocation@v2@security@vanetza@@V?$allocator@UTwoDLocation@v2@security@vanetza@@@std@@@7@UIdentifiedRegion@234@@4@@variant@detail@boost@@YAXHAEAVcopy_into@012@PEBXPEAV?$list@URectangularRegion@v2@security@vanetza@@V?$allocator@URectangularRegion@v2@security@vanetza@@@std@@@std@@Uhas_fallback_type_@?$variant@UNoneRegion@v2@security@vanetza@@UCircularRegion@234@V?$list@URectangularRegion@v2@security@vanetza@@V?$allocator@URectangularRegion@v2@security@vanetza@@@std@@@std@@V?$list@UTwoDLocation@v2@security@vanetza@@V?$allocator@UTwoDLocation@v2@security@vanetza@@@std@@@7@UIdentifiedRegion@234@@2@H@Z
	??$visitation_impl_invoke@Vcopy_into@variant@detail@boost@@PEBXV?$list@UTwoDLocation@v2@security@vanetza@@V?$allocator@UTwoDLocation@v2@security@vanetza@@@std@@@std@@Uhas_fallback_type_@?$variant@UNoneRegion@v2@security@vanetza@@UCircularRegion@234@V?$list@URectangularRegion@v2@security@vanetza@@V?$allocator@URectangularRegion@v2@security@vanetza@@@std@@@std@@V?$list@UTwoDLocation@v2@security@vanetza@@V?$allocator@UTwoDLocation@v2@security@vanetza@@@std@@@7@UIdentifiedRegion@234@@4@@variant@detail@boost@@YAXHAEAVcopy_into@012@PEBXPEAV?$list@UTwoDLocation@v2@security@vanetza@@V?$allocator@UTwoDLocation@v2@security@vanetza@@@std@@@std@@Uhas_fallback_type_@?$variant@UNoneRegion@v2@security@vanetza@@UCircularRegion@234@V?$list@URectangularRegion@v2@security@vanetza@@V?$allocator@URectangularRegion@v2@security@vanetza@@@std@@@std@@V?$list@UTwoDLocation@v2@security@vanetza@@V?$allocator@UTwoDLocation@v2@security@vanetza@@@std@@@7@UIdentifiedRegion@234@@2@H@Z
	??$visitation_impl_invoke@Vcopy_into@variant@detail@boost@@PEBXV?$list@V?$array@E$02@std@@V?$allocator@V?$array@E$02@std@@@2@@std@@Uhas_fallback_type_@?$variant@_KUTime64WithStandardDeviation@v2@security@vanetza@@IUThreeDLocation@234@V?$list@V?$array@E$02@std@@V?$allocator@V?$array@E$02@std@@@2@@std@@VIntX@234@V?$variant@$$TV?$array@E$07@std@@V?$recursive_wrapper@UCertificate@v2@security@vanetza@@@boost@@V?$list@UCertificate@v2@security@vanetza@@V?$allocator@UCertificate@v2@security@vanetza@@@std@@@2@UCertificateDigestWithOtherAlgorithm@v2@security@vanetza@@@boost@@V?$variant@V?$array@E$0M@@std@@$$V@boost@@V?$list@URecipientInfo@v2@security@vanetza@@V?$allocator@URecipientInfo@v2@security@vanetza@@@std@@@7@@4@@variant@detail@boost@@YAXHAEAVcopy_into@012@PEBXPEAV?$list@V?$array@E$02@std@@V?$allocator@V?$array@E$02@std@@@2@@std@@Uhas_fallback_type_@?$variant@_KUTime64WithStandardDeviation@v2@security@vanetza@@IUThreeDLocation@234@V?$list@V?$array@E$02@std@@V?$allocator@V?$array@E$02@std@@@2@@std@@VIntX@234@V?$variant@$$TV?$array@E$07@std@@V?$recursive_wrapper@UCertificate@v2@security@vanetza@@@boost@@V?$list@UCertificate@v2@security@vanetza@@V?$allocator@UCertificate@v2@security@vanetza@@@std@@@2@UCertificateDigestWithOtherAlgorithm@v2@security@vanetza@@@boost@@V?$variant@V?$array@E$0M@@std@@$$V@boost@@V?$list@URecipientInfo@v2@security@vanetza@@V?$allocator@URecipientInfo@v2@security@vanetza@@@std@@@7@@2@H@Z
	??$visitation_impl_invoke@Vcopy_into@variant@detail@boost@@PEBXV?$list@VIntX@v2@security@vanetza@@V?$allocator@VIntX@v2@security@vanetza@@@std@@@std@@Uhas_fallback_type_@?$variant@UVerificationKey@v2@security@vanetza@@UEncryptionKey@234@USubjectAssurance@234@V?$variant@UX_Coordinate_Only@security@vanetza@@UCompressed_Lsb_Y_0@23@UCompressed_Lsb_Y_1@23@UUncompressed@23@@boost@@V?$list@VIntX@v2@security@vanetza@@V?$allocator@VIntX@v2@security@vanetza@@@std@@@std@@V?$list@UItsAidSsp@v2@security@vanetza@@V?$allocator@UItsAidSsp@v2@security@vanetza@@@std@@@std@@@4@@variant@detail@boost@@YAXHAEAVcopy_into@012@PEBXPEAV?$list@VIntX@v2@security@vanetza@@V?$allocator@VIntX@v2@security@vanetza@@@std@@@std@@Uhas_fallback_type_@?$variant@UVerificationKey@v2@security@vanetza@@UEncryptionKey@234@USubjectAssurance@234@V?$variant@UX_Coordinate_Only@security@vanetza@@UCompressed_Lsb_Y_0@23@UCompressed_Lsb_Y_1@23@UUncompressed@23@@boost@@V?$list@VIntX@v2@security@vanetza@@V?$allocator@VIntX@v2@security@vanetza@@@std@@@std@@V?$list@UItsAidSsp@v2@security@vanetza@@V?$allocator@UItsAidSsp@v2@security@vanetza@@@std@@@std@@@2@H@Z
	??$visitation_impl_invoke@Vmove_assigner@?$variant@$$TV?$array@E$07@std@@V?$recursive_wrapper@UCertificate@v2@security@vanetza@@@boost@@V?$list@UCertificate@v2@security@vanetza@@V?$allocator@UCertificate@v2@security@vanetza@@@std@@@2@UCertificateDigestWithOtherAlgorithm@v2@security@vanetza@@@boost@@PEAXUhas_fallback_type_@23@@variant@detail@boost@@YAXHAEAVmove_assigner@?$variant@$$TV?$array@E$07@std@@V?$recursive_wrapper@UCertificate@v2@security@vanetza@@@boost@@V?$list@UCertificate@v2@security@vanetza@@V?$allocator@UCertificate@v2@security@vanetza@@@std@@@2@UCertificateDigestWithOtherAlgorithm@v2@security@vanetza@@@2@PEAXPEAUapply_visitor_unrolled@012@Uhas_fallback_type_@42@J@Z
	??$visitation_impl_invoke@Vmove_assigner@?$variant@IUStartAndEndValidity@v2@security@vanetza@@UStartAndDurationValidity@234@V?$variant@UNoneRegion@v2@security@vanetza@@UCircularRegion@234@V?$list@URectangularRegion@v2@security@vanetza@@V?$allocator@URectangularRegion@v2@security@vanetza@@@std@@@std@@V?$list@UTwoDLocation@v2@security@vanetza@@V?$allocator@UTwoDLocation@v2@security@vanetza@@@std@@@7@UIdentifiedRegion@234@@boost@@@boost@@PEAXUhas_fallback_type_@23@@variant@detail@boost@@YAXHAEAVmove_assigner@?$variant@IUStartAndEndValidity@v2@security@vanetza@@UStartAndDurationValidity@234@V?$variant@UNoneRegion@v2@security@vanetza@@UCircularRegion@234@V?$list@URectangularRegion@v2@security@vanetza@@V?$allocator@URectangularRegion@v2@security@vanetza@@@std@@@std@@V?$list@UTwoDLocation@v2@security@vanetza@@V?$allocator@UTwoDLocation@v2@security@vanetza@@@std@@@7@UIdentifiedRegion@234@@boost@@@2@PEAXPEAUapply_visitor_unrolled@012@Uhas_fallback_type_@42@J@Z
	??$visitation_impl_invoke@Vmove_assigner@?$variant@UEcdsaSignature@security@vanetza@@VEcdsaSignatureFuture@23@@boost@@PEAXUhas_fallback_type_@23@@variant@detail@boost@@YAXHAEAVmove_assigner@?$variant@UEcdsaSignature@security@vanetza@@VEcdsaSignatureFuture@23@@2@PEAXPEAUapply_visitor_unrolled@012@Uhas_fallback_type_@42@J@Z
	??$visitation_impl_invoke@Vmove_assigner@?$variant@UEciesEncryptedKey@v2@security@vanetza@@UOpaqueKey@234@@boost@@PEAXUhas_fallback_type_@23@@variant@detail@boost@@YAXHAEAVmove_assigner@?$variant@UEciesEncryptedKey@v2@security@vanetza@@UOpaqueKey@234@@2@PEAXPEAUapply_visitor_unrolled@012@Uhas_fallback_type_@42@J@Z
	??$visitation_impl_invoke@Vmove_assigner@?$variant@UNoneRegion@v2@security@vanetza@@UCircularRegion@234@V?$list@URectangularRegion@v2@security@vanetza@@V?$allocator@URectangularRegion@v2@security@vanetza@@@std@@@std@@V?$list@UTwoDLocation@v2@security@vanetza@@V?$allocator@UTwoDLocation@v2@security@vanetza@@@std@@@7@UIdentifiedRegion@234@@boost@@PEAXUhas_fallback_type_@23@@variant@detail@boost@@YAXHAEAVmove_assigner@?$variant@UNoneRegion@v2@security@vanetza@@UCircularRegion@234@V?$list@URectangularRegion@v2@security@vanetza@@V?$allocator@URectangularRegion@v2@security@vanetza@@@std@@@std@@V?$list@UTwoDLocation@v2@security@vanetza@@V?$allocator@UTwoDLocation@v2@security@vanetza@@@std@@@7@UIdentifiedRegion@234@@2@PEAXPEAUapply_visitor_unrolled@012@Uhas_fallback_type_@42@J@Z
	??$visitation_impl_invoke@Vmove_assigner@?$variant@USignature@v2@security@vanetza@@$$V@boost@@PEAXUhas_fallback_type_@23@@variant@detail@boost@@YAXHAEAVmove_assigner@?$variant@USignature@v2@security@vanetza@@$$V@2@PEAXPEAUapply_visitor_unrolled@012@Uhas_fallback_type_@42@J@Z
	??$visitation_impl_invoke@Vmove_assigner@?$variant@UVerificationKey@v2@security@vanetza@@UEncryptionKey@234@USubjectAssurance@234@V?$variant@UX_Coordinate_Only@security@vanetza@@UCompressed_Lsb_Y_0@23@UCompressed_Lsb_Y_1@23@UUncompressed@23@@boost@@V?$list@VIntX@v2@security@vanetza@@V?$allocator@VIntX@v2@security@vanetza@@@std@@@std@@V?$list@UItsAidSsp@v2@security@vanetza@@V?$allocator@UItsAidSsp@v2@security@vanetza@@@std@@@std@@@boost@@PEAXUhas_fallback_type_@23@@variant@detail@boost@@YAXHAEAVmove_assigner@?$variant@UVerificationKey@v2@security@vanetza@@UEncryptionKey@234@USubjectAssurance@234@V?$variant@UX_Coordinate_Only@security@vanetza@@UCompressed_Lsb_Y_0@23@UCompressed_Lsb_Y_1@23@UUncompressed@23@@boost@@V?$list@VIntX@v2@security@vanetza@@V?$allocator@VIntX@v2@security@vanetza@@@std@@@std@@V?$list@UItsAidSsp@v2@security@vanetza@@V?$allocator@UItsAidSsp@v2@security@vanetza@@@std@@@std@@@2@PEAXPEAUapply_visitor_unrolled@012@Uhas_fallback_type_@42@J@Z
	??$visitation_impl_invoke@Vmove_assigner@?$variant@UX_Coordinate_Only@security@vanetza@@UCompressed_Lsb_Y_0@23@UCompressed_Lsb_Y_1@23@UUncompressed@23@@boost@@PEAXUhas_fallback_type_@23@@variant@detail@boost@@YAXHAEAVmove_assigner@?$variant@UX_Coordinate_Only@security@vanetza@@UCompressed_Lsb_Y_0@23@UCompressed_Lsb_Y_1@23@UUncompressed@23@@2@PEAXPEAUapply_visitor_unrolled@012@Uhas_fallback_type_@42@J@Z
	??$visitation_impl_invoke@Vmove_assigner@?$variant@Ublank@boost@@W4VerificationReport@security@vanetza@@@boost@@PEAXUhas_fallback_type_@23@@variant@detail@boost@@YAXHAEAVmove_assigner@?$variant@Ublank@boost@@W4VerificationReport@security@vanetza@@@2@PEAXPEAUapply_visitor_unrolled@012@Uhas_fallback_type_@42@J@Z
	??$visitation_impl_invoke@Vmove_assigner@?$variant@Uecdsa_nistp256_with_sha256@v2@security@vanetza@@Uecies_nistp256@234@@boost@@PEAXUhas_fallback_type_@23@@variant@detail@boost@@YAXHAEAVmove_assigner@?$variant@Uecdsa_nistp256_with_sha256@v2@security@vanetza@@Uecies_nistp256@234@@2@PEAXPEAUapply_visitor_unrolled@012@Uhas_fallback_type_@42@J@Z
	??$visitation_impl_invoke@Vmove_assigner@?$variant@V?$array@E$0M@@std@@$$V@boost@@PEAXUhas_fallback_type_@23@@variant@detail@boost@@YAXHAEAVmove_assigner@?$variant@V?$array@E$0M@@std@@$$V@2@PEAXPEAUapply_visitor_unrolled@012@Uhas_fallback_type_@42@J@Z
	??$visitation_impl_invoke@Vmove_assigner@?$variant@VChunkPacket@vanetza@@VCohesivePacket@2@@boost@@PEAXUhas_fallback_type_@23@@variant@detail@boost@@YAXHAEAVmove_assigner@?$variant@VChunkPacket@vanetza@@VCohesivePacket@2@@2@PEAXPEAUapply_visitor_unrolled@012@Uhas_fallback_type_@42@J@Z
	??$visitation_impl_invoke@Vmove_assigner@?$variant@_KUTime64WithStandardDeviation@v2@security@vanetza@@IUThreeDLocation@234@V?$list@V?$array@E$02@std@@V?$allocator@V?$array@E$02@std@@@2@@std@@VIntX@234@V?$variant@$$TV?$array@E$07@std@@V?$recursive_wrapper@UCertificate@v2@security@vanetza@@@boost@@V?$list@UCertificate@v2@security@vanetza@@V?$allocator@UCertificate@v2@security@vanetza@@@std@@@2@UCertificateDigestWithOtherAlgorithm@v2@security@vanetza@@@boost@@V?$variant@V?$array@E$0M@@std@@$$V@boost@@V?$list@URecipientInfo@v2@security@vanetza@@V?$allocator@URecipientInfo@v2@security@vanetza@@@std@@@7@@boost@@PEAXUhas_fallback_type_@23@@variant@detail@boost@@YAXHAEAVmove_assigner@?$variant@_KUTime64WithStandardDeviation@v2@security@vanetza@@IUThreeDLocation@234@V?$list@V?$array@E$02@std@@V?$allocator@V?$array@E$02@std@@@2@@std@@VIntX@234@V?$variant@$$TV?$array@E$07@std@@V?$recursive_wrapper@UCertificate@v2@security@vanetza@@@boost@@V?$list@UCertificate@v2@security@vanetza@@V?$allocator@UCertificate@v2@security@vanetza@@@std@@@2@UCertificateDigestWithOtherAlgorithm@v2@security@vanetza@@@boost@@V?$variant@V?$array@E$0M@@std@@$$V@boost@@V?$list@URecipientInfo@v2@security@vanetza@@V?$allocator@URecipientInfo@v2@security@vanetza@@@std@@@7@@2@PEAXPEAUapply_visitor_unrolled@012@Uhas_fallback_type_@42@J@Z
	??$visitation_impl_invoke@Vmove_into@variant@detail@boost@@PEAXUhas_fallback_type_@?$variant@$$TV?$array@E$07@std@@V?$recursive_wrapper@UCertificate@v2@security@vanetza@@@boost@@V?$list@UCertificate@v2@security@vanetza@@V?$allocator@UCertificate@v2@security@vanetza@@@std@@@2@UCertificateDigestWithOtherAlgorithm@v2@security@vanetza@@@4@@variant@detail@boost@@YAXHAEAVmove_into@012@PEAXPEAUapply_visitor_unrolled@012@Uhas_fallback_type_@?$variant@$$TV?$array@E$07@std@@V?$recursive_wrapper@UCertificate@v2@security@vanetza@@@boost@@V?$list@UCertificate@v2@security@vanetza@@V?$allocator@UCertificate@v2@security@vanetza@@@std@@@2@UCertificateDigestWithOtherAlgorithm@v2@security@vanetza@@@2@J@Z
	??$visitation_impl_invoke@Vmove_into@variant@detail@boost@@PEAXUhas_fallback_type_@?$variant@IUStartAndEndValidity@v2@security@vanetza@@UStartAndDurationValidity@234@V?$variant@UNoneRegion@v2@security@vanetza@@UCircularRegion@234@V?$list@URectangularRegion@v2@security@vanetza@@V?$allocator@URectangularRegion@v2@security@vanetza@@@std@@@std@@V?$list@UTwoDLocation@v2@security@vanetza@@V?$allocator@UTwoDLocation@v2@security@vanetza@@@std@@@7@UIdentifiedRegion@234@@boost@@@4@@variant@detail@boost@@YAXHAEAVmove_into@012@PEAXPEAUapply_visitor_unrolled@012@Uhas_fallback_type_@?$variant@IUStartAndEndValidity@v2@security@vanetza@@UStartAndDurationValidity@234@V?$variant@UNoneRegion@v2@security@vanetza@@UCircularRegion@234@V?$list@URectangularRegion@v2@security@vanetza@@V?$allocator@URectangularRegion@v2@security@vanetza@@@std@@@std@@V?$list@UTwoDLocation@v2@security@vanetza@@V?$allocator@UTwoDLocation@v2@security@vanetza@@@std@@@7@UIdentifiedRegion@234@@boost@@@2@J@Z
	??$visitation_impl_invoke@Vmove_into@variant@detail@boost@@PEAXUhas_fallback_type_@?$variant@UEcdsaSignature@security@vanetza@@VEcdsaSignatureFuture@23@@4@@variant@detail@boost@@YAXHAEAVmove_into@012@PEAXPEAUapply_visitor_unrolled@012@Uhas_fallback_type_@?$variant@UEcdsaSignature@security@vanetza@@VEcdsaSignatureFuture@23@@2@J@Z
	??$visitation_impl_invoke@Vmove_into@variant@detail@boost@@PEAXUhas_fallback_type_@?$variant@UEciesEncryptedKey@v2@security@vanetza@@UOpaqueKey@234@@4@@variant@detail@boost@@YAXHAEAVmove_into@012@PEAXPEAUapply_visitor_unrolled@012@Uhas_fallback_type_@?$variant@UEciesEncryptedKey@v2@security@vanetza@@UOpaqueKey@234@@2@J@Z
	??$visitation_impl_invoke@Vmove_into@variant@detail@boost@@PEAXUhas_fallback_type_@?$variant@UNoneRegion@v2@security@vanetza@@UCircularRegion@234@V?$list@URectangularRegion@v2@security@vanetza@@V?$allocator@URectangularRegion@v2@security@vanetza@@@std@@@std@@V?$list@UTwoDLocation@v2@security@vanetza@@V?$allocator@UTwoDLocation@v2@security@vanetza@@@std@@@7@UIdentifiedRegion@234@@4@@variant@detail@boost@@YAXHAEAVmove_into@012@PEAXPEAUapply_visitor_unrolled@012@Uhas_fallback_type_@?$variant@UNoneRegion@v2@security@vanetza@@UCircularRegion@234@V?$list@URectangularRegion@v2@security@vanetza@@V?$allocator@URectangularRegion@v2@security@vanetza@@@std@@@std@@V?$list@UTwoDLocation@v2@security@vanetza@@V?$allocator@UTwoDLocation@v2@security@vanetza@@@std@@@7@UIdentifiedRegion@234@@2@J@Z
	??$visitation_impl_invoke@Vmove_into@variant@detail@boost@@PEAXUhas_fallback_type_@?$variant@USecuredMessage@v2@security@vanetza@@U1v3@34@@4@@variant@detail@boost@@YAXHAEAVmove_into@012@PEAXPEAUapply_visitor_unrolled@012@Uhas_fallback_type_@?$variant@USecuredMessage@v2@security@vanetza@@U1v3@34@@2@J@Z
	??$visitation_impl_invoke@Vmove_into@variant@detail@boost@@PEAXUhas_fallback_type_@?$variant@USignature@v2@security@vanetza@@$$V@4@@variant@detail@boost@@YAXHAEAVmove_into@012@PEAXPEAUapply_visitor_unrolled@012@Uhas_fallback_type_@?$variant@USignature@v2@security@vanetza@@$$V@2@J@Z
	??$visitation_impl_invoke@Vmove_into@variant@detail@boost@@PEAXUhas_fallback_type_@?$variant@UVerificationKey@v2@security@vanetza@@UEncryptionKey@234@USubjectAssurance@234@V?$variant@UX_Coordinate_Only@security@vanetza@@UCompressed_Lsb_Y_0@23@UCompressed_Lsb_Y_1@23@UUncompressed@23@@boost@@V?$list@VIntX@v2@security@vanetza@@V?$allocator@VIntX@v2@security@vanetza@@@std@@@std@@V?$list@UItsAidSsp@v2@security@vanetza@@V?$allocator@UItsAidSsp@v2@security@vanetza@@@std@@@std@@@4@@variant@detail@boost@@YAXHAEAVmove_into@012@PEAXPEAUapply_visitor_unrolled@012@Uhas_fallback_type_@?$variant@UVerificationKey@v2@security@vanetza@@UEncryptionKey@234@USubjectAssurance@234@V?$variant@UX_Coordinate_Only@security@vanetza@@UCompressed_Lsb_Y_0@23@UCompressed_Lsb_Y_1@23@UUncompressed@23@@boost@@V?$list@VIntX@v2@security@vanetza@@V?$allocator@VIntX@v2@security@vanetza@@@std@@@std@@V?$list@UItsAidSsp@v2@security@vanetza@@V?$allocator@UItsAidSsp@v2@security@vanetza@@@std@@@std@@@2@J@Z
	??$visitation_impl_invoke@Vmove_into@variant@detail@boost@@PEAXUhas_fallback_type_@?$variant@UX_Coordinate_Only@security@vanetza@@UCompressed_Lsb_Y_0@23@UCompressed_Lsb_Y_1@23@UUncompressed@23@@4@@variant@detail@boost@@YAXHAEAVmove_into@012@PEAXPEAUapply_visitor_unrolled@012@Uhas_fallback_type_@?$variant@UX_Coordinate_Only@security@vanetza@@UCompressed_Lsb_Y_0@23@UCompressed_Lsb_Y_1@23@UUncompressed@23@@2@J@Z
	??$visitation_impl_invoke@Vmove_into@variant@detail@boost@@PEAXUhas_fallback_type_@?$variant@Uecdsa_nistp256_with_sha256@v2@security@vanetza@@Uecies_nistp256@234@@4@@variant@detail@boost@@YAXHAEAVmove_into@012@PEAXPEAUapply_visitor_unrolled@012@Uhas_fallback_type_@?$variant@Uecdsa_nistp256_with_sha256@v2@security@vanetza@@Uecies_nistp256@234@@2@J@Z
	??$visitation_impl_invoke@Vmove_into@variant@detail@boost@@PEAXUhas_fallback_type_@?$variant@V?$array@E$0M@@std@@$$V@4@@variant@detail@boost@@YAXHAEAVmove_into@012@PEAXPEAUapply_visitor_unrolled@012@Uhas_fallback_type_@?$variant@V?$array@E$0M@@std@@$$V@2@J@Z
	??$visitation_impl_invoke@Vmove_into@variant@detail@boost@@PEAXUhas_fallback_type_@?$variant@VChunkPacket@vanetza@@VCohesivePacket@2@@4@@variant@detail@boost@@YAXHAEAVmove_into@012@PEAXPEAUapply_visitor_unrolled@012@Uhas_fallback_type_@?$variant@VChunkPacket@vanetza@@VCohesivePacket@2@@2@J@Z
	??$visitation_impl_invoke@Vmove_into@variant@detail@boost@@PEAXUhas_fallback_type_@?$variant@_KUTime64WithStandardDeviation@v2@security@vanetza@@IUThreeDLocation@234@V?$list@V?$array@E$02@std@@V?$allocator@V?$array@E$02@std@@@2@@std@@VIntX@234@V?$variant@$$TV?$array@E$07@std@@V?$recursive_wrapper@UCertificate@v2@security@vanetza@@@boost@@V?$list@UCertificate@v2@security@vanetza@@V?$allocator@UCertificate@v2@security@vanetza@@@std@@@2@UCertificateDigestWithOtherAlgorithm@v2@security@vanetza@@@boost@@V?$variant@V?$array@E$0M@@std@@$$V@boost@@V?$list@URecipientInfo@v2@security@vanetza@@V?$allocator@URecipientInfo@v2@security@vanetza@@@std@@@7@@4@@variant@detail@boost@@YAXHAEAVmove_into@012@PEAXPEAUapply_visitor_unrolled@012@Uhas_fallback_type_@?$variant@_KUTime64WithStandardDeviation@v2@security@vanetza@@IUThreeDLocation@234@V?$list@V?$array@E$02@std@@V?$allocator@V?$array@E$02@std@@@2@@std@@VIntX@234@V?$variant@$$TV?$array@E$07@std@@V?$recursive_wrapper@UCertificate@v2@security@vanetza@@@boost@@V?$list@UCertificate@v2@security@vanetza@@V?$allocator@UCertificate@v2@security@vanetza@@@std@@@2@UCertificateDigestWithOtherAlgorithm@v2@security@vanetza@@@boost@@V?$variant@V?$array@E$0M@@std@@$$V@boost@@V?$list@URecipientInfo@v2@security@vanetza@@V?$allocator@URecipientInfo@v2@security@vanetza@@@std@@@7@@2@J@Z
	??$visitation_impl_invoke@Vmove_into@variant@detail@boost@@PEAXV?$recursive_wrapper@UCertificate@v2@security@vanetza@@@4@Uhas_fallback_type_@?$variant@$$TV?$array@E$07@std@@V?$recursive_wrapper@UCertificate@v2@security@vanetza@@@boost@@V?$list@UCertificate@v2@security@vanetza@@V?$allocator@UCertificate@v2@security@vanetza@@@std@@@2@UCertificateDigestWithOtherAlgorithm@v2@security@vanetza@@@4@@variant@detail@boost@@YAXHAEAVmove_into@012@PEAXPEAV?$recursive_wrapper@UCertificate@v2@security@vanetza@@@2@Uhas_fallback_type_@?$variant@$$TV?$array@E$07@std@@V?$recursive_wrapper@UCertificate@v2@security@vanetza@@@boost@@V?$list@UCertificate@v2@security@vanetza@@V?$allocator@UCertificate@v2@security@vanetza@@@std@@@2@UCertificateDigestWithOtherAlgorithm@v2@security@vanetza@@@2@H@Z
	??$wrap_scan_notdigit@V?$_String_const_iterator@V?$_String_val@U?$_Simple_types@D@std@@@std@@@std@@V?$ctype@D@2@@detail@io@boost@@YA?AV?$_String_const_iterator@V?$_String_val@U?$_Simple_types@D@std@@@std@@@std@@AEBV?$ctype@D@4@V34@1@Z
	??0?$AssignFromHelperClass@V?$DL_PrivateKey@UECPPoint@CryptoPP@@@CryptoPP@@V12@@CryptoPP@@QEAA@PEAV?$DL_PrivateKey@UECPPoint@CryptoPP@@@1@AEBVNameValuePairs@1@@Z
	??0?$AssignFromHelperClass@V?$DL_PrivateKeyImpl@V?$DL_GroupParameters_EC@VECP@CryptoPP@@@CryptoPP@@@CryptoPP@@V?$DL_PrivateKey@UECPPoint@CryptoPP@@@2@@CryptoPP@@QEAA@PEAV?$DL_PrivateKeyImpl@V?$DL_GroupParameters_EC@VECP@CryptoPP@@@CryptoPP@@@1@AEBVNameValuePairs@1@@Z
	??0?$AssignFromHelperClass@V?$DL_PublicKey@UECPPoint@CryptoPP@@@CryptoPP@@V12@@CryptoPP@@QEAA@PEAV?$DL_PublicKey@UECPPoint@CryptoPP@@@1@AEBVNameValuePairs@1@@Z
	??0?$AssignFromHelperClass@V?$DL_PublicKeyImpl@V?$DL_GroupParameters_EC@VECP@CryptoPP@@@CryptoPP@@@CryptoPP@@V?$DL_PublicKey@UECPPoint@CryptoPP@@@2@@CryptoPP@@QEAA@PEAV?$DL_PublicKeyImpl@V?$DL_GroupParameters_EC@VECP@CryptoPP@@@CryptoPP@@@1@AEBVNameValuePairs@1@@Z
	??0?$DL_FixedBasePrecomputationImpl@UECPPoint@CryptoPP@@@CryptoPP@@QEAA@AEBV01@@Z
	??0?$DL_FixedBasePrecomputationImpl@UECPPoint@CryptoPP@@@CryptoPP@@QEAA@XZ
	??0?$DL_GroupParameters_EC@VECP@CryptoPP@@@CryptoPP@@QEAA@AEBV01@@Z
	??0?$DL_GroupParameters_EC@VECP@CryptoPP@@@CryptoPP@@QEAA@AEBVOID@1@@Z
	??0?$DL_GroupParameters_EC@VECP@CryptoPP@@@CryptoPP@@QEAA@XZ
	??0?$DL_PrivateKey_WithSignaturePairwiseConsistencyTest@V?$DL_PrivateKey_EC@VECP@CryptoPP@@@CryptoPP@@U?$ECDSA@VECP@CryptoPP@@VSHA256@2@@2@@CryptoPP@@QEAA@AEBV01@@Z
	??0?$DL_PrivateKey_WithSignaturePairwiseConsistencyTest@V?$DL_PrivateKey_EC@VECP@CryptoPP@@@CryptoPP@@U?$ECDSA@VECP@CryptoPP@@VSHA256@2@@2@@CryptoPP@@QEAA@XZ
	??0?$DL_PublicKey_EC@VECP@CryptoPP@@@CryptoPP@@QEAA@AEBV01@@Z
	??0?$DL_PublicKey_EC@VECP@CryptoPP@@@CryptoPP@@QEAA@XZ
	??0?$FixedSizeAlignedSecBlock@I$0BA@$00@CryptoPP@@QEAA@AEBV01@@Z
	??0?$FixedSizeAlignedSecBlock@_K$0BA@$00@CryptoPP@@QEAA@AEBV01@@Z
	??0?$FixedSizeSecBlock@I$0BA@V?$FixedSizeAllocatorWithCleanup@I$0BA@V?$NullAllocator@I@CryptoPP@@$0A@@CryptoPP@@@CryptoPP@@QEAA@AEBV01@@Z
	??0?$GetValueHelperClass@V?$DL_GroupParameters@UECPPoint@CryptoPP@@@CryptoPP@@V12@@CryptoPP@@QEAA@PEBV?$DL_GroupParameters@UECPPoint@CryptoPP@@@1@PEBDAEBVtype_info@@PEAXPEBVNameValuePairs@1@@Z
	??0?$GetValueHelperClass@V?$DL_PrivateKey@UECPPoint@CryptoPP@@@CryptoPP@@V12@@CryptoPP@@QEAA@PEBV?$DL_PrivateKey@UECPPoint@CryptoPP@@@1@PEBDAEBVtype_info@@PEAXPEBVNameValuePairs@1@@Z
	??0?$GetValueHelperClass@V?$DL_PrivateKeyImpl@V?$DL_GroupParameters_EC@VECP@CryptoPP@@@CryptoPP@@@CryptoPP@@V?$DL_PrivateKey@UECPPoint@CryptoPP@@@2@@CryptoPP@@QEAA@PEBV?$DL_PrivateKeyImpl@V?$DL_GroupParameters_EC@VECP@CryptoPP@@@CryptoPP@@@1@PEBDAEBVtype_info@@PEAXPEBVNameValuePairs@1@@Z
	??0?$GetValueHelperClass@V?$DL_PublicKey@UECPPoint@CryptoPP@@@CryptoPP@@V12@@CryptoPP@@QEAA@PEBV?$DL_PublicKey@UECPPoint@CryptoPP@@@1@PEBDAEBVtype_info@@PEAXPEBVNameValuePairs@1@@Z
	??0?$GetValueHelperClass@V?$DL_PublicKeyImpl@V?$DL_GroupParameters_EC@VECP@CryptoPP@@@CryptoPP@@@CryptoPP@@V?$DL_PublicKey@UECPPoint@CryptoPP@@@2@@CryptoPP@@QEAA@PEBV?$DL_PublicKeyImpl@V?$DL_GroupParameters_EC@VECP@CryptoPP@@@CryptoPP@@@1@PEBDAEBVtype_info@@PEAXPEBVNameValuePairs@1@@Z
	??0?$IteratedHash@_KU?$EnumToType@W4ByteOrder@CryptoPP@@$00@CryptoPP@@$0IA@VHashTransformation@2@@CryptoPP@@QEAA@AEBV01@@Z
	??0?$PK_MessageAccumulatorImpl@VSHA256@CryptoPP@@@CryptoPP@@QEAA@XZ
	??0?$SecBlock@EV?$AllocatorWithCleanup@E$0A@@CryptoPP@@@CryptoPP@@QEAA@AEBV01@@Z
	??0?$backup_holder@VChunkPacket@vanetza@@@variant@detail@boost@@QEAA@AEBV0123@@Z
	??0?$backup_holder@VChunkPacket@vanetza@@@variant@detail@boost@@QEAA@PEAVChunkPacket@vanetza@@@Z
	??0?$basic_buffer@DV?$allocator@D@std@@@detail@iostreams@boost@@QEAA@XZ
	??0?$basic_buffer@DV?$allocator@D@std@@@detail@iostreams@boost@@QEAA@_J@Z
	??0?$basic_format@DU?$char_traits@D@std@@V?$allocator@D@2@@boost@@QEAA@PEBD@Z
	??0?$basic_string@DU?$char_traits@D@std@@V?$allocator@D@2@@std@@QEAA@AEBV01@@Z
	??0?$basic_string@DU?$char_traits@D@std@@V?$allocator@D@2@@std@@QEAA@QEBD@Z
	??0?$basic_string@DU?$char_traits@D@std@@V?$allocator@D@2@@std@@QEAA@U_String_constructor_concat_tag@1@AEBV01@QEBD_K23@Z
	??0?$indirect_streambuf@Vbyte_buffer_sink@vanetza@@U?$char_traits@D@std@@V?$allocator@D@4@Uoutput@iostreams@boost@@@detail@iostreams@boost@@QEAA@XZ
	??0?$list@UCertificate@v2@security@vanetza@@V?$allocator@UCertificate@v2@security@vanetza@@@std@@@std@@QEAA@AEBV01@@Z
	??0?$list@UItsAidSsp@v2@security@vanetza@@V?$allocator@UItsAidSsp@v2@security@vanetza@@@std@@@std@@QEAA@AEBV01@@Z
	??0?$list@URecipientInfo@v2@security@vanetza@@V?$allocator@URecipientInfo@v2@security@vanetza@@@std@@@std@@QEAA@AEBV01@@Z
	??0?$list@URectangularRegion@v2@security@vanetza@@V?$allocator@URectangularRegion@v2@security@vanetza@@@std@@@std@@QEAA@AEBV01@@Z
	??0?$list@UTwoDLocation@v2@security@vanetza@@V?$allocator@UTwoDLocation@v2@security@vanetza@@@std@@@std@@QEAA@AEBV01@@Z
	??0?$list@V?$array@E$02@std@@V?$allocator@V?$array@E$02@std@@@2@@std@@QEAA@AEBV01@@Z
	??0?$list@V?$variant@USignature@v2@security@vanetza@@$$V@boost@@V?$allocator@V?$variant@USignature@v2@security@vanetza@@$$V@boost@@@std@@@std@@QEAA@V?$initializer_list@V?$variant@USignature@v2@security@vanetza@@$$V@boost@@@1@@Z
	??0?$list@VIntX@v2@security@vanetza@@V?$allocator@VIntX@v2@security@vanetza@@@std@@@std@@QEAA@AEBV01@@Z
	??0?$recursive_wrapper@UCertificate@v2@security@vanetza@@@boost@@QEAA@$$QEAV01@@Z
	??0?$recursive_wrapper@UCertificate@v2@security@vanetza@@@boost@@QEAA@AEBUCertificate@v2@security@vanetza@@@Z
	??0?$recursive_wrapper@UCertificate@v2@security@vanetza@@@boost@@QEAA@AEBV01@@Z
	??0?$variant@$$TV?$array@E$07@std@@V?$recursive_wrapper@UCertificate@v2@security@vanetza@@@boost@@V?$list@UCertificate@v2@security@vanetza@@V?$allocator@UCertificate@v2@security@vanetza@@@std@@@2@UCertificateDigestWithOtherAlgorithm@v2@security@vanetza@@@boost@@QEAA@$$QEAV01@@Z
	??0?$variant@$$TV?$array@E$07@std@@V?$recursive_wrapper@UCertificate@v2@security@vanetza@@@boost@@V?$list@UCertificate@v2@security@vanetza@@V?$allocator@UCertificate@v2@security@vanetza@@@std@@@2@UCertificateDigestWithOtherAlgorithm@v2@security@vanetza@@@boost@@QEAA@AEBV01@@Z
	??0?$variant@AEBUSecuredMessage@v2@security@vanetza@@AEBU1v3@34@@boost@@QEAA@AEBV01@@Z
	??0?$variant@IUStartAndEndValidity@v2@security@vanetza@@UStartAndDurationValidity@234@V?$variant@UNoneRegion@v2@security@vanetza@@UCircularRegion@234@V?$list@URectangularRegion@v2@security@vanetza@@V?$allocator@URectangularRegion@v2@security@vanetza@@@std@@@std@@V?$list@UTwoDLocation@v2@security@vanetza@@V?$allocator@UTwoDLocation@v2@security@vanetza@@@std@@@7@UIdentifiedRegion@234@@boost@@@boost@@QEAA@$$QEAV01@@Z
	??0?$variant@IUStartAndEndValidity@v2@security@vanetza@@UStartAndDurationValidity@234@V?$variant@UNoneRegion@v2@security@vanetza@@UCircularRegion@234@V?$list@URectangularRegion@v2@security@vanetza@@V?$allocator@URectangularRegion@v2@security@vanetza@@@std@@@std@@V?$list@UTwoDLocation@v2@security@vanetza@@V?$allocator@UTwoDLocation@v2@security@vanetza@@@std@@@7@UIdentifiedRegion@234@@boost@@@boost@@QEAA@AEBV01@@Z
	??0?$variant@UEcdsaSignature@security@vanetza@@VEcdsaSignatureFuture@23@@boost@@QEAA@$$QEAV01@@Z
	??0?$variant@UEcdsaSignature@security@vanetza@@VEcdsaSignatureFuture@23@@boost@@QEAA@AEBV01@@Z
	??0?$variant@UEciesEncryptedKey@v2@security@vanetza@@UOpaqueKey@234@@boost@@QEAA@$$QEAV01@@Z
	??0?$variant@UEciesEncryptedKey@v2@security@vanetza@@UOpaqueKey@234@@boost@@QEAA@AEBV01@@Z
	??0?$variant@UNoneRegion@v2@security@vanetza@@UCircularRegion@234@V?$list@URectangularRegion@v2@security@vanetza@@V?$allocator@URectangularRegion@v2@security@vanetza@@@std@@@std@@V?$list@UTwoDLocation@v2@security@vanetza@@V?$allocator@UTwoDLocation@v2@security@vanetza@@@std@@@7@UIdentifiedRegion@234@@boost@@QEAA@$$QEAV01@@Z
	??0?$variant@UNoneRegion@v2@security@vanetza@@UCircularRegion@234@V?$list@URectangularRegion@v2@security@vanetza@@V?$allocator@URectangularRegion@v2@security@vanetza@@@std@@@std@@V?$list@UTwoDLocation@v2@security@vanetza@@V?$allocator@UTwoDLocation@v2@security@vanetza@@@std@@@7@UIdentifiedRegion@234@@boost@@QEAA@AEBV01@@Z
	??0?$variant@USecuredMessage@v2@security@vanetza@@U1v3@34@@boost@@QEAA@$$QEAV01@@Z
	??0?$variant@USignature@v2@security@vanetza@@$$V@boost@@QEAA@$$QEAV01@@Z
	??0?$variant@USignature@v2@security@vanetza@@$$V@boost@@QEAA@AEBV01@@Z
	??0?$variant@UVerificationKey@v2@security@vanetza@@UEncryptionKey@234@USubjectAssurance@234@V?$variant@UX_Coordinate_Only@security@vanetza@@UCompressed_Lsb_Y_0@23@UCompressed_Lsb_Y_1@23@UUncompressed@23@@boost@@V?$list@VIntX@v2@security@vanetza@@V?$allocator@VIntX@v2@security@vanetza@@@std@@@std@@V?$list@UItsAidSsp@v2@security@vanetza@@V?$allocator@UItsAidSsp@v2@security@vanetza@@@std@@@std@@@boost@@QEAA@$$QEAV01@@Z
	??0?$variant@UVerificationKey@v2@security@vanetza@@UEncryptionKey@234@USubjectAssurance@234@V?$variant@UX_Coordinate_Only@security@vanetza@@UCompressed_Lsb_Y_0@23@UCompressed_Lsb_Y_1@23@UUncompressed@23@@boost@@V?$list@VIntX@v2@security@vanetza@@V?$allocator@VIntX@v2@security@vanetza@@@std@@@std@@V?$list@UItsAidSsp@v2@security@vanetza@@V?$allocator@UItsAidSsp@v2@security@vanetza@@@std@@@std@@@boost@@QEAA@AEBV01@@Z
	??0?$variant@UX_Coordinate_Only@security@vanetza@@UCompressed_Lsb_Y_0@23@UCompressed_Lsb_Y_1@23@UUncompressed@23@@boost@@QEAA@$$QEAV01@@Z
	??0?$variant@UX_Coordinate_Only@security@vanetza@@UCompressed_Lsb_Y_0@23@UCompressed_Lsb_Y_1@23@UUncompressed@23@@boost@@QEAA@AEBV01@@Z
	??0?$variant@Uecdsa_nistp256_with_sha256@v2@security@vanetza@@Uecies_nistp256@234@@boost@@QEAA@$$QEAV01@@Z
	??0?$variant@Uecdsa_nistp256_with_sha256@v2@security@vanetza@@Uecies_nistp256@234@@boost@@QEAA@AEBV01@@Z
	??0?$variant@V?$array@E$0M@@std@@$$V@boost@@QEAA@$$QEAV01@@Z
	??0?$variant@V?$array@E$0M@@std@@$$V@boost@@QEAA@AEBV01@@Z
	??0?$variant@VChunkPacket@vanetza@@VCohesivePacket@2@@boost@@QEAA@$$QEAV01@@Z
	??0?$variant@VChunkPacket@vanetza@@VCohesivePacket@2@@boost@@QEAA@AEBV01@@Z
	??0?$variant@_KUTime64WithStandardDeviation@v2@security@vanetza@@IUThreeDLocation@234@V?$list@V?$array@E$02@std@@V?$allocator@V?$array@E$02@std@@@2@@std@@VIntX@234@V?$variant@$$TV?$array@E$07@std@@V?$recursive_wrapper@UCertificate@v2@security@vanetza@@@boost@@V?$list@UCertificate@v2@security@vanetza@@V?$allocator@UCertificate@v2@security@vanetza@@@std@@@2@UCertificateDigestWithOtherAlgorithm@v2@security@vanetza@@@boost@@V?$variant@V?$array@E$0M@@std@@$$V@boost@@V?$list@URecipientInfo@v2@security@vanetza@@V?$allocator@URecipientInfo@v2@security@vanetza@@@std@@@7@@boost@@QEAA@$$QEAV01@@Z
	??0?$variant@_KUTime64WithStandardDeviation@v2@security@vanetza@@IUThreeDLocation@234@V?$list@V?$array@E$02@std@@V?$allocator@V?$array@E$02@std@@@2@@std@@VIntX@234@V?$variant@$$TV?$array@E$07@std@@V?$recursive_wrapper@UCertificate@v2@security@vanetza@@@boost@@V?$list@UCertificate@v2@security@vanetza@@V?$allocator@UCertificate@v2@security@vanetza@@@std@@@2@UCertificateDigestWithOtherAlgorithm@v2@security@vanetza@@@boost@@V?$variant@V?$array@E$0M@@std@@$$V@boost@@V?$list@URecipientInfo@v2@security@vanetza@@V?$allocator@URecipientInfo@v2@security@vanetza@@@std@@@7@@boost@@QEAA@AEBV01@@Z
	??0?$vector@EV?$allocator@E@std@@@std@@QEAA@AEBV01@@Z
	??0?$wrapexcept@Vbad_format_string@io@boost@@@boost@@QEAA@AEBU01@@Z
	??0?$wrapexcept@Vbad_format_string@io@boost@@@boost@@QEAA@AEBVbad_format_string@io@1@@Z
	??0?$wrapexcept@Vbad_get@boost@@@boost@@QEAA@AEBU01@@Z
	??0?$wrapexcept@Vbad_get@boost@@@boost@@QEAA@AEBVbad_get@1@@Z
	??0?$wrapexcept@Vbad_optional_access@boost@@@boost@@QEAA@AEBU01@@Z
	??0?$wrapexcept@Vbad_optional_access@boost@@@boost@@QEAA@AEBVbad_optional_access@1@@Z
	??0?$wrapexcept@Vfailure@ios_base@std@@@boost@@QEAA@AEBU01@@Z
	??0?$wrapexcept@Vfailure@ios_base@std@@@boost@@QEAA@AEBVfailure@ios_base@std@@@Z
	??0?$wrapexcept@Vtoo_few_args@io@boost@@@boost@@QEAA@AEBU01@@Z
	??0?$wrapexcept@Vtoo_few_args@io@boost@@@boost@@QEAA@AEBVtoo_few_args@io@1@@Z
	??0?$wrapexcept@Vtoo_many_args@io@boost@@@boost@@QEAA@AEBU01@@Z
	??0?$wrapexcept@Vtoo_many_args@io@boost@@@boost@@QEAA@AEBVtoo_many_args@io@1@@Z
	??0AlgorithmParametersBase@CryptoPP@@QEAA@AEBV01@@Z
	??0BackendCryptoPP@security@vanetza@@QEAA@XZ
	??0BaseN_Decoder@CryptoPP@@QEAA@PEBHHPEAVBufferedTransformation@1@@Z
	??0CamPermissions@security@vanetza@@QEAA@AEBV?$initializer_list@W4CamPermission@security@vanetza@@@std@@@Z
	??0CamPermissions@security@vanetza@@QEAA@W4CamPermission@12@@Z
	??0CamPermissions@security@vanetza@@QEAA@XZ
	??0CannotFlush@CryptoPP@@QEAA@AEBV01@@Z
	??0CannotFlush@CryptoPP@@QEAA@AEBV?$basic_string@DU?$char_traits@D@std@@V?$allocator@D@2@@std@@@Z
	??0Certificate@v2@security@vanetza@@QEAA@$$QEAU0123@@Z
	??0Certificate@v2@security@vanetza@@QEAA@AEBU0123@@Z
	??0Certificate@v2@security@vanetza@@QEAA@XZ
	??0Certificate@v3@security@vanetza@@QEAA@$$QEAU0123@@Z
	??0Certificate@v3@security@vanetza@@QEAA@AEBU0123@@Z
	??0Certificate@v3@security@vanetza@@QEAA@AEBUVanetza_Security_CertificateBase@@@Z
	??0Certificate@v3@security@vanetza@@QEAA@XZ
	??0CertificateCache@v2@security@vanetza@@QEAA@AEBVRuntime@3@@Z
	??0CertificateCache@v3@security@vanetza@@QEAA@XZ
	??0CertificateView@v3@security@vanetza@@QEAA@PEBUVanetza_Security_CertificateBase@@@Z
	??0CohesivePacket@vanetza@@QEAA@$$QEAV01@@Z
	??0DL_BadElement@CryptoPP@@QEAA@AEBV01@@Z
	??0DL_BadElement@CryptoPP@@QEAA@XZ
	??0DefaultCertificateValidator@v2@security@vanetza@@QEAA@AEAVBackend@23@AEAVCertificateCache@123@AEBVTrustStore@123@@Z
	??0DefaultSignHeaderPolicy@v2@security@vanetza@@QEAA@AEBVRuntime@3@AEAVPositionProvider@3@@Z
	??0DefaultSignHeaderPolicy@v3@security@vanetza@@QEAA@AEBVRuntime@3@AEAVPositionProvider@3@AEAVCertificateProvider@123@@Z
	??0DeferredSignService@v2@security@vanetza@@QEAA@AEAVCertificateProvider@123@AEAVBackend@23@AEAVSignHeaderPolicy@123@@Z
	??0DelegatingSecurityEntity@security@vanetza@@QEAA@V?$unique_ptr@VSignService@security@vanetza@@U?$default_delete@VSignService@security@vanetza@@@std@@@std@@V?$unique_ptr@VVerifyService@security@vanetza@@U?$default_delete@VVerifyService@security@vanetza@@@std@@@4@@Z
	??0DummySignService@v2@security@vanetza@@QEAA@AEBVRuntime@3@AEBV?$variant@$$TV?$array@E$07@std@@V?$recursive_wrapper@UCertificate@v2@security@vanetza@@@boost@@V?$list@UCertificate@v2@security@vanetza@@V?$allocator@UCertificate@v2@security@vanetza@@@std@@@2@UCertificateDigestWithOtherAlgorithm@v2@security@vanetza@@@boost@@@Z
	??0DummySignService@v3@security@vanetza@@QEAA@AEBVRuntime@3@@Z
	??0DummyVerifyService@security@vanetza@@QEAA@W4VerificationReport@12@VCertificateValidity@12@@Z
	??0Duration@v2@security@vanetza@@QEAA@G@Z
	??0Duration@v2@security@vanetza@@QEAA@V?$BitNumber@G$0N@@3@W4Units@0123@@Z
	??0Duration@v2@security@vanetza@@QEAA@XZ
	??0ECP@CryptoPP@@QEAA@AEBV01@@Z
	??0EcdsaSignatureFuture@security@vanetza@@QEAA@$$QEAV012@@Z
	??0EcdsaSignatureFuture@security@vanetza@@QEAA@AEBV012@@Z
	??0EcdsaSignatureFuture@security@vanetza@@QEAA@V?$shared_future@UEcdsaSignature@security@vanetza@@@std@@UEcdsaSignature@12@@Z
	??0Exception@CryptoPP@@QEAA@AEBV01@@Z
	??0Expiry@CertificateCache@v2@security@vanetza@@QEAA@V?$time_point@VClock@vanetza@@V?$duration@_JU?$ratio@$00$0PECEA@@std@@@chrono@std@@@chrono@std@@V?$_Tree_iterator@V?$_Tree_val@U?$_Tree_simple_types@U?$pair@$$CBV?$array@E$07@std@@UCachedCertificate@CertificateCache@v2@security@vanetza@@@std@@@std@@@std@@@7@@Z
	??0FileSource@CryptoPP@@QEAA@PEBD_NPEAVBufferedTransformation@1@1@Z
	??0InputRejected@?$InputRejecting@VBufferedTransformation@CryptoPP@@@CryptoPP@@QEAA@AEBU012@@Z
	??0InputRejected@?$InputRejecting@VBufferedTransformation@CryptoPP@@@CryptoPP@@QEAA@XZ
	??0InputRejected@?$InputRejecting@VFilter@CryptoPP@@@CryptoPP@@QEAA@AEBU012@@Z
	??0InputRejected@?$InputRejecting@VFilter@CryptoPP@@@CryptoPP@@QEAA@XZ
	??0InvalidArgument@CryptoPP@@QEAA@AEBV01@@Z
	??0InvalidArgument@CryptoPP@@QEAA@AEBV?$basic_string@DU?$char_traits@D@std@@V?$allocator@D@2@@std@@@Z
	??0InvalidDataFormat@CryptoPP@@QEAA@AEBV01@@Z
	??0InvalidDataFormat@CryptoPP@@QEAA@AEBV?$basic_string@DU?$char_traits@D@std@@V?$allocator@D@2@@std@@@Z
	??0InvalidMaterial@CryptoMaterial@CryptoPP@@QEAA@AEBV012@@Z
	??0InvalidMaterial@CryptoMaterial@CryptoPP@@QEAA@AEBV?$basic_string@DU?$char_traits@D@std@@V?$allocator@D@2@@std@@@Z
	??0NaiveCertificateProvider@v2@security@vanetza@@QEAA@AEBVRuntime@3@@Z
	??0NaiveCertificateProvider@v3@security@vanetza@@QEAA@AEBVRuntime@3@@Z
	??0NotImplemented@CryptoPP@@QEAA@AEBV01@@Z
	??0NotImplemented@CryptoPP@@QEAA@AEBV?$basic_string@DU?$char_traits@D@std@@V?$allocator@D@2@@std@@@Z
	??0NullCertificateProvider@v2@security@vanetza@@QEAA@XZ
	??0NullCertificateValidator@v2@security@vanetza@@QEAA@XZ
	??0OID@CryptoPP@@QEAA@AEBV01@@Z
	??0PK_MessageAccumulatorBase@CryptoPP@@QEAA@XZ
	??0ParameterNotUsed@AlgorithmParametersBase@CryptoPP@@QEAA@AEBV012@@Z
	??0ParameterNotUsed@AlgorithmParametersBase@CryptoPP@@QEAA@PEBD@Z
	??0PeerRequestTracker@security@vanetza@@QEAA@_K@Z
	??0SHA256@CryptoPP@@QEAA@XZ
	??0SHA384@CryptoPP@@QEAA@XZ
	??0SecuredMessage@v2@security@vanetza@@QEAA@$$QEAU0123@@Z
	??0SecuredMessage@v2@security@vanetza@@QEAA@AEBU0123@@Z
	??0SecuredMessage@v3@security@vanetza@@QEAA@$$QEAU0123@@Z
	??0SecuredMessage@v3@security@vanetza@@QEAA@XZ
	??0SecuredMessageView@security@vanetza@@QEAA@AEBV?$variant@USecuredMessage@v2@security@vanetza@@U1v3@34@@boost@@@Z
	??0StartAndDurationValidity@v2@security@vanetza@@QEAA@IVDuration@123@@Z
	??0StartAndEndValidity@v2@security@vanetza@@QEAA@II@Z
	??0StaticCertificateProvider@v2@security@vanetza@@QEAA@AEBUCertificate@123@AEBUPrivateKey@ecdsa256@23@@Z
	??0StaticCertificateProvider@v2@security@vanetza@@QEAA@AEBUCertificate@123@AEBUPrivateKey@ecdsa256@23@AEBV?$list@UCertificate@v2@security@vanetza@@V?$allocator@UCertificate@v2@security@vanetza@@@std@@@std@@@Z
	??0StaticCertificateProvider@v3@security@vanetza@@QEAA@AEBUCertificate@123@AEBUPrivateKey@23@@Z
	??0StraightSignService@v2@security@vanetza@@QEAA@AEAVCertificateProvider@123@AEAVBackend@23@AEAVSignHeaderPolicy@123@@Z
	??0StraightSignService@v3@security@vanetza@@QEAA@AEAVCertificateProvider@123@AEAVBackend@23@AEAVSignHeaderPolicy@123@AEAVCertificateValidator@123@@Z
	??0StraightVerifyService@security@vanetza@@QEAA@AEBVRuntime@2@AEAVBackend@12@AEAVPositionProvider@2@@Z
	??0ValueTypeMismatch@NameValuePairs@CryptoPP@@QEAA@AEBV012@@Z
	??0ValueTypeMismatch@NameValuePairs@CryptoPP@@QEAA@AEBV?$basic_string@DU?$char_traits@D@std@@V?$allocator@D@2@@std@@AEBVtype_info@@1@Z
	??0VerifyConfirm@security@vanetza@@QEAA@$$QEAU012@@Z
	??0_System_error@std@@IEAA@Verror_code@1@AEBV?$basic_string@DU?$char_traits@D@std@@V?$allocator@D@2@@1@@Z
	??0_System_error@std@@QEAA@AEBV01@@Z
	??0_TaskCreationCallstack@details@Concurrency@@QEAA@AEBV012@@Z
	??0_Task_impl_base@details@Concurrency@@QEAA@PEAV_CancellationTokenState@12@Uscheduler_ptr@2@@Z
	??0bad_alloc@std@@QEAA@AEBV01@@Z
	??0bad_array_new_length@std@@QEAA@AEBV01@@Z
	??0bad_array_new_length@std@@QEAA@XZ
	??0bad_cast@std@@QEAA@AEBV01@@Z
	??0bad_cast@std@@QEAA@XZ
	??0bad_format_string@io@boost@@QEAA@AEBV012@@Z
	??0bad_format_string@io@boost@@QEAA@_K0@Z
	??0bad_get@boost@@QEAA@AEBV01@@Z
	??0bad_get@boost@@QEAA@XZ
	??0bad_optional_access@boost@@QEAA@AEBV01@@Z
	??0clone_base@exception_detail@boost@@QEAA@AEBV012@@Z
	??0deserialization_error@security@vanetza@@QEAA@AEBV012@@Z
	??0deserialization_error@security@vanetza@@QEAA@PEBD@Z
	??0exception@boost@@QEAA@AEBV01@@Z
	??0exception@std@@QEAA@AEBV01@@Z
	??0exception_ptr@std@@QEAA@AEBV01@@Z
	??0failure@ios_base@std@@QEAA@AEBV012@@Z
	??0format_error@io@boost@@QEAA@AEBV012@@Z
	??0future_error@std@@QEAA@AEBV01@@Z
	??0future_error@std@@QEAA@W4future_errc@1@@Z
	??0invalid_argument@std@@QEAA@AEBV01@@Z
	??0invalid_argument@std@@QEAA@PEBD@Z
	??0invalid_operation@Concurrency@@QEAA@AEBV01@@Z
	??0invalid_operation@Concurrency@@QEAA@PEBD@Z
	??0logic_error@std@@QEAA@AEBV01@@Z
	??0runtime_error@std@@QEAA@AEBV01@@Z
	??0runtime_error@std@@QEAA@PEBD@Z
	??0serialization_error@security@vanetza@@QEAA@AEBV012@@Z
	??0serialization_error@security@vanetza@@QEAA@PEBD@Z
	??0sink_tag@iostreams@boost@@QEAA@XZ
	??0system_error@std@@QEAA@AEBV01@@Z
	??0system_error@std@@QEAA@Verror_code@1@@Z
	??0too_few_args@io@boost@@QEAA@AEBV012@@Z
	??0too_few_args@io@boost@@QEAA@_K0@Z
	??0too_many_args@io@boost@@QEAA@AEBV012@@Z
	??0too_many_args@io@boost@@QEAA@_K0@Z
	??1<lambda_052e919cc0e5399df76dff3972c0cac1>@@QEAA@XZ
	??1<lambda_be3e5d9dce35d2c8dbfa8485373731d5>@@QEAA@XZ
	??1<lambda_f25c37099038263181b5186a3fa41b37>@@QEAA@XZ
	??1?$AbstractGroup@UECPPoint@CryptoPP@@@CryptoPP@@UEAA@XZ
	??1?$ClonableImpl@VSHA256@CryptoPP@@V?$AlgorithmImpl@V?$IteratedHash@IU?$EnumToType@W4ByteOrder@CryptoPP@@$00@CryptoPP@@$0EA@VHashTransformation@2@@CryptoPP@@VSHA256@2@@2@@CryptoPP@@UEAA@XZ
	??1?$ClonableImpl@VSHA384@CryptoPP@@V?$AlgorithmImpl@V?$IteratedHash@_KU?$EnumToType@W4ByteOrder@CryptoPP@@$00@CryptoPP@@$0IA@VHashTransformation@2@@CryptoPP@@VSHA384@2@@2@@CryptoPP@@UEAA@XZ
	??1?$DL_Algorithm_GDSA@UECPPoint@CryptoPP@@@CryptoPP@@UEAA@XZ
	??1?$DL_Base@V?$DL_PrivateKey@UECPPoint@CryptoPP@@@CryptoPP@@@CryptoPP@@MEAA@XZ
	??1?$DL_Base@V?$DL_PublicKey@UECPPoint@CryptoPP@@@CryptoPP@@@CryptoPP@@MEAA@XZ
	??1?$DL_ElgamalLikeSignatureAlgorithm@UECPPoint@CryptoPP@@@CryptoPP@@UEAA@XZ
	??1?$DL_FixedBasePrecomputation@UECPPoint@CryptoPP@@@CryptoPP@@UEAA@XZ
	??1?$DL_FixedBasePrecomputationImpl@UECPPoint@CryptoPP@@@CryptoPP@@UEAA@XZ
	??1?$DL_GroupParameters@UECPPoint@CryptoPP@@@CryptoPP@@UEAA@XZ
	??1?$DL_GroupParametersImpl@V?$EcPrecomputation@VECP@CryptoPP@@@CryptoPP@@V?$DL_FixedBasePrecomputationImpl@UECPPoint@CryptoPP@@@2@V?$DL_GroupParameters@UECPPoint@CryptoPP@@@2@@CryptoPP@@UEAA@XZ
	??1?$DL_GroupParameters_EC@VECP@CryptoPP@@@CryptoPP@@UEAA@XZ
	??1?$DL_GroupPrecomputation@UECPPoint@CryptoPP@@@CryptoPP@@UEAA@XZ
	??1?$DL_Key@UECPPoint@CryptoPP@@@CryptoPP@@UEAA@XZ
	??1?$DL_KeyImpl@VPKCS8PrivateKey@CryptoPP@@V?$DL_GroupParameters_EC@VECP@CryptoPP@@@2@VOID@2@@CryptoPP@@UEAA@XZ
	??1?$DL_KeyImpl@VX509PublicKey@CryptoPP@@V?$DL_GroupParameters_EC@VECP@CryptoPP@@@2@VOID@2@@CryptoPP@@UEAA@XZ
	??1?$DL_ObjectImpl@V?$DL_SignerBase@UECPPoint@CryptoPP@@@CryptoPP@@U?$DL_SignatureSchemeOptions@V?$DL_SS@U?$DL_Keys_ECDSA@VECP@CryptoPP@@@CryptoPP@@V?$DL_Algorithm_ECDSA@VECP@CryptoPP@@@2@VDL_SignatureMessageEncodingMethod_DSA@2@VSHA256@2@H@CryptoPP@@U?$DL_Keys_ECDSA@VECP@CryptoPP@@@2@V?$DL_Algorithm_ECDSA@VECP@CryptoPP@@@2@VDL_SignatureMessageEncodingMethod_DSA@2@VSHA256@2@@2@V?$DL_PrivateKey_WithSignaturePairwiseConsistencyTest@V?$DL_PrivateKey_EC@VECP@CryptoPP@@@CryptoPP@@U?$ECDSA@VECP@CryptoPP@@VSHA256@2@@2@@2@@CryptoPP@@UEAA@XZ
	??1?$DL_ObjectImpl@V?$DL_VerifierBase@UECPPoint@CryptoPP@@@CryptoPP@@U?$DL_SignatureSchemeOptions@V?$DL_SS@U?$DL_Keys_ECDSA@VECP@CryptoPP@@@CryptoPP@@V?$DL_Algorithm_ECDSA@VECP@CryptoPP@@@2@VDL_SignatureMessageEncodingMethod_DSA@2@VSHA256@2@H@CryptoPP@@U?$DL_Keys_ECDSA@VECP@CryptoPP@@@2@V?$DL_Algorithm_ECDSA@VECP@CryptoPP@@@2@VDL_SignatureMessageEncodingMethod_DSA@2@VSHA256@2@@2@V?$DL_PublicKey_EC@VECP@CryptoPP@@@2@@CryptoPP@@UEAA@XZ
	??1?$DL_ObjectImpl@V?$DL_VerifierBase@UECPPoint@CryptoPP@@@CryptoPP@@U?$DL_SignatureSchemeOptions@V?$DL_SS@U?$DL_Keys_ECDSA@VECP@CryptoPP@@@CryptoPP@@V?$DL_Algorithm_ECDSA@VECP@CryptoPP@@@2@VDL_SignatureMessageEncodingMethod_DSA@2@VSHA384@2@H@CryptoPP@@U?$DL_Keys_ECDSA@VECP@CryptoPP@@@2@V?$DL_Algorithm_ECDSA@VECP@CryptoPP@@@2@VDL_SignatureMessageEncodingMethod_DSA@2@VSHA384@2@@2@V?$DL_PublicKey_EC@VECP@CryptoPP@@@2@@CryptoPP@@UEAA@XZ
	??1?$DL_ObjectImplBase@V?$DL_SignerBase@UECPPoint@CryptoPP@@@CryptoPP@@U?$DL_SignatureSchemeOptions@V?$DL_SS@U?$DL_Keys_ECDSA@VECP@CryptoPP@@@CryptoPP@@V?$DL_Algorithm_ECDSA@VECP@CryptoPP@@@2@VDL_SignatureMessageEncodingMethod_DSA@2@VSHA256@2@H@CryptoPP@@U?$DL_Keys_ECDSA@VECP@CryptoPP@@@2@V?$DL_Algorithm_ECDSA@VECP@CryptoPP@@@2@VDL_SignatureMessageEncodingMethod_DSA@2@VSHA256@2@@2@V?$DL_PrivateKey_WithSignaturePairwiseConsistencyTest@V?$DL_PrivateKey_EC@VECP@CryptoPP@@@CryptoPP@@U?$ECDSA@VECP@CryptoPP@@VSHA256@2@@2@@2@@CryptoPP@@UEAA@XZ
	??1?$DL_ObjectImplBase@V?$DL_VerifierBase@UECPPoint@CryptoPP@@@CryptoPP@@U?$DL_SignatureSchemeOptions@V?$DL_SS@U?$DL_Keys_ECDSA@VECP@CryptoPP@@@CryptoPP@@V?$DL_Algorithm_ECDSA@VECP@CryptoPP@@@2@VDL_SignatureMessageEncodingMethod_DSA@2@VSHA256@2@H@CryptoPP@@U?$DL_Keys_ECDSA@VECP@CryptoPP@@@2@V?$DL_Algorithm_ECDSA@VECP@CryptoPP@@@2@VDL_SignatureMessageEncodingMethod_DSA@2@VSHA256@2@@2@V?$DL_PublicKey_EC@VECP@CryptoPP@@@2@@CryptoPP@@UEAA@XZ
	??1?$DL_ObjectImplBase@V?$DL_VerifierBase@UECPPoint@CryptoPP@@@CryptoPP@@U?$DL_SignatureSchemeOptions@V?$DL_SS@U?$DL_Keys_ECDSA@VECP@CryptoPP@@@CryptoPP@@V?$DL_Algorithm_ECDSA@VECP@CryptoPP@@@2@VDL_SignatureMessageEncodingMethod_DSA@2@VSHA384@2@H@CryptoPP@@U?$DL_Keys_ECDSA@VECP@CryptoPP@@@2@V?$DL_Algorithm_ECDSA@VECP@CryptoPP@@@2@VDL_SignatureMessageEncodingMethod_DSA@2@VSHA384@2@@2@V?$DL_PublicKey_EC@VECP@CryptoPP@@@2@@CryptoPP@@UEAA@XZ
	??1?$DL_PrivateKey@UECPPoint@CryptoPP@@@CryptoPP@@UEAA@XZ
	??1?$DL_PrivateKeyImpl@V?$DL_GroupParameters_EC@VECP@CryptoPP@@@CryptoPP@@@CryptoPP@@UEAA@XZ
	??1?$DL_PrivateKey_WithSignaturePairwiseConsistencyTest@V?$DL_PrivateKey_EC@VECP@CryptoPP@@@CryptoPP@@U?$ECDSA@VECP@CryptoPP@@VSHA256@2@@2@@CryptoPP@@UEAA@XZ
	??1?$DL_PublicKey@UECPPoint@CryptoPP@@@CryptoPP@@UEAA@XZ
	??1?$DL_PublicKey_EC@VECP@CryptoPP@@@CryptoPP@@UEAA@XZ
	??1?$DL_SignatureSchemeBase@VPK_Signer@CryptoPP@@V?$DL_PrivateKey@UECPPoint@CryptoPP@@@2@@CryptoPP@@UEAA@XZ
	??1?$DL_SignatureSchemeBase@VPK_Verifier@CryptoPP@@V?$DL_PublicKey@UECPPoint@CryptoPP@@@2@@CryptoPP@@UEAA@XZ
	??1?$DL_SignerBase@UECPPoint@CryptoPP@@@CryptoPP@@UEAA@XZ
	??1?$DL_SignerImpl@U?$DL_SignatureSchemeOptions@V?$DL_SS@U?$DL_Keys_ECDSA@VECP@CryptoPP@@@CryptoPP@@V?$DL_Algorithm_ECDSA@VECP@CryptoPP@@@2@VDL_SignatureMessageEncodingMethod_DSA@2@VSHA256@2@H@CryptoPP@@U?$DL_Keys_ECDSA@VECP@CryptoPP@@@2@V?$DL_Algorithm_ECDSA@VECP@CryptoPP@@@2@VDL_SignatureMessageEncodingMethod_DSA@2@VSHA256@2@@CryptoPP@@@CryptoPP@@UEAA@XZ
	??1?$DL_VerifierBase@UECPPoint@CryptoPP@@@CryptoPP@@UEAA@XZ
	??1?$DL_VerifierImpl@U?$DL_SignatureSchemeOptions@V?$DL_SS@U?$DL_Keys_ECDSA@VECP@CryptoPP@@@CryptoPP@@V?$DL_Algorithm_ECDSA@VECP@CryptoPP@@@2@VDL_SignatureMessageEncodingMethod_DSA@2@VSHA256@2@H@CryptoPP@@U?$DL_Keys_ECDSA@VECP@CryptoPP@@@2@V?$DL_Algorithm_ECDSA@VECP@CryptoPP@@@2@VDL_SignatureMessageEncodingMethod_DSA@2@VSHA256@2@@CryptoPP@@@CryptoPP@@UEAA@XZ
	??1?$DL_VerifierImpl@U?$DL_SignatureSchemeOptions@V?$DL_SS@U?$DL_Keys_ECDSA@VECP@CryptoPP@@@CryptoPP@@V?$DL_Algorithm_ECDSA@VECP@CryptoPP@@@2@VDL_SignatureMessageEncodingMethod_DSA@2@VSHA384@2@H@CryptoPP@@U?$DL_Keys_ECDSA@VECP@CryptoPP@@@2@V?$DL_Algorithm_ECDSA@VECP@CryptoPP@@@2@VDL_SignatureMessageEncodingMethod_DSA@2@VSHA384@2@@CryptoPP@@@CryptoPP@@UEAA@XZ
	??1?$EcPrecomputation@VECP@CryptoPP@@@CryptoPP@@UEAA@XZ
	??1?$EncodedPoint@UECPPoint@CryptoPP@@@CryptoPP@@UEAA@XZ
	??1?$FixedSizeAlignedSecBlock@I$0BA@$00@CryptoPP@@QEAA@XZ
	??1?$FixedSizeAlignedSecBlock@_K$0BA@$00@CryptoPP@@QEAA@XZ
	??1?$InputRejecting@VFilter@CryptoPP@@@CryptoPP@@UEAA@XZ
	??1?$IteratedHash@IU?$EnumToType@W4ByteOrder@CryptoPP@@$00@CryptoPP@@$0EA@VHashTransformation@2@@CryptoPP@@UEAA@XZ
	??1?$IteratedHash@_KU?$EnumToType@W4ByteOrder@CryptoPP@@$00@CryptoPP@@$0IA@VHashTransformation@2@@CryptoPP@@UEAA@XZ
	??1?$IteratedHashBase@IVHashTransformation@CryptoPP@@@CryptoPP@@UEAA@XZ
	??1?$IteratedHashBase@_KVHashTransformation@CryptoPP@@@CryptoPP@@UEAA@XZ
	??1?$IteratedHashWithStaticTransform@IU?$EnumToType@W4ByteOrder@CryptoPP@@$00@CryptoPP@@$0EA@$0CA@VSHA256@2@$0CA@$00@CryptoPP@@UEAA@XZ
	??1?$IteratedHashWithStaticTransform@_KU?$EnumToType@W4ByteOrder@CryptoPP@@$00@CryptoPP@@$0IA@$0EA@VSHA384@2@$0DA@$00@CryptoPP@@UEAA@XZ
	??1?$PK_FinalTemplate@V?$DL_SignerImpl@U?$DL_SignatureSchemeOptions@V?$DL_SS@U?$DL_Keys_ECDSA@VECP@CryptoPP@@@CryptoPP@@V?$DL_Algorithm_ECDSA@VECP@CryptoPP@@@2@VDL_SignatureMessageEncodingMethod_DSA@2@VSHA256@2@H@CryptoPP@@U?$DL_Keys_ECDSA@VECP@CryptoPP@@@2@V?$DL_Algorithm_ECDSA@VECP@CryptoPP@@@2@VDL_SignatureMessageEncodingMethod_DSA@2@VSHA256@2@@CryptoPP@@@CryptoPP@@@CryptoPP@@UEAA@XZ
	??1?$PK_FinalTemplate@V?$DL_VerifierImpl@U?$DL_SignatureSchemeOptions@V?$DL_SS@U?$DL_Keys_ECDSA@VECP@CryptoPP@@@CryptoPP@@V?$DL_Algorithm_ECDSA@VECP@CryptoPP@@@2@VDL_SignatureMessageEncodingMethod_DSA@2@VSHA256@2@H@CryptoPP@@U?$DL_Keys_ECDSA@VECP@CryptoPP@@@2@V?$DL_Algorithm_ECDSA@VECP@CryptoPP@@@2@VDL_SignatureMessageEncodingMethod_DSA@2@VSHA256@2@@CryptoPP@@@CryptoPP@@@CryptoPP@@UEAA@XZ
	??1?$SecBlock@EV?$AllocatorWithCleanup@E$0A@@CryptoPP@@@CryptoPP@@QEAA@XZ
	??1?$SourceTemplate@VFileStore@CryptoPP@@@CryptoPP@@UEAA@XZ
	??1?$Unflushable@VFilter@CryptoPP@@@CryptoPP@@UEAA@XZ
	??1?$_Alloc_construct_ptr@V?$allocator@U?$_List_node@EPEAX@std@@@std@@@std@@QEAA@XZ
	??1?$_Alloc_construct_ptr@V?$allocator@U?$_List_node@IPEAX@std@@@std@@@std@@QEAA@XZ
	??1?$_Alloc_construct_ptr@V?$allocator@U?$_List_node@U?$pair@$$CBV?$array@E$02@std@@V?$_List_iterator@V?$_List_val@U?$_List_simple_types@U?$pair@$$CBV?$array@E$07@std@@UCertificate@v3@security@vanetza@@@std@@@std@@@std@@@2@@std@@PEAX@std@@@std@@@std@@QEAA@XZ
	??1?$_Alloc_construct_ptr@V?$allocator@U?$_List_node@U?$pair@$$CBV?$array@E$02@std@@V?$_List_iterator@V?$_List_val@U?$_List_simple_types@V?$array@E$02@std@@@std@@@std@@@2@@std@@PEAX@std@@@std@@@std@@QEAA@XZ
	??1?$_Alloc_construct_ptr@V?$allocator@U?$_List_node@U?$pair@$$CBV?$array@E$07@std@@UCertificate@v3@security@vanetza@@@std@@PEAX@std@@@std@@@std@@QEAA@XZ
	??1?$_Alloc_construct_ptr@V?$allocator@U?$_List_node@UCertificate@v2@security@vanetza@@PEAX@std@@@std@@@std@@QEAA@XZ
	??1?$_Alloc_construct_ptr@V?$allocator@U?$_List_node@UItsAidSsp@v2@security@vanetza@@PEAX@std@@@std@@@std@@QEAA@XZ
	??1?$_Alloc_construct_ptr@V?$allocator@U?$_List_node@URecipientInfo@v2@security@vanetza@@PEAX@std@@@std@@@std@@QEAA@XZ
	??1?$_Alloc_construct_ptr@V?$allocator@U?$_List_node@URectangularRegion@v2@security@vanetza@@PEAX@std@@@std@@@std@@QEAA@XZ
	??1?$_Alloc_construct_ptr@V?$allocator@U?$_List_node@UTwoDLocation@v2@security@vanetza@@PEAX@std@@@std@@@std@@QEAA@XZ
	??1?$_Alloc_construct_ptr@V?$allocator@U?$_List_node@V?$array@E$02@std@@PEAX@std@@@std@@@std@@QEAA@XZ
	??1?$_Alloc_construct_ptr@V?$allocator@U?$_List_node@V?$array@E$07@std@@PEAX@std@@@std@@@std@@QEAA@XZ
	??1?$_Alloc_construct_ptr@V?$allocator@U?$_List_node@V?$variant@IUStartAndEndValidity@v2@security@vanetza@@UStartAndDurationValidity@234@V?$variant@UNoneRegion@v2@security@vanetza@@UCircularRegion@234@V?$list@URectangularRegion@v2@security@vanetza@@V?$allocator@URectangularRegion@v2@security@vanetza@@@std@@@std@@V?$list@UTwoDLocation@v2@security@vanetza@@V?$allocator@UTwoDLocation@v2@security@vanetza@@@std@@@7@UIdentifiedRegion@234@@boost@@@boost@@PEAX@std@@@std@@@std@@QEAA@XZ
	??1?$_Alloc_construct_ptr@V?$allocator@U?$_List_node@V?$variant@USignature@v2@security@vanetza@@$$V@boost@@PEAX@std@@@std@@@std@@QEAA@XZ
	??1?$_Alloc_construct_ptr@V?$allocator@U?$_List_node@V?$variant@UVerificationKey@v2@security@vanetza@@UEncryptionKey@234@USubjectAssurance@234@V?$variant@UX_Coordinate_Only@security@vanetza@@UCompressed_Lsb_Y_0@23@UCompressed_Lsb_Y_1@23@UUncompressed@23@@boost@@V?$list@VIntX@v2@security@vanetza@@V?$allocator@VIntX@v2@security@vanetza@@@std@@@std@@V?$list@UItsAidSsp@v2@security@vanetza@@V?$allocator@UItsAidSsp@v2@security@vanetza@@@std@@@std@@@boost@@PEAX@std@@@std@@@std@@QEAA@XZ
	??1?$_Alloc_construct_ptr@V?$allocator@U?$_List_node@V?$variant@_KUTime64WithStandardDeviation@v2@security@vanetza@@IUThreeDLocation@234@V?$list@V?$array@E$02@std@@V?$allocator@V?$array@E$02@std@@@2@@std@@VIntX@234@V?$variant@$$TV?$array@E$07@std@@V?$recursive_wrapper@UCertificate@v2@security@vanetza@@@boost@@V?$list@UCertificate@v2@security@vanetza@@V?$allocator@UCertificate@v2@security@vanetza@@@std@@@2@UCertificateDigestWithOtherAlgorithm@v2@security@vanetza@@@boost@@V?$variant@V?$array@E$0M@@std@@$$V@boost@@V?$list@URecipientInfo@v2@security@vanetza@@V?$allocator@URecipientInfo@v2@security@vanetza@@@std@@@7@@boost@@PEAX@std@@@std@@@std@@QEAA@XZ
	??1?$_Alloc_construct_ptr@V?$allocator@U?$_List_node@VIntX@v2@security@vanetza@@PEAX@std@@@std@@@std@@QEAA@XZ
	??1?$_Alloc_construct_ptr@V?$allocator@U?$_Tree_node@U?$pair@$$CBV?$array@E$07@std@@UCachedCertificate@CertificateCache@v2@security@vanetza@@@std@@PEAX@std@@@std@@@std@@QEAA@XZ
	??1?$_Alloc_construct_ptr@V?$allocator@U?$_Tree_node@U?$pair@$$CBV?$array@E$07@std@@UCertificate@v2@security@vanetza@@@std@@PEAX@std@@@std@@@std@@QEAA@XZ
	??1?$_Alloc_construct_ptr@V?$allocator@U?$_Tree_node@U?$pair@$$CBV?$basic_string@DU?$char_traits@D@std@@V?$allocator@D@2@@std@@V?$function@$$A6A?AV?$unique_ptr@VBackend@security@vanetza@@U?$default_delete@VBackend@security@vanetza@@@std@@@std@@XZ@2@@std@@PEAX@std@@@std@@@std@@QEAA@XZ
	??1?$_Alloc_construct_ptr@V?$allocator@U?$_Tree_node@V?$array@E$02@std@@PEAX@std@@@std@@@std@@QEAA@XZ
	??1?$_Alloc_construct_ptr@V?$allocator@U?$_Tree_node@W4CamPermission@security@vanetza@@PEAX@std@@@std@@@std@@QEAA@XZ
	??1?$_Associated_state@UEcdsaSignature@security@vanetza@@@std@@UEAA@XZ
	??1?$_Func_class@E$$V@std@@QEAA@XZ
	??1?$_Func_class@UEcdsaSignature@security@vanetza@@$$V@std@@QEAA@XZ
	??1?$_Func_class@X$$V@std@@QEAA@XZ
	??1?$_Hash@V?$_Umap_traits@V?$array@E$02@std@@V?$_List_iterator@V?$_List_val@U?$_List_simple_types@U?$pair@$$CBV?$array@E$07@std@@UCertificate@v3@security@vanetza@@@std@@@std@@@std@@@2@V?$_Uhash_compare@V?$array@E$02@std@@U?$hash@V?$array@E$02@std@@@2@U?$equal_to@V?$array@E$02@std@@@2@@2@V?$allocator@U?$pair@$$CBV?$array@E$02@std@@V?$_List_iterator@V?$_List_val@U?$_List_simple_types@U?$pair@$$CBV?$array@E$07@std@@UCertificate@v3@security@vanetza@@@std@@@std@@@std@@@2@@std@@@2@$0A@@std@@@std@@QEAA@XZ
	??1?$_Hash@V?$_Umap_traits@V?$array@E$07@std@@UCertificate@v3@security@vanetza@@V?$_Uhash_compare@V?$array@E$07@std@@U?$hash@V?$array@E$07@std@@@2@U?$equal_to@V?$array@E$07@std@@@2@@2@V?$allocator@U?$pair@$$CBV?$array@E$07@std@@UCertificate@v3@security@vanetza@@@std@@@2@$0A@@std@@@std@@QEAA@XZ
	??1?$_Hash@V?$_Uset_traits@V?$array@E$07@std@@V?$_Uhash_compare@V?$array@E$07@std@@U?$hash@V?$array@E$07@std@@@2@U?$equal_to@V?$array@E$07@std@@@2@@2@V?$allocator@V?$array@E$07@std@@@2@$0A@@std@@@std@@QEAA@XZ
	??1?$_Hash_vec@V?$allocator@V?$_List_unchecked_const_iterator@V?$_List_val@U?$_List_simple_types@V?$array@E$07@std@@@std@@@std@@U_Iterator_base0@2@@std@@@std@@@std@@QEAA@XZ
	??1?$_Hash_vec@V?$allocator@V?$_List_unchecked_iterator@V?$_List_val@U?$_List_simple_types@U?$pair@$$CBV?$array@E$02@std@@V?$_List_iterator@V?$_List_val@U?$_List_simple_types@U?$pair@$$CBV?$array@E$07@std@@UCertificate@v3@security@vanetza@@@std@@@std@@@std@@@2@@std@@@std@@@std@@@std@@@std@@@std@@QEAA@XZ
	??1?$_Hash_vec@V?$allocator@V?$_List_unchecked_iterator@V?$_List_val@U?$_List_simple_types@U?$pair@$$CBV?$array@E$02@std@@V?$_List_iterator@V?$_List_val@U?$_List_simple_types@V?$array@E$02@std@@@std@@@std@@@2@@std@@@std@@@std@@@std@@@std@@@std@@QEAA@XZ
	??1?$_Hash_vec@V?$allocator@V?$_List_unchecked_iterator@V?$_List_val@U?$_List_simple_types@U?$pair@$$CBV?$array@E$07@std@@UCertificate@v3@security@vanetza@@@std@@@std@@@std@@@std@@@std@@@std@@QEAA@XZ
	??1?$_List_node_emplace_op2@V?$allocator@U?$_List_node@U?$pair@$$CBV?$array@E$02@std@@V?$_List_iterator@V?$_List_val@U?$_List_simple_types@U?$pair@$$CBV?$array@E$07@std@@UCertificate@v3@security@vanetza@@@std@@@std@@@std@@@2@@std@@PEAX@std@@@std@@@std@@QEAA@XZ
	??1?$_List_node_emplace_op2@V?$allocator@U?$_List_node@U?$pair@$$CBV?$array@E$02@std@@V?$_List_iterator@V?$_List_val@U?$_List_simple_types@V?$array@E$02@std@@@std@@@std@@@2@@std@@PEAX@std@@@std@@@std@@QEAA@XZ
	??1?$_List_node_emplace_op2@V?$allocator@U?$_List_node@U?$pair@$$CBV?$array@E$07@std@@UCertificate@v3@security@vanetza@@@std@@PEAX@std@@@std@@@std@@QEAA@XZ
	??1?$_List_node_emplace_op2@V?$allocator@U?$_List_node@V?$array@E$07@std@@PEAX@std@@@std@@@std@@QEAA@XZ
	??1?$_List_node_insert_op2@V?$allocator@U?$_List_node@EPEAX@std@@@std@@@std@@QEAA@XZ
	??1?$_List_node_insert_op2@V?$allocator@U?$_List_node@UCertificate@v2@security@vanetza@@PEAX@std@@@std@@@std@@QEAA@XZ
	??1?$_List_node_insert_op2@V?$allocator@U?$_List_node@UItsAidSsp@v2@security@vanetza@@PEAX@std@@@std@@@std@@QEAA@XZ
	??1?$_List_node_insert_op2@V?$allocator@U?$_List_node@URecipientInfo@v2@security@vanetza@@PEAX@std@@@std@@@std@@QEAA@XZ
	??1?$_List_node_insert_op2@V?$allocator@U?$_List_node@URectangularRegion@v2@security@vanetza@@PEAX@std@@@std@@@std@@QEAA@XZ
	??1?$_List_node_insert_op2@V?$allocator@U?$_List_node@UTwoDLocation@v2@security@vanetza@@PEAX@std@@@std@@@std@@QEAA@XZ
	??1?$_List_node_insert_op2@V?$allocator@U?$_List_node@V?$array@E$02@std@@PEAX@std@@@std@@@std@@QEAA@XZ
	??1?$_List_node_insert_op2@V?$allocator@U?$_List_node@V?$variant@IUStartAndEndValidity@v2@security@vanetza@@UStartAndDurationValidity@234@V?$variant@UNoneRegion@v2@security@vanetza@@UCircularRegion@234@V?$list@URectangularRegion@v2@security@vanetza@@V?$allocator@URectangularRegion@v2@security@vanetza@@@std@@@std@@V?$list@UTwoDLocation@v2@security@vanetza@@V?$allocator@UTwoDLocation@v2@security@vanetza@@@std@@@7@UIdentifiedRegion@234@@boost@@@boost@@PEAX@std@@@std@@@std@@QEAA@XZ
	??1?$_List_node_insert_op2@V?$allocator@U?$_List_node@V?$variant@USignature@v2@security@vanetza@@$$V@boost@@PEAX@std@@@std@@@std@@QEAA@XZ
	??1?$_List_node_insert_op2@V?$allocator@U?$_List_node@V?$variant@UVerificationKey@v2@security@vanetza@@UEncryptionKey@234@USubjectAssurance@234@V?$variant@UX_Coordinate_Only@security@vanetza@@UCompressed_Lsb_Y_0@23@UCompressed_Lsb_Y_1@23@UUncompressed@23@@boost@@V?$list@VIntX@v2@security@vanetza@@V?$allocator@VIntX@v2@security@vanetza@@@std@@@std@@V?$list@UItsAidSsp@v2@security@vanetza@@V?$allocator@UItsAidSsp@v2@security@vanetza@@@std@@@std@@@boost@@PEAX@std@@@std@@@std@@QEAA@XZ
	??1?$_List_node_insert_op2@V?$allocator@U?$_List_node@V?$variant@_KUTime64WithStandardDeviation@v2@security@vanetza@@IUThreeDLocation@234@V?$list@V?$array@E$02@std@@V?$allocator@V?$array@E$02@std@@@2@@std@@VIntX@234@V?$variant@$$TV?$array@E$07@std@@V?$recursive_wrapper@UCertificate@v2@security@vanetza@@@boost@@V?$list@UCertificate@v2@security@vanetza@@V?$allocator@UCertificate@v2@security@vanetza@@@std@@@2@UCertificateDigestWithOtherAlgorithm@v2@security@vanetza@@@boost@@V?$variant@V?$array@E$0M@@std@@$$V@boost@@V?$list@URecipientInfo@v2@security@vanetza@@V?$allocator@URecipientInfo@v2@security@vanetza@@@std@@@7@@boost@@PEAX@std@@@std@@@std@@QEAA@XZ
	??1?$_List_node_insert_op2@V?$allocator@U?$_List_node@VIntX@v2@security@vanetza@@PEAX@std@@@std@@@std@@QEAA@XZ
	??1?$_Packaged_state@$$A6A?AUEcdsaSignature@security@vanetza@@XZ@std@@UEAA@XZ
	??1?$_Promise@UEcdsaSignature@security@vanetza@@@std@@QEAA@XZ
	??1?$_Ref_count_obj2@U?$_Task_impl@E@details@Concurrency@@@std@@UEAA@XZ
	??1?$_Ref_count_obj2@U_ExceptionHolder@details@Concurrency@@@std@@UEAA@XZ
	??1?$_Task_async_state@UEcdsaSignature@security@vanetza@@@std@@UEAA@XZ
	??1?$_Task_impl@E@details@Concurrency@@UEAA@XZ
	??1?$_Tidy_deallocate_guard@V?$basic_string@DU?$char_traits@D@std@@V?$allocator@D@2@@std@@@std@@QEAA@XZ
	??1?$_Tidy_guard@V?$vector@EV?$allocator@E@std@@@std@@@std@@QEAA@XZ
	??1?$_Tidy_guard@V?$vector@UECPPoint@CryptoPP@@V?$allocator@UECPPoint@CryptoPP@@@std@@@std@@@std@@QEAA@XZ
	??1?$_Tree_temp_node@V?$allocator@U?$_Tree_node@U?$pair@$$CBV?$array@E$07@std@@UCachedCertificate@CertificateCache@v2@security@vanetza@@@std@@PEAX@std@@@std@@@std@@QEAA@XZ
	??1?$_Tree_temp_node@V?$allocator@U?$_Tree_node@U?$pair@$$CBV?$array@E$07@std@@UCertificate@v2@security@vanetza@@@std@@PEAX@std@@@std@@@std@@QEAA@XZ
	??1?$_Tree_temp_node_alloc@V?$allocator@U?$_Tree_node@U?$pair@$$CBV?$array@E$07@std@@UCachedCertificate@CertificateCache@v2@security@vanetza@@@std@@PEAX@std@@@std@@@std@@QEAA@XZ
	??1?$_Tree_temp_node_alloc@V?$allocator@U?$_Tree_node@U?$pair@$$CBV?$array@E$07@std@@UCertificate@v2@security@vanetza@@@std@@PEAX@std@@@std@@@std@@QEAA@XZ
	??1?$_Tree_temp_node_alloc@V?$allocator@U?$_Tree_node@U?$pair@$$CBV?$basic_string@DU?$char_traits@D@std@@V?$allocator@D@2@@std@@V?$function@$$A6A?AV?$unique_ptr@VBackend@security@vanetza@@U?$default_delete@VBackend@security@vanetza@@@std@@@std@@XZ@2@@std@@PEAX@std@@@std@@@std@@QEAA@XZ
	??1?$_Uninitialized_backout_al@V?$allocator@U?$format_item@DU?$char_traits@D@std@@V?$allocator@D@2@@detail@io@boost@@@std@@@std@@QEAA@XZ
	??1?$_Uninitialized_backout_al@V?$allocator@UECPPoint@CryptoPP@@@std@@@std@@QEAA@XZ
	??1?$backup_holder@VChunkPacket@vanetza@@@variant@detail@boost@@QEAA@XZ
	??1?$base_from_member@V?$shared_ptr@V?$basic_altstringbuf@DU?$char_traits@D@std@@V?$allocator@D@2@@io@boost@@@boost@@$0A@@boost@@QEAA@XZ
	??1?$basic_altstringbuf@DU?$char_traits@D@std@@V?$allocator@D@2@@io@boost@@UEAA@XZ
	??1?$basic_filebuf@DU?$char_traits@D@std@@@std@@UEAA@XZ
	??1?$basic_format@DU?$char_traits@D@std@@V?$allocator@D@2@@boost@@QEAA@XZ
	??1?$basic_ifstream@DU?$char_traits@D@std@@@std@@UEAA@XZ
	??1?$basic_ofstream@DU?$char_traits@D@std@@@std@@UEAA@XZ
	??1?$basic_string@DU?$char_traits@D@std@@V?$allocator@D@2@@std@@QEAA@XZ
	??1?$basic_stringbuf@DU?$char_traits@D@std@@V?$allocator@D@2@@std@@UEAA@XZ
	??1?$basic_stringstream@DU?$char_traits@D@std@@V?$allocator@D@2@@std@@UEAA@XZ
	??1?$binomial_heap@UExpiry@CertificateCache@v2@security@vanetza@@U?$compare@U?$greater@UExpiry@CertificateCache@v2@security@vanetza@@@std@@@heap@boost@@Uvoid_@parameter@8@U9parameter@8@U9parameter@8@@heap@boost@@QEAA@XZ
	??1?$clonable_ptr@VModularArithmetic@CryptoPP@@@CryptoPP@@QEAA@XZ
	??1?$format_item@DU?$char_traits@D@std@@V?$allocator@D@2@@detail@io@boost@@QEAA@XZ
	??1?$function@$$A6A?AV?$unique_ptr@VBackend@security@vanetza@@U?$default_delete@VBackend@security@vanetza@@@std@@@std@@XZ@std@@QEAA@XZ
	??1?$function@$$A6AEXZ@std@@QEAA@XZ
	??1?$function@$$A6AXXZ@std@@QEAA@XZ
	??1?$future@UEcdsaSignature@security@vanetza@@@std@@QEAA@XZ
	??1?$indirect_streambuf@Vbyte_buffer_sink@vanetza@@U?$char_traits@D@std@@V?$allocator@D@4@Uoutput@iostreams@boost@@@detail@iostreams@boost@@UEAA@XZ
	??1?$list@EV?$allocator@E@std@@@std@@QEAA@XZ
	??1?$list@IV?$allocator@I@std@@@std@@QEAA@XZ
	??1?$list@U?$heap_node_base@$0A@@detail@heap@boost@@U?$constant_time_size@$00@intrusive@4@@intrusive@boost@@QEAA@XZ
	??1?$list@U?$pair@$$CBV?$array@E$02@std@@V?$_List_iterator@V?$_List_val@U?$_List_simple_types@U?$pair@$$CBV?$array@E$07@std@@UCertificate@v3@security@vanetza@@@std@@@std@@@std@@@2@@std@@V?$allocator@U?$pair@$$CBV?$array@E$02@std@@V?$_List_iterator@V?$_List_val@U?$_List_simple_types@U?$pair@$$CBV?$array@E$07@std@@UCertificate@v3@security@vanetza@@@std@@@std@@@std@@@2@@std@@@2@@std@@QEAA@XZ
	??1?$list@U?$pair@$$CBV?$array@E$02@std@@V?$_List_iterator@V?$_List_val@U?$_List_simple_types@V?$array@E$02@std@@@std@@@std@@@2@@std@@V?$allocator@U?$pair@$$CBV?$array@E$02@std@@V?$_List_iterator@V?$_List_val@U?$_List_simple_types@V?$array@E$02@std@@@std@@@std@@@2@@std@@@2@@std@@QEAA@XZ
	??1?$list@U?$pair@$$CBV?$array@E$07@std@@UCertificate@v3@security@vanetza@@@std@@V?$allocator@U?$pair@$$CBV?$array@E$07@std@@UCertificate@v3@security@vanetza@@@std@@@2@@std@@QEAA@XZ
	??1?$list@UCertificate@v2@security@vanetza@@V?$allocator@UCertificate@v2@security@vanetza@@@std@@@std@@QEAA@XZ
	??1?$list@UCertificate@v3@security@vanetza@@V?$allocator@UCertificate@v3@security@vanetza@@@std@@@std@@QEAA@XZ
	??1?$list@UItsAidSsp@v2@security@vanetza@@V?$allocator@UItsAidSsp@v2@security@vanetza@@@std@@@std@@QEAA@XZ
	??1?$list@URecipientInfo@v2@security@vanetza@@V?$allocator@URecipientInfo@v2@security@vanetza@@@std@@@std@@QEAA@XZ
	??1?$list@URectangularRegion@v2@security@vanetza@@V?$allocator@URectangularRegion@v2@security@vanetza@@@std@@@std@@QEAA@XZ
	??1?$list@UTwoDLocation@v2@security@vanetza@@V?$allocator@UTwoDLocation@v2@security@vanetza@@@std@@@std@@QEAA@XZ
	??1?$list@V?$array@E$02@std@@V?$allocator@V?$array@E$02@std@@@2@@std@@QEAA@XZ
	??1?$list@V?$array@E$07@std@@V?$allocator@V?$array@E$07@std@@@2@@std@@QEAA@XZ
	??1?$list@V?$variant@IUStartAndEndValidity@v2@security@vanetza@@UStartAndDurationValidity@234@V?$variant@UNoneRegion@v2@security@vanetza@@UCircularRegion@234@V?$list@URectangularRegion@v2@security@vanetza@@V?$allocator@URectangularRegion@v2@security@vanetza@@@std@@@std@@V?$list@UTwoDLocation@v2@security@vanetza@@V?$allocator@UTwoDLocation@v2@security@vanetza@@@std@@@7@UIdentifiedRegion@234@@boost@@@boost@@V?$allocator@V?$variant@IUStartAndEndValidity@v2@security@vanetza@@UStartAndDurationValidity@234@V?$variant@UNoneRegion@v2@security@vanetza@@UCircularRegion@234@V?$list@URectangularRegion@v2@security@vanetza@@V?$allocator@URectangularRegion@v2@security@vanetza@@@std@@@std@@V?$list@UTwoDLocation@v2@security@vanetza@@V?$allocator@UTwoDLocation@v2@security@vanetza@@@std@@@7@UIdentifiedRegion@234@@boost@@@boost@@@std@@@std@@QEAA@XZ
	??1?$list@V?$variant@USignature@v2@security@vanetza@@$$V@boost@@V?$allocator@V?$variant@USignature@v2@security@vanetza@@$$V@boost@@@std@@@std@@QEAA@XZ
	??1?$list@V?$variant@UVerificationKey@v2@security@vanetza@@UEncryptionKey@234@USubjectAssurance@234@V?$variant@UX_Coordinate_Only@security@vanetza@@UCompressed_Lsb_Y_0@23@UCompressed_Lsb_Y_1@23@UUncompressed@23@@boost@@V?$list@VIntX@v2@security@vanetza@@V?$allocator@VIntX@v2@security@vanetza@@@std@@@std@@V?$list@UItsAidSsp@v2@security@vanetza@@V?$allocator@UItsAidSsp@v2@security@vanetza@@@std@@@std@@@boost@@V?$allocator@V?$variant@UVerificationKey@v2@security@vanetza@@UEncryptionKey@234@USubjectAssurance@234@V?$variant@UX_Coordinate_Only@security@vanetza@@UCompressed_Lsb_Y_0@23@UCompressed_Lsb_Y_1@23@UUncompressed@23@@boost@@V?$list@VIntX@v2@security@vanetza@@V?$allocator@VIntX@v2@security@vanetza@@@std@@@std@@V?$list@UItsAidSsp@v2@security@vanetza@@V?$allocator@UItsAidSsp@v2@security@vanetza@@@std@@@std@@@boost@@@std@@@std@@QEAA@XZ
	??1?$list@V?$variant@_KUTime64WithStandardDeviation@v2@security@vanetza@@IUThreeDLocation@234@V?$list@V?$array@E$02@std@@V?$allocator@V?$array@E$02@std@@@2@@std@@VIntX@234@V?$variant@$$TV?$array@E$07@std@@V?$recursive_wrapper@UCertificate@v2@security@vanetza@@@boost@@V?$list@UCertificate@v2@security@vanetza@@V?$allocator@UCertificate@v2@security@vanetza@@@std@@@2@UCertificateDigestWithOtherAlgorithm@v2@security@vanetza@@@boost@@V?$variant@V?$array@E$0M@@std@@$$V@boost@@V?$list@URecipientInfo@v2@security@vanetza@@V?$allocator@URecipientInfo@v2@security@vanetza@@@std@@@7@@boost@@V?$allocator@V?$variant@_KUTime64WithStandardDeviation@v2@security@vanetza@@IUThreeDLocation@234@V?$list@V?$array@E$02@std@@V?$allocator@V?$array@E$02@std@@@2@@std@@VIntX@234@V?$variant@$$TV?$array@E$07@std@@V?$recursive_wrapper@UCertificate@v2@security@vanetza@@@boost@@V?$list@UCertificate@v2@security@vanetza@@V?$allocator@UCertificate@v2@security@vanetza@@@std@@@2@UCertificateDigestWithOtherAlgorithm@v2@security@vanetza@@@boost@@V?$variant@V?$array@E$0M@@std@@$$V@boost@@V?$list@URecipientInfo@v2@security@vanetza@@V?$allocator@URecipientInfo@v2@security@vanetza@@@std@@@7@@boost@@@std@@@std@@QEAA@XZ
	??1?$list@VIntX@v2@security@vanetza@@V?$allocator@VIntX@v2@security@vanetza@@@std@@@std@@QEAA@XZ
	??1?$list_impl@U?$bhtraits@U?$heap_node_base@$0A@@detail@heap@boost@@U?$list_node_traits@PEAX@intrusive@4@$00Udft_tag@64@$00@intrusive@boost@@_K$00X@intrusive@boost@@QEAA@XZ
	??1?$lock_guard@Vmutex@std@@@std@@QEAA@XZ
	??1?$member_ptr@V?$basic_ifstream@DU?$char_traits@D@std@@@std@@@CryptoPP@@QEAA@XZ
	??1?$member_ptr@VAlgorithmParametersBase@CryptoPP@@@CryptoPP@@QEAA@XZ
	??1?$member_ptr@VBlockCipher@CryptoPP@@@CryptoPP@@QEAA@XZ
	??1?$member_ptr@VBufferedTransformation@CryptoPP@@@CryptoPP@@QEAA@XZ
	??1?$member_ptr@VECP@CryptoPP@@@CryptoPP@@QEAA@XZ
	??1?$member_ptr@VModularArithmetic@CryptoPP@@@CryptoPP@@QEAA@XZ
	??1?$member_ptr@VPK_MessageAccumulatorBase@CryptoPP@@@CryptoPP@@QEAA@XZ
	??1?$optional@UCertificate@v2@security@vanetza@@@boost@@QEAA@XZ
	??1?$optional@UEcdsaSignature@security@vanetza@@@boost@@QEAA@XZ
	??1?$optional@UPublicKey@ecdsa256@security@vanetza@@@boost@@QEAA@XZ
	??1?$optional@UPublicKey@security@vanetza@@@boost@@QEAA@XZ
	??1?$optional@USignature@security@vanetza@@@boost@@QEAA@XZ
	??1?$optional@UStartAndEndValidity@v2@security@vanetza@@@boost@@QEAA@XZ
	??1?$optional@UUncompressed@security@vanetza@@@boost@@QEAA@XZ
	??1?$optional@V?$DL_PublicKey_EC@VECP@CryptoPP@@@CryptoPP@@@boost@@QEAA@XZ
	??1?$optional@V?$array@E$02@std@@@boost@@QEAA@XZ
	??1?$optional@V?$array@E$07@std@@@boost@@QEAA@XZ
	??1?$optional@VCertificate@v3@security@vanetza@@@boost@@QEAA@XZ
	??1?$optional@Vlocale@std@@@boost@@QEAA@XZ
	??1?$pair@V?$array@E$07@std@@UCertificate@v2@security@vanetza@@@std@@QEAA@XZ
	??1?$recursive_wrapper@UCertificate@v2@security@vanetza@@@boost@@QEAA@XZ
	??1?$refcount_ptr@Uerror_info_container@exception_detail@boost@@@exception_detail@boost@@QEAA@XZ
	??1?$set@W4CamPermission@security@vanetza@@U?$less@W4CamPermission@security@vanetza@@@std@@V?$allocator@W4CamPermission@security@vanetza@@@5@@std@@QEAA@XZ
	??1?$shared_future@UEcdsaSignature@security@vanetza@@@std@@QEAA@XZ
	??1?$shared_ptr@U_ExceptionHolder@details@Concurrency@@@std@@QEAA@XZ
	??1?$shared_ptr@U_Task_impl_base@details@Concurrency@@@std@@QEAA@XZ
	??1?$shared_ptr@Uscheduler_interface@Concurrency@@@std@@QEAA@XZ
	??1?$stream_buffer@Vbyte_buffer_sink@vanetza@@U?$char_traits@D@std@@V?$allocator@D@4@Uoutput@iostreams@boost@@@iostreams@boost@@UEAA@XZ
	??1?$task@E@Concurrency@@QEAA@XZ
	??1?$task@X@Concurrency@@QEAA@XZ
	??1?$unique_lock@Vmutex@std@@@std@@QEAA@XZ
	??1?$unique_ptr@U_TaskProcHandle@details@Concurrency@@U?$default_delete@U_TaskProcHandle@details@Concurrency@@@std@@@std@@QEAA@XZ
	??1?$unique_ptr@VBackend@security@vanetza@@U?$default_delete@VBackend@security@vanetza@@@std@@@std@@QEAA@XZ
	??1?$unique_ptr@VSignService@security@vanetza@@U?$default_delete@VSignService@security@vanetza@@@std@@@std@@QEAA@XZ
	??1?$unique_ptr@VVerifyService@security@vanetza@@U?$default_delete@VVerifyService@security@vanetza@@@std@@@std@@QEAA@XZ
	??1?$unique_ptr@V_Facet_base@std@@U?$default_delete@V_Facet_base@std@@@2@@std@@QEAA@XZ
	??1?$unique_ptr@V_PPLTaskChore@_DefaultPPLTaskScheduler@details@Concurrency@@U?$default_delete@V_PPLTaskChore@_DefaultPPLTaskScheduler@details@Concurrency@@@std@@@std@@QEAA@XZ
	??1?$unordered_map@V?$array@E$02@std@@V?$_List_iterator@V?$_List_val@U?$_List_simple_types@U?$pair@$$CBV?$array@E$07@std@@UCertificate@v3@security@vanetza@@@std@@@std@@@std@@@2@U?$hash@V?$array@E$02@std@@@2@U?$equal_to@V?$array@E$02@std@@@2@V?$allocator@U?$pair@$$CBV?$array@E$02@std@@V?$_List_iterator@V?$_List_val@U?$_List_simple_types@U?$pair@$$CBV?$array@E$07@std@@UCertificate@v3@security@vanetza@@@std@@@std@@@std@@@2@@std@@@2@@std@@QEAA@XZ
	??1?$unordered_map@V?$array@E$07@std@@UCertificate@v3@security@vanetza@@U?$hash@V?$array@E$07@std@@@2@U?$equal_to@V?$array@E$07@std@@@2@V?$allocator@U?$pair@$$CBV?$array@E$07@std@@UCertificate@v3@security@vanetza@@@std@@@2@@std@@QEAA@XZ
	??1?$value_ptr@VECP@CryptoPP@@@CryptoPP@@QEAA@XZ
	??1?$variant@$$TV?$array@E$07@std@@V?$recursive_wrapper@UCertificate@v2@security@vanetza@@@boost@@V?$list@UCertificate@v2@security@vanetza@@V?$allocator@UCertificate@v2@security@vanetza@@@std@@@2@UCertificateDigestWithOtherAlgorithm@v2@security@vanetza@@@boost@@QEAA@XZ
	??1?$variant@IUStartAndEndValidity@v2@security@vanetza@@UStartAndDurationValidity@234@V?$variant@UNoneRegion@v2@security@vanetza@@UCircularRegion@234@V?$list@URectangularRegion@v2@security@vanetza@@V?$allocator@URectangularRegion@v2@security@vanetza@@@std@@@std@@V?$list@UTwoDLocation@v2@security@vanetza@@V?$allocator@UTwoDLocation@v2@security@vanetza@@@std@@@7@UIdentifiedRegion@234@@boost@@@boost@@QEAA@XZ
	??1?$variant@UEcdsaSignature@security@vanetza@@VEcdsaSignatureFuture@23@@boost@@QEAA@XZ
	??1?$variant@UNoneRegion@v2@security@vanetza@@UCircularRegion@234@V?$list@URectangularRegion@v2@security@vanetza@@V?$allocator@URectangularRegion@v2@security@vanetza@@@std@@@std@@V?$list@UTwoDLocation@v2@security@vanetza@@V?$allocator@UTwoDLocation@v2@security@vanetza@@@std@@@7@UIdentifiedRegion@234@@boost@@QEAA@XZ
	??1?$variant@USecuredMessage@v2@security@vanetza@@U1v3@34@@boost@@QEAA@XZ
	??1?$variant@USignature@v2@security@vanetza@@$$V@boost@@QEAA@XZ
	??1?$variant@UVerificationKey@v2@security@vanetza@@UEncryptionKey@234@USubjectAssurance@234@V?$variant@UX_Coordinate_Only@security@vanetza@@UCompressed_Lsb_Y_0@23@UCompressed_Lsb_Y_1@23@UUncompressed@23@@boost@@V?$list@VIntX@v2@security@vanetza@@V?$allocator@VIntX@v2@security@vanetza@@@std@@@std@@V?$list@UItsAidSsp@v2@security@vanetza@@V?$allocator@UItsAidSsp@v2@security@vanetza@@@std@@@std@@@boost@@QEAA@XZ
	??1?$variant@UX_Coordinate_Only@security@vanetza@@UCompressed_Lsb_Y_0@23@UCompressed_Lsb_Y_1@23@UUncompressed@23@@boost@@QEAA@XZ
	??1?$variant@Uecdsa_nistp256_with_sha256@v2@security@vanetza@@Uecies_nistp256@234@@boost@@QEAA@XZ
	??1?$variant@VChunkPacket@vanetza@@VCohesivePacket@2@@boost@@QEAA@XZ
	??1?$variant@_KUTime64WithStandardDeviation@v2@security@vanetza@@IUThreeDLocation@234@V?$list@V?$array@E$02@std@@V?$allocator@V?$array@E$02@std@@@2@@std@@VIntX@234@V?$variant@$$TV?$array@E$07@std@@V?$recursive_wrapper@UCertificate@v2@security@vanetza@@@boost@@V?$list@UCertificate@v2@security@vanetza@@V?$allocator@UCertificate@v2@security@vanetza@@@std@@@2@UCertificateDigestWithOtherAlgorithm@v2@security@vanetza@@@boost@@V?$variant@V?$array@E$0M@@std@@$$V@boost@@V?$list@URecipientInfo@v2@security@vanetza@@V?$allocator@URecipientInfo@v2@security@vanetza@@@std@@@7@@boost@@QEAA@XZ
	??1?$vector@EV?$allocator@E@std@@@std@@QEAA@XZ
	??1?$vector@U?$format_item@DU?$char_traits@D@std@@V?$allocator@D@2@@detail@io@boost@@V?$allocator@U?$format_item@DU?$char_traits@D@std@@V?$allocator@D@2@@detail@io@boost@@@std@@@std@@QEAA@XZ
	??1?$vector@UECPPoint@CryptoPP@@V?$allocator@UECPPoint@CryptoPP@@@std@@@std@@QEAA@XZ
	??1?$vector@_NV?$allocator@_N@std@@@std@@QEAA@XZ
	??1?$weak_ptr@U_Task_impl_base@details@Concurrency@@@std@@QEAA@XZ
	??1?$wrapexcept@Vbad_format_string@io@boost@@@boost@@UEAA@XZ
	??1?$wrapexcept@Vbad_get@boost@@@boost@@UEAA@XZ
