EXPORTS 
	??_R0?AU?$byte_buffer_impl@$$T@convertible@vanetza@@@8 	 DATA
	??_R0?AU?$byte_buffer_impl@V?$vector@EV?$allocator@E@std@@@std@@@convertible@vanetza@@@8 	 DATA
	??_R0?AU?$token_finderF@U?$is_any_ofF@D@detail@algorithm@boost@@@detail@algorithm@boost@@@8 	 DATA
	??_R0?AU?$wrapexcept@Vbad_function_call@boost@@@boost@@@8 	 DATA
	??_R0?AUbyte_buffer@convertible@vanetza@@@8 	 DATA
	??_R0?AVbad_alloc@std@@@8 	 DATA
	??_R0?AVbad_array_new_length@std@@@8 	 DATA
	??_R0?AVbad_function_call@boost@@@8 	 DATA
	??_R0?AVclone_base@exception_detail@boost@@@8 	 DATA
	??_R0?AVexception@boost@@@8 	 DATA
	??_R0?AVexception@std@@@8 	 DATA
	??_R0?AVruntime_error@std@@@8 	 DATA
	?cBroadcastMacAddress@vanetza@@3VMacAddress@1@B 	 DATA
	?pdata@?1???B?$integral_constant@_N$00@boost@@QEBAAEBU?$bool_@$00@mpl@2@XZ@4PEBXEB 	 DATA
	??$?0U?$token_finderF@U?$is_any_ofF@D@detail@algorithm@boost@@@detail@algorithm@boost@@@?$find_iterator_base@V?$_String_const_iterator@V?$_String_val@U?$_Simple_types@D@std@@@std@@@std@@@detail@algorithm@boost@@IEAA@U?$token_finderF@U?$is_any_ofF@D@detail@algorithm@boost@@@123@H@Z
	??$?0V?$transform_iterator@U?$copy_iterator_rangeF@V?$basic_string@DU?$char_traits@D@std@@V?$allocator@D@2@@std@@V?$_String_const_iterator@V?$_String_val@U?$_Simple_types@D@std@@@std@@@2@@detail@algorithm@boost@@V?$split_iterator@V?$_String_const_iterator@V?$_String_val@U?$_Simple_types@D@std@@@std@@@std@@@34@Uuse_default@4@U64@@iterators@boost@@$0A@@?$vector@V?$basic_string@DU?$char_traits@D@std@@V?$allocator@D@2@@std@@V?$allocator@V?$basic_string@DU?$char_traits@D@std@@V?$allocator@D@2@@std@@@2@@std@@QEAA@V?$transform_iterator@U?$copy_iterator_rangeF@V?$basic_string@DU?$char_traits@D@std@@V?$allocator@D@2@@std@@V?$_String_const_iterator@V?$_String_val@U?$_Simple_types@D@std@@@std@@@2@@detail@algorithm@boost@@V?$split_iterator@V?$_String_const_iterator@V?$_String_val@U?$_Simple_types@D@std@@@std@@@std@@@34@Uuse_default@4@U64@@iterators@boost@@0AEBV?$allocator@V?$basic_string@DU?$char_traits@D@std@@V?$allocator@D@2@@std@@@1@@Z
	??$?6DU?$char_traits@D@std@@D@std@@YAAEAV?$basic_ostream@DU?$char_traits@D@std@@@0@AEAV10@AEBU?$_Fillobj@D@0@@Z
	??$?6DU?$char_traits@D@std@@_J@std@@YAAEAV?$basic_ostream@DU?$char_traits@D@std@@@0@AEAV10@AEBU?$_Smanip@_J@0@@Z
	??$?6U?$char_traits@D@std@@@std@@YAAEAV?$basic_ostream@DU?$char_traits@D@std@@@0@AEAV10@PEBD@Z
	??$?RV?$_String_const_iterator@V?$_String_val@U?$_Simple_types@D@std@@@std@@@std@@@?$token_finderF@U?$is_any_ofF@D@detail@algorithm@boost@@@detail@algorithm@boost@@QEBA?AV?$iterator_range@V?$_String_const_iterator@V?$_String_val@U?$_Simple_types@D@std@@@std@@@std@@@3@V?$_String_const_iterator@V?$_String_val@U?$_Simple_types@D@std@@@std@@@std@@0@Z
	??$_Allocate_manually_vector_aligned@U_Default_allocate_traits@std@@@std@@YAPEAX_K@Z
	??$_Construct@$00PEBD@?$basic_string@DU?$char_traits@D@std@@V?$allocator@D@2@@std@@AEAAXQEBD_K@Z
	??$_Copy_backward_memmove@PEADPEAD@std@@YAPEADPEAD00@Z
	??$_Copy_backward_memmove@PEAEPEAE@std@@YAPEAEPEAE00@Z
	??$_Copy_memmove@PEAEPEAE@std@@YAPEAEPEAE00@Z
	??$_Copy_memmove@PEBDPEAD@std@@YAPEADPEBD0PEAD@Z
	??$_Copy_memmove@PEBEPEAE@std@@YAPEAEPEBE0PEAE@Z
	??$_Destroy_range@V?$allocator@V?$basic_string@DU?$char_traits@D@std@@V?$allocator@D@2@@std@@@std@@@std@@YAXPEAV?$basic_string@DU?$char_traits@D@std@@V?$allocator@D@2@@0@QEAV10@AEAV?$allocator@V?$basic_string@DU?$char_traits@D@std@@V?$allocator@D@2@@std@@@0@@Z
	??$_Emplace_reallocate@AEBE@?$vector@EV?$allocator@E@std@@@std@@AEAAPEAEQEAEAEBE@Z
	??$_Emplace_reallocate@E@?$vector@EV?$allocator@E@std@@@std@@AEAAPEAEQEAE$$QEAE@Z
	??$_Emplace_reallocate@V?$basic_string@DU?$char_traits@D@std@@V?$allocator@D@2@@std@@@?$vector@V?$basic_string@DU?$char_traits@D@std@@V?$allocator@D@2@@std@@V?$allocator@V?$basic_string@DU?$char_traits@D@std@@V?$allocator@D@2@@std@@@2@@std@@AEAAPEAV?$basic_string@DU?$char_traits@D@std@@V?$allocator@D@2@@1@QEAV21@$$QEAV21@@Z
	??$_Erase_tree@V?$allocator@U?$_Tree_node@U?$pair@$$CBW4OsiLayer@vanetza@@V?$vector@EV?$allocator@E@std@@@std@@@std@@PEAX@std@@@std@@@?$_Tree_val@U?$_Tree_simple_types@U?$pair@$$CBW4OsiLayer@vanetza@@V?$vector@EV?$allocator@E@std@@@std@@@std@@@std@@@std@@QEAAXAEAV?$allocator@U?$_Tree_node@U?$pair@$$CBW4OsiLayer@vanetza@@V?$vector@EV?$allocator@E@std@@@std@@@std@@PEAX@std@@@1@PEAU?$_Tree_node@U?$pair@$$CBW4OsiLayer@vanetza@@V?$vector@EV?$allocator@E@std@@@std@@@std@@PEAX@1@@Z
	??$_Erase_tree@V?$allocator@U?$_Tree_node@U?$pair@$$CBW4OsiLayer@vanetza@@VByteBufferConvertible@2@@std@@PEAX@std@@@std@@@?$_Tree_val@U?$_Tree_simple_types@U?$pair@$$CBW4OsiLayer@vanetza@@VByteBufferConvertible@2@@std@@@std@@@std@@QEAAXAEAV?$allocator@U?$_Tree_node@U?$pair@$$CBW4OsiLayer@vanetza@@VByteBufferConvertible@2@@std@@PEAX@std@@@1@PEAU?$_Tree_node@U?$pair@$$CBW4OsiLayer@vanetza@@VByteBufferConvertible@2@@std@@PEAX@1@@Z
	??$_Fill_memset@PEAEH@std@@YAXPEAEH_K@Z
	??$_Getvals@_W@?$time_get@DV?$istreambuf_iterator@DU?$char_traits@D@std@@@std@@@std@@IEAAX_WAEBV_Locinfo@1@@Z
	??$_Getvals@_W@?$time_get@_WV?$istreambuf_iterator@_WU?$char_traits@_W@std@@@std@@@std@@IEAAX_WAEBV_Locinfo@1@@Z
	??$_Guess_median_unchecked@PEADU?$less@X@std@@@std@@YAXPEAD00U?$less@X@0@@Z
	??$_Insert_range@PEAE@?$vector@EV?$allocator@E@std@@@std@@AEAAXV?$_Vector_const_iterator@V?$_Vector_val@U?$_Simple_types@E@std@@@std@@@1@PEAE1Uforward_iterator_tag@1@@Z
	??$_Maklocstr@D@std@@YAPEADPEBDPEADAEBU_Cvtvec@@@Z
	??$_Memcmp_ranges@PEBDPEBD@std@@YAHPEBD00@Z
	??$_Memcmp_ranges@PEBEPEBE@std@@YAHPEBE00@Z
	??$_Move_unchecked@PEAEPEAE@std@@YAPEAEPEAE00@Z
	??$_Sort_unchecked@PEADU?$less@X@std@@@std@@YAXPEAD0_JU?$less@X@0@@Z
	??$_Uninitialized_move@PEAEV?$allocator@E@std@@@std@@YAPEAEQEAE0PEAEAEAV?$allocator@E@0@@Z
	??$_Uninitialized_move@PEAV?$basic_string@DU?$char_traits@D@std@@V?$allocator@D@2@@std@@V?$allocator@V?$basic_string@DU?$char_traits@D@std@@V?$allocator@D@2@@std@@@2@@std@@YAPEAV?$basic_string@DU?$char_traits@D@std@@V?$allocator@D@2@@0@QEAV10@0PEAV10@AEAV?$allocator@V?$basic_string@DU?$char_traits@D@std@@V?$allocator@D@2@@std@@@0@@Z
	??$assign_to@U?$token_finderF@U?$is_any_ofF@D@detail@algorithm@boost@@@detail@algorithm@boost@@@?$basic_vtable2@V?$iterator_range@V?$_String_const_iterator@V?$_String_val@U?$_Simple_types@D@std@@@std@@@std@@@boost@@V?$_String_const_iterator@V?$_String_val@U?$_Simple_types@D@std@@@std@@@std@@V34@@function@detail@boost@@QEBA_NU?$token_finderF@U?$is_any_ofF@D@detail@algorithm@boost@@@2algorithm@3@AEATfunction_buffer@123@@Z
	??$convert_endian@G$00$0A@@detail@vanetza@@YAGAEBG@Z
	??$convert_endian@G$0A@$00@detail@vanetza@@YAGAEBG@Z
	??$endian_cast@$00G@vanetza@@YA?AV?$EndianType@G$00@0@G@Z
	??$forced_return@Vbyte_view_range@vanetza@@@variant@detail@boost@@YA?AVbyte_view_range@vanetza@@XZ
	??$forced_return@X@variant@detail@boost@@YAXXZ
	??$forced_return@_K@variant@detail@boost@@YA_KXZ
	??$host_cast@G@vanetza@@YA?AV?$EndianType@G$00@0@G@Z
	??$hton@F@vanetza@@YAFF@Z
	??$hton@G@vanetza@@YAGG@Z
	??$hton@I@vanetza@@YAII@Z
	??$iter_split@V?$vector@V?$basic_string@DU?$char_traits@D@std@@V?$allocator@D@2@@std@@V?$allocator@V?$basic_string@DU?$char_traits@D@std@@V?$allocator@D@2@@std@@@2@@std@@AEBV?$basic_string@DU?$char_traits@D@std@@V?$allocator@D@2@@2@U?$token_finderF@U?$is_any_ofF@D@detail@algorithm@boost@@@detail@algorithm@boost@@@algorithm@boost@@YAAEAV?$vector@V?$basic_string@DU?$char_traits@D@std@@V?$allocator@D@2@@std@@V?$allocator@V?$basic_string@DU?$char_traits@D@std@@V?$allocator@D@2@@std@@@2@@std@@AEAV23@AEBV?$basic_string@DU?$char_traits@D@std@@V?$allocator@D@2@@3@U?$token_finderF@U?$is_any_ofF@D@detail@algorithm@boost@@@detail@01@@Z
	??$make_transform_iterator@U?$copy_iterator_rangeF@V?$basic_string@DU?$char_traits@D@std@@V?$allocator@D@2@@std@@V?$_String_const_iterator@V?$_String_val@U?$_Simple_types@D@std@@@std@@@2@@detail@algorithm@boost@@V?$split_iterator@V?$_String_const_iterator@V?$_String_val@U?$_Simple_types@D@std@@@std@@@std@@@34@@iterators@boost@@YA?AV?$transform_iterator@U?$copy_iterator_rangeF@V?$basic_string@DU?$char_traits@D@std@@V?$allocator@D@2@@std@@V?$_String_const_iterator@V?$_String_val@U?$_Simple_types@D@std@@@std@@@2@@detail@algorithm@boost@@V?$split_iterator@V?$_String_const_iterator@V?$_String_val@U?$_Simple_types@D@std@@@std@@@std@@@34@Uuse_default@4@U64@@01@V?$split_iterator@V?$_String_const_iterator@V?$_String_val@U?$_Simple_types@D@std@@@std@@@std@@@algorithm@1@U?$copy_iterator_rangeF@V?$basic_string@DU?$char_traits@D@std@@V?$allocator@D@2@@std@@V?$_String_const_iterator@V?$_String_val@U?$_Simple_types@D@std@@@std@@@2@@detail@41@@Z
	??$ntoh@F@vanetza@@YAFF@Z
	??$ntoh@G@vanetza@@YAGG@Z
	??$ntoh@I@vanetza@@YAII@Z
	??$setfill@D@std@@YA?AU?$_Fillobj@D@0@D@Z
	??$split@V?$vector@V?$basic_string@DU?$char_traits@D@std@@V?$allocator@D@2@@std@@V?$allocator@V?$basic_string@DU?$char_traits@D@std@@V?$allocator@D@2@@std@@@2@@std@@AEBV?$basic_string@DU?$char_traits@D@std@@V?$allocator@D@2@@2@U?$is_any_ofF@D@detail@algorithm@boost@@@algorithm@boost@@YAAEAV?$vector@V?$basic_string@DU?$char_traits@D@std@@V?$allocator@D@2@@std@@V?$allocator@V?$basic_string@DU?$char_traits@D@std@@V?$allocator@D@2@@std@@@2@@std@@AEAV23@AEBV?$basic_string@DU?$char_traits@D@std@@V?$allocator@D@2@@3@U?$is_any_ofF@D@detail@01@W4token_compress_mode_type@01@@Z
	??$throw_exception@Vbad_function_call@boost@@@boost@@YAXAEBVbad_function_call@0@@Z
	??0?$_Vector_iterator@V?$_Vector_val@U?$_Simple_types@E@std@@@std@@@std@@QEAA@XZ
	??0?$split_iterator@V?$_String_const_iterator@V?$_String_val@U?$_Simple_types@D@std@@@std@@@std@@@algorithm@boost@@QEAA@AEBV012@@Z
	??0?$vector@EV?$allocator@E@std@@@std@@QEAA@AEBV01@@Z
	??0?$wrapexcept@Vbad_function_call@boost@@@boost@@QEAA@AEBU01@@Z
	??0?$wrapexcept@Vbad_function_call@boost@@@boost@@QEAA@AEBVbad_function_call@1@@Z
	??0BufferPacket@vanetza@@QEAA@XZ
	??0ChunkPacket@vanetza@@QEAA@AEBV01@@Z
	??0ChunkPacket@vanetza@@QEAA@XZ
	??0CohesivePacket@vanetza@@QEAA@$$QEAV?$vector@EV?$allocator@E@std@@@std@@W4OsiLayer@1@@Z
	??0CohesivePacket@vanetza@@QEAA@AEBV01@@Z
	??0CohesivePacket@vanetza@@QEAA@AEBV?$vector@EV?$allocator@E@std@@@std@@W4OsiLayer@1@@Z
	??0MacAddress@vanetza@@QEAA@V?$initializer_list@E@std@@@Z
	??0MacAddress@vanetza@@QEAA@XZ
	??0bad_alloc@std@@QEAA@AEBV01@@Z
	??0bad_array_new_length@std@@QEAA@AEBV01@@Z
	??0bad_array_new_length@std@@QEAA@XZ
	??0bad_function_call@boost@@QEAA@AEBV01@@Z
	??0clone_base@exception_detail@boost@@QEAA@AEBV012@@Z
	??0exception@boost@@QEAA@AEBV01@@Z
	??0exception@std@@QEAA@AEBV01@@Z
	??0runtime_error@std@@QEAA@AEBV01@@Z
	??0runtime_error@std@@QEAA@PEBD@Z
	??1?$_Alloc_construct_ptr@V?$allocator@U?$_Tree_node@U?$pair@$$CBW4OsiLayer@vanetza@@V?$vector@EV?$allocator@E@std@@@std@@@std@@PEAX@std@@@std@@@std@@QEAA@XZ
	??1?$_Alloc_construct_ptr@V?$allocator@U?$_Tree_node@U?$pair@$$CBW4OsiLayer@vanetza@@VByteBufferConvertible@2@@std@@PEAX@std@@@std@@@std@@QEAA@XZ
	??1?$_Tidy_guard@V?$vector@V?$basic_string@DU?$char_traits@D@std@@V?$allocator@D@2@@std@@V?$allocator@V?$basic_string@DU?$char_traits@D@std@@V?$allocator@D@2@@std@@@2@@std@@@std@@QEAA@XZ
	??1?$_Tree_temp_node_alloc@V?$allocator@U?$_Tree_node@U?$pair@$$CBW4OsiLayer@vanetza@@VByteBufferConvertible@2@@std@@PEAX@std@@@std@@@std@@QEAA@XZ
	??1?$basic_ios_all_saver@DU?$char_traits@D@std@@@io@boost@@QEAA@XZ
	??1?$basic_string@DU?$char_traits@D@std@@V?$allocator@D@2@@std@@QEAA@XZ
	??1?$find_iterator_base@V?$_String_const_iterator@V?$_String_val@U?$_Simple_types@D@std@@@std@@@std@@@detail@algorithm@boost@@IEAA@XZ
	??1?$is_any_ofF@D@detail@algorithm@boost@@QEAA@XZ
	??1?$map@W4OsiLayer@vanetza@@VByteBufferConvertible@2@U?$less@W4OsiLayer@vanetza@@@std@@V?$allocator@U?$pair@$$CBW4OsiLayer@vanetza@@VByteBufferConvertible@2@@std@@@5@@std@@QEAA@XZ
	??1?$optional@VMacAddress@vanetza@@@boost@@QEAA@XZ
	??1?$refcount_ptr@Uerror_info_container@exception_detail@boost@@@exception_detail@boost@@QEAA@XZ
	??1?$split_iterator@V?$_String_const_iterator@V?$_String_val@U?$_Simple_types@D@std@@@std@@@std@@@algorithm@boost@@QEAA@XZ
	??1?$token_finderF@U?$is_any_ofF@D@detail@algorithm@boost@@@detail@algorithm@boost@@QEAA@XZ
	??1?$transform_iterator@U?$copy_iterator_rangeF@V?$basic_string@DU?$char_traits@D@std@@V?$allocator@D@2@@std@@V?$_String_const_iterator@V?$_String_val@U?$_Simple_types@D@std@@@std@@@2@@detail@algorithm@boost@@V?$split_iterator@V?$_String_const_iterator@V?$_String_val@U?$_Simple_types@D@std@@@std@@@std@@@34@Uuse_default@4@U64@@iterators@boost@@QEAA@XZ
	??1?$vector@EV?$allocator@E@std@@@std@@QEAA@XZ
	??1?$vector@V?$basic_string@DU?$char_traits@D@std@@V?$allocator@D@2@@std@@V?$allocator@V?$basic_string@DU?$char_traits@D@std@@V?$allocator@D@2@@std@@@2@@std@@QEAA@XZ
	??1?$wrapexcept@Vbad_function_call@boost@@@boost@@UEAA@XZ
	??1ChunkPacket@vanetza@@QEAA@XZ
	??1_Sentry_base@?$basic_ostream@DU?$char_traits@D@std@@@std@@QEAA@XZ
	??1bad_array_new_length@std@@UEAA@XZ
	??1bad_function_call@boost@@UEAA@XZ
	??1byte_buffer@convertible@vanetza@@UEAA@XZ
	??1clone_base@exception_detail@boost@@UEAA@XZ
	??1deleter@?$wrapexcept@Vbad_function_call@boost@@@boost@@QEAA@XZ
	??1exception@boost@@MEAA@XZ
	??1exception@std@@UEAA@XZ
	??1runtime_error@std@@UEAA@XZ
	??1sentry@?$basic_ostream@DU?$char_traits@D@std@@@std@@QEAA@XZ
	??4?$vector@EV?$allocator@E@std@@@std@@QEAAAEAV01@AEBV01@@Z
	??4ChunkPacket@vanetza@@QEAAAEAV01@AEBV01@@Z
	??4CohesivePacket@vanetza@@QEAAAEAV01@AEBV01@@Z
	??6vanetza@@YAAEAV?$basic_ostream@DU?$char_traits@D@std@@@std@@AEAV12@AEBVMacAddress@0@@Z
	??8vanetza@@YA_NAEBVMacAddress@0@0@Z
	??ABufferPacket@vanetza@@QEBAAEBV?$vector@EV?$allocator@E@std@@@std@@W4OsiLayer@1@@Z
	??ACohesivePacket@vanetza@@QEAA?AV?$iterator_range@V?$_Vector_iterator@V?$_Vector_val@U?$_Simple_types@E@std@@@std@@@std@@@boost@@W4OsiLayer@1@@Z
	??ACohesivePacket@vanetza@@QEBA?AV?$iterator_range@V?$_Vector_const_iterator@V?$_Vector_val@U?$_Simple_types@E@std@@@std@@@std@@@boost@@W4OsiLayer@1@@Z
	??B?$integral_constant@_N$00@boost@@QEBAAEBU?$bool_@$00@mpl@1@XZ
	??Mvanetza@@YA_NAEBVMacAddress@0@0@Z
	??_H@YAXPEAX_K1P6APEAX0@Z@Z
	?_Buy_raw@?$vector@EV?$allocator@E@std@@@std@@AEAAX_K@Z
	?_Change_array@?$vector@EV?$allocator@E@std@@@std@@AEAAXQEAE_K1@Z
	?_Insert_node@?$_Tree_val@U?$_Tree_simple_types@U?$pair@$$CBW4OsiLayer@vanetza@@V?$vector@EV?$allocator@E@std@@@std@@@std@@@std@@@std@@QEAAPEAU?$_Tree_node@U?$pair@$$CBW4OsiLayer@vanetza@@V?$vector@EV?$allocator@E@std@@@std@@@std@@PEAX@2@U?$_Tree_id@PEAU?$_Tree_node@U?$pair@$$CBW4OsiLayer@vanetza@@V?$vector@EV?$allocator@E@std@@@std@@@std@@PEAX@std@@@2@QEAU32@@Z
	?_Insert_node@?$_Tree_val@U?$_Tree_simple_types@U?$pair@$$CBW4OsiLayer@vanetza@@VByteBufferConvertible@2@@std@@@std@@@std@@QEAAPEAU?$_Tree_node@U?$pair@$$CBW4OsiLayer@vanetza@@VByteBufferConvertible@2@@std@@PEAX@2@U?$_Tree_id@PEAU?$_Tree_node@U?$pair@$$CBW4OsiLayer@vanetza@@VByteBufferConvertible@2@@std@@PEAX@std@@@2@QEAU32@@Z
	?_Maklocwcs@std@@YAPEA_WPEB_W@Z
	?_Reallocate_exactly@?$vector@EV?$allocator@E@std@@@std@@AEAAX_K@Z
	?_Throw_bad_array_new_length@std@@YAXXZ
	?_Throw_tree_length_error@std@@YAXXZ
	?_Tidy@?$vector@V?$basic_string@DU?$char_traits@D@std@@V?$allocator@D@2@@std@@V?$allocator@V?$basic_string@DU?$char_traits@D@std@@V?$allocator@D@2@@std@@@2@@std@@AEAAXXZ
	?_Xlen_string@std@@YAXXZ
	?_Xlength@?$vector@EV?$allocator@E@std@@@std@@CAXXZ
	?_Xlength@?$vector@V?$basic_string@DU?$char_traits@D@std@@V?$allocator@D@2@@std@@V?$allocator@V?$basic_string@DU?$char_traits@D@std@@V?$allocator@D@2@@std@@@2@@std@@CAXXZ
	?allocate@?$allocator@D@std@@QEAAPEAD_K@Z
	?allocate@?$allocator@E@std@@QEAAPEAE_K@Z
	?clear@BufferPacket@vanetza@@QEAAXXZ
	?clone@?$wrapexcept@Vbad_function_call@boost@@@boost@@UEBAPEBVclone_base@exception_detail@2@XZ
	?convert@?$byte_buffer_impl@$$T@convertible@vanetza@@UEBAXAEAV?$vector@EV?$allocator@E@std@@@std@@@Z
	?convert@?$byte_buffer_impl@V?$vector@EV?$allocator@E@std@@@std@@@convertible@vanetza@@UEBAXAEAV?$vector@EV?$allocator@E@std@@@std@@@Z
	?copy_boost_exception@exception_detail@boost@@YAXPEAVexception@2@PEBV32@@Z
	?create_byte_view@boost@@YA?AVbyte_view_range@vanetza@@AEBV?$variant@VChunkPacket@vanetza@@VCohesivePacket@2@@1@W4OsiLayer@3@1@Z
	?create_byte_view@boost@@YA?AVbyte_view_range@vanetza@@AEBV?$variant@VChunkPacket@vanetza@@VCohesivePacket@2@@1@W4OsiLayer@3@@Z
	?create_byte_view@vanetza@@YA?AVbyte_view_range@1@AEBVChunkPacket@1@W4OsiLayer@1@1@Z
	?create_byte_view@vanetza@@YA?AVbyte_view_range@1@AEBVChunkPacket@1@W4OsiLayer@1@@Z
	?create_byte_view@vanetza@@YA?AVbyte_view_range@1@AEBVCohesivePacket@1@W4OsiLayer@1@1@Z
	?create_byte_view@vanetza@@YA?AVbyte_view_range@1@AEBVCohesivePacket@1@W4OsiLayer@1@@Z
	?create_ethernet_header@vanetza@@YA?AV?$vector@EV?$allocator@E@std@@@std@@AEBVEthernetHeader@1@@Z
	?create_ethernet_header@vanetza@@YA?AV?$vector@EV?$allocator@E@std@@@std@@AEBVMacAddress@1@0V?$EndianType@G$0A@@1@@Z
	?deallocate@?$allocator@E@std@@QEAAXQEAE_K@Z
	?deallocate@?$allocator@V?$basic_string@DU?$char_traits@D@std@@V?$allocator@D@2@@std@@@std@@QEAAXQEAV?$basic_string@DU?$char_traits@D@std@@V?$allocator@D@2@@2@_K@Z
	?decode_ethernet_header@vanetza@@YA?AVEthernetHeader@1@AEBV?$vector@EV?$allocator@E@std@@@std@@@Z
	?decode_ethernet_header@vanetza@@YA?AVEthernetHeader@1@V?$_Vector_const_iterator@V?$_Vector_val@U?$_Simple_types@E@std@@@std@@@std@@0@Z
	?deserialize@vanetza@@YAXAEAVInputArchive@1@AEAVMacAddress@1@@Z
	?duplicate@vanetza@@YA?AV?$unique_ptr@VChunkPacket@vanetza@@U?$default_delete@VChunkPacket@vanetza@@@std@@@std@@AEBV?$variant@VChunkPacket@vanetza@@VCohesivePacket@2@@boost@@@Z
	?duplicate@vanetza@@YA?AV?$unique_ptr@VChunkPacket@vanetza@@U?$default_delete@VChunkPacket@vanetza@@@std@@@std@@AEBVChunkPacket@1@@Z
	?extract@ChunkPacket@vanetza@@QEAA?AV12@W4OsiLayer@2@0@Z
	?get@CohesivePacket@vanetza@@AEAA?AV?$iterator_range@V?$_Vector_iterator@V?$_Vector_val@U?$_Simple_types@E@std@@@std@@@std@@@boost@@I@Z
	?get@CohesivePacket@vanetza@@AEBA?AV?$iterator_range@V?$_Vector_const_iterator@V?$_Vector_val@U?$_Simple_types@E@std@@@std@@@std@@@boost@@I@Z
	?get_access_category@vanetza@@YA?AW4AccessCategory@access@1@AEBUProxyHeader@1@@Z
	?get_payload@vanetza@@YA?AV?$iterator_range@PEBE@boost@@AEBUProxyHeader@1@_K@Z
	?get_signal_power@vanetza@@YANAEBUProxyHeader@1@@Z
	?has_empty_target@function@detail@boost@@YA_NZZ
	?hex@std@@YAAEAVios_base@1@AEAV21@@Z
	?increment@?$split_iterator@V?$_String_const_iterator@V?$_String_val@U?$_Simple_types@D@std@@@std@@@std@@@algorithm@boost@@AEAAXXZ
	?invoke@?$function_obj_invoker2@U?$token_finderF@U?$is_any_ofF@D@detail@algorithm@boost@@@detail@algorithm@boost@@V?$iterator_range@V?$_String_const_iterator@V?$_String_val@U?$_Simple_types@D@std@@@std@@@std@@@4@V?$_String_const_iterator@V?$_String_val@U?$_Simple_types@D@std@@@std@@@std@@V67@@function@detail@boost@@SA?AV?$iterator_range@V?$_String_const_iterator@V?$_String_val@U?$_Simple_types@D@std@@@std@@@std@@@4@AEATfunction_buffer@234@V?$_String_const_iterator@V?$_String_val@U?$_Simple_types@D@std@@@std@@@std@@1@Z
	?layer@ChunkPacket@vanetza@@QEAAAEAVByteBufferConvertible@2@W4OsiLayer@2@@Z
	?layer@ChunkPacket@vanetza@@QEBAAEBVByteBufferConvertible@2@W4OsiLayer@2@@Z
	?manage@?$functor_manager@U?$token_finderF@U?$is_any_ofF@D@detail@algorithm@boost@@@detail@algorithm@boost@@@function@detail@boost@@SAXAEBTfunction_buffer@234@AEAT5234@W4functor_manager_operation_type@234@@Z
	?merge@ChunkPacket@vanetza@@QEAAAEAV12@AEAV12@W4OsiLayer@2@1@Z
	?parse_mac_address@vanetza@@YA?AV?$optional@VMacAddress@vanetza@@@boost@@AEBV?$basic_string@DU?$char_traits@D@std@@V?$allocator@D@2@@std@@@Z
	?parse_mac_address@vanetza@@YA_NAEBV?$basic_string@DU?$char_traits@D@std@@V?$allocator@D@2@@std@@AEAVMacAddress@1@@Z
	?rebuild_iterators@CohesivePacket@vanetza@@AEAAXAEBV12@@Z
	?reset_iterators@CohesivePacket@vanetza@@AEAAXW4OsiLayer@2@@Z
	?rethrow@?$wrapexcept@Vbad_function_call@boost@@@boost@@UEBAXXZ
	?serialize@boost@@YAXAEAVOutputArchive@vanetza@@AEBV?$variant@VChunkPacket@vanetza@@VCohesivePacket@2@@1@@Z
	?serialize@vanetza@@YAXAEAVOutputArchive@1@AEBVChunkPacket@1@@Z
	?serialize@vanetza@@YAXAEAVOutputArchive@1@AEBVCohesivePacket@1@@Z
	?serialize@vanetza@@YAXAEAVOutputArchive@1@AEBVMacAddress@1@@Z
	?set_access_category@vanetza@@YAXAEAUProxyHeader@1@W4AccessCategory@access@1@@Z
	?set_boundary@CohesivePacket@vanetza@@QEAAXW4OsiLayer@2@I@Z
	?set_payload@vanetza@@YAXAEAUProxyHeader@1@_K@Z
	?set_signal_power@vanetza@@YAXAEAUProxyHeader@1@N@Z
	?size@?$byte_buffer_impl@$$T@convertible@vanetza@@UEBA_KXZ
	?size@?$byte_buffer_impl@V?$vector@EV?$allocator@E@std@@@std@@@convertible@vanetza@@UEBA_KXZ
	?size@BufferPacket@vanetza@@QEBA_KXZ
	?size@ChunkPacket@vanetza@@QEBA_KW4OsiLayer@2@0@Z
	?size@ChunkPacket@vanetza@@QEBA_KXZ
	?size@CohesivePacket@vanetza@@QEBA_KW4OsiLayer@2@0@Z
	?size@CohesivePacket@vanetza@@QEBA_KW4OsiLayer@2@@Z
	?size@CohesivePacket@vanetza@@QEBA_KXZ
	?size@boost@@YA_KAEBV?$variant@VChunkPacket@vanetza@@VCohesivePacket@2@@1@@Z
	?size@boost@@YA_KAEBV?$variant@VChunkPacket@vanetza@@VCohesivePacket@2@@1@W4OsiLayer@vanetza@@1@Z
	?size@boost@@YA_KAEBV?$variant@VChunkPacket@vanetza@@VCohesivePacket@2@@1@W4OsiLayer@vanetza@@@Z
	?swap@BufferPacket@vanetza@@QEAAXW4OsiLayer@2@AEAV?$vector@EV?$allocator@E@std@@@std@@@Z
	?trim@CohesivePacket@vanetza@@QEAAXW4OsiLayer@2@I@Z
	?what@exception@std@@UEBAPEBDXZ
