EXPORTS 
	??_R0?AU?$wrapexcept@Ubad_day_of_month@gregorian@boost@@@boost@@@8 	 DATA
	??_R0?AU?$wrapexcept@Ubad_day_of_year@gregorian@boost@@@boost@@@8 	 DATA
	??_R0?AU?$wrapexcept@Ubad_month@gregorian@boost@@@boost@@@8 	 DATA
	??_R0?AU?$wrapexcept@Ubad_weekday@gregorian@boost@@@boost@@@8 	 DATA
	??_R0?AU?$wrapexcept@Ubad_year@gregorian@boost@@@boost@@@8 	 DATA
	??_R0?AU?$wrapexcept@Vbad_format_string@io@boost@@@boost@@@8 	 DATA
	??_R0?AU?$wrapexcept@Vout_of_range@std@@@boost@@@8 	 DATA
	??_R0?AU?$wrapexcept@Vtoo_few_args@io@boost@@@boost@@@8 	 DATA
	??_R0?AU?$wrapexcept@Vtoo_many_args@io@boost@@@boost@@@8 	 DATA
	??_R0?AU_Crt_new_delete@std@@@8 	 DATA
	??_R0?AUbad_day_of_month@gregorian@boost@@@8 	 DATA
	??_R0?AUbad_day_of_year@gregorian@boost@@@8 	 DATA
	??_R0?AUbad_month@gregorian@boost@@@8 	 DATA
	??_R0?AUbad_weekday@gregorian@boost@@@8 	 DATA
	??_R0?AUbad_year@gregorian@boost@@@8 	 DATA
	??_R0?AV?$_Iosb@H@std@@@8 	 DATA
	??_R0?AV?$base_from_member@V?$shared_ptr@V?$basic_altstringbuf@DU?$char_traits@D@std@@V?$allocator@D@2@@io@boost@@@boost@@$0A@@boost@@@8 	 DATA
	??_R0?AV?$basic_altstringbuf@DU?$char_traits@D@std@@V?$allocator@D@2@@io@boost@@@8 	 DATA
	??_R0?AV?$basic_ios@DU?$char_traits@D@std@@@std@@@8 	 DATA
	??_R0?AV?$basic_iostream@DU?$char_traits@D@std@@@std@@@8 	 DATA
	??_R0?AV?$basic_istream@DU?$char_traits@D@std@@@std@@@8 	 DATA
	??_R0?AV?$basic_oaltstringstream@DU?$char_traits@D@std@@V?$allocator@D@2@@io@boost@@@8 	 DATA
	??_R0?AV?$basic_ostream@DU?$char_traits@D@std@@@std@@@8 	 DATA
	??_R0?AV?$basic_ostringstream@DU?$char_traits@D@std@@V?$allocator@D@2@@std@@@8 	 DATA
	??_R0?AV?$basic_streambuf@DU?$char_traits@D@std@@@std@@@8 	 DATA
	??_R0?AV?$basic_stringbuf@DU?$char_traits@D@std@@V?$allocator@D@2@@std@@@8 	 DATA
	??_R0?AV?$basic_stringstream@DU?$char_traits@D@std@@V?$allocator@D@2@@std@@@8 	 DATA
	??_R0?AV?$date_facet@Vdate@gregorian@boost@@DV?$ostreambuf_iterator@DU?$char_traits@D@std@@@std@@@date_time@boost@@@8 	 DATA
	??_R0?AV?$numpunct@D@std@@@8 	 DATA
	??_R0?AV?$sp_counted_impl_pd@PEAV?$basic_altstringbuf@DU?$char_traits@D@std@@V?$allocator@D@2@@io@boost@@VNo_Op@?$basic_oaltstringstream@DU?$char_traits@D@std@@V?$allocator@D@2@@23@@detail@boost@@@8 	 DATA
	??_R0?AV?$time_facet@Vptime@posix_time@boost@@DV?$ostreambuf_iterator@DU?$char_traits@D@std@@@std@@@date_time@boost@@@8 	 DATA
	??_R0?AVNo_Op@?$basic_oaltstringstream@DU?$char_traits@D@std@@V?$allocator@D@2@@io@boost@@@8 	 DATA
	??_R0?AV_Facet_base@std@@@8 	 DATA
	??_R0?AVbad_alloc@std@@@8 	 DATA
	??_R0?AVbad_array_new_length@std@@@8 	 DATA
	??_R0?AVbad_cast@std@@@8 	 DATA
	??_R0?AVbad_format_string@io@boost@@@8 	 DATA
	??_R0?AVclone_base@exception_detail@boost@@@8 	 DATA
	??_R0?AVexception@boost@@@8 	 DATA
	??_R0?AVexception@std@@@8 	 DATA
	??_R0?AVfacet@locale@std@@@8 	 DATA
	??_R0?AVformat_error@io@boost@@@8 	 DATA
	??_R0?AVios_base@std@@@8 	 DATA
	??_R0?AVlogic_error@std@@@8 	 DATA
	??_R0?AVout_of_range@std@@@8 	 DATA
	??_R0?AVsp_counted_base@detail@boost@@@8 	 DATA
	??_R0?AVtoo_few_args@io@boost@@@8 	 DATA
	??_R0?AVtoo_many_args@io@boost@@@8 	 DATA
	?_Psave@?$_Facetptr@V?$ctype@D@std@@@std@@2PEBVfacet@locale@2@EB 	 DATA
	?_Psave@?$_Facetptr@V?$date_facet@Vdate@gregorian@boost@@DV?$ostreambuf_iterator@DU?$char_traits@D@std@@@std@@@date_time@boost@@@std@@2PEBVfacet@locale@2@EB 	 DATA
	?_Psave@?$_Facetptr@V?$numpunct@D@std@@@std@@2PEBVfacet@locale@2@EB 	 DATA
	?_Psave@?$_Facetptr@V?$time_facet@Vptime@posix_time@boost@@DV?$ostreambuf_iterator@DU?$char_traits@D@std@@@std@@@date_time@boost@@@std@@2PEBVfacet@locale@2@EB 	 DATA
	?_Psave@?$_Facetptr@V?$time_put@DV?$ostreambuf_iterator@DU?$char_traits@D@std@@@std@@@std@@@std@@2PEBVfacet@locale@2@EB 	 DATA
	?default_time_duration_format@?$time_facet@Vptime@posix_time@boost@@DV?$ostreambuf_iterator@DU?$char_traits@D@std@@@std@@@date_time@boost@@2PEBDEB 	 DATA
	?default_time_format@?$time_facet@Vptime@posix_time@boost@@DV?$ostreambuf_iterator@DU?$char_traits@D@std@@@std@@@date_time@boost@@2PEBDEB 	 DATA
	?duration_sign_negative_only@?$time_facet@Vptime@posix_time@boost@@DV?$ostreambuf_iterator@DU?$char_traits@D@std@@@std@@@date_time@boost@@2PEBDEB 	 DATA
	?fractional_seconds_format@?$time_facet@Vptime@posix_time@boost@@DV?$ostreambuf_iterator@DU?$char_traits@D@std@@@std@@@date_time@boost@@2PEBDEB 	 DATA
	?fractional_seconds_or_none_format@?$time_facet@Vptime@posix_time@boost@@DV?$ostreambuf_iterator@DU?$char_traits@D@std@@@std@@@date_time@boost@@2PEBDEB 	 DATA
	?id@?$date_facet@Vdate@gregorian@boost@@DV?$ostreambuf_iterator@DU?$char_traits@D@std@@@std@@@date_time@boost@@2V0locale@std@@A 	 DATA
	?id@?$time_facet@Vptime@posix_time@boost@@DV?$ostreambuf_iterator@DU?$char_traits@D@std@@@std@@@date_time@boost@@2V0locale@std@@A 	 DATA
	?iso_time_format_extended_specifier@?$time_facet@Vptime@posix_time@boost@@DV?$ostreambuf_iterator@DU?$char_traits@D@std@@@std@@@date_time@boost@@2PEBDEB 	 DATA
	?iso_time_format_specifier@?$time_facet@Vptime@posix_time@boost@@DV?$ostreambuf_iterator@DU?$char_traits@D@std@@@std@@@date_time@boost@@2PEBDEB 	 DATA
	?posix_zone_string_format@?$time_facet@Vptime@posix_time@boost@@DV?$ostreambuf_iterator@DU?$char_traits@D@std@@@std@@@date_time@boost@@2PEBDEB 	 DATA
	?seconds_format@?$time_facet@Vptime@posix_time@boost@@DV?$ostreambuf_iterator@DU?$char_traits@D@std@@@std@@@date_time@boost@@2PEBDEB 	 DATA
	?seconds_with_fractional_seconds_format@?$time_facet@Vptime@posix_time@boost@@DV?$ostreambuf_iterator@DU?$char_traits@D@std@@@std@@@date_time@boost@@2PEBDEB 	 DATA
	?zone_abbrev_format@?$time_facet@Vptime@posix_time@boost@@DV?$ostreambuf_iterator@DU?$char_traits@D@std@@@std@@@date_time@boost@@2PEBDEB 	 DATA
	?zone_iso_extended_format@?$time_facet@Vptime@posix_time@boost@@DV?$ostreambuf_iterator@DU?$char_traits@D@std@@@std@@@date_time@boost@@2PEBDEB 	 DATA
	?zone_iso_format@?$time_facet@Vptime@posix_time@boost@@DV?$ostreambuf_iterator@DU?$char_traits@D@std@@@std@@@date_time@boost@@2PEBDEB 	 DATA
	?zone_name_format@?$time_facet@Vptime@posix_time@boost@@DV?$ostreambuf_iterator@DU?$char_traits@D@std@@@std@@@date_time@boost@@2PEBDEB 	 DATA
	??$?0PEAV?$basic_altstringbuf@DU?$char_traits@D@std@@V?$allocator@D@2@@io@boost@@VNo_Op@?$basic_oaltstringstream@DU?$char_traits@D@std@@V?$allocator@D@2@@12@@shared_count@detail@boost@@QEAA@PEAV?$basic_altstringbuf@DU?$char_traits@D@std@@V?$allocator@D@2@@io@2@VNo_Op@?$basic_oaltstringstream@DU?$char_traits@D@std@@V?$allocator@D@2@@42@@Z
	??$?6DU?$char_traits@D@std@@@gregorian@boost@@YAAEAV?$basic_ostream@DU?$char_traits@D@std@@@std@@AEAV23@AEBVdate@01@@Z
	??$?6DU?$char_traits@D@std@@@posix_time@boost@@YAAEAV?$basic_ostream@DU?$char_traits@D@std@@@std@@AEAV23@AEBVptime@01@@Z
	??$?6DU?$char_traits@D@std@@D@std@@YAAEAV?$basic_ostream@DU?$char_traits@D@std@@@0@AEAV10@AEBU?$_Fillobj@D@0@@Z
	??$?6DU?$char_traits@D@std@@V?$allocator@D@1@@boost@@YAAEAV?$basic_ostream@DU?$char_traits@D@std@@@std@@AEAV12@AEBV?$basic_format@DU?$char_traits@D@std@@V?$allocator@D@2@@0@@Z
	??$?6DU?$char_traits@D@std@@V?$allocator@D@1@@std@@YAAEAV?$basic_ostream@DU?$char_traits@D@std@@@0@AEAV10@AEBV?$basic_string@DU?$char_traits@D@std@@V?$allocator@D@2@@0@@Z
	??$?6DU?$char_traits@D@std@@_J@std@@YAAEAV?$basic_ostream@DU?$char_traits@D@std@@@0@AEAV10@AEBU?$_Smanip@_J@0@@Z
	??$?6U?$char_traits@D@std@@@std@@YAAEAV?$basic_ostream@DU?$char_traits@D@std@@@0@AEAV10@D@Z
	??$?6U?$char_traits@D@std@@@std@@YAAEAV?$basic_ostream@DU?$char_traits@D@std@@@0@AEAV10@PEBD@Z
	??$?HDU?$char_traits@D@std@@V?$allocator@D@1@@std@@YA?AV?$basic_string@DU?$char_traits@D@std@@V?$allocator@D@2@@0@$$QEAV10@QEBD@Z
	??$_Allocate_manually_vector_aligned@U_Default_allocate_traits@std@@@std@@YAPEAX_K@Z
	??$_Atomic_address_as@JU?$_Atomic_padded@H@std@@@std@@YAPECJAEAU?$_Atomic_padded@H@0@@Z
	??$_Construct@$00PEBD@?$basic_string@DU?$char_traits@D@std@@V?$allocator@D@2@@std@@AEAAXQEBD_K@Z
	??$_Copy_memmove@PEADPEAD@std@@YAPEADPEAD00@Z
	??$_Copy_memmove@PEAIPEAI@std@@YAPEAIPEAI00@Z
	??$_Copy_memmove@PEAPEADPEAPEAD@std@@YAPEAPEADPEAPEAD00@Z
	??$_Destroy_range@V?$allocator@U?$format_item@DU?$char_traits@D@std@@V?$allocator@D@2@@detail@io@boost@@@std@@@std@@YAXPEAU?$format_item@DU?$char_traits@D@std@@V?$allocator@D@2@@detail@io@boost@@QEAU1234@AEAV?$allocator@U?$format_item@DU?$char_traits@D@std@@V?$allocator@D@2@@detail@io@boost@@@0@@Z
	??$_Destroy_range@V?$allocator@V?$basic_string@DU?$char_traits@D@std@@V?$allocator@D@2@@std@@@std@@@std@@YAXPEAV?$basic_string@DU?$char_traits@D@std@@V?$allocator@D@2@@0@QEAV10@AEAV?$allocator@V?$basic_string@DU?$char_traits@D@std@@V?$allocator@D@2@@std@@@0@@Z
	??$_Emplace_back_internal@AEBD@?$deque@DV?$allocator@D@std@@@std@@AEAAXAEBD@Z
	??$_Emplace_reallocate@V?$basic_string@DU?$char_traits@D@std@@V?$allocator@D@2@@std@@@?$vector@V?$basic_string@DU?$char_traits@D@std@@V?$allocator@D@2@@std@@V?$allocator@V?$basic_string@DU?$char_traits@D@std@@V?$allocator@D@2@@std@@@2@@std@@AEAAPEAV?$basic_string@DU?$char_traits@D@std@@V?$allocator@D@2@@1@QEAV21@$$QEAV21@@Z
	??$_Fill_zero_memset@PEAI@std@@YAXPEAI_K@Z
	??$_Getvals@_W@?$time_get@DV?$istreambuf_iterator@DU?$char_traits@D@std@@@std@@@std@@IEAAX_WAEBV_Locinfo@1@@Z
	??$_Getvals@_W@?$time_get@_WV?$istreambuf_iterator@_WU?$char_traits@_W@std@@@std@@@std@@IEAAX_WAEBV_Locinfo@1@@Z
	??$_Insert_string@DU?$char_traits@D@std@@_K@std@@YAAEAV?$basic_ostream@DU?$char_traits@D@std@@@0@AEAV10@QEBD_K@Z
	??$_Is_all_bits_zero@I@std@@YA_NAEBI@Z
	??$_Maklocchr@D@std@@YADDPEADAEBU_Cvtvec@@@Z
	??$_Maklocstr@D@std@@YAPEADPEBDPEADAEBU_Cvtvec@@@Z
	??$_Reallocate_grow_by@V<lambda_319d5e083f45f90dcdce5dce53cbb275>@@D@?$basic_string@DU?$char_traits@D@std@@V?$allocator@D@2@@std@@AEAAAEAV01@_KV<lambda_319d5e083f45f90dcdce5dce53cbb275>@@D@Z
	??$_Reallocate_grow_by@V<lambda_65e615be2a453ca0576c979606f46740>@@PEBD_K@?$basic_string@DU?$char_traits@D@std@@V?$allocator@D@2@@std@@AEAAAEAV01@_KV<lambda_65e615be2a453ca0576c979606f46740>@@PEBD_K@Z
	??$_Reallocate_grow_by@V<lambda_9013ee9e23efe4882b67eff5b0ecf103>@@$$V@?$basic_string@DU?$char_traits@D@std@@V?$allocator@D@2@@std@@AEAAAEAV01@_KV<lambda_9013ee9e23efe4882b67eff5b0ecf103>@@@Z
	??$_Reallocate_grow_by@V<lambda_e1befb086ad3257e3f042a63030725f7>@@_KD@?$basic_string@DU?$char_traits@D@std@@V?$allocator@D@2@@std@@AEAAAEAV01@_KV<lambda_e1befb086ad3257e3f042a63030725f7>@@_KD@Z
	??$_Reallocate_grow_by@V<lambda_f3a66ab6a0570788f31503db83886f49>@@_KPEBD_K@?$basic_string@DU?$char_traits@D@std@@V?$allocator@D@2@@std@@AEAAAEAV01@_KV<lambda_f3a66ab6a0570788f31503db83886f49>@@_KPEBD2@Z
	??$_Resize_reallocate@I@?$vector@IV?$allocator@I@std@@@std@@AEAAX_KAEBI@Z
	??$_Resize_reallocate@U?$format_item@DU?$char_traits@D@std@@V?$allocator@D@2@@detail@io@boost@@@?$vector@U?$format_item@DU?$char_traits@D@std@@V?$allocator@D@2@@detail@io@boost@@V?$allocator@U?$format_item@DU?$char_traits@D@std@@V?$allocator@D@2@@detail@io@boost@@@std@@@std@@AEAAX_KAEBU?$format_item@DU?$char_traits@D@std@@V?$allocator@D@2@@detail@io@boost@@@Z
	??$_Uninitialized_fill_n@V?$allocator@U?$format_item@DU?$char_traits@D@std@@V?$allocator@D@2@@detail@io@boost@@@std@@@std@@YAPEAU?$format_item@DU?$char_traits@D@std@@V?$allocator@D@2@@detail@io@boost@@PEAU1234@_KAEBU1234@AEAV?$allocator@U?$format_item@DU?$char_traits@D@std@@V?$allocator@D@2@@detail@io@boost@@@0@@Z
	??$_Uninitialized_move@PEAV?$basic_string@DU?$char_traits@D@std@@V?$allocator@D@2@@std@@V?$allocator@V?$basic_string@DU?$char_traits@D@std@@V?$allocator@D@2@@std@@@2@@std@@YAPEAV?$basic_string@DU?$char_traits@D@std@@V?$allocator@D@2@@0@QEAV10@0PEAV10@AEAV?$allocator@V?$basic_string@DU?$char_traits@D@std@@V?$allocator@D@2@@std@@@0@@Z
	??$_Uninitialized_value_construct_n_unchecked1@PEAPEAD_K@std@@YAPEAPEADPEAPEAD_K@Z
	??$_Zero_range@PEAPEAD@std@@YAPEAPEADQEAPEAD0@Z
	??$call_put_head@DU?$char_traits@D@std@@$$CBI@detail@io@boost@@YAXAEAV?$basic_ostream@DU?$char_traits@D@std@@@std@@PEBX@Z
	??$call_put_head@DU?$char_traits@D@std@@$$CBN@detail@io@boost@@YAXAEAV?$basic_ostream@DU?$char_traits@D@std@@@std@@PEBX@Z
	??$call_put_last@DU?$char_traits@D@std@@$$CBI@detail@io@boost@@YAXAEAV?$basic_ostream@DU?$char_traits@D@std@@@std@@PEBX@Z
	??$call_put_last@DU?$char_traits@D@std@@$$CBN@detail@io@boost@@YAXAEAV?$basic_ostream@DU?$char_traits@D@std@@@std@@PEBX@Z
	??$check_find_result@V?$basic_string@DU?$char_traits@D@std@@V?$allocator@D@2@@std@@V?$iterator_range@V?$_String_iterator@V?$_String_val@U?$_Simple_types@D@std@@@std@@@std@@@boost@@@detail@algorithm@boost@@YA_NAEAV?$basic_string@DU?$char_traits@D@std@@V?$allocator@D@2@@std@@AEAV?$iterator_range@V?$_String_iterator@V?$_String_val@U?$_Simple_types@D@std@@@std@@@std@@@2@@Z
	??$const_or_not@V?$ctype@D@std@@@detail@io@boost@@YAAEBV?$ctype@D@std@@AEBV34@@Z
	??$erase_all@V?$basic_string@DU?$char_traits@D@std@@V?$allocator@D@2@@std@@PEBD@algorithm@boost@@YAXAEAV?$basic_string@DU?$char_traits@D@std@@V?$allocator@D@2@@std@@AEBQEBD@Z
	??$erase_all@V?$basic_string@DU?$char_traits@D@std@@V?$allocator@D@2@@std@@V12@@algorithm@boost@@YAXAEAV?$basic_string@DU?$char_traits@D@std@@V?$allocator@D@2@@std@@AEBV23@@Z
	??$feed_impl@DU?$char_traits@D@std@@V?$allocator@D@2@AEBU?$put_holder@DU?$char_traits@D@std@@@detail@io@boost@@@detail@io@boost@@YAAEAV?$basic_format@DU?$char_traits@D@std@@V?$allocator@D@2@@2@AEAV32@AEBU?$put_holder@DU?$char_traits@D@std@@@012@@Z
	??$fill@PEAU?$format_item@DU?$char_traits@D@std@@V?$allocator@D@2@@detail@io@boost@@U1234@@std@@YAXQEAU?$format_item@DU?$char_traits@D@std@@V?$allocator@D@2@@detail@io@boost@@0AEBU1234@@Z
	??$find_format_all@V?$basic_string@DU?$char_traits@D@std@@V?$allocator@D@2@@std@@U?$first_finderF@PEBDUis_equal@algorithm@boost@@@detail@algorithm@boost@@U?$const_formatF@V?$iterator_range@V?$_String_const_iterator@V?$_String_val@U?$_Simple_types@D@std@@@std@@@std@@@boost@@@456@@algorithm@boost@@YAXAEAV?$basic_string@DU?$char_traits@D@std@@V?$allocator@D@2@@std@@U?$first_finderF@PEBDUis_equal@algorithm@boost@@@detail@01@U?$const_formatF@V?$iterator_range@V?$_String_const_iterator@V?$_String_val@U?$_Simple_types@D@std@@@std@@@std@@@boost@@@501@@Z
	??$find_format_all_impl2@V?$basic_string@DU?$char_traits@D@std@@V?$allocator@D@2@@std@@U?$first_finderF@PEBDUis_equal@algorithm@boost@@@detail@algorithm@boost@@U?$const_formatF@V?$iterator_range@PEBD@boost@@@456@V?$iterator_range@V?$_String_iterator@V?$_String_val@U?$_Simple_types@D@std@@@std@@@std@@@6@V?$iterator_range@PEBD@6@@detail@algorithm@boost@@YAXAEAV?$basic_string@DU?$char_traits@D@std@@V?$allocator@D@2@@std@@U?$first_finderF@PEBDUis_equal@algorithm@boost@@@012@U?$const_formatF@V?$iterator_range@PEBD@boost@@@012@V?$iterator_range@V?$_String_iterator@V?$_String_val@U?$_Simple_types@D@std@@@std@@@std@@@2@V?$iterator_range@PEBD@2@@Z
	??$find_format_all_impl2@V?$basic_string@DU?$char_traits@D@std@@V?$allocator@D@2@@std@@U?$first_finderF@PEBDUis_equal@algorithm@boost@@@detail@algorithm@boost@@U?$const_formatF@V?$iterator_range@V?$_String_const_iterator@V?$_String_val@U?$_Simple_types@D@std@@@std@@@std@@@boost@@@456@V?$iterator_range@V?$_String_iterator@V?$_String_val@U?$_Simple_types@D@std@@@std@@@std@@@6@V?$iterator_range@V?$_String_const_iterator@V?$_String_val@U?$_Simple_types@D@std@@@std@@@std@@@6@@detail@algorithm@boost@@YAXAEAV?$basic_string@DU?$char_traits@D@std@@V?$allocator@D@2@@std@@U?$first_finderF@PEBDUis_equal@algorithm@boost@@@012@U?$const_formatF@V?$iterator_range@V?$_String_const_iterator@V?$_String_val@U?$_Simple_types@D@std@@@std@@@std@@@boost@@@012@V?$iterator_range@V?$_String_iterator@V?$_String_val@U?$_Simple_types@D@std@@@std@@@std@@@2@V?$iterator_range@V?$_String_const_iterator@V?$_String_val@U?$_Simple_types@D@std@@@std@@@std@@@2@@Z
	??$find_format_all_impl2@V?$basic_string@DU?$char_traits@D@std@@V?$allocator@D@2@@std@@U?$first_finderF@PEBDUis_equal@algorithm@boost@@@detail@algorithm@boost@@U?$empty_formatF@D@456@V?$iterator_range@V?$_String_iterator@V?$_String_val@U?$_Simple_types@D@std@@@std@@@std@@@6@U?$empty_container@D@456@@detail@algorithm@boost@@YAXAEAV?$basic_string@DU?$char_traits@D@std@@V?$allocator@D@2@@std@@U?$first_finderF@PEBDUis_equal@algorithm@boost@@@012@U?$empty_formatF@D@012@V?$iterator_range@V?$_String_iterator@V?$_String_val@U?$_Simple_types@D@std@@@std@@@std@@@2@U?$empty_container@D@012@@Z
	??$find_format_all_impl2@V?$basic_string@DU?$char_traits@D@std@@V?$allocator@D@2@@std@@U?$first_finderF@V?$_String_const_iterator@V?$_String_val@U?$_Simple_types@D@std@@@std@@@std@@Uis_equal@algorithm@boost@@@detail@algorithm@boost@@U?$empty_formatF@D@456@V?$iterator_range@V?$_String_iterator@V?$_String_val@U?$_Simple_types@D@std@@@std@@@std@@@6@U?$empty_container@D@456@@detail@algorithm@boost@@YAXAEAV?$basic_string@DU?$char_traits@D@std@@V?$allocator@D@2@@std@@U?$first_finderF@V?$_String_const_iterator@V?$_String_val@U?$_Simple_types@D@std@@@std@@@std@@Uis_equal@algorithm@boost@@@012@U?$empty_formatF@D@012@V?$iterator_range@V?$_String_iterator@V?$_String_val@U?$_Simple_types@D@std@@@std@@@std@@@2@U?$empty_container@D@012@@Z
	??$get_local_deleter@VNo_Op@?$basic_oaltstringstream@DU?$char_traits@D@std@@V?$allocator@D@2@@io@boost@@@detail@boost@@YAPEAVNo_Op@?$basic_oaltstringstream@DU?$char_traits@D@std@@V?$allocator@D@2@@io@1@PEAV2341@@Z
	??$has_facet@V?$date_facet@Vdate@gregorian@boost@@DV?$ostreambuf_iterator@DU?$char_traits@D@std@@@std@@@date_time@boost@@@std@@YA_NAEBVlocale@0@@Z
	??$has_facet@V?$time_facet@Vptime@posix_time@boost@@DV?$ostreambuf_iterator@DU?$char_traits@D@std@@@std@@@date_time@boost@@@std@@YA_NAEBVlocale@0@@Z
	??$insert@PEBD$0A@@?$deque@DV?$allocator@D@std@@@std@@QEAA?AV?$_Deque_iterator@V?$_Deque_val@U?$_Deque_simple_types@D@std@@@std@@@1@V?$_Deque_const_iterator@V?$_Deque_val@U?$_Deque_simple_types@D@std@@@std@@@1@PEBD1@Z
	??$insert@V?$_Deque_iterator@V?$_Deque_val@U?$_Deque_simple_types@D@std@@@std@@@std@@$0A@@?$basic_string@DU?$char_traits@D@std@@V?$allocator@D@2@@std@@QEAA?AV?$_String_iterator@V?$_String_val@U?$_Simple_types@D@std@@@std@@@1@V?$_String_const_iterator@V?$_String_val@U?$_Simple_types@D@std@@@std@@@1@V?$_Deque_iterator@V?$_Deque_val@U?$_Deque_simple_types@D@std@@@std@@@1@1@Z
	??$insert@V?$_String_const_iterator@V?$_String_val@U?$_Simple_types@D@std@@@std@@@std@@$0A@@?$deque@DV?$allocator@D@std@@@std@@QEAA?AV?$_Deque_iterator@V?$_Deque_val@U?$_Deque_simple_types@D@std@@@std@@@1@V?$_Deque_const_iterator@V?$_Deque_val@U?$_Deque_simple_types@D@std@@@std@@@1@V?$_String_const_iterator@V?$_String_val@U?$_Simple_types@D@std@@@std@@@1@1@Z
	??$mk_str@DU?$char_traits@D@std@@V?$allocator@D@2@@detail@io@boost@@YAXAEAV?$basic_string@DU?$char_traits@D@std@@V?$allocator@D@2@@std@@PEBD_K_JDHD_N@Z
	??$parse_printf_directive@DU?$char_traits@D@std@@V?$allocator@D@2@V?$_String_const_iterator@V?$_String_val@U?$_Simple_types@D@std@@@std@@@2@V?$ctype@D@2@@detail@io@boost@@YA_NAEAV?$_String_const_iterator@V?$_String_val@U?$_Simple_types@D@std@@@std@@@std@@AEBV34@PEAU?$format_item@DU?$char_traits@D@std@@V?$allocator@D@2@@012@AEBV?$ctype@D@4@_KE@Z
	??$put@DU?$char_traits@D@std@@V?$allocator@D@2@AEBU?$put_holder@DU?$char_traits@D@std@@@detail@io@boost@@@detail@io@boost@@YAXAEBU?$put_holder@DU?$char_traits@D@std@@@012@AEBU?$format_item@DU?$char_traits@D@std@@V?$allocator@D@2@@012@AEAV?$basic_string@DU?$char_traits@D@std@@V?$allocator@D@2@@std@@AEAV?$basic_altstringbuf@DU?$char_traits@D@std@@V?$allocator@D@2@@12@PEAVlocale@6@@Z
	??$replace_all@V?$basic_string@DU?$char_traits@D@std@@V?$allocator@D@2@@std@@PEBDV12@@algorithm@boost@@YAXAEAV?$basic_string@DU?$char_traits@D@std@@V?$allocator@D@2@@std@@AEBQEBDAEBV23@@Z
	??$replace_all@V?$basic_string@DU?$char_traits@D@std@@V?$allocator@D@2@@std@@V?$iterator_range@PEBD@boost@@V34@@algorithm@boost@@YAXAEAV?$basic_string@DU?$char_traits@D@std@@V?$allocator@D@2@@std@@AEBV?$iterator_range@PEBD@1@1@Z
	??$reverse@V?$_Deque_iterator@V?$_Deque_val@U?$_Deque_simple_types@D@std@@@std@@@std@@@std@@YAXV?$_Deque_iterator@V?$_Deque_val@U?$_Deque_simple_types@D@std@@@std@@@0@0@Z
	??$rotate@V?$_Deque_iterator@V?$_Deque_val@U?$_Deque_simple_types@D@std@@@std@@@std@@@std@@YA?AV?$_Deque_iterator@V?$_Deque_val@U?$_Deque_simple_types@D@std@@@std@@@0@V10@00@Z
	??$setfill@D@std@@YA?AU?$_Fillobj@D@0@D@Z
	??$str2int@HV?$_String_const_iterator@V?$_String_val@U?$_Simple_types@D@std@@@std@@@std@@V?$ctype@D@2@@detail@io@boost@@YA?AV?$_String_const_iterator@V?$_String_val@U?$_Simple_types@D@std@@@std@@@std@@AEBV34@0AEAHAEBV?$ctype@D@4@@Z
	??$str2int@_JV?$_String_const_iterator@V?$_String_val@U?$_Simple_types@D@std@@@std@@@std@@V?$ctype@D@2@@detail@io@boost@@YA?AV?$_String_const_iterator@V?$_String_val@U?$_Simple_types@D@std@@@std@@@std@@AEBV34@0AEA_JAEBV?$ctype@D@4@@Z
	??$throw_exception@Ubad_day_of_month@gregorian@boost@@@boost@@YAXAEBUbad_day_of_month@gregorian@0@@Z
	??$throw_exception@Ubad_day_of_year@gregorian@boost@@@boost@@YAXAEBUbad_day_of_year@gregorian@0@@Z
	??$throw_exception@Ubad_month@gregorian@boost@@@boost@@YAXAEBUbad_month@gregorian@0@@Z
	??$throw_exception@Ubad_weekday@gregorian@boost@@@boost@@YAXAEBUbad_weekday@gregorian@0@@Z
	??$throw_exception@Ubad_year@gregorian@boost@@@boost@@YAXAEBUbad_year@gregorian@0@@Z
	??$throw_exception@Vbad_format_string@io@boost@@@boost@@YAXAEBVbad_format_string@io@0@@Z
	??$throw_exception@Vout_of_range@std@@@boost@@YAXAEBVout_of_range@std@@@Z
	??$throw_exception@Vtoo_few_args@io@boost@@@boost@@YAXAEBVtoo_few_args@io@0@@Z
	??$throw_exception@Vtoo_many_args@io@boost@@@boost@@YAXAEBVtoo_many_args@io@0@@Z
	??$uninitialized_copy@PEAPEADPEAPEAD@std@@YAPEAPEADQEAPEAD0PEAPEAD@Z
	??$upper_bound_from_fstring@V?$basic_string@DU?$char_traits@D@std@@V?$allocator@D@2@@std@@V?$ctype@D@2@@detail@io@boost@@YAHAEBV?$basic_string@DU?$char_traits@D@std@@V?$allocator@D@2@@std@@DAEBV?$ctype@D@4@E@Z
	??$use_facet@V?$ctype@D@std@@@std@@YAAEBV?$ctype@D@0@AEBVlocale@0@@Z
	??$use_facet@V?$date_facet@Vdate@gregorian@boost@@DV?$ostreambuf_iterator@DU?$char_traits@D@std@@@std@@@date_time@boost@@@std@@YAAEBV?$date_facet@Vdate@gregorian@boost@@DV?$ostreambuf_iterator@DU?$char_traits@D@std@@@std@@@date_time@boost@@AEBVlocale@0@@Z
	??$use_facet@V?$numpunct@D@std@@@std@@YAAEBV?$numpunct@D@0@AEBVlocale@0@@Z
	??$use_facet@V?$time_facet@Vptime@posix_time@boost@@DV?$ostreambuf_iterator@DU?$char_traits@D@std@@@std@@@date_time@boost@@@std@@YAAEBV?$time_facet@Vptime@posix_time@boost@@DV?$ostreambuf_iterator@DU?$char_traits@D@std@@@std@@@date_time@boost@@AEBVlocale@0@@Z
	??$use_facet@V?$time_put@DV?$ostreambuf_iterator@DU?$char_traits@D@std@@@std@@@std@@@std@@YAAEBV?$time_put@DV?$ostreambuf_iterator@DU?$char_traits@D@std@@@std@@@0@AEBVlocale@0@@Z
	??$wrap_scan_notdigit@V?$_String_const_iterator@V?$_String_val@U?$_Simple_types@D@std@@@std@@@std@@V?$ctype@D@2@@detail@io@boost@@YA?AV?$_String_const_iterator@V?$_String_val@U?$_Simple_types@D@std@@@std@@@std@@AEBV?$ctype@D@4@V34@1@Z
	??0?$basic_format@DU?$char_traits@D@std@@V?$allocator@D@2@@boost@@QEAA@PEBD@Z
	??0?$basic_ostringstream@DU?$char_traits@D@std@@V?$allocator@D@2@@std@@QEAA@XZ
	??0?$basic_string@DU?$char_traits@D@std@@V?$allocator@D@2@@std@@QEAA@AEBV01@@Z
	??0?$basic_string@DU?$char_traits@D@std@@V?$allocator@D@2@@std@@QEAA@QEBD@Z
	??0?$date_facet@Vdate@gregorian@boost@@DV?$ostreambuf_iterator@DU?$char_traits@D@std@@@std@@@date_time@boost@@QEAA@PEBDV?$period_formatter@DV?$ostreambuf_iterator@DU?$char_traits@D@std@@@std@@@12@V?$special_values_formatter@DV?$ostreambuf_iterator@DU?$char_traits@D@std@@@std@@@12@V?$date_generator_formatter@Vdate@gregorian@boost@@DV?$ostreambuf_iterator@DU?$char_traits@D@std@@@std@@@12@_K@Z
	??0?$date_facet@Vdate@gregorian@boost@@DV?$ostreambuf_iterator@DU?$char_traits@D@std@@@std@@@date_time@boost@@QEAA@_K@Z
	??0?$date_generator_formatter@Vdate@gregorian@boost@@DV?$ostreambuf_iterator@DU?$char_traits@D@std@@@std@@@date_time@boost@@QEAA@XZ
	??0?$numpunct@D@std@@QEAA@AEBV_Locinfo@1@_K_N@Z
	??0?$special_values_formatter@DV?$ostreambuf_iterator@DU?$char_traits@D@std@@@std@@@date_time@boost@@QEAA@XZ
	??0?$time_facet@Vptime@posix_time@boost@@DV?$ostreambuf_iterator@DU?$char_traits@D@std@@@std@@@date_time@boost@@QEAA@PEBDV?$period_formatter@DV?$ostreambuf_iterator@DU?$char_traits@D@std@@@std@@@12@AEBV?$special_values_formatter@DV?$ostreambuf_iterator@DU?$char_traits@D@std@@@std@@@12@V?$date_generator_formatter@Vdate@gregorian@boost@@DV?$ostreambuf_iterator@DU?$char_traits@D@std@@@std@@@12@_K@Z
	??0?$time_facet@Vptime@posix_time@boost@@DV?$ostreambuf_iterator@DU?$char_traits@D@std@@@std@@@date_time@boost@@QEAA@_K@Z
	??0?$vector@V?$basic_string@DU?$char_traits@D@std@@V?$allocator@D@2@@std@@V?$allocator@V?$basic_string@DU?$char_traits@D@std@@V?$allocator@D@2@@std@@@2@@std@@QEAA@AEBV01@@Z
	??0?$wrapexcept@Ubad_day_of_month@gregorian@boost@@@boost@@QEAA@AEBU01@@Z
	??0?$wrapexcept@Ubad_day_of_month@gregorian@boost@@@boost@@QEAA@AEBUbad_day_of_month@gregorian@1@@Z
	??0?$wrapexcept@Ubad_day_of_year@gregorian@boost@@@boost@@QEAA@AEBU01@@Z
	??0?$wrapexcept@Ubad_day_of_year@gregorian@boost@@@boost@@QEAA@AEBUbad_day_of_year@gregorian@1@@Z
	??0?$wrapexcept@Ubad_month@gregorian@boost@@@boost@@QEAA@AEBU01@@Z
	??0?$wrapexcept@Ubad_month@gregorian@boost@@@boost@@QEAA@AEBUbad_month@gregorian@1@@Z
	??0?$wrapexcept@Ubad_weekday@gregorian@boost@@@boost@@QEAA@AEBU01@@Z
	??0?$wrapexcept@Ubad_weekday@gregorian@boost@@@boost@@QEAA@AEBUbad_weekday@gregorian@1@@Z
	??0?$wrapexcept@Ubad_year@gregorian@boost@@@boost@@QEAA@AEBU01@@Z
	??0?$wrapexcept@Ubad_year@gregorian@boost@@@boost@@QEAA@AEBUbad_year@gregorian@1@@Z
	??0?$wrapexcept@Vbad_format_string@io@boost@@@boost@@QEAA@AEBU01@@Z
	??0?$wrapexcept@Vbad_format_string@io@boost@@@boost@@QEAA@AEBVbad_format_string@io@1@@Z
	??0?$wrapexcept@Vout_of_range@std@@@boost@@QEAA@AEBU01@@Z
	??0?$wrapexcept@Vout_of_range@std@@@boost@@QEAA@AEBVout_of_range@std@@@Z
	??0?$wrapexcept@Vtoo_few_args@io@boost@@@boost@@QEAA@AEBU01@@Z
	??0?$wrapexcept@Vtoo_few_args@io@boost@@@boost@@QEAA@AEBVtoo_few_args@io@1@@Z
	??0?$wrapexcept@Vtoo_many_args@io@boost@@@boost@@QEAA@AEBU01@@Z
	??0?$wrapexcept@Vtoo_many_args@io@boost@@@boost@@QEAA@AEBVtoo_many_args@io@1@@Z
	??0bad_alloc@std@@QEAA@AEBV01@@Z
	??0bad_array_new_length@std@@QEAA@AEBV01@@Z
	??0bad_array_new_length@std@@QEAA@XZ
	??0bad_cast@std@@QEAA@AEBV01@@Z
	??0bad_cast@std@@QEAA@XZ
	??0bad_day_of_month@gregorian@boost@@QEAA@AEBU012@@Z
	??0bad_day_of_month@gregorian@boost@@QEAA@AEBV?$basic_string@DU?$char_traits@D@std@@V?$allocator@D@2@@std@@@Z
	??0bad_day_of_month@gregorian@boost@@QEAA@XZ
	??0bad_day_of_year@gregorian@boost@@QEAA@AEBU012@@Z
	??0bad_day_of_year@gregorian@boost@@QEAA@XZ
	??0bad_format_string@io@boost@@QEAA@AEBV012@@Z
	??0bad_format_string@io@boost@@QEAA@_K0@Z
	??0bad_month@gregorian@boost@@QEAA@AEBU012@@Z
	??0bad_month@gregorian@boost@@QEAA@XZ
	??0bad_weekday@gregorian@boost@@QEAA@AEBU012@@Z
	??0bad_weekday@gregorian@boost@@QEAA@XZ
	??0bad_year@gregorian@boost@@QEAA@AEBU012@@Z
	??0bad_year@gregorian@boost@@QEAA@XZ
	??0clone_base@exception_detail@boost@@QEAA@AEBV012@@Z
	??0date@gregorian@boost@@QEAA@Vgreg_year@12@Vgreg_month@12@Vgreg_day@12@@Z
	??0date@gregorian@boost@@QEAA@W4special_values@date_time@2@@Z
	??0exception@boost@@QEAA@AEBV01@@Z
	??0exception@std@@QEAA@AEBV01@@Z
	??0format_error@io@boost@@QEAA@AEBV012@@Z
	??0logic_error@std@@QEAA@AEBV01@@Z
	??0out_of_range@std@@QEAA@AEBV01@@Z
	??0out_of_range@std@@QEAA@AEBV?$basic_string@DU?$char_traits@D@std@@V?$allocator@D@2@@1@@Z
	??0time_duration@posix_time@boost@@QEAA@W4special_values@date_time@2@@Z
	??0too_few_args@io@boost@@QEAA@AEBV012@@Z
	??0too_few_args@io@boost@@QEAA@_K0@Z
	??0too_many_args@io@boost@@QEAA@AEBV012@@Z
	??0too_many_args@io@boost@@QEAA@_K0@Z
	??1?$_Restore_old_size_guard@$00@?$deque@DV?$allocator@D@std@@@std@@QEAA@XZ
	??1?$_Restore_old_size_guard@$0A@@?$deque@DV?$allocator@D@std@@@std@@QEAA@XZ
	??1?$_Tidy_guard@V?$numpunct@D@std@@@std@@QEAA@XZ
	??1?$_Tidy_guard@V?$vector@V?$basic_string@DU?$char_traits@D@std@@V?$allocator@D@2@@std@@V?$allocator@V?$basic_string@DU?$char_traits@D@std@@V?$allocator@D@2@@std@@@2@@std@@@std@@QEAA@XZ
	??1?$_Uninitialized_backout_al@V?$allocator@U?$format_item@DU?$char_traits@D@std@@V?$allocator@D@2@@detail@io@boost@@@std@@@std@@QEAA@XZ
	??1?$_Uninitialized_backout_al@V?$allocator@V?$basic_string@DU?$char_traits@D@std@@V?$allocator@D@2@@std@@@std@@@std@@QEAA@XZ
	??1?$base_from_member@V?$shared_ptr@V?$basic_altstringbuf@DU?$char_traits@D@std@@V?$allocator@D@2@@io@boost@@@boost@@$0A@@boost@@QEAA@XZ
	??1?$basic_altstringbuf@DU?$char_traits@D@std@@V?$allocator@D@2@@io@boost@@UEAA@XZ
	??1?$basic_format@DU?$char_traits@D@std@@V?$allocator@D@2@@boost@@QEAA@XZ
	??1?$basic_ostringstream@DU?$char_traits@D@std@@V?$allocator@D@2@@std@@UEAA@XZ
	??1?$basic_string@DU?$char_traits@D@std@@V?$allocator@D@2@@std@@QEAA@XZ
	??1?$basic_stringbuf@DU?$char_traits@D@std@@V?$allocator@D@2@@std@@UEAA@XZ
	??1?$basic_stringstream@DU?$char_traits@D@std@@V?$allocator@D@2@@std@@UEAA@XZ
	??1?$date_facet@Vdate@gregorian@boost@@DV?$ostreambuf_iterator@DU?$char_traits@D@std@@@std@@@date_time@boost@@UEAA@XZ
	??1?$date_generator_formatter@Vdate@gregorian@boost@@DV?$ostreambuf_iterator@DU?$char_traits@D@std@@@std@@@date_time@boost@@QEAA@XZ
	??1?$deque@DV?$allocator@D@std@@@std@@QEAA@XZ
	??1?$format_item@DU?$char_traits@D@std@@V?$allocator@D@2@@detail@io@boost@@QEAA@XZ
	??1?$numpunct@D@std@@MEAA@XZ
	??1?$optional@Vlocale@std@@@boost@@QEAA@XZ
	??1?$period_formatter@DV?$ostreambuf_iterator@DU?$char_traits@D@std@@@std@@@date_time@boost@@QEAA@XZ
	??1?$refcount_ptr@Uerror_info_container@exception_detail@boost@@@exception_detail@boost@@QEAA@XZ
	??1?$special_values_formatter@DV?$ostreambuf_iterator@DU?$char_traits@D@std@@@std@@@date_time@boost@@QEAA@XZ
	??1?$unique_ptr@V_Facet_base@std@@U?$default_delete@V_Facet_base@std@@@2@@std@@QEAA@XZ
	??1?$vector@U?$format_item@DU?$char_traits@D@std@@V?$allocator@D@2@@detail@io@boost@@V?$allocator@U?$format_item@DU?$char_traits@D@std@@V?$allocator@D@2@@detail@io@boost@@@std@@@std@@QEAA@XZ
	??1?$vector@V?$basic_string@DU?$char_traits@D@std@@V?$allocator@D@2@@std@@V?$allocator@V?$basic_string@DU?$char_traits@D@std@@V?$allocator@D@2@@std@@@2@@std@@QEAA@XZ
	??1?$vector@_NV?$allocator@_N@std@@@std@@QEAA@XZ
	??1?$wrapexcept@Ubad_day_of_month@gregorian@boost@@@boost@@UEAA@XZ
	??1?$wrapexcept@Ubad_day_of_year@gregorian@boost@@@boost@@UEAA@XZ
	??1?$wrapexcept@Ubad_month@gregorian@boost@@@boost@@UEAA@XZ
	??1?$wrapexcept@Ubad_weekday@gregorian@boost@@@boost@@UEAA@XZ
	??1?$wrapexcept@Ubad_year@gregorian@boost@@@boost@@UEAA@XZ
	??1?$wrapexcept@Vbad_format_string@io@boost@@@boost@@UEAA@XZ
	??1?$wrapexcept@Vout_of_range@std@@@boost@@UEAA@XZ
	??1?$wrapexcept@Vtoo_few_args@io@boost@@@boost@@UEAA@XZ
	??1?$wrapexcept@Vtoo_many_args@io@boost@@@boost@@UEAA@XZ
	??1_Sentry_base@?$basic_ostream@DU?$char_traits@D@std@@@std@@QEAA@XZ
	??1bad_array_new_length@std@@UEAA@XZ
	??1bad_cast@std@@UEAA@XZ
	??1bad_day_of_month@gregorian@boost@@UEAA@XZ
	??1bad_day_of_year@gregorian@boost@@UEAA@XZ
	??1bad_format_string@io@boost@@UEAA@XZ
	??1bad_month@gregorian@boost@@UEAA@XZ
	??1bad_weekday@gregorian@boost@@UEAA@XZ
	??1bad_year@gregorian@boost@@UEAA@XZ
	??1clone_base@exception_detail@boost@@UEAA@XZ
	??1deleter@?$wrapexcept@Ubad_day_of_month@gregorian@boost@@@boost@@QEAA@XZ
	??1deleter@?$wrapexcept@Ubad_day_of_year@gregorian@boost@@@boost@@QEAA@XZ
	??1deleter@?$wrapexcept@Ubad_month@gregorian@boost@@@boost@@QEAA@XZ
	??1deleter@?$wrapexcept@Ubad_weekday@gregorian@boost@@@boost@@QEAA@XZ
	??1deleter@?$wrapexcept@Ubad_year@gregorian@boost@@@boost@@QEAA@XZ
	??1deleter@?$wrapexcept@Vbad_format_string@io@boost@@@boost@@QEAA@XZ
	??1deleter@?$wrapexcept@Vout_of_range@std@@@boost@@QEAA@XZ
	??1deleter@?$wrapexcept@Vtoo_few_args@io@boost@@@boost@@QEAA@XZ
	??1deleter@?$wrapexcept@Vtoo_many_args@io@boost@@@boost@@QEAA@XZ
	??1exception@boost@@MEAA@XZ
	??1exception@std@@UEAA@XZ
	??1ios_flags_saver@io@boost@@QEAA@XZ
	??1locale@std@@QEAA@XZ
	??1out_of_range@std@@UEAA@XZ
	??1sentry@?$basic_ostream@DU?$char_traits@D@std@@@std@@QEAA@XZ
	??1sp_counted_base@detail@boost@@UEAA@XZ
	??1too_few_args@io@boost@@UEAA@XZ
	??1too_many_args@io@boost@@UEAA@XZ
	??4?$basic_string@DU?$char_traits@D@std@@V?$allocator@D@2@@std@@QEAAAEAV01@$$QEAV01@@Z
	??6detail@nmea@vanetza@@YAAEAV?$basic_ostream@DU?$char_traits@D@std@@@std@@AEAV34@AEBUlatitude@012@@Z
	??6detail@nmea@vanetza@@YAAEAV?$basic_ostream@DU?$char_traits@D@std@@@std@@AEAV34@AEBUlongitude@012@@Z
	??H?$_Vb_iterator@U?$_Wrap_alloc@V?$allocator@I@std@@@std@@@std@@QEBA?AV01@_J@Z
	??Y?$basic_string@DU?$char_traits@D@std@@V?$allocator@D@2@@std@@QEAAAEAV01@AEBV01@@Z
	??Y?$basic_string@DU?$char_traits@D@std@@V?$allocator@D@2@@std@@QEAAAEAV01@D@Z
	??Y?$basic_string@DU?$char_traits@D@std@@V?$allocator@D@2@@std@@QEAAAEAV01@QEBD@Z
	??_D?$basic_oaltstringstream@DU?$char_traits@D@std@@V?$allocator@D@2@@io@boost@@QEAAXXZ
	??_D?$basic_ostringstream@DU?$char_traits@D@std@@V?$allocator@D@2@@std@@QEAAXXZ
	??_D?$basic_stringstream@DU?$char_traits@D@std@@V?$allocator@D@2@@std@@QEAAXXZ
	?_Change_array@?$vector@V?$basic_string@DU?$char_traits@D@std@@V?$allocator@D@2@@std@@V?$allocator@V?$basic_string@DU?$char_traits@D@std@@V?$allocator@D@2@@std@@@2@@std@@AEAAXQEAV?$basic_string@DU?$char_traits@D@std@@V?$allocator@D@2@@2@_K1@Z
	?_Growmap@?$deque@DV?$allocator@D@std@@@std@@AEAAX_K@Z
	?_Insert_x@?$vector@_NV?$allocator@_N@std@@@std@@QEAA_KV?$_Vb_const_iterator@U?$_Wrap_alloc@V?$allocator@I@std@@@std@@@2@_K@Z
	?_Maklocwcs@std@@YAPEA_WPEB_W@Z
	?_Reallocate_exactly@?$vector@V?$basic_string@DU?$char_traits@D@std@@V?$allocator@D@2@@std@@V?$allocator@V?$basic_string@DU?$char_traits@D@std@@V?$allocator@D@2@@std@@@2@@std@@AEAAX_K@Z
	?_Throw_bad_array_new_length@std@@YAXXZ
	?_Throw_bad_cast@std@@YAXXZ
	?_Tidy@?$vector@V?$basic_string@DU?$char_traits@D@std@@V?$allocator@D@2@@std@@V?$allocator@V?$basic_string@DU?$char_traits@D@std@@V?$allocator@D@2@@std@@@2@@std@@AEAAXXZ
	?_Xlen@?$deque@DV?$allocator@D@std@@@std@@AEBAXXZ
	?_Xlen@?$vector@_NV?$allocator@_N@std@@@std@@QEBAXXZ
	?_Xlen_string@std@@YAXXZ
	?_Xlength@?$vector@IV?$allocator@I@std@@@std@@CAXXZ
	?_Xlength@?$vector@U?$format_item@DU?$char_traits@D@std@@V?$allocator@D@2@@detail@io@boost@@V?$allocator@U?$format_item@DU?$char_traits@D@std@@V?$allocator@D@2@@detail@io@boost@@@std@@@std@@CAXXZ
	?_Xlength@?$vector@V?$basic_string@DU?$char_traits@D@std@@V?$allocator@D@2@@std@@V?$allocator@V?$basic_string@DU?$char_traits@D@std@@V?$allocator@D@2@@std@@@2@@std@@CAXXZ
	?_Xran@?$_String_val@U?$_Simple_types@D@std@@@std@@SAXXZ
	?allocate@?$allocator@D@std@@QEAAPEAD_K@Z
	?allocate@?$allocator@U?$format_item@DU?$char_traits@D@std@@V?$allocator@D@2@@detail@io@boost@@@std@@QEAAPEAU?$format_item@DU?$char_traits@D@std@@V?$allocator@D@2@@detail@io@boost@@_K@Z
	?allocate@?$allocator@V?$basic_string@DU?$char_traits@D@std@@V?$allocator@D@2@@std@@@std@@QEAAPEAV?$basic_string@DU?$char_traits@D@std@@V?$allocator@D@2@@2@_K@Z
	?append@?$basic_string@DU?$char_traits@D@std@@V?$allocator@D@2@@std@@QEAAAEAV12@QEBD_K@Z
	?append@?$basic_string@DU?$char_traits@D@std@@V?$allocator@D@2@@std@@QEAAAEAV12@_KD@Z
	?apply_on@?$stream_format_state@DU?$char_traits@D@std@@@detail@io@boost@@QEBAXAEAV?$basic_ios@DU?$char_traits@D@std@@@std@@PEAVlocale@6@@Z
	?as_special@?$date@V0gregorian@boost@@Vgregorian_calendar@12@Vdate_duration@12@@date_time@boost@@QEBA?AW4special_values@23@XZ
	?assign@?$basic_string@DU?$char_traits@D@std@@V?$allocator@D@2@@std@@QEAAAEAV12@QEBD_K@Z
	?assign@?$vector@U?$format_item@DU?$char_traits@D@std@@V?$allocator@D@2@@detail@io@boost@@V?$allocator@U?$format_item@DU?$char_traits@D@std@@V?$allocator@D@2@@detail@io@boost@@@std@@@std@@QEAAX_KAEBU?$format_item@DU?$char_traits@D@std@@V?$allocator@D@2@@detail@io@boost@@@Z
	?checksum@nmea@vanetza@@YAEV?$_String_const_iterator@V?$_String_val@U?$_Simple_types@D@std@@@std@@@std@@0@Z
	?clear@?$basic_format@DU?$char_traits@D@std@@V?$allocator@D@2@@boost@@QEAAAEAV12@XZ
	?clear_buffer@?$basic_altstringbuf@DU?$char_traits@D@std@@V?$allocator@D@2@@io@boost@@QEAAXXZ
	?clone@?$wrapexcept@Ubad_day_of_month@gregorian@boost@@@boost@@UEBAPEBVclone_base@exception_detail@2@XZ
	?clone@?$wrapexcept@Ubad_day_of_year@gregorian@boost@@@boost@@UEBAPEBVclone_base@exception_detail@2@XZ
	?clone@?$wrapexcept@Ubad_month@gregorian@boost@@@boost@@UEBAPEBVclone_base@exception_detail@2@XZ
	?clone@?$wrapexcept@Ubad_weekday@gregorian@boost@@@boost@@UEBAPEBVclone_base@exception_detail@2@XZ
	?clone@?$wrapexcept@Ubad_year@gregorian@boost@@@boost@@UEBAPEBVclone_base@exception_detail@2@XZ
	?clone@?$wrapexcept@Vbad_format_string@io@boost@@@boost@@UEBAPEBVclone_base@exception_detail@2@XZ
	?clone@?$wrapexcept@Vout_of_range@std@@@boost@@UEBAPEBVclone_base@exception_detail@2@XZ
	?clone@?$wrapexcept@Vtoo_few_args@io@boost@@@boost@@UEBAPEBVclone_base@exception_detail@2@XZ
	?clone@?$wrapexcept@Vtoo_many_args@io@boost@@@boost@@UEBAPEBVclone_base@exception_detail@2@XZ
	?compute_states@?$format_item@DU?$char_traits@D@std@@V?$allocator@D@2@@detail@io@boost@@QEAAXXZ
	?copy_boost_exception@exception_detail@boost@@YAXPEAVexception@2@PEBV32@@Z
	?date@?$base_time@Vptime@posix_time@boost@@V?$counted_time_system@U?$counted_time_rep@Vmillisec_posix_time_system_config@posix_time@boost@@@date_time@boost@@@date_time@3@@date_time@boost@@QEBA?AV0gregorian@3@XZ
	?day_of_year@date@gregorian@boost@@QEBA?AV?$constrained_value@V?$simple_exception_policy@G$00$0BGO@Ubad_day_of_year@gregorian@boost@@@CV@boost@@@CV@3@XZ
	?dealloc@?$basic_altstringbuf@DU?$char_traits@D@std@@V?$allocator@D@2@@io@boost@@IEAAXXZ
	?deallocate@?$allocator@D@std@@QEAAXQEAD_K@Z
	?deallocate@?$allocator@I@std@@QEAAXQEAI_K@Z
	?deallocate@?$allocator@U?$format_item@DU?$char_traits@D@std@@V?$allocator@D@2@@detail@io@boost@@@std@@QEAAXQEAU?$format_item@DU?$char_traits@D@std@@V?$allocator@D@2@@detail@io@boost@@_K@Z
	?deallocate@?$allocator@V?$basic_string@DU?$char_traits@D@std@@V?$allocator@D@2@@std@@@std@@QEAAXQEAV?$basic_string@DU?$char_traits@D@std@@V?$allocator@D@2@@2@_K@Z
	?destroy@sp_counted_base@detail@boost@@UEAAXXZ
	?dispose@?$sp_counted_impl_pd@PEAV?$basic_altstringbuf@DU?$char_traits@D@std@@V?$allocator@D@2@@io@boost@@VNo_Op@?$basic_oaltstringstream@DU?$char_traits@D@std@@V?$allocator@D@2@@23@@detail@boost@@UEAAXXZ
	?do_decimal_point@?$numpunct@D@std@@MEBADXZ
	?do_falsename@?$numpunct@D@std@@MEBA?AV?$basic_string@DU?$char_traits@D@std@@V?$allocator@D@2@@2@XZ
	?do_grouping@?$numpunct@D@std@@MEBA?AV?$basic_string@DU?$char_traits@D@std@@V?$allocator@D@2@@2@XZ
	?do_put_special@?$date_facet@Vdate@gregorian@boost@@DV?$ostreambuf_iterator@DU?$char_traits@D@std@@@std@@@date_time@boost@@MEBA?AV?$ostreambuf_iterator@DU?$char_traits@D@std@@@std@@V45@AEAVios_base@5@DW4special_values@23@@Z
	?do_put_tm@?$date_facet@Vdate@gregorian@boost@@DV?$ostreambuf_iterator@DU?$char_traits@D@std@@@std@@@date_time@boost@@MEBA?AV?$ostreambuf_iterator@DU?$char_traits@D@std@@@std@@V45@AEAVios_base@5@DAEBUtm@@V?$basic_string@DU?$char_traits@D@std@@V?$allocator@D@2@@5@@Z
	?do_thousands_sep@?$numpunct@D@std@@MEBADXZ
	?do_truename@?$numpunct@D@std@@MEBA?AV?$basic_string@DU?$char_traits@D@std@@V?$allocator@D@2@@2@XZ
	?erase@?$vector@_NV?$allocator@_N@std@@@std@@QEAA?AV?$_Vb_iterator@U?$_Wrap_alloc@V?$allocator@I@std@@@std@@@2@V?$_Vb_const_iterator@U?$_Wrap_alloc@V?$allocator@I@std@@@std@@@2@0@Z
	?exceptions@?$basic_format@DU?$char_traits@D@std@@V?$allocator@D@2@@boost@@QEBAEXZ
	?find@?$basic_string@DU?$char_traits@D@std@@V?$allocator@D@2@@std@@QEBA_KQEBD_K@Z
	?finish@nmea@vanetza@@YA?AV?$basic_string@DU?$char_traits@D@std@@V?$allocator@D@2@@std@@AEAV?$basic_stringstream@DU?$char_traits@D@std@@V?$allocator@D@2@@4@@Z
	?fixed@std@@YAAEAVios_base@1@AEAV21@@Z
	?fractional_seconds_as_string@?$time_facet@Vptime@posix_time@boost@@DV?$ostreambuf_iterator@DU?$char_traits@D@std@@@std@@@date_time@boost@@KA?AV?$basic_string@DU?$char_traits@D@std@@V?$allocator@D@2@@std@@AEBVtime_duration@posix_time@3@_N@Z
	?from_day_number@?$gregorian_calendar_base@U?$year_month_day_base@Vgreg_year@gregorian@boost@@Vgreg_month@23@Vgreg_day@23@@date_time@boost@@I@date_time@boost@@SA?AU?$year_month_day_base@Vgreg_year@gregorian@boost@@Vgreg_month@23@Vgreg_day@23@@23@I@Z
	?get_deleter@?$sp_counted_impl_pd@PEAV?$basic_altstringbuf@DU?$char_traits@D@std@@V?$allocator@D@2@@io@boost@@VNo_Op@?$basic_oaltstringstream@DU?$char_traits@D@std@@V?$allocator@D@2@@23@@detail@boost@@UEAAPEAXAEBVtype_info@@@Z
	?get_local_deleter@?$sp_counted_impl_pd@PEAV?$basic_altstringbuf@DU?$char_traits@D@std@@V?$allocator@D@2@@io@boost@@VNo_Op@?$basic_oaltstringstream@DU?$char_traits@D@std@@V?$allocator@D@2@@23@@detail@boost@@UEAAPEAXAEBVtype_info@@@Z
	?get_untyped_deleter@?$sp_counted_impl_pd@PEAV?$basic_altstringbuf@DU?$char_traits@D@std@@V?$allocator@D@2@@io@boost@@VNo_Op@?$basic_oaltstringstream@DU?$char_traits@D@std@@V?$allocator@D@2@@23@@detail@boost@@UEAAPEAXXZ
	?getloc@?$basic_format@DU?$char_traits@D@std@@V?$allocator@D@2@@boost@@QEBA?AVlocale@std@@XZ
	?gpgga@nmea@vanetza@@YA?AV?$basic_string@DU?$char_traits@D@std@@V?$allocator@D@2@@std@@AEBVptime@posix_time@boost@@AEBUWgs84Point@2@W4Quality@12@V?$quantity@V?$unit@U?$list@U?$dim@Ulength_base_dimension@units@boost@@V?$static_rational@$00$00@23@@units@boost@@Udimensionless_type@23@@units@boost@@U?$homogeneous_system@U?$list@Umeter_base_unit@si@units@boost@@U?$list@U?$scaled_base_unit@Ugram_base_unit@cgs@units@boost@@U?$scale@$09V?$static_rational@$02$00@units@boost@@@34@@units@boost@@U?$list@Usecond_base_unit@si@units@boost@@U?$list@Uampere_base_unit@si@units@boost@@U?$list@Ukelvin_base_unit@si@units@boost@@U?$list@Umole_base_unit@si@units@boost@@U?$list@Ucandela_base_unit@si@units@boost@@U?$list@Uradian_base_unit@angle@units@boost@@U?$list@Usteradian_base_unit@angle@units@boost@@Udimensionless_type@34@@34@@34@@34@@34@@34@@34@@23@@34@@units@boost@@@23@X@units@boost@@N@units@7@@Z
	?gprmc@nmea@vanetza@@YA?AV?$basic_string@DU?$char_traits@D@std@@V?$allocator@D@2@@std@@AEBVptime@posix_time@boost@@AEBUWgs84Point@2@V?$quantity@V?$unit@U?$list@U?$dim@Ulength_base_dimension@units@boost@@V?$static_rational@$00$00@23@@units@boost@@U?$list@U?$dim@Utime_base_dimension@units@boost@@V?$static_rational@$0?0$00@23@@units@boost@@Udimensionless_type@23@@23@@units@boost@@U?$heterogeneous_system@U?$heterogeneous_system_impl@U?$list@U?$heterogeneous_system_dim@Uknot_base_unit@metric@units@boost@@V?$static_rational@$00$00@34@@units@boost@@Udimensionless_type@23@@units@boost@@U?$list@U?$dim@Ulength_base_dimension@units@boost@@V?$static_rational@$00$00@23@@units@boost@@U?$list@U?$dim@Utime_base_dimension@units@boost@@V?$static_rational@$0?0$00@23@@units@boost@@Udimensionless_type@23@@23@@23@Udimensionless_type@23@@units@boost@@@23@X@units@boost@@N@units@7@V?$quantity@V?$absolute@V?$unit@U?$list@U?$dim@Uplane_angle_base_dimension@units@boost@@V?$static_rational@$00$00@23@@units@boost@@Udimensionless_type@23@@units@boost@@U?$homogeneous_system@U?$list@Udegree_base_unit@angle@units@boost@@Udimensionless_type@34@@units@boost@@@23@X@units@boost@@@units@boost@@N@units@7@@Z
	?latitude@nmea@vanetza@@YA?AU0detail@12@AEBUWgs84Point@2@@Z
	?longitude@nmea@vanetza@@YA?AU0detail@12@AEBUWgs84Point@2@@Z
	?make_or_reuse_data@?$basic_format@DU?$char_traits@D@std@@V?$allocator@D@2@@boost@@AEAAX_K@Z
	?on_error@?$simple_exception_policy@G$00$0BGO@Ubad_day_of_year@gregorian@boost@@@CV@boost@@SAXGGW4violation_enum@23@@Z
	?on_error@?$simple_exception_policy@G$00$0BP@Ubad_day_of_month@gregorian@boost@@@CV@boost@@SAXGGW4violation_enum@23@@Z
	?on_error@?$simple_exception_policy@G$00$0M@Ubad_month@gregorian@boost@@@CV@boost@@SAXGGW4violation_enum@23@@Z
	?on_error@?$simple_exception_policy@G$0A@$05Ubad_weekday@gregorian@boost@@@CV@boost@@SAXGGW4violation_enum@23@@Z
	?on_error@?$simple_exception_policy@G$0FHI@$0CHAP@Ubad_year@gregorian@boost@@@CV@boost@@SAXGGW4violation_enum@23@@Z
	?overflow@?$basic_altstringbuf@DU?$char_traits@D@std@@V?$allocator@D@2@@io@boost@@MEAAHH@Z
	?overflow@?$basic_stringbuf@DU?$char_traits@D@std@@V?$allocator@D@2@@std@@MEAAHH@Z
	?parse@?$basic_format@DU?$char_traits@D@std@@V?$allocator@D@2@@boost@@QEAAAEAV12@AEBV?$basic_string@DU?$char_traits@D@std@@V?$allocator@D@2@@std@@@Z
	?pbackfail@?$basic_altstringbuf@DU?$char_traits@D@std@@V?$allocator@D@2@@io@boost@@MEAAHH@Z
	?pbackfail@?$basic_stringbuf@DU?$char_traits@D@std@@V?$allocator@D@2@@std@@MEAAHH@Z
	?print_latitude@nmea@vanetza@@YAXAEAV?$basic_ostream@DU?$char_traits@D@std@@@std@@AEBUWgs84Point@2@@Z
	?print_longitude@nmea@vanetza@@YAXAEAV?$basic_ostream@DU?$char_traits@D@std@@@std@@AEBUWgs84Point@2@@Z
	?put@?$date_facet@Vdate@gregorian@boost@@DV?$ostreambuf_iterator@DU?$char_traits@D@std@@@std@@@date_time@boost@@QEBA?AV?$ostreambuf_iterator@DU?$char_traits@D@std@@@std@@V45@AEAVios_base@5@DAEBVdate@gregorian@3@@Z
	?put@?$time_facet@Vptime@posix_time@boost@@DV?$ostreambuf_iterator@DU?$char_traits@D@std@@@std@@@date_time@boost@@QEBA?AV?$ostreambuf_iterator@DU?$char_traits@D@std@@@std@@V45@AEAVios_base@5@DAEBVptime@posix_time@3@@Z
	?reserve@?$basic_string@DU?$char_traits@D@std@@V?$allocator@D@2@@std@@QEAAX_K@Z
	?reset@?$format_item@DU?$char_traits@D@std@@V?$allocator@D@2@@detail@io@boost@@QEAAXD@Z
	?resize@?$basic_string@DU?$char_traits@D@std@@V?$allocator@D@2@@std@@QEAAX_KD@Z
	?resize@?$vector@U?$format_item@DU?$char_traits@D@std@@V?$allocator@D@2@@detail@io@boost@@V?$allocator@U?$format_item@DU?$char_traits@D@std@@V?$allocator@D@2@@detail@io@boost@@@std@@@std@@QEAAX_KAEBU?$format_item@DU?$char_traits@D@std@@V?$allocator@D@2@@detail@io@boost@@@Z
	?resize@?$vector@_NV?$allocator@_N@std@@@std@@QEAAX_K_N@Z
	?rethrow@?$wrapexcept@Ubad_day_of_month@gregorian@boost@@@boost@@UEBAXXZ
	?rethrow@?$wrapexcept@Ubad_day_of_year@gregorian@boost@@@boost@@UEBAXXZ
	?rethrow@?$wrapexcept@Ubad_month@gregorian@boost@@@boost@@UEBAXXZ
	?rethrow@?$wrapexcept@Ubad_weekday@gregorian@boost@@@boost@@UEBAXXZ
	?rethrow@?$wrapexcept@Ubad_year@gregorian@boost@@@boost@@UEBAXXZ
	?rethrow@?$wrapexcept@Vbad_format_string@io@boost@@@boost@@UEBAXXZ
	?rethrow@?$wrapexcept@Vout_of_range@std@@@boost@@UEBAXXZ
	?rethrow@?$wrapexcept@Vtoo_few_args@io@boost@@@boost@@UEBAXXZ
	?rethrow@?$wrapexcept@Vtoo_many_args@io@boost@@@boost@@UEBAXXZ
	?seekoff@?$basic_altstringbuf@DU?$char_traits@D@std@@V?$allocator@D@2@@io@boost@@MEAA?AV?$fpos@U_Mbstatet@@@std@@_JHH@Z
	?seekoff@?$basic_stringbuf@DU?$char_traits@D@std@@V?$allocator@D@2@@std@@MEAA?AV?$fpos@U_Mbstatet@@@2@_JHH@Z
	?seekpos@?$basic_altstringbuf@DU?$char_traits@D@std@@V?$allocator@D@2@@io@boost@@MEAA?AV?$fpos@U_Mbstatet@@@std@@V45@H@Z
	?seekpos@?$basic_stringbuf@DU?$char_traits@D@std@@V?$allocator@D@2@@std@@MEAA?AV?$fpos@U_Mbstatet@@@2@V32@H@Z
	?set_iso_extended_format@?$date_facet@Vdate@gregorian@boost@@DV?$ostreambuf_iterator@DU?$char_traits@D@std@@@std@@@date_time@boost@@UEAAXXZ
	?set_iso_extended_format@?$time_facet@Vptime@posix_time@boost@@DV?$ostreambuf_iterator@DU?$char_traits@D@std@@@std@@@date_time@boost@@UEAAXXZ
	?set_iso_format@?$date_facet@Vdate@gregorian@boost@@DV?$ostreambuf_iterator@DU?$char_traits@D@std@@@std@@@date_time@boost@@UEAAXXZ
	?set_iso_format@?$time_facet@Vptime@posix_time@boost@@DV?$ostreambuf_iterator@DU?$char_traits@D@std@@@std@@@date_time@boost@@UEAAXXZ
	?size@?$basic_format@DU?$char_traits@D@std@@V?$allocator@D@2@@boost@@QEBA_KXZ
	?size@?$basic_string@DU?$char_traits@D@std@@V?$allocator@D@2@@std@@QEBA_KXZ
	?sp_enable_shared_from_this@detail@boost@@YAXZZ
	?str@?$basic_format@DU?$char_traits@D@std@@V?$allocator@D@2@@boost@@QEBA?AV?$basic_string@DU?$char_traits@D@std@@V?$allocator@D@2@@std@@XZ
	?str@?$basic_ostringstream@DU?$char_traits@D@std@@V?$allocator@D@2@@std@@QEBA?AV?$basic_string@DU?$char_traits@D@std@@V?$allocator@D@2@@2@XZ
	?str@?$basic_stringbuf@DU?$char_traits@D@std@@V?$allocator@D@2@@std@@QEBA?AV?$basic_string@DU?$char_traits@D@std@@V?$allocator@D@2@@2@XZ
	?time_of_day@?$base_time@Vptime@posix_time@boost@@V?$counted_time_system@U?$counted_time_rep@Vmillisec_posix_time_system_config@posix_time@boost@@@date_time@boost@@@date_time@3@@date_time@boost@@QEBA?AVtime_duration@posix_time@3@XZ
	?to_tm@gregorian@boost@@YA?AUtm@@AEBVdate@12@@Z
	?underflow@?$basic_altstringbuf@DU?$char_traits@D@std@@V?$allocator@D@2@@io@boost@@MEAAHXZ
	?underflow@?$basic_stringbuf@DU?$char_traits@D@std@@V?$allocator@D@2@@std@@MEAAHXZ
	?uppercase@std@@YAAEAVios_base@1@AEAV21@@Z
	?what@bad_format_string@io@boost@@UEBAPEBDXZ
	?what@exception@std@@UEBAPEBDXZ
	?what@format_error@io@boost@@UEBAPEBDXZ
	?what@too_few_args@io@boost@@UEBAPEBDXZ
	?what@too_many_args@io@boost@@UEBAPEBDXZ
