EXPORTS 
	??_R0?AU?$byte_buffer_impl@V?$unique_ptr@VPdu@geonet@vanetza@@U?$default_delete@VPdu@geonet@vanetza@@@std@@@std@@@convertible@vanetza@@@8 	 DATA
	??_R0?AU?$byte_buffer_impl@VSecuredPdu@geonet@vanetza@@@convertible@vanetza@@@8 	 DATA
	??_R0?AU?$wrapexcept@Vfailure@ios_base@std@@@boost@@@8 	 DATA
	??_R0?AU?$wrapexcept@Vlength_error@std@@@boost@@@8 	 DATA
	??_R0?AULocTEX_G5@geonet@vanetza@@@8 	 DATA
	??_R0?AUbyte_buffer@convertible@vanetza@@@8 	 DATA
	??_R0?AV<lambda_5e0a116e2d6524a72cb9a27344976bf6>@@@8 	 DATA
	??_R0?AV<lambda_6e14cc19a7b7a66feb8d443e6224547e>@@@8 	 DATA
	??_R0?AV<lambda_94eaf4af09dce1d91512f71f7e68e4f7>@@@8 	 DATA
	??_R0?AV<lambda_998660ec7709c5781b48f2460704a28d>@@@8 	 DATA
	??_R0?AV<lambda_ace2e5351e8d6488b54e5d993b6d0f7c>@@@8 	 DATA
	??_R0?AV<lambda_cdd8ce8507032cbf359a6017b9b5d9c9>@@@8 	 DATA
	??_R0?AV<lambda_e9a74d497f7f428606c5ca5ca6eca7a6>@@@8 	 DATA
	??_R0?AV?$ExtendedPdu@UBeaconHeader@geonet@vanetza@@@geonet@vanetza@@@8 	 DATA
	??_R0?AV?$ExtendedPdu@UGeoBroadcastHeader@geonet@vanetza@@@geonet@vanetza@@@8 	 DATA
	??_R0?AV?$ExtendedPdu@UShbHeader@geonet@vanetza@@@geonet@vanetza@@@8 	 DATA
	??_R0?AV?$ExtendedPdu@UTsbHeader@geonet@vanetza@@@geonet@vanetza@@@8 	 DATA
	??_R0?AV?$ExtendedPduConstRefs@UBeaconHeader@geonet@vanetza@@@geonet@vanetza@@@8 	 DATA
	??_R0?AV?$ExtendedPduConstRefs@UGeoBroadcastHeader@geonet@vanetza@@@geonet@vanetza@@@8 	 DATA
	??_R0?AV?$ExtendedPduConstRefs@UShbHeader@geonet@vanetza@@@geonet@vanetza@@@8 	 DATA
	??_R0?AV?$ExtendedPduConstRefs@UTsbHeader@geonet@vanetza@@@geonet@vanetza@@@8 	 DATA
	??_R0?AV?$_Binder@U_Unforced@std@@AEAV?$function@$$A6AX$$QEAV?$tuple@V?$unique_ptr@V?$ExtendedPdu@UGeoBroadcastHeader@geonet@vanetza@@@geonet@vanetza@@U?$default_delete@V?$ExtendedPdu@UGeoBroadcastHeader@geonet@vanetza@@@geonet@vanetza@@@std@@@std@@V?$unique_ptr@VChunkPacket@vanetza@@U?$default_delete@VChunkPacket@vanetza@@@std@@@2@@std@@AEBVMacAddress@vanetza@@@Z@2@AEBU?$_Ph@$00@2@AEAVMacAddress@vanetza@@@std@@@8 	 DATA
	??_R0?AV?$_Binder@U_Unforced@std@@AEAV?$function@$$A6AX$$QEAV?$tuple@V?$unique_ptr@V?$ExtendedPdu@UGeoBroadcastHeader@geonet@vanetza@@@geonet@vanetza@@U?$default_delete@V?$ExtendedPdu@UGeoBroadcastHeader@geonet@vanetza@@@geonet@vanetza@@@std@@@std@@V?$unique_ptr@VChunkPacket@vanetza@@U?$default_delete@VChunkPacket@vanetza@@@std@@@2@@std@@AEBVMacAddress@vanetza@@@Z@2@AEBU?$_Ph@$00@2@AEBVMacAddress@vanetza@@@std@@@8 	 DATA
	??_R0?AV?$_Binder@U_Unforced@std@@P8Router@geonet@vanetza@@EAAXAEBV?$variant@UGucDataRequest@geonet@vanetza@@UGbcDataRequest@23@UGacDataRequest@23@UShbDataRequest@23@UTsbDataRequest@23@@boost@@V?$unique_ptr@VChunkPacket@vanetza@@U?$default_delete@VChunkPacket@vanetza@@@std@@@2@@ZPEAV345@AEBU?$_Ph@$00@2@AEBU?$_Ph@$01@2@@std@@@8 	 DATA
	??_R0?AV?$_Binder@XP8Repeater@geonet@vanetza@@EAAXV?$_List_iterator@V?$_List_val@U?$_List_simple_types@URepetition@Repeater@geonet@vanetza@@@std@@@std@@@std@@V?$time_point@VClock@vanetza@@V?$duration@_JU?$ratio@$00$0PECEA@@std@@@chrono@std@@@chrono@5@@ZPEAV123@AEAV45@AEAU?$_Ph@$00@5@@std@@@8 	 DATA
	??_R0?AV?$_Func_base@U?$pair@AEBVMacAddress@vanetza@@AEAVLocationTableEntry@geonet@2@@std@@AEAU?$pair@$$CBVMacAddress@vanetza@@UValueWithHandle@?$SoftStateMap@VMacAddress@vanetza@@VLocationTableEntry@geonet@2@VLocationTableEntryCreator@42@@geonet@2@@2@@std@@@8 	 DATA
	??_R0?AV?$_Func_base@X$$QEAV?$PendingPacket@V?$ExtendedPdu@UGeoBroadcastHeader@geonet@vanetza@@@geonet@vanetza@@$$V@geonet@vanetza@@@std@@@8 	 DATA
	??_R0?AV?$_Func_base@X$$QEAV?$PendingPacket@V?$ExtendedPdu@UGeoBroadcastHeader@geonet@vanetza@@@geonet@vanetza@@AEBVMacAddress@3@@geonet@vanetza@@@std@@@8 	 DATA
	??_R0?AV?$_Func_base@X$$QEAV?$tuple@V?$unique_ptr@V?$ExtendedPdu@UGeoBroadcastHeader@geonet@vanetza@@@geonet@vanetza@@U?$default_delete@V?$ExtendedPdu@UGeoBroadcastHeader@geonet@vanetza@@@geonet@vanetza@@@std@@@std@@V?$unique_ptr@VChunkPacket@vanetza@@U?$default_delete@VChunkPacket@vanetza@@@std@@@2@@std@@@std@@@8 	 DATA
	??_R0?AV?$_Func_base@X$$QEAV?$tuple@V?$unique_ptr@V?$ExtendedPdu@UGeoBroadcastHeader@geonet@vanetza@@@geonet@vanetza@@U?$default_delete@V?$ExtendedPdu@UGeoBroadcastHeader@geonet@vanetza@@@geonet@vanetza@@@std@@@std@@V?$unique_ptr@VChunkPacket@vanetza@@U?$default_delete@VChunkPacket@vanetza@@@std@@@2@@std@@AEBVMacAddress@vanetza@@@std@@@8 	 DATA
	??_R0?AV?$_Func_base@X$$QEAV?$tuple@V?$unique_ptr@V?$ExtendedPdu@UShbHeader@geonet@vanetza@@@geonet@vanetza@@U?$default_delete@V?$ExtendedPdu@UShbHeader@geonet@vanetza@@@geonet@vanetza@@@std@@@std@@V?$unique_ptr@VChunkPacket@vanetza@@U?$default_delete@VChunkPacket@vanetza@@@std@@@2@@std@@@std@@@8 	 DATA
	??_R0?AV?$_Func_base@X$$QEAV?$tuple@V?$unique_ptr@V?$ExtendedPdu@UTsbHeader@geonet@vanetza@@@geonet@vanetza@@U?$default_delete@V?$ExtendedPdu@UTsbHeader@geonet@vanetza@@@geonet@vanetza@@@std@@@std@@V?$unique_ptr@VChunkPacket@vanetza@@U?$default_delete@VChunkPacket@vanetza@@@std@@@2@@std@@@std@@@8 	 DATA
	??_R0?AV?$_Func_base@XAEBV?$variant@UGucDataRequest@geonet@vanetza@@UGbcDataRequest@23@UGacDataRequest@23@UShbDataRequest@23@UTsbDataRequest@23@@boost@@V?$unique_ptr@VChunkPacket@vanetza@@U?$default_delete@VChunkPacket@vanetza@@@std@@@std@@@std@@@8 	 DATA
	??_R0?AV?$_Func_base@XAEBVMacAddress@vanetza@@AEBVLocationTableEntry@geonet@2@@std@@@8 	 DATA
	??_R0?AV?$_Func_base@XPEAX@std@@@8 	 DATA
	??_R0?AV?$_Func_base@XV?$time_point@VClock@vanetza@@V?$duration@_JU?$ratio@$00$0PECEA@@std@@@chrono@std@@@chrono@std@@@std@@@8 	 DATA
	??_R0?AV?$_Func_base@_NAEBU?$pair@$$CBVMacAddress@vanetza@@UValueWithHandle@?$SoftStateMap@VMacAddress@vanetza@@VLocationTableEntry@geonet@2@VLocationTableEntryCreator@42@@geonet@2@@std@@@std@@@8 	 DATA
	??_R0?AV?$_Func_base@_NAEBU?$pair@AEBVMacAddress@vanetza@@AEAVLocationTableEntry@geonet@2@@std@@@std@@@8 	 DATA
	??_R0?AV?$_Func_base@_NAEBVMacAddress@vanetza@@AEBVLocationTableEntry@geonet@2@@std@@@8 	 DATA
	??_R0?AV?$_Func_impl_no_alloc@V<lambda_5e0a116e2d6524a72cb9a27344976bf6>@@X$$QEAV?$tuple@V?$unique_ptr@V?$ExtendedPdu@UGeoBroadcastHeader@geonet@vanetza@@@geonet@vanetza@@U?$default_delete@V?$ExtendedPdu@UGeoBroadcastHeader@geonet@vanetza@@@geonet@vanetza@@@std@@@std@@V?$unique_ptr@VChunkPacket@vanetza@@U?$default_delete@VChunkPacket@vanetza@@@std@@@2@@std@@@std@@@8 	 DATA
	??_R0?AV?$_Func_impl_no_alloc@V<lambda_6e14cc19a7b7a66feb8d443e6224547e>@@XPEAX@std@@@8 	 DATA
	??_R0?AV?$_Func_impl_no_alloc@V<lambda_94eaf4af09dce1d91512f71f7e68e4f7>@@U?$pair@AEBVMacAddress@vanetza@@AEAVLocationTableEntry@geonet@2@@std@@AEAU?$pair@$$CBVMacAddress@vanetza@@UValueWithHandle@?$SoftStateMap@VMacAddress@vanetza@@VLocationTableEntry@geonet@2@VLocationTableEntryCreator@42@@geonet@2@@3@@std@@@8 	 DATA
	??_R0?AV?$_Func_impl_no_alloc@V<lambda_998660ec7709c5781b48f2460704a28d>@@_NAEBU?$pair@$$CBVMacAddress@vanetza@@UValueWithHandle@?$SoftStateMap@VMacAddress@vanetza@@VLocationTableEntry@geonet@2@VLocationTableEntryCreator@42@@geonet@2@@std@@@std@@@8 	 DATA
	??_R0?AV?$_Func_impl_no_alloc@V<lambda_ace2e5351e8d6488b54e5d993b6d0f7c>@@XPEAX@std@@@8 	 DATA
	??_R0?AV?$_Func_impl_no_alloc@V<lambda_cdd8ce8507032cbf359a6017b9b5d9c9>@@X$$QEAV?$tuple@V?$unique_ptr@V?$ExtendedPdu@UGeoBroadcastHeader@geonet@vanetza@@@geonet@vanetza@@U?$default_delete@V?$ExtendedPdu@UGeoBroadcastHeader@geonet@vanetza@@@geonet@vanetza@@@std@@@std@@V?$unique_ptr@VChunkPacket@vanetza@@U?$default_delete@VChunkPacket@vanetza@@@std@@@2@@std@@@std@@@8 	 DATA
	??_R0?AV?$_Func_impl_no_alloc@V<lambda_e9a74d497f7f428606c5ca5ca6eca7a6>@@X$$QEAV?$tuple@V?$unique_ptr@V?$ExtendedPdu@UGeoBroadcastHeader@geonet@vanetza@@@geonet@vanetza@@U?$default_delete@V?$ExtendedPdu@UGeoBroadcastHeader@geonet@vanetza@@@geonet@vanetza@@@std@@@std@@V?$unique_ptr@VChunkPacket@vanetza@@U?$default_delete@VChunkPacket@vanetza@@@std@@@2@@std@@@std@@@8 	 DATA
	??_R0?AV?$_Func_impl_no_alloc@V?$_Binder@U_Unforced@std@@AEAV?$function@$$A6AX$$QEAV?$tuple@V?$unique_ptr@V?$ExtendedPdu@UGeoBroadcastHeader@geonet@vanetza@@@geonet@vanetza@@U?$default_delete@V?$ExtendedPdu@UGeoBroadcastHeader@geonet@vanetza@@@geonet@vanetza@@@std@@@std@@V?$unique_ptr@VChunkPacket@vanetza@@U?$default_delete@VChunkPacket@vanetza@@@std@@@2@@std@@AEBVMacAddress@vanetza@@@Z@2@AEBU?$_Ph@$00@2@AEAVMacAddress@vanetza@@@std@@X$$QEAV?$tuple@V?$unique_ptr@V?$ExtendedPdu@UGeoBroadcastHeader@geonet@vanetza@@@geonet@vanetza@@U?$default_delete@V?$ExtendedPdu@UGeoBroadcastHeader@geonet@vanetza@@@geonet@vanetza@@@std@@@std@@V?$unique_ptr@VChunkPacket@vanetza@@U?$default_delete@VChunkPacket@vanetza@@@std@@@2@@2@@std@@@8 	 DATA
	??_R0?AV?$_Func_impl_no_alloc@V?$_Binder@U_Unforced@std@@AEAV?$function@$$A6AX$$QEAV?$tuple@V?$unique_ptr@V?$ExtendedPdu@UGeoBroadcastHeader@geonet@vanetza@@@geonet@vanetza@@U?$default_delete@V?$ExtendedPdu@UGeoBroadcastHeader@geonet@vanetza@@@geonet@vanetza@@@std@@@std@@V?$unique_ptr@VChunkPacket@vanetza@@U?$default_delete@VChunkPacket@vanetza@@@std@@@2@@std@@AEBVMacAddress@vanetza@@@Z@2@AEBU?$_Ph@$00@2@AEBVMacAddress@vanetza@@@std@@X$$QEAV?$tuple@V?$unique_ptr@V?$ExtendedPdu@UGeoBroadcastHeader@geonet@vanetza@@@geonet@vanetza@@U?$default_delete@V?$ExtendedPdu@UGeoBroadcastHeader@geonet@vanetza@@@geonet@vanetza@@@std@@@std@@V?$unique_ptr@VChunkPacket@vanetza@@U?$default_delete@VChunkPacket@vanetza@@@std@@@2@@2@@std@@@8 	 DATA
	??_R0?AV?$_Func_impl_no_alloc@V?$_Binder@U_Unforced@std@@P8Router@geonet@vanetza@@EAAXAEBV?$variant@UGucDataRequest@geonet@vanetza@@UGbcDataRequest@23@UGacDataRequest@23@UShbDataRequest@23@UTsbDataRequest@23@@boost@@V?$unique_ptr@VChunkPacket@vanetza@@U?$default_delete@VChunkPacket@vanetza@@@std@@@2@@ZPEAV345@AEBU?$_Ph@$00@2@AEBU?$_Ph@$01@2@@std@@XAEBV?$variant@UGucDataRequest@geonet@vanetza@@UGbcDataRequest@23@UGacDataRequest@23@UShbDataRequest@23@UTsbDataRequest@23@@boost@@V?$unique_ptr@VChunkPacket@vanetza@@U?$default_delete@VChunkPacket@vanetza@@@std@@@2@@std@@@8 	 DATA
	??_R0?AV?$_Func_impl_no_alloc@V?$_Binder@XP8Repeater@geonet@vanetza@@EAAXV?$_List_iterator@V?$_List_val@U?$_List_simple_types@URepetition@Repeater@geonet@vanetza@@@std@@@std@@@std@@V?$time_point@VClock@vanetza@@V?$duration@_JU?$ratio@$00$0PECEA@@std@@@chrono@std@@@chrono@5@@ZPEAV123@AEAV45@AEAU?$_Ph@$00@5@@std@@XV?$time_point@VClock@vanetza@@V?$duration@_JU?$ratio@$00$0PECEA@@std@@@chrono@std@@@chrono@2@@std@@@8 	 DATA
	??_R0?AV?$basic_streambuf@DU?$char_traits@D@std@@@std@@@8 	 DATA
	??_R0?AV?$indirect_streambuf@Vbyte_buffer_sink@vanetza@@U?$char_traits@D@std@@V?$allocator@D@4@Uoutput@iostreams@boost@@@detail@iostreams@boost@@@8 	 DATA
	??_R0?AV?$indirect_streambuf@Vbyte_buffer_source@vanetza@@U?$char_traits@D@std@@V?$allocator@D@4@Uinput@iostreams@boost@@@detail@iostreams@boost@@@8 	 DATA
	??_R0?AV?$linked_streambuf@DU?$char_traits@D@std@@@detail@iostreams@boost@@@8 	 DATA
	??_R0?AV?$stream_buffer@Vbyte_buffer_sink@vanetza@@U?$char_traits@D@std@@V?$allocator@D@4@Uoutput@iostreams@boost@@@iostreams@boost@@@8 	 DATA
	??_R0?AV?$stream_buffer@Vbyte_buffer_source@vanetza@@U?$char_traits@D@std@@V?$allocator@D@4@Uinput@iostreams@boost@@@iostreams@boost@@@8 	 DATA
	??_R0?AVCbfCounter@geonet@vanetza@@@8 	 DATA
	??_R0?AVCbfCounterContending@geonet@vanetza@@@8 	 DATA
	??_R0?AVCbfCounterFading@geonet@vanetza@@@8 	 DATA
	??_R0?AVCbfCounterImmortal@geonet@vanetza@@@8 	 DATA
	??_R0?AVConstAccessiblePdu@geonet@vanetza@@@8 	 DATA
	??_R0?AVData@packet_buffer@geonet@vanetza@@@8 	 DATA
	??_R0?AVDccFieldGenerator@geonet@vanetza@@@8 	 DATA
	??_R0?AVDccInformationSharing@geonet@vanetza@@@8 	 DATA
	??_R0?AVDuplicatePacketList@geonet@vanetza@@@8 	 DATA
	??_R0?AVException@InputArchive@vanetza@@@8 	 DATA
	??_R0?AVIndicationContext@geonet@vanetza@@@8 	 DATA
	??_R0?AVIndicationContextBasic@geonet@vanetza@@@8 	 DATA
	??_R0?AVIndicationContextCast@geonet@vanetza@@@8 	 DATA
	??_R0?AVIndicationContextDeserialize@geonet@vanetza@@@8 	 DATA
	??_R0?AVIndicationContextSecured@geonet@vanetza@@@8 	 DATA
	??_R0?AVIndicationContextSecuredCast@geonet@vanetza@@@8 	 DATA
	??_R0?AVIndicationContextSecuredDeserialize@geonet@vanetza@@@8 	 DATA
	??_R0?AVNullDccFieldGenerator@geonet@vanetza@@@8 	 DATA
	??_R0?AVNullRequestInterface@dcc@vanetza@@@8 	 DATA
	??_R0?AVPdu@geonet@vanetza@@@8 	 DATA
	??_R0?AVRequestInterface@dcc@vanetza@@@8 	 DATA
	??_R0?AVVariantPdu@geonet@vanetza@@@8 	 DATA
	??_R0?AV_Iostream_error_category2@std@@@8 	 DATA
	??_R0?AV_System_error@std@@@8 	 DATA
	??_R0?AVbad_alloc@std@@@8 	 DATA
	??_R0?AVbad_array_new_length@std@@@8 	 DATA
	??_R0?AVbyte_buffer_sink@vanetza@@@8 	 DATA
	??_R0?AVbyte_buffer_source@vanetza@@@8 	 DATA
	??_R0?AVclone_base@exception_detail@boost@@@8 	 DATA
	??_R0?AVerror_category@std@@@8 	 DATA
	??_R0?AVexception@boost@@@8 	 DATA
	??_R0?AVexception@std@@@8 	 DATA
	??_R0?AVfailure@ios_base@std@@@8 	 DATA
	??_R0?AVlength_error@std@@@8 	 DATA
	??_R0?AVlogic_error@std@@@8 	 DATA
	??_R0?AVruntime_error@std@@@8 	 DATA
	??_R0?AVsystem_error@std@@@8 	 DATA
	?_Static@?1???$_Immortalize_memcpy_image@V_Iostream_error_category2@std@@@std@@YAAEBV_Iostream_error_category2@1@XZ@4U?$_Constexpr_immortalize_impl@V_Iostream_error_category2@std@@@1@A 	 DATA
	?ether_type@geonet@vanetza@@3V?$EndianType@G$0A@@2@B 	 DATA
	?pdata@?1???B?$integral_constant@_N$00@boost@@QEBAAEBU?$bool_@$00@mpl@2@XZ@4PEBXEB 	 DATA
	?pdata@?1???B?$integral_constant@_N$0A@@boost@@QEBAAEBU?$bool_@$0A@@mpl@2@XZ@4PEBXEB 	 DATA
	??$?0$$V@?$_Compressed_pair@U?$default_delete@V?$ExtendedPdu@UGeoBroadcastHeader@geonet@vanetza@@@geonet@vanetza@@@std@@PEAV?$ExtendedPdu@UGeoBroadcastHeader@geonet@vanetza@@@geonet@vanetza@@$00@std@@QEAA@U_Zero_then_variadic_args_t@1@@Z
	??$?0$$V@?$_Compressed_pair@U?$default_delete@V?$ExtendedPdu@UShbHeader@geonet@vanetza@@@geonet@vanetza@@@std@@PEAV?$ExtendedPdu@UShbHeader@geonet@vanetza@@@geonet@vanetza@@$00@std@@QEAA@U_Zero_then_variadic_args_t@1@@Z
	??$?0$$V@?$_Compressed_pair@U?$default_delete@VCbfCounter@geonet@vanetza@@@std@@PEAVCbfCounter@geonet@vanetza@@$00@std@@QEAA@U_Zero_then_variadic_args_t@1@@Z
	??$?0$$V@?$_Compressed_pair@U?$default_delete@VChunkPacket@vanetza@@@std@@PEAVChunkPacket@vanetza@@$00@std@@QEAA@U_Zero_then_variadic_args_t@1@@Z
	??$?0$$V@?$_Compressed_pair@U?$default_delete@VPdu@geonet@vanetza@@@std@@PEAVPdu@geonet@vanetza@@$00@std@@QEAA@U_Zero_then_variadic_args_t@1@@Z
	??$?0$$V@?$_Compressed_pair@V?$allocator@D@std@@V?$_String_val@U?$_Simple_types@D@std@@@2@$00@std@@QEAA@U_Zero_then_variadic_args_t@1@@Z
	??$?0$$V@?$_Compressed_pair@V?$allocator@E@std@@V?$_Vector_val@U?$_Simple_types@E@std@@@2@$00@std@@QEAA@U_Zero_then_variadic_args_t@1@@Z
	??$?0$$V@?$_Compressed_pair@V?$allocator@U?$_List_node@URepetition@Repeater@geonet@vanetza@@PEAX@std@@@std@@V?$_List_val@U?$_List_simple_types@URepetition@Repeater@geonet@vanetza@@@std@@@2@$00@std@@QEAA@U_Zero_then_variadic_args_t@1@@Z
	??$?0$$V@?$_Compressed_pair@V?$allocator@U?$_List_node@V?$_List_iterator@V?$_List_val@U?$_List_simple_types@V?$tuple@VExpiry@packet_buffer@geonet@vanetza@@V?$unique_ptr@VData@packet_buffer@geonet@vanetza@@U?$default_delete@VData@packet_buffer@geonet@vanetza@@@std@@@std@@@std@@@std@@@std@@@std@@PEAX@std@@@std@@V?$_List_val@U?$_List_simple_types@V?$_List_iterator@V?$_List_val@U?$_List_simple_types@V?$tuple@VExpiry@packet_buffer@geonet@vanetza@@V?$unique_ptr@VData@packet_buffer@geonet@vanetza@@U?$default_delete@VData@packet_buffer@geonet@vanetza@@@std@@@std@@@std@@@std@@@std@@@std@@@std@@@2@$00@std@@QEAA@U_Zero_then_variadic_args_t@1@@Z
	??$?0$$V@?$_Compressed_pair@V?$allocator@U?$_List_node@V?$tuple@VExpiry@packet_buffer@geonet@vanetza@@V?$unique_ptr@VData@packet_buffer@geonet@vanetza@@U?$default_delete@VData@packet_buffer@geonet@vanetza@@@std@@@std@@@std@@PEAX@std@@@std@@V?$_List_val@U?$_List_simple_types@V?$tuple@VExpiry@packet_buffer@geonet@vanetza@@V?$unique_ptr@VData@packet_buffer@geonet@vanetza@@U?$default_delete@VData@packet_buffer@geonet@vanetza@@@std@@@std@@@std@@@std@@@2@$00@std@@QEAA@U_Zero_then_variadic_args_t@1@@Z
	??$?0$$V@?$_Compressed_pair@V?$allocator@U?$_List_node@V?$variant@USignature@v2@security@vanetza@@$$V@boost@@PEAX@std@@@std@@V?$_List_val@U?$_List_simple_types@V?$variant@USignature@v2@security@vanetza@@$$V@boost@@@std@@@2@$00@std@@QEAA@U_Zero_then_variadic_args_t@1@@Z
	??$?0$$V@?$_Compressed_pair@V?$allocator@U?$_List_node@V?$variant@_KUTime64WithStandardDeviation@v2@security@vanetza@@IUThreeDLocation@234@V?$list@V?$array@E$02@std@@V?$allocator@V?$array@E$02@std@@@2@@std@@VIntX@234@V?$variant@$$TV?$array@E$07@std@@V?$recursive_wrapper@UCertificate@v2@security@vanetza@@@boost@@V?$list@UCertificate@v2@security@vanetza@@V?$allocator@UCertificate@v2@security@vanetza@@@std@@@2@UCertificateDigestWithOtherAlgorithm@v2@security@vanetza@@@boost@@V?$variant@V?$array@E$0M@@std@@$$V@boost@@V?$list@URecipientInfo@v2@security@vanetza@@V?$allocator@URecipientInfo@v2@security@vanetza@@@std@@@7@@boost@@PEAX@std@@@std@@V?$_List_val@U?$_List_simple_types@V?$variant@_KUTime64WithStandardDeviation@v2@security@vanetza@@IUThreeDLocation@234@V?$list@V?$array@E$02@std@@V?$allocator@V?$array@E$02@std@@@2@@std@@VIntX@234@V?$variant@$$TV?$array@E$07@std@@V?$recursive_wrapper@UCertificate@v2@security@vanetza@@@boost@@V?$list@UCertificate@v2@security@vanetza@@V?$allocator@UCertificate@v2@security@vanetza@@@std@@@2@UCertificateDigestWithOtherAlgorithm@v2@security@vanetza@@@boost@@V?$variant@V?$array@E$0M@@std@@$$V@boost@@V?$list@URecipientInfo@v2@security@vanetza@@V?$allocator@URecipientInfo@v2@security@vanetza@@@std@@@7@@boost@@@std@@@2@$00@std@@QEAA@U_Zero_then_variadic_args_t@1@@Z
	??$?0$$V@?$_Compressed_pair@V?$allocator@U?$_List_node@VCbfPacket@geonet@vanetza@@PEAX@std@@@std@@V?$_List_val@U?$_List_simple_types@VCbfPacket@geonet@vanetza@@@std@@@2@$00@std@@QEAA@U_Zero_then_variadic_args_t@1@@Z
	??$?0$$V@?$_Compressed_pair@V?$allocator@U?$_Tree_node@U?$pair@$$CBVtype_index@std@@Uobject_handle@ObjectContainer@vanetza@@@std@@PEAX@std@@@std@@V?$_Tree_val@U?$_Tree_simple_types@U?$pair@$$CBVtype_index@std@@Uobject_handle@ObjectContainer@vanetza@@@std@@@std@@@2@$00@std@@QEAA@U_Zero_then_variadic_args_t@1@@Z
	??$?0$$V@?$_Compressed_pair@V?$allocator@U?$_Tree_node@U?$pair@$$CBW4UpperProtocol@geonet@vanetza@@PEAVTransportInterface@23@@std@@PEAX@std@@@std@@V?$_Tree_val@U?$_Tree_simple_types@U?$pair@$$CBW4UpperProtocol@geonet@vanetza@@PEAVTransportInterface@23@@std@@@std@@@2@$00@std@@QEAA@U_Zero_then_variadic_args_t@1@@Z
	??$?0$00@?$EndianType@E$0A@@vanetza@@QEAA@AEBV?$EndianType@E$00@1@@Z
	??$?0$00@?$EndianType@G$0A@@vanetza@@QEAA@AEBV?$EndianType@G$00@1@@Z
	??$?0$00@?$EndianType@I$0A@@vanetza@@QEAA@AEBV?$EndianType@I$00@1@@Z
	??$?0AEAPEAU?$_List_node@U?$pair@$$CBV?$tuple@VAddress@geonet@vanetza@@VSequenceNumber@23@@std@@_K@std@@PEAX@std@@_N$0A@@?$pair@PEAU?$_List_node@U?$pair@$$CBV?$tuple@VAddress@geonet@vanetza@@VSequenceNumber@23@@std@@_K@std@@PEAX@std@@_N@std@@QEAA@AEAPEAU?$_List_node@U?$pair@$$CBV?$tuple@VAddress@geonet@vanetza@@VSequenceNumber@23@@std@@_K@std@@PEAX@1@$$QEA_N@Z
	??$?0AEAPEAU?$_Tree_node@U?$pair@$$CBVtype_index@std@@Uobject_handle@ObjectContainer@vanetza@@@std@@PEAX@std@@_N$0A@@?$pair@PEAU?$_Tree_node@U?$pair@$$CBVtype_index@std@@Uobject_handle@ObjectContainer@vanetza@@@std@@PEAX@std@@_N@std@@QEAA@AEAPEAU?$_Tree_node@U?$pair@$$CBVtype_index@std@@Uobject_handle@ObjectContainer@vanetza@@@std@@PEAX@1@$$QEA_N@Z
	??$?0AEAPEAU?$byte_buffer_impl@VSecuredPdu@geonet@vanetza@@@convertible@vanetza@@@?$_Compressed_pair@U?$default_delete@U?$byte_buffer_impl@VSecuredPdu@geonet@vanetza@@@convertible@vanetza@@@std@@PEAU?$byte_buffer_impl@VSecuredPdu@geonet@vanetza@@@convertible@vanetza@@$00@std@@QEAA@U_Zero_then_variadic_args_t@1@AEAPEAU?$byte_buffer_impl@VSecuredPdu@geonet@vanetza@@@convertible@vanetza@@@Z
	??$?0AEAPEAU?$hashed_index_node@U?$ordered_index_node@Unull_augment_policy@detail@multi_index@boost@@U?$index_node_base@V?$mutant_relation@U?$tagged@$$CBUTimer@CbfPacketBuffer@geonet@vanetza@@Uleft@member_at@relation@bimaps@boost@@@tags@bimaps@boost@@U?$tagged@$$CBV?$tuple@VAddress@geonet@vanetza@@VSequenceNumber@23@@std@@Uright@member_at@relation@bimaps@boost@@@234@V?$_List_iterator@V?$_List_val@U?$_List_simple_types@VCbfPacket@geonet@vanetza@@@std@@@std@@@std@@$00@relation@bimaps@boost@@V?$allocator@V?$mutant_relation@U?$tagged@$$CBUTimer@CbfPacketBuffer@geonet@vanetza@@Uleft@member_at@relation@bimaps@boost@@@tags@bimaps@boost@@U?$tagged@$$CBV?$tuple@VAddress@geonet@vanetza@@VSequenceNumber@23@@std@@Uright@member_at@relation@bimaps@boost@@@234@V?$_List_iterator@V?$_List_val@U?$_List_simple_types@VCbfPacket@geonet@vanetza@@@std@@@std@@@std@@$00@relation@bimaps@boost@@@std@@@234@@detail@multi_index@boost@@@detail@multi_index@boost@@_N$0A@@?$pair@PEAU?$hashed_index_node@U?$ordered_index_node@Unull_augment_policy@detail@multi_index@boost@@U?$index_node_base@V?$mutant_relation@U?$tagged@$$CBUTimer@CbfPacketBuffer@geonet@vanetza@@Uleft@member_at@relation@bimaps@boost@@@tags@bimaps@boost@@U?$tagged@$$CBV?$tuple@VAddress@geonet@vanetza@@VSequenceNumber@23@@std@@Uright@member_at@relation@bimaps@boost@@@234@V?$_List_iterator@V?$_List_val@U?$_List_simple_types@VCbfPacket@geonet@vanetza@@@std@@@std@@@std@@$00@relation@bimaps@boost@@V?$allocator@V?$mutant_relation@U?$tagged@$$CBUTimer@CbfPacketBuffer@geonet@vanetza@@Uleft@member_at@relation@bimaps@boost@@@tags@bimaps@boost@@U?$tagged@$$CBV?$tuple@VAddress@geonet@vanetza@@VSequenceNumber@23@@std@@Uright@member_at@relation@bimaps@boost@@@234@V?$_List_iterator@V?$_List_val@U?$_List_simple_types@VCbfPacket@geonet@vanetza@@@std@@@std@@@std@@$00@relation@bimaps@boost@@@std@@@234@@detail@multi_index@boost@@@detail@multi_index@boost@@_N@std@@QEAA@AEAPEAU?$hashed_index_node@U?$ordered_index_node@Unull_augment_policy@detail@multi_index@boost@@U?$index_node_base@V?$mutant_relation@U?$tagged@$$CBUTimer@CbfPacketBuffer@geonet@vanetza@@Uleft@member_at@relation@bimaps@boost@@@tags@bimaps@boost@@U?$tagged@$$CBV?$tuple@VAddress@geonet@vanetza@@VSequenceNumber@23@@std@@Uright@member_at@relation@bimaps@boost@@@234@V?$_List_iterator@V?$_List_val@U?$_List_simple_types@VCbfPacket@geonet@vanetza@@@std@@@std@@@std@@$00@relation@bimaps@boost@@V?$allocator@V?$mutant_relation@U?$tagged@$$CBUTimer@CbfPacketBuffer@geonet@vanetza@@Uleft@member_at@relation@bimaps@boost@@@tags@bimaps@boost@@U?$tagged@$$CBV?$tuple@VAddress@geonet@vanetza@@VSequenceNumber@23@@std@@Uright@member_at@relation@bimaps@boost@@@234@V?$_List_iterator@V?$_List_val@U?$_List_simple_types@VCbfPacket@geonet@vanetza@@@std@@@std@@@std@@$00@relation@bimaps@boost@@@std@@@234@@detail@multi_index@boost@@@detail@multi_index@boost@@$$QEA_N@Z
	??$?0AEAPEAU?$sequenced_index_node@U?$hashed_index_node@U?$index_node_base@V?$tuple@VAddress@geonet@vanetza@@VSequenceNumber@23@@std@@V?$allocator@V?$tuple@VAddress@geonet@vanetza@@VSequenceNumber@23@@std@@@2@@detail@multi_index@boost@@@detail@multi_index@boost@@@detail@multi_index@boost@@_N$0A@@?$pair@PEAU?$sequenced_index_node@U?$hashed_index_node@U?$index_node_base@V?$tuple@VAddress@geonet@vanetza@@VSequenceNumber@23@@std@@V?$allocator@V?$tuple@VAddress@geonet@vanetza@@VSequenceNumber@23@@std@@@2@@detail@multi_index@boost@@@detail@multi_index@boost@@@detail@multi_index@boost@@_N@std@@QEAA@AEAPEAU?$sequenced_index_node@U?$hashed_index_node@U?$index_node_base@V?$tuple@VAddress@geonet@vanetza@@VSequenceNumber@23@@std@@V?$allocator@V?$tuple@VAddress@geonet@vanetza@@VSequenceNumber@23@@std@@@2@@detail@multi_index@boost@@@detail@multi_index@boost@@@detail@multi_index@boost@@$$QEA_N@Z
	??$?0AEAPEAULocTEX_G5@geonet@vanetza@@@?$_Compressed_pair@U?$default_delete@ULocTEX_G5@geonet@vanetza@@@std@@PEAULocTEX_G5@geonet@vanetza@@$00@std@@QEAA@U_Zero_then_variadic_args_t@1@AEAPEAULocTEX_G5@geonet@vanetza@@@Z
	??$?0AEAPEAUbyte_buffer@convertible@vanetza@@@?$_Compressed_pair@U?$default_delete@Ubyte_buffer@convertible@vanetza@@@std@@PEAUbyte_buffer@convertible@vanetza@@$00@std@@QEAA@U_Zero_then_variadic_args_t@1@AEAPEAUbyte_buffer@convertible@vanetza@@@Z
	??$?0AEAPEAV?$ExtendedPdu@UBeaconHeader@geonet@vanetza@@@geonet@vanetza@@@?$_Compressed_pair@U?$default_delete@V?$ExtendedPdu@UBeaconHeader@geonet@vanetza@@@geonet@vanetza@@@std@@PEAV?$ExtendedPdu@UBeaconHeader@geonet@vanetza@@@geonet@vanetza@@$00@std@@QEAA@U_Zero_then_variadic_args_t@1@AEAPEAV?$ExtendedPdu@UBeaconHeader@geonet@vanetza@@@geonet@vanetza@@@Z
	??$?0AEAPEAV?$ExtendedPdu@UGeoBroadcastHeader@geonet@vanetza@@@geonet@vanetza@@@?$_Compressed_pair@U?$default_delete@V?$ExtendedPdu@UGeoBroadcastHeader@geonet@vanetza@@@geonet@vanetza@@@std@@PEAV?$ExtendedPdu@UGeoBroadcastHeader@geonet@vanetza@@@geonet@vanetza@@$00@std@@QEAA@U_Zero_then_variadic_args_t@1@AEAPEAV?$ExtendedPdu@UGeoBroadcastHeader@geonet@vanetza@@@geonet@vanetza@@@Z
	??$?0AEAPEAV?$ExtendedPdu@UShbHeader@geonet@vanetza@@@geonet@vanetza@@@?$_Compressed_pair@U?$default_delete@V?$ExtendedPdu@UShbHeader@geonet@vanetza@@@geonet@vanetza@@@std@@PEAV?$ExtendedPdu@UShbHeader@geonet@vanetza@@@geonet@vanetza@@$00@std@@QEAA@U_Zero_then_variadic_args_t@1@AEAPEAV?$ExtendedPdu@UShbHeader@geonet@vanetza@@@geonet@vanetza@@@Z
	??$?0AEAPEAV?$ExtendedPdu@UTsbHeader@geonet@vanetza@@@geonet@vanetza@@@?$_Compressed_pair@U?$default_delete@V?$ExtendedPdu@UTsbHeader@geonet@vanetza@@@geonet@vanetza@@@std@@PEAV?$ExtendedPdu@UTsbHeader@geonet@vanetza@@@geonet@vanetza@@$00@std@@QEAA@U_Zero_then_variadic_args_t@1@AEAPEAV?$ExtendedPdu@UTsbHeader@geonet@vanetza@@@geonet@vanetza@@@Z
	??$?0AEAPEAVChunkPacket@vanetza@@@?$_Compressed_pair@U?$default_delete@VChunkPacket@vanetza@@@std@@PEAVChunkPacket@vanetza@@$00@std@@QEAA@U_Zero_then_variadic_args_t@1@AEAPEAVChunkPacket@vanetza@@@Z
	??$?0AEAPEAVData@packet_buffer@geonet@vanetza@@@?$_Compressed_pair@U?$default_delete@VData@packet_buffer@geonet@vanetza@@@std@@PEAVData@packet_buffer@geonet@vanetza@@$00@std@@QEAA@U_Zero_then_variadic_args_t@1@AEAPEAVData@packet_buffer@geonet@vanetza@@@Z
	??$?0AEAPEAVDuplicatePacketList@geonet@vanetza@@@?$_Compressed_pair@U?$default_delete@VDuplicatePacketList@geonet@vanetza@@@std@@PEAVDuplicatePacketList@geonet@vanetza@@$00@std@@QEAA@U_Zero_then_variadic_args_t@1@AEAPEAVDuplicatePacketList@geonet@vanetza@@@Z
	??$?0AEAPEAVPdu@geonet@vanetza@@@?$_Compressed_pair@U?$default_delete@VPdu@geonet@vanetza@@@std@@PEAVPdu@geonet@vanetza@@$00@std@@QEAA@U_Zero_then_variadic_args_t@1@AEAPEAVPdu@geonet@vanetza@@@Z
	??$?0AEAU?$_Ph@$00@std@@@?$_Tuple_val@U?$_Ph@$00@std@@@std@@QEAA@AEAU?$_Ph@$00@1@@Z
	??$?0AEAV?$_List_iterator@V?$_List_val@U?$_List_simple_types@URepetition@Repeater@geonet@vanetza@@@std@@@std@@@std@@@?$_Tuple_val@V?$_List_iterator@V?$_List_val@U?$_List_simple_types@URepetition@Repeater@geonet@vanetza@@@std@@@std@@@std@@@std@@QEAA@AEAV?$_List_iterator@V?$_List_val@U?$_List_simple_types@URepetition@Repeater@geonet@vanetza@@@std@@@std@@@1@@Z
	??$?0AEAV?$function@$$A6AX$$QEAV?$tuple@V?$unique_ptr@V?$ExtendedPdu@UGeoBroadcastHeader@geonet@vanetza@@@geonet@vanetza@@U?$default_delete@V?$ExtendedPdu@UGeoBroadcastHeader@geonet@vanetza@@@geonet@vanetza@@@std@@@std@@V?$unique_ptr@VChunkPacket@vanetza@@U?$default_delete@VChunkPacket@vanetza@@@std@@@2@@std@@AEBVMacAddress@vanetza@@@Z@std@@AEBU?$_Ph@$00@1@AEAVMacAddress@vanetza@@@?$_Compressed_pair@V?$function@$$A6AX$$QEAV?$tuple@V?$unique_ptr@V?$ExtendedPdu@UGeoBroadcastHeader@geonet@vanetza@@@geonet@vanetza@@U?$default_delete@V?$ExtendedPdu@UGeoBroadcastHeader@geonet@vanetza@@@geonet@vanetza@@@std@@@std@@V?$unique_ptr@VChunkPacket@vanetza@@U?$default_delete@VChunkPacket@vanetza@@@std@@@2@@std@@AEBVMacAddress@vanetza@@@Z@std@@V?$tuple@U?$_Ph@$00@std@@VMacAddress@vanetza@@@2@$0A@@std@@QEAA@U_One_then_variadic_args_t@1@AEAV?$function@$$A6AX$$QEAV?$tuple@V?$unique_ptr@V?$ExtendedPdu@UGeoBroadcastHeader@geonet@vanetza@@@geonet@vanetza@@U?$default_delete@V?$ExtendedPdu@UGeoBroadcastHeader@geonet@vanetza@@@geonet@vanetza@@@std@@@std@@V?$unique_ptr@VChunkPacket@vanetza@@U?$default_delete@VChunkPacket@vanetza@@@std@@@2@@std@@AEBVMacAddress@vanetza@@@Z@1@AEBU?$_Ph@$00@1@AEAVMacAddress@vanetza@@@Z
	??$?0AEAV?$function@$$A6AX$$QEAV?$tuple@V?$unique_ptr@V?$ExtendedPdu@UGeoBroadcastHeader@geonet@vanetza@@@geonet@vanetza@@U?$default_delete@V?$ExtendedPdu@UGeoBroadcastHeader@geonet@vanetza@@@geonet@vanetza@@@std@@@std@@V?$unique_ptr@VChunkPacket@vanetza@@U?$default_delete@VChunkPacket@vanetza@@@std@@@2@@std@@AEBVMacAddress@vanetza@@@Z@std@@AEBU?$_Ph@$00@1@AEBVMacAddress@vanetza@@@?$_Compressed_pair@V?$function@$$A6AX$$QEAV?$tuple@V?$unique_ptr@V?$ExtendedPdu@UGeoBroadcastHeader@geonet@vanetza@@@geonet@vanetza@@U?$default_delete@V?$ExtendedPdu@UGeoBroadcastHeader@geonet@vanetza@@@geonet@vanetza@@@std@@@std@@V?$unique_ptr@VChunkPacket@vanetza@@U?$default_delete@VChunkPacket@vanetza@@@std@@@2@@std@@AEBVMacAddress@vanetza@@@Z@std@@V?$tuple@U?$_Ph@$00@std@@VMacAddress@vanetza@@@2@$0A@@std@@QEAA@U_One_then_variadic_args_t@1@AEAV?$function@$$A6AX$$QEAV?$tuple@V?$unique_ptr@V?$ExtendedPdu@UGeoBroadcastHeader@geonet@vanetza@@@geonet@vanetza@@U?$default_delete@V?$ExtendedPdu@UGeoBroadcastHeader@geonet@vanetza@@@geonet@vanetza@@@std@@@std@@V?$unique_ptr@VChunkPacket@vanetza@@U?$default_delete@VChunkPacket@vanetza@@@std@@@2@@std@@AEBVMacAddress@vanetza@@@Z@1@AEBU?$_Ph@$00@1@AEBVMacAddress@vanetza@@@Z
	??$?0AEAV?$unique_ptr@V?$ExtendedPdu@UGeoBroadcastHeader@geonet@vanetza@@@geonet@vanetza@@U?$default_delete@V?$ExtendedPdu@UGeoBroadcastHeader@geonet@vanetza@@@geonet@vanetza@@@std@@@std@@$0A@@?$tuple@AEAV?$unique_ptr@V?$ExtendedPdu@UGeoBroadcastHeader@geonet@vanetza@@@geonet@vanetza@@U?$default_delete@V?$ExtendedPdu@UGeoBroadcastHeader@geonet@vanetza@@@geonet@vanetza@@@std@@@std@@AEAV?$unique_ptr@VChunkPacket@vanetza@@U?$default_delete@VChunkPacket@vanetza@@@std@@@2@@std@@QEAA@AEAV?$unique_ptr@V?$ExtendedPdu@UGeoBroadcastHeader@geonet@vanetza@@@geonet@vanetza@@U?$default_delete@V?$ExtendedPdu@UGeoBroadcastHeader@geonet@vanetza@@@geonet@vanetza@@@std@@@1@AEAV?$unique_ptr@VChunkPacket@vanetza@@U?$default_delete@VChunkPacket@vanetza@@@std@@@1@@Z
	??$?0AEAV?$unique_ptr@V?$ExtendedPdu@UGeoBroadcastHeader@geonet@vanetza@@@geonet@vanetza@@U?$default_delete@V?$ExtendedPdu@UGeoBroadcastHeader@geonet@vanetza@@@geonet@vanetza@@@std@@@std@@@?$_Tuple_val@AEAV?$unique_ptr@V?$ExtendedPdu@UGeoBroadcastHeader@geonet@vanetza@@@geonet@vanetza@@U?$default_delete@V?$ExtendedPdu@UGeoBroadcastHeader@geonet@vanetza@@@geonet@vanetza@@@std@@@std@@@std@@QEAA@AEAV?$unique_ptr@V?$ExtendedPdu@UGeoBroadcastHeader@geonet@vanetza@@@geonet@vanetza@@U?$default_delete@V?$ExtendedPdu@UGeoBroadcastHeader@geonet@vanetza@@@geonet@vanetza@@@std@@@1@@Z
	??$?0AEAV?$unique_ptr@V?$ExtendedPdu@UShbHeader@geonet@vanetza@@@geonet@vanetza@@U?$default_delete@V?$ExtendedPdu@UShbHeader@geonet@vanetza@@@geonet@vanetza@@@std@@@std@@$0A@@?$tuple@AEAV?$unique_ptr@V?$ExtendedPdu@UShbHeader@geonet@vanetza@@@geonet@vanetza@@U?$default_delete@V?$ExtendedPdu@UShbHeader@geonet@vanetza@@@geonet@vanetza@@@std@@@std@@AEAV?$unique_ptr@VChunkPacket@vanetza@@U?$default_delete@VChunkPacket@vanetza@@@std@@@2@@std@@QEAA@AEAV?$unique_ptr@V?$ExtendedPdu@UShbHeader@geonet@vanetza@@@geonet@vanetza@@U?$default_delete@V?$ExtendedPdu@UShbHeader@geonet@vanetza@@@geonet@vanetza@@@std@@@1@AEAV?$unique_ptr@VChunkPacket@vanetza@@U?$default_delete@VChunkPacket@vanetza@@@std@@@1@@Z
	??$?0AEAV?$unique_ptr@V?$ExtendedPdu@UShbHeader@geonet@vanetza@@@geonet@vanetza@@U?$default_delete@V?$ExtendedPdu@UShbHeader@geonet@vanetza@@@geonet@vanetza@@@std@@@std@@@?$_Tuple_val@AEAV?$unique_ptr@V?$ExtendedPdu@UShbHeader@geonet@vanetza@@@geonet@vanetza@@U?$default_delete@V?$ExtendedPdu@UShbHeader@geonet@vanetza@@@geonet@vanetza@@@std@@@std@@@std@@QEAA@AEAV?$unique_ptr@V?$ExtendedPdu@UShbHeader@geonet@vanetza@@@geonet@vanetza@@U?$default_delete@V?$ExtendedPdu@UShbHeader@geonet@vanetza@@@geonet@vanetza@@@std@@@1@@Z
	??$?0AEAV?$unique_ptr@VChunkPacket@vanetza@@U?$default_delete@VChunkPacket@vanetza@@@std@@@std@@@?$_Tuple_val@AEAV?$unique_ptr@VChunkPacket@vanetza@@U?$default_delete@VChunkPacket@vanetza@@@std@@@std@@@std@@QEAA@AEAV?$unique_ptr@VChunkPacket@vanetza@@U?$default_delete@VChunkPacket@vanetza@@@std@@@1@@Z
	??$?0AEAV?$unique_ptr@VPdu@geonet@vanetza@@U?$default_delete@VPdu@geonet@vanetza@@@std@@@std@@$0A@@?$tuple@AEAV?$unique_ptr@VPdu@geonet@vanetza@@U?$default_delete@VPdu@geonet@vanetza@@@std@@@std@@AEAV?$unique_ptr@VChunkPacket@vanetza@@U?$default_delete@VChunkPacket@vanetza@@@std@@@2@@std@@QEAA@AEAV?$unique_ptr@VPdu@geonet@vanetza@@U?$default_delete@VPdu@geonet@vanetza@@@std@@@1@AEAV?$unique_ptr@VChunkPacket@vanetza@@U?$default_delete@VChunkPacket@vanetza@@@std@@@1@@Z
	??$?0AEAV?$unique_ptr@VPdu@geonet@vanetza@@U?$default_delete@VPdu@geonet@vanetza@@@std@@@std@@@?$_Tuple_val@AEAV?$unique_ptr@VPdu@geonet@vanetza@@U?$default_delete@VPdu@geonet@vanetza@@@std@@@std@@@std@@QEAA@AEAV?$unique_ptr@VPdu@geonet@vanetza@@U?$default_delete@VPdu@geonet@vanetza@@@std@@@1@@Z
	??$?0AEAV?$variant@UBeaconHeader@geonet@vanetza@@UGeoBroadcastHeader@23@UShbHeader@23@UTsbHeader@23@@boost@@@?$optional@V?$variant@AEBUBeaconHeader@geonet@vanetza@@AEBUGeoBroadcastHeader@23@AEBUShbHeader@23@AEBUTsbHeader@23@@boost@@@boost@@QEAA@AEAV?$variant@UBeaconHeader@geonet@vanetza@@UGeoBroadcastHeader@23@UShbHeader@23@UTsbHeader@23@@1@_N@Z
	??$?0AEAV?$variant@UBeaconHeader@geonet@vanetza@@UGeoBroadcastHeader@23@UShbHeader@23@UTsbHeader@23@@boost@@V01@@?$optional_base@V?$variant@AEBUBeaconHeader@geonet@vanetza@@AEBUGeoBroadcastHeader@23@AEBUShbHeader@23@AEBUTsbHeader@23@@boost@@@optional_detail@boost@@IEAA@AEAV?$variant@UBeaconHeader@geonet@vanetza@@UGeoBroadcastHeader@23@UShbHeader@23@UTsbHeader@23@@2@PEBV32@@Z
	??$?0AEAVMacAddress@vanetza@@@?$_Tuple_val@VMacAddress@vanetza@@@std@@QEAA@AEAVMacAddress@vanetza@@@Z
	??$?0AEAVSequenceNumber@geonet@vanetza@@@?$_Tuple_val@VSequenceNumber@geonet@vanetza@@@std@@QEAA@AEAVSequenceNumber@geonet@vanetza@@@Z
	??$?0AEBQEAU?$_Tree_node@U?$pair@$$CBW4UpperProtocol@geonet@vanetza@@PEAVTransportInterface@23@@std@@PEAX@std@@_N$0A@@?$pair@PEAU?$_Tree_node@U?$pair@$$CBW4UpperProtocol@geonet@vanetza@@PEAVTransportInterface@23@@std@@PEAX@std@@_N@std@@QEAA@AEBQEAU?$_Tree_node@U?$pair@$$CBW4UpperProtocol@geonet@vanetza@@PEAVTransportInterface@23@@std@@PEAX@1@$$QEA_N@Z
	??$?0AEBU?$_Ph@$00@std@@@?$_Tuple_val@U?$_Ph@$00@std@@@std@@QEAA@AEBU?$_Ph@$00@1@@Z
	??$?0AEBU?$_Ph@$00@std@@AEAVMacAddress@vanetza@@$0A@@?$tuple@U?$_Ph@$00@std@@VMacAddress@vanetza@@@std@@QEAA@AEBU?$_Ph@$00@1@AEAVMacAddress@vanetza@@@Z
	??$?0AEBU?$_Ph@$01@std@@@?$_Tuple_val@U?$_Ph@$01@std@@@std@@QEAA@AEBU?$_Ph@$01@1@@Z
	??$?0AEBU?$less@Vtype_index@std@@@std@@U_Zero_then_variadic_args_t@1@@?$_Compressed_pair@U?$less@Vtype_index@std@@@std@@V?$_Compressed_pair@V?$allocator@U?$_Tree_node@U?$pair@$$CBVtype_index@std@@Uobject_handle@ObjectContainer@vanetza@@@std@@PEAX@std@@@std@@V?$_Tree_val@U?$_Tree_simple_types@U?$pair@$$CBVtype_index@std@@Uobject_handle@ObjectContainer@vanetza@@@std@@@std@@@2@$00@2@$00@std@@QEAA@U_One_then_variadic_args_t@1@AEBU?$less@Vtype_index@std@@@1@$$QEAU_Zero_then_variadic_args_t@1@@Z
	??$?0AEBU?$less@W4UpperProtocol@geonet@vanetza@@@std@@U_Zero_then_variadic_args_t@1@@?$_Compressed_pair@U?$less@W4UpperProtocol@geonet@vanetza@@@std@@V?$_Compressed_pair@V?$allocator@U?$_Tree_node@U?$pair@$$CBW4UpperProtocol@geonet@vanetza@@PEAVTransportInterface@23@@std@@PEAX@std@@@std@@V?$_Tree_val@U?$_Tree_simple_types@U?$pair@$$CBW4UpperProtocol@geonet@vanetza@@PEAVTransportInterface@23@@std@@@std@@@2@$00@2@$00@std@@QEAA@U_One_then_variadic_args_t@1@AEBU?$less@W4UpperProtocol@geonet@vanetza@@@1@$$QEAU_Zero_then_variadic_args_t@1@@Z
	??$?0AEBUpiecewise_construct_t@std@@V?$tuple@AEBV?$tuple@VAddress@geonet@vanetza@@VSequenceNumber@23@@std@@@1@V?$tuple@$$QEA_K@1@@?$_List_node_emplace_op2@V?$allocator@U?$_List_node@U?$pair@$$CBV?$tuple@VAddress@geonet@vanetza@@VSequenceNumber@23@@std@@UValueWithHandle@?$SoftStateMap@V?$tuple@VAddress@geonet@vanetza@@VSequenceNumber@23@@std@@_KU?$SoftStateDefaultCreator@_K@geonet@vanetza@@@geonet@vanetza@@@std@@PEAX@std@@@std@@@std@@QEAA@AEAV?$allocator@U?$_List_node@U?$pair@$$CBV?$tuple@VAddress@geonet@vanetza@@VSequenceNumber@23@@std@@UValueWithHandle@?$SoftStateMap@V?$tuple@VAddress@geonet@vanetza@@VSequenceNumber@23@@std@@_KU?$SoftStateDefaultCreator@_K@geonet@vanetza@@@geonet@vanetza@@@std@@PEAX@std@@@1@AEBUpiecewise_construct_t@1@$$QEAV?$tuple@AEBV?$tuple@VAddress@geonet@vanetza@@VSequenceNumber@23@@std@@@1@$$QEAV?$tuple@$$QEA_K@1@@Z
	??$?0AEBUpiecewise_construct_t@std@@V?$tuple@AEBV?$tuple@VAddress@geonet@vanetza@@VSequenceNumber@23@@std@@@1@V?$tuple@$$V@1@@?$_List_node_emplace_op2@V?$allocator@U?$_List_node@U?$pair@$$CBV?$tuple@VAddress@geonet@vanetza@@VSequenceNumber@23@@std@@_K@std@@PEAX@std@@@std@@@std@@QEAA@AEAV?$allocator@U?$_List_node@U?$pair@$$CBV?$tuple@VAddress@geonet@vanetza@@VSequenceNumber@23@@std@@_K@std@@PEAX@std@@@1@AEBUpiecewise_construct_t@1@$$QEAV?$tuple@AEBV?$tuple@VAddress@geonet@vanetza@@VSequenceNumber@23@@std@@@1@$$QEAV?$tuple@$$V@1@@Z
	??$?0AEBUpiecewise_construct_t@std@@V?$tuple@AEBVMacAddress@vanetza@@@1@V?$tuple@$$QEAVLocationTableEntry@geonet@vanetza@@@1@@?$_List_node_emplace_op2@V?$allocator@U?$_List_node@U?$pair@$$CBVMacAddress@vanetza@@UValueWithHandle@?$SoftStateMap@VMacAddress@vanetza@@VLocationTableEntry@geonet@2@VLocationTableEntryCreator@42@@geonet@2@@std@@PEAX@std@@@std@@@std@@QEAA@AEAV?$allocator@U?$_List_node@U?$pair@$$CBVMacAddress@vanetza@@UValueWithHandle@?$SoftStateMap@VMacAddress@vanetza@@VLocationTableEntry@geonet@2@VLocationTableEntryCreator@42@@geonet@2@@std@@PEAX@std@@@1@AEBUpiecewise_construct_t@1@$$QEAV?$tuple@AEBVMacAddress@vanetza@@@1@$$QEAV?$tuple@$$QEAVLocationTableEntry@geonet@vanetza@@@1@@Z
	??$?0AEBUpiecewise_construct_t@std@@V?$tuple@AEBW4UpperProtocol@geonet@vanetza@@@1@V?$tuple@$$V@1@@?$_Tree_temp_node@V?$allocator@U?$_Tree_node@U?$pair@$$CBW4UpperProtocol@geonet@vanetza@@PEAVTransportInterface@23@@std@@PEAX@std@@@std@@@std@@QEAA@AEAV?$allocator@U?$_Tree_node@U?$pair@$$CBW4UpperProtocol@geonet@vanetza@@PEAVTransportInterface@23@@std@@PEAX@std@@@1@PEAU?$_Tree_node@U?$pair@$$CBW4UpperProtocol@geonet@vanetza@@PEAVTransportInterface@23@@std@@PEAX@1@AEBUpiecewise_construct_t@1@$$QEAV?$tuple@AEBW4UpperProtocol@geonet@vanetza@@@1@$$QEAV?$tuple@$$V@1@@Z
	??$?0AEBV<lambda_5e0a116e2d6524a72cb9a27344976bf6>@@$0A@@?$_Func_impl_no_alloc@V<lambda_5e0a116e2d6524a72cb9a27344976bf6>@@X$$QEAV?$tuple@V?$unique_ptr@V?$ExtendedPdu@UGeoBroadcastHeader@geonet@vanetza@@@geonet@vanetza@@U?$default_delete@V?$ExtendedPdu@UGeoBroadcastHeader@geonet@vanetza@@@geonet@vanetza@@@std@@@std@@V?$unique_ptr@VChunkPacket@vanetza@@U?$default_delete@VChunkPacket@vanetza@@@std@@@2@@std@@@std@@QEAA@AEBV<lambda_5e0a116e2d6524a72cb9a27344976bf6>@@@Z
	??$?0AEBV<lambda_6e14cc19a7b7a66feb8d443e6224547e>@@$0A@@?$_Func_impl_no_alloc@V<lambda_6e14cc19a7b7a66feb8d443e6224547e>@@XPEAX@std@@QEAA@AEBV<lambda_6e14cc19a7b7a66feb8d443e6224547e>@@@Z
	??$?0AEBV<lambda_94eaf4af09dce1d91512f71f7e68e4f7>@@$0A@@?$_Func_impl_no_alloc@V<lambda_94eaf4af09dce1d91512f71f7e68e4f7>@@U?$pair@AEBVMacAddress@vanetza@@AEAVLocationTableEntry@geonet@2@@std@@AEAU?$pair@$$CBVMacAddress@vanetza@@UValueWithHandle@?$SoftStateMap@VMacAddress@vanetza@@VLocationTableEntry@geonet@2@VLocationTableEntryCreator@42@@geonet@2@@3@@std@@QEAA@AEBV<lambda_94eaf4af09dce1d91512f71f7e68e4f7>@@@Z
	??$?0AEBV<lambda_998660ec7709c5781b48f2460704a28d>@@$0A@@?$_Func_impl_no_alloc@V<lambda_998660ec7709c5781b48f2460704a28d>@@_NAEBU?$pair@$$CBVMacAddress@vanetza@@UValueWithHandle@?$SoftStateMap@VMacAddress@vanetza@@VLocationTableEntry@geonet@2@VLocationTableEntryCreator@42@@geonet@2@@std@@@std@@QEAA@AEBV<lambda_998660ec7709c5781b48f2460704a28d>@@@Z
	??$?0AEBV<lambda_ace2e5351e8d6488b54e5d993b6d0f7c>@@$0A@@?$_Func_impl_no_alloc@V<lambda_ace2e5351e8d6488b54e5d993b6d0f7c>@@XPEAX@std@@QEAA@AEBV<lambda_ace2e5351e8d6488b54e5d993b6d0f7c>@@@Z
	??$?0AEBV<lambda_cdd8ce8507032cbf359a6017b9b5d9c9>@@$0A@@?$_Func_impl_no_alloc@V<lambda_cdd8ce8507032cbf359a6017b9b5d9c9>@@X$$QEAV?$tuple@V?$unique_ptr@V?$ExtendedPdu@UGeoBroadcastHeader@geonet@vanetza@@@geonet@vanetza@@U?$default_delete@V?$ExtendedPdu@UGeoBroadcastHeader@geonet@vanetza@@@geonet@vanetza@@@std@@@std@@V?$unique_ptr@VChunkPacket@vanetza@@U?$default_delete@VChunkPacket@vanetza@@@std@@@2@@std@@@std@@QEAA@AEBV<lambda_cdd8ce8507032cbf359a6017b9b5d9c9>@@@Z
	??$?0AEBV<lambda_e9a74d497f7f428606c5ca5ca6eca7a6>@@$0A@@?$_Func_impl_no_alloc@V<lambda_e9a74d497f7f428606c5ca5ca6eca7a6>@@X$$QEAV?$tuple@V?$unique_ptr@V?$ExtendedPdu@UGeoBroadcastHeader@geonet@vanetza@@@geonet@vanetza@@U?$default_delete@V?$ExtendedPdu@UGeoBroadcastHeader@geonet@vanetza@@@geonet@vanetza@@@std@@@std@@V?$unique_ptr@VChunkPacket@vanetza@@U?$default_delete@VChunkPacket@vanetza@@@std@@@2@@std@@@std@@QEAA@AEBV<lambda_e9a74d497f7f428606c5ca5ca6eca7a6>@@@Z
	??$?0AEBV?$_Binder@U_Unforced@std@@AEAV?$function@$$A6AX$$QEAV?$tuple@V?$unique_ptr@V?$ExtendedPdu@UGeoBroadcastHeader@geonet@vanetza@@@geonet@vanetza@@U?$default_delete@V?$ExtendedPdu@UGeoBroadcastHeader@geonet@vanetza@@@geonet@vanetza@@@std@@@std@@V?$unique_ptr@VChunkPacket@vanetza@@U?$default_delete@VChunkPacket@vanetza@@@std@@@2@@std@@AEBVMacAddress@vanetza@@@Z@2@AEBU?$_Ph@$00@2@AEAVMacAddress@vanetza@@@std@@$0A@@?$_Func_impl_no_alloc@V?$_Binder@U_Unforced@std@@AEAV?$function@$$A6AX$$QEAV?$tuple@V?$unique_ptr@V?$ExtendedPdu@UGeoBroadcastHeader@geonet@vanetza@@@geonet@vanetza@@U?$default_delete@V?$ExtendedPdu@UGeoBroadcastHeader@geonet@vanetza@@@geonet@vanetza@@@std@@@std@@V?$unique_ptr@VChunkPacket@vanetza@@U?$default_delete@VChunkPacket@vanetza@@@std@@@2@@std@@AEBVMacAddress@vanetza@@@Z@2@AEBU?$_Ph@$00@2@AEAVMacAddress@vanetza@@@std@@X$$QEAV?$tuple@V?$unique_ptr@V?$ExtendedPdu@UGeoBroadcastHeader@geonet@vanetza@@@geonet@vanetza@@U?$default_delete@V?$ExtendedPdu@UGeoBroadcastHeader@geonet@vanetza@@@geonet@vanetza@@@std@@@std@@V?$unique_ptr@VChunkPacket@vanetza@@U?$default_delete@VChunkPacket@vanetza@@@std@@@2@@2@@std@@QEAA@AEBV?$_Binder@U_Unforced@std@@AEAV?$function@$$A6AX$$QEAV?$tuple@V?$unique_ptr@V?$ExtendedPdu@UGeoBroadcastHeader@geonet@vanetza@@@geonet@vanetza@@U?$default_delete@V?$ExtendedPdu@UGeoBroadcastHeader@geonet@vanetza@@@geonet@vanetza@@@std@@@std@@V?$unique_ptr@VChunkPacket@vanetza@@U?$default_delete@VChunkPacket@vanetza@@@std@@@2@@std@@AEBVMacAddress@vanetza@@@Z@2@AEBU?$_Ph@$00@2@AEAVMacAddress@vanetza@@@1@@Z
	??$?0AEBV?$_Binder@U_Unforced@std@@AEAV?$function@$$A6AX$$QEAV?$tuple@V?$unique_ptr@V?$ExtendedPdu@UGeoBroadcastHeader@geonet@vanetza@@@geonet@vanetza@@U?$default_delete@V?$ExtendedPdu@UGeoBroadcastHeader@geonet@vanetza@@@geonet@vanetza@@@std@@@std@@V?$unique_ptr@VChunkPacket@vanetza@@U?$default_delete@VChunkPacket@vanetza@@@std@@@2@@std@@AEBVMacAddress@vanetza@@@Z@2@AEBU?$_Ph@$00@2@AEBVMacAddress@vanetza@@@std@@$0A@@?$_Func_impl_no_alloc@V?$_Binder@U_Unforced@std@@AEAV?$function@$$A6AX$$QEAV?$tuple@V?$unique_ptr@V?$ExtendedPdu@UGeoBroadcastHeader@geonet@vanetza@@@geonet@vanetza@@U?$default_delete@V?$ExtendedPdu@UGeoBroadcastHeader@geonet@vanetza@@@geonet@vanetza@@@std@@@std@@V?$unique_ptr@VChunkPacket@vanetza@@U?$default_delete@VChunkPacket@vanetza@@@std@@@2@@std@@AEBVMacAddress@vanetza@@@Z@2@AEBU?$_Ph@$00@2@AEBVMacAddress@vanetza@@@std@@X$$QEAV?$tuple@V?$unique_ptr@V?$ExtendedPdu@UGeoBroadcastHeader@geonet@vanetza@@@geonet@vanetza@@U?$default_delete@V?$ExtendedPdu@UGeoBroadcastHeader@geonet@vanetza@@@geonet@vanetza@@@std@@@std@@V?$unique_ptr@VChunkPacket@vanetza@@U?$default_delete@VChunkPacket@vanetza@@@std@@@2@@2@@std@@QEAA@AEBV?$_Binder@U_Unforced@std@@AEAV?$function@$$A6AX$$QEAV?$tuple@V?$unique_ptr@V?$ExtendedPdu@UGeoBroadcastHeader@geonet@vanetza@@@geonet@vanetza@@U?$default_delete@V?$ExtendedPdu@UGeoBroadcastHeader@geonet@vanetza@@@geonet@vanetza@@@std@@@std@@V?$unique_ptr@VChunkPacket@vanetza@@U?$default_delete@VChunkPacket@vanetza@@@std@@@2@@std@@AEBVMacAddress@vanetza@@@Z@2@AEBU?$_Ph@$00@2@AEBVMacAddress@vanetza@@@1@@Z
	??$?0AEBV?$_Binder@U_Unforced@std@@P8Router@geonet@vanetza@@EAAXAEBV?$variant@UGucDataRequest@geonet@vanetza@@UGbcDataRequest@23@UGacDataRequest@23@UShbDataRequest@23@UTsbDataRequest@23@@boost@@V?$unique_ptr@VChunkPacket@vanetza@@U?$default_delete@VChunkPacket@vanetza@@@std@@@2@@ZPEAV345@AEBU?$_Ph@$00@2@AEBU?$_Ph@$01@2@@std@@$0A@@?$_Func_impl_no_alloc@V?$_Binder@U_Unforced@std@@P8Router@geonet@vanetza@@EAAXAEBV?$variant@UGucDataRequest@geonet@vanetza@@UGbcDataRequest@23@UGacDataRequest@23@UShbDataRequest@23@UTsbDataRequest@23@@boost@@V?$unique_ptr@VChunkPacket@vanetza@@U?$default_delete@VChunkPacket@vanetza@@@std@@@2@@ZPEAV345@AEBU?$_Ph@$00@2@AEBU?$_Ph@$01@2@@std@@XAEBV?$variant@UGucDataRequest@geonet@vanetza@@UGbcDataRequest@23@UGacDataRequest@23@UShbDataRequest@23@UTsbDataRequest@23@@boost@@V?$unique_ptr@VChunkPacket@vanetza@@U?$default_delete@VChunkPacket@vanetza@@@std@@@2@@std@@QEAA@AEBV?$_Binder@U_Unforced@std@@P8Router@geonet@vanetza@@EAAXAEBV?$variant@UGucDataRequest@geonet@vanetza@@UGbcDataRequest@23@UGacDataRequest@23@UShbDataRequest@23@UTsbDataRequest@23@@boost@@V?$unique_ptr@VChunkPacket@vanetza@@U?$default_delete@VChunkPacket@vanetza@@@std@@@2@@ZPEAV345@AEBU?$_Ph@$00@2@AEBU?$_Ph@$01@2@@1@@Z
	??$?0AEBV?$_Binder@XP8Repeater@geonet@vanetza@@EAAXV?$_List_iterator@V?$_List_val@U?$_List_simple_types@URepetition@Repeater@geonet@vanetza@@@std@@@std@@@std@@V?$time_point@VClock@vanetza@@V?$duration@_JU?$ratio@$00$0PECEA@@std@@@chrono@std@@@chrono@5@@ZPEAV123@AEAV45@AEAU?$_Ph@$00@5@@std@@$0A@@?$_Func_impl_no_alloc@V?$_Binder@XP8Repeater@geonet@vanetza@@EAAXV?$_List_iterator@V?$_List_val@U?$_List_simple_types@URepetition@Repeater@geonet@vanetza@@@std@@@std@@@std@@V?$time_point@VClock@vanetza@@V?$duration@_JU?$ratio@$00$0PECEA@@std@@@chrono@std@@@chrono@5@@ZPEAV123@AEAV45@AEAU?$_Ph@$00@5@@std@@XV?$time_point@VClock@vanetza@@V?$duration@_JU?$ratio@$00$0PECEA@@std@@@chrono@std@@@chrono@2@@std@@QEAA@AEBV?$_Binder@XP8Repeater@geonet@vanetza@@EAAXV?$_List_iterator@V?$_List_val@U?$_List_simple_types@URepetition@Repeater@geonet@vanetza@@@std@@@std@@@std@@V?$time_point@VClock@vanetza@@V?$duration@_JU?$ratio@$00$0PECEA@@std@@@chrono@std@@@chrono@5@@ZPEAV123@AEAV45@AEAU?$_Ph@$00@5@@1@@Z
	??$?0AEBV?$allocator@E@std@@$$V@?$_Compressed_pair@V?$allocator@E@std@@V?$_Vector_val@U?$_Simple_types@E@std@@@2@$00@std@@QEAA@U_One_then_variadic_args_t@1@AEBV?$allocator@E@1@@Z
	??$?0AEBV?$allocator@U?$pair@$$CBV?$tuple@VAddress@geonet@vanetza@@VSequenceNumber@23@@std@@UValueWithHandle@?$SoftStateMap@V?$tuple@VAddress@geonet@vanetza@@VSequenceNumber@23@@std@@_KU?$SoftStateDefaultCreator@_K@geonet@vanetza@@@geonet@vanetza@@@std@@@std@@$$V@?$_Compressed_pair@V?$allocator@U?$_List_node@U?$pair@$$CBV?$tuple@VAddress@geonet@vanetza@@VSequenceNumber@23@@std@@UValueWithHandle@?$SoftStateMap@V?$tuple@VAddress@geonet@vanetza@@VSequenceNumber@23@@std@@_KU?$SoftStateDefaultCreator@_K@geonet@vanetza@@@geonet@vanetza@@@std@@PEAX@std@@@std@@V?$_List_val@U?$_List_simple_types@U?$pair@$$CBV?$tuple@VAddress@geonet@vanetza@@VSequenceNumber@23@@std@@UValueWithHandle@?$SoftStateMap@V?$tuple@VAddress@geonet@vanetza@@VSequenceNumber@23@@std@@_KU?$SoftStateDefaultCreator@_K@geonet@vanetza@@@geonet@vanetza@@@std@@@std@@@2@$00@std@@QEAA@U_One_then_variadic_args_t@1@AEBV?$allocator@U?$pair@$$CBV?$tuple@VAddress@geonet@vanetza@@VSequenceNumber@23@@std@@UValueWithHandle@?$SoftStateMap@V?$tuple@VAddress@geonet@vanetza@@VSequenceNumber@23@@std@@_KU?$SoftStateDefaultCreator@_K@geonet@vanetza@@@geonet@vanetza@@@std@@@1@@Z
	??$?0AEBV?$allocator@U?$pair@$$CBV?$tuple@VAddress@geonet@vanetza@@VSequenceNumber@23@@std@@UValueWithHandle@?$SoftStateMap@V?$tuple@VAddress@geonet@vanetza@@VSequenceNumber@23@@std@@_KU?$SoftStateDefaultCreator@_K@geonet@vanetza@@@geonet@vanetza@@@std@@@std@@$$V@?$_Compressed_pair@V?$allocator@V?$_List_unchecked_iterator@V?$_List_val@U?$_List_simple_types@U?$pair@$$CBV?$tuple@VAddress@geonet@vanetza@@VSequenceNumber@23@@std@@UValueWithHandle@?$SoftStateMap@V?$tuple@VAddress@geonet@vanetza@@VSequenceNumber@23@@std@@_KU?$SoftStateDefaultCreator@_K@geonet@vanetza@@@geonet@vanetza@@@std@@@std@@@std@@@std@@@std@@V?$_Vector_val@U?$_Simple_types@V?$_List_unchecked_iterator@V?$_List_val@U?$_List_simple_types@U?$pair@$$CBV?$tuple@VAddress@geonet@vanetza@@VSequenceNumber@23@@std@@UValueWithHandle@?$SoftStateMap@V?$tuple@VAddress@geonet@vanetza@@VSequenceNumber@23@@std@@_KU?$SoftStateDefaultCreator@_K@geonet@vanetza@@@geonet@vanetza@@@std@@@std@@@std@@@std@@@std@@@2@$00@std@@QEAA@U_One_then_variadic_args_t@1@AEBV?$allocator@U?$pair@$$CBV?$tuple@VAddress@geonet@vanetza@@VSequenceNumber@23@@std@@UValueWithHandle@?$SoftStateMap@V?$tuple@VAddress@geonet@vanetza@@VSequenceNumber@23@@std@@_KU?$SoftStateDefaultCreator@_K@geonet@vanetza@@@geonet@vanetza@@@std@@@1@@Z
	??$?0AEBV?$allocator@U?$pair@$$CBV?$tuple@VAddress@geonet@vanetza@@VSequenceNumber@23@@std@@UValueWithHandle@?$SoftStateMap@V?$tuple@VAddress@geonet@vanetza@@VSequenceNumber@23@@std@@_KU?$SoftStateDefaultCreator@_K@geonet@vanetza@@@geonet@vanetza@@@std@@@std@@$0A@@?$_Hash_vec@V?$allocator@V?$_List_unchecked_iterator@V?$_List_val@U?$_List_simple_types@U?$pair@$$CBV?$tuple@VAddress@geonet@vanetza@@VSequenceNumber@23@@std@@UValueWithHandle@?$SoftStateMap@V?$tuple@VAddress@geonet@vanetza@@VSequenceNumber@23@@std@@_KU?$SoftStateDefaultCreator@_K@geonet@vanetza@@@geonet@vanetza@@@std@@@std@@@std@@@std@@@std@@@std@@QEAA@AEBV?$allocator@U?$pair@$$CBV?$tuple@VAddress@geonet@vanetza@@VSequenceNumber@23@@std@@UValueWithHandle@?$SoftStateMap@V?$tuple@VAddress@geonet@vanetza@@VSequenceNumber@23@@std@@_KU?$SoftStateDefaultCreator@_K@geonet@vanetza@@@geonet@vanetza@@@std@@@1@@Z
	??$?0AEBV?$allocator@U?$pair@$$CBV?$tuple@VAddress@geonet@vanetza@@VSequenceNumber@23@@std@@_K@std@@@std@@$$V@?$_Compressed_pair@V?$allocator@U?$_List_node@U?$pair@$$CBV?$tuple@VAddress@geonet@vanetza@@VSequenceNumber@23@@std@@_K@std@@PEAX@std@@@std@@V?$_List_val@U?$_List_simple_types@U?$pair@$$CBV?$tuple@VAddress@geonet@vanetza@@VSequenceNumber@23@@std@@_K@std@@@std@@@2@$00@std@@QEAA@U_One_then_variadic_args_t@1@AEBV?$allocator@U?$pair@$$CBV?$tuple@VAddress@geonet@vanetza@@VSequenceNumber@23@@std@@_K@std@@@1@@Z
	??$?0AEBV?$allocator@U?$pair@$$CBV?$tuple@VAddress@geonet@vanetza@@VSequenceNumber@23@@std@@_K@std@@@std@@$$V@?$_Compressed_pair@V?$allocator@V?$_List_unchecked_iterator@V?$_List_val@U?$_List_simple_types@U?$pair@$$CBV?$tuple@VAddress@geonet@vanetza@@VSequenceNumber@23@@std@@_K@std@@@std@@@std@@@std@@@std@@V?$_Vector_val@U?$_Simple_types@V?$_List_unchecked_iterator@V?$_List_val@U?$_List_simple_types@U?$pair@$$CBV?$tuple@VAddress@geonet@vanetza@@VSequenceNumber@23@@std@@_K@std@@@std@@@std@@@std@@@std@@@2@$00@std@@QEAA@U_One_then_variadic_args_t@1@AEBV?$allocator@U?$pair@$$CBV?$tuple@VAddress@geonet@vanetza@@VSequenceNumber@23@@std@@_K@std@@@1@@Z
	??$?0AEBV?$allocator@U?$pair@$$CBV?$tuple@VAddress@geonet@vanetza@@VSequenceNumber@23@@std@@_K@std@@@std@@$0A@@?$_Hash_vec@V?$allocator@V?$_List_unchecked_iterator@V?$_List_val@U?$_List_simple_types@U?$pair@$$CBV?$tuple@VAddress@geonet@vanetza@@VSequenceNumber@23@@std@@_K@std@@@std@@@std@@@std@@@std@@@std@@QEAA@AEBV?$allocator@U?$pair@$$CBV?$tuple@VAddress@geonet@vanetza@@VSequenceNumber@23@@std@@_K@std@@@1@@Z
	??$?0AEBV?$allocator@U?$pair@$$CBVMacAddress@vanetza@@UValueWithHandle@?$SoftStateMap@VMacAddress@vanetza@@VLocationTableEntry@geonet@2@VLocationTableEntryCreator@42@@geonet@2@@std@@@std@@$$V@?$_Compressed_pair@V?$allocator@U?$_List_node@U?$pair@$$CBVMacAddress@vanetza@@UValueWithHandle@?$SoftStateMap@VMacAddress@vanetza@@VLocationTableEntry@geonet@2@VLocationTableEntryCreator@42@@geonet@2@@std@@PEAX@std@@@std@@V?$_List_val@U?$_List_simple_types@U?$pair@$$CBVMacAddress@vanetza@@UValueWithHandle@?$SoftStateMap@VMacAddress@vanetza@@VLocationTableEntry@geonet@2@VLocationTableEntryCreator@42@@geonet@2@@std@@@std@@@2@$00@std@@QEAA@U_One_then_variadic_args_t@1@AEBV?$allocator@U?$pair@$$CBVMacAddress@vanetza@@UValueWithHandle@?$SoftStateMap@VMacAddress@vanetza@@VLocationTableEntry@geonet@2@VLocationTableEntryCreator@42@@geonet@2@@std@@@1@@Z
	??$?0AEBV?$allocator@U?$pair@$$CBVMacAddress@vanetza@@UValueWithHandle@?$SoftStateMap@VMacAddress@vanetza@@VLocationTableEntry@geonet@2@VLocationTableEntryCreator@42@@geonet@2@@std@@@std@@$$V@?$_Compressed_pair@V?$allocator@V?$_List_unchecked_iterator@V?$_List_val@U?$_List_simple_types@U?$pair@$$CBVMacAddress@vanetza@@UValueWithHandle@?$SoftStateMap@VMacAddress@vanetza@@VLocationTableEntry@geonet@2@VLocationTableEntryCreator@42@@geonet@2@@std@@@std@@@std@@@std@@@std@@V?$_Vector_val@U?$_Simple_types@V?$_List_unchecked_iterator@V?$_List_val@U?$_List_simple_types@U?$pair@$$CBVMacAddress@vanetza@@UValueWithHandle@?$SoftStateMap@VMacAddress@vanetza@@VLocationTableEntry@geonet@2@VLocationTableEntryCreator@42@@geonet@2@@std@@@std@@@std@@@std@@@std@@@2@$00@std@@QEAA@U_One_then_variadic_args_t@1@AEBV?$allocator@U?$pair@$$CBVMacAddress@vanetza@@UValueWithHandle@?$SoftStateMap@VMacAddress@vanetza@@VLocationTableEntry@geonet@2@VLocationTableEntryCreator@42@@geonet@2@@std@@@1@@Z
	??$?0AEBV?$allocator@U?$pair@$$CBVMacAddress@vanetza@@UValueWithHandle@?$SoftStateMap@VMacAddress@vanetza@@VLocationTableEntry@geonet@2@VLocationTableEntryCreator@42@@geonet@2@@std@@@std@@$0A@@?$_Hash_vec@V?$allocator@V?$_List_unchecked_iterator@V?$_List_val@U?$_List_simple_types@U?$pair@$$CBVMacAddress@vanetza@@UValueWithHandle@?$SoftStateMap@VMacAddress@vanetza@@VLocationTableEntry@geonet@2@VLocationTableEntryCreator@42@@geonet@2@@std@@@std@@@std@@@std@@@std@@@std@@QEAA@AEBV?$allocator@U?$pair@$$CBVMacAddress@vanetza@@UValueWithHandle@?$SoftStateMap@VMacAddress@vanetza@@VLocationTableEntry@geonet@2@VLocationTableEntryCreator@42@@geonet@2@@std@@@1@@Z
	??$?0AEBV?$allocator@UListElement@DuplicatePacketList@geonet@vanetza@@@std@@$$V@?$empty_value@V?$allocator@UListElement@DuplicatePacketList@geonet@vanetza@@@std@@$0A@$00@empty_@boost@@QEAA@Uempty_init_t@2@AEBV?$allocator@UListElement@DuplicatePacketList@geonet@vanetza@@@std@@@Z
	??$?0AEBV?$allocator@V?$mutant_relation@U?$tagged@$$CBUTimer@CbfPacketBuffer@geonet@vanetza@@Uleft@member_at@relation@bimaps@boost@@@tags@bimaps@boost@@U?$tagged@$$CBV?$tuple@VAddress@geonet@vanetza@@VSequenceNumber@23@@std@@Uright@member_at@relation@bimaps@boost@@@234@V?$_List_iterator@V?$_List_val@U?$_List_simple_types@VCbfPacket@geonet@vanetza@@@std@@@std@@@std@@$00@relation@bimaps@boost@@@std@@X@?$base_from_member@V?$allocator@U?$hashed_index_node@U?$ordered_index_node@Unull_augment_policy@detail@multi_index@boost@@U?$index_node_base@V?$mutant_relation@U?$tagged@$$CBUTimer@CbfPacketBuffer@geonet@vanetza@@Uleft@member_at@relation@bimaps@boost@@@tags@bimaps@boost@@U?$tagged@$$CBV?$tuple@VAddress@geonet@vanetza@@VSequenceNumber@23@@std@@Uright@member_at@relation@bimaps@boost@@@234@V?$_List_iterator@V?$_List_val@U?$_List_simple_types@VCbfPacket@geonet@vanetza@@@std@@@std@@@std@@$00@relation@bimaps@boost@@V?$allocator@V?$mutant_relation@U?$tagged@$$CBUTimer@CbfPacketBuffer@geonet@vanetza@@Uleft@member_at@relation@bimaps@boost@@@tags@bimaps@boost@@U?$tagged@$$CBV?$tuple@VAddress@geonet@vanetza@@VSequenceNumber@23@@std@@Uright@member_at@relation@bimaps@boost@@@234@V?$_List_iterator@V?$_List_val@U?$_List_simple_types@VCbfPacket@geonet@vanetza@@@std@@@std@@@std@@$00@relation@bimaps@boost@@@std@@@234@@detail@multi_index@boost@@@detail@multi_index@boost@@@std@@$0A@@boost@@IEAA@AEBV?$allocator@V?$mutant_relation@U?$tagged@$$CBUTimer@CbfPacketBuffer@geonet@vanetza@@Uleft@member_at@relation@bimaps@boost@@@tags@bimaps@boost@@U?$tagged@$$CBV?$tuple@VAddress@geonet@vanetza@@VSequenceNumber@23@@std@@Uright@member_at@relation@bimaps@boost@@@234@V?$_List_iterator@V?$_List_val@U?$_List_simple_types@VCbfPacket@geonet@vanetza@@@std@@@std@@@std@@$00@relation@bimaps@boost@@@std@@@Z
	??$?0AEBV?$tuple@VAddress@geonet@vanetza@@VSequenceNumber@23@@std@@$$Z$$QEA_K@?$pair@$$CBV?$tuple@VAddress@geonet@vanetza@@VSequenceNumber@23@@std@@UValueWithHandle@?$SoftStateMap@V?$tuple@VAddress@geonet@vanetza@@VSequenceNumber@23@@std@@_KU?$SoftStateDefaultCreator@_K@geonet@vanetza@@@geonet@vanetza@@@std@@QEAA@Upiecewise_construct_t@1@V?$tuple@AEBV?$tuple@VAddress@geonet@vanetza@@VSequenceNumber@23@@std@@@1@V?$tuple@$$QEA_K@1@@Z
	??$?0AEBV?$tuple@VAddress@geonet@vanetza@@VSequenceNumber@23@@std@@$$Z$$V@?$pair@$$CBV?$tuple@VAddress@geonet@vanetza@@VSequenceNumber@23@@std@@_K@std@@QEAA@Upiecewise_construct_t@1@V?$tuple@AEBV?$tuple@VAddress@geonet@vanetza@@VSequenceNumber@23@@std@@@1@V?$tuple@$$V@1@@Z
	??$?0AEBV?$tuple@VAddress@geonet@vanetza@@VSequenceNumber@23@@std@@$0A@@?$tuple@AEBV?$tuple@VAddress@geonet@vanetza@@VSequenceNumber@23@@std@@@std@@QEAA@AEBV?$tuple@VAddress@geonet@vanetza@@VSequenceNumber@23@@1@@Z
	??$?0AEBV?$tuple@VAddress@geonet@vanetza@@VSequenceNumber@23@@std@@@?$_Tuple_val@AEBV?$tuple@VAddress@geonet@vanetza@@VSequenceNumber@23@@std@@@std@@QEAA@AEBV?$tuple@VAddress@geonet@vanetza@@VSequenceNumber@23@@1@@Z
	??$?0AEBV?$variant@UGucDataRequest@geonet@vanetza@@UGbcDataRequest@23@UGacDataRequest@23@UShbDataRequest@23@UTsbDataRequest@23@@boost@@@?$_Tuple_val@AEBV?$variant@UGucDataRequest@geonet@vanetza@@UGbcDataRequest@23@UGacDataRequest@23@UShbDataRequest@23@UTsbDataRequest@23@@boost@@@std@@QEAA@AEBV?$variant@UGucDataRequest@geonet@vanetza@@UGbcDataRequest@23@UGacDataRequest@23@UShbDataRequest@23@UTsbDataRequest@23@@boost@@@Z
	??$?0AEBV?$variant@UGucDataRequest@geonet@vanetza@@UGbcDataRequest@23@UGacDataRequest@23@UShbDataRequest@23@UTsbDataRequest@23@@boost@@AEBVChunkPacket@vanetza@@@?$_List_node_emplace_op2@V?$allocator@U?$_List_node@URepetition@Repeater@geonet@vanetza@@PEAX@std@@@std@@@std@@QEAA@AEAV?$allocator@U?$_List_node@URepetition@Repeater@geonet@vanetza@@PEAX@std@@@1@AEBV?$variant@UGucDataRequest@geonet@vanetza@@UGbcDataRequest@23@UGacDataRequest@23@UShbDataRequest@23@UTsbDataRequest@23@@boost@@AEBVChunkPacket@vanetza@@@Z
	??$?0AEBV?$variant@UGucDataRequest@geonet@vanetza@@UGbcDataRequest@23@UGacDataRequest@23@UShbDataRequest@23@UTsbDataRequest@23@@boost@@V?$unique_ptr@VChunkPacket@vanetza@@U?$default_delete@VChunkPacket@vanetza@@@std@@@std@@$0A@@?$tuple@AEBV?$variant@UGucDataRequest@geonet@vanetza@@UGbcDataRequest@23@UGacDataRequest@23@UShbDataRequest@23@UTsbDataRequest@23@@boost@@$$QEAV?$unique_ptr@VChunkPacket@vanetza@@U?$default_delete@VChunkPacket@vanetza@@@std@@@std@@@std@@QEAA@AEBV?$variant@UGucDataRequest@geonet@vanetza@@UGbcDataRequest@23@UGacDataRequest@23@UShbDataRequest@23@UTsbDataRequest@23@@boost@@$$QEAV?$unique_ptr@VChunkPacket@vanetza@@U?$default_delete@VChunkPacket@vanetza@@@std@@@1@@Z
	??$?0AEBVAddress@geonet@vanetza@@@?$_Tuple_val@VAddress@geonet@vanetza@@@std@@QEAA@AEBVAddress@geonet@vanetza@@@Z
	??$?0AEBVAddress@geonet@vanetza@@AEAVSequenceNumber@12@$0A@@?$tuple@VAddress@geonet@vanetza@@VSequenceNumber@23@@std@@QEAA@AEBVAddress@geonet@vanetza@@AEAVSequenceNumber@34@@Z
	??$?0AEBVMacAddress@vanetza@@$$Z$$QEAVLocationTableEntry@geonet@1@@?$pair@$$CBVMacAddress@vanetza@@UValueWithHandle@?$SoftStateMap@VMacAddress@vanetza@@VLocationTableEntry@geonet@2@VLocationTableEntryCreator@42@@geonet@2@@std@@QEAA@Upiecewise_construct_t@1@V?$tuple@AEBVMacAddress@vanetza@@@1@V?$tuple@$$QEAVLocationTableEntry@geonet@vanetza@@@1@@Z
	??$?0AEBVMacAddress@vanetza@@$$ZAEAV01@@?$PendingPacket@V?$ExtendedPdu@UGeoBroadcastHeader@geonet@vanetza@@@geonet@vanetza@@$$V@geonet@vanetza@@QEAA@$$QEAV?$PendingPacket@V?$ExtendedPdu@UGeoBroadcastHeader@geonet@vanetza@@@geonet@vanetza@@AEBVMacAddress@3@@12@AEAVMacAddress@2@@Z
	??$?0AEBVMacAddress@vanetza@@$$ZAEBV01@@?$PendingPacket@V?$ExtendedPdu@UGeoBroadcastHeader@geonet@vanetza@@@geonet@vanetza@@$$V@geonet@vanetza@@QEAA@$$QEAV?$PendingPacket@V?$ExtendedPdu@UGeoBroadcastHeader@geonet@vanetza@@@geonet@vanetza@@AEBVMacAddress@3@@12@AEBVMacAddress@2@@Z
	??$?0AEBVMacAddress@vanetza@@$0A@@?$tuple@AEBVMacAddress@vanetza@@@std@@QEAA@AEBVMacAddress@vanetza@@@Z
	??$?0AEBVMacAddress@vanetza@@@?$PendingPacket@V?$ExtendedPdu@UGeoBroadcastHeader@geonet@vanetza@@@geonet@vanetza@@$$V@geonet@vanetza@@QEAA@$$QEAV?$PendingPacket@V?$ExtendedPdu@UGeoBroadcastHeader@geonet@vanetza@@@geonet@vanetza@@AEBVMacAddress@3@@12@V?$function@$$A6AX$$QEAV?$PendingPacket@V?$ExtendedPdu@UGeoBroadcastHeader@geonet@vanetza@@@geonet@vanetza@@AEBVMacAddress@3@@geonet@vanetza@@@Z@std@@@Z
	??$?0AEBVMacAddress@vanetza@@@?$_Tuple_val@AEBVMacAddress@vanetza@@@std@@QEAA@AEBVMacAddress@vanetza@@@Z
	??$?0AEBVMacAddress@vanetza@@@?$_Tuple_val@VMacAddress@vanetza@@@std@@QEAA@AEBVMacAddress@vanetza@@@Z
	??$?0AEBVMacAddress@vanetza@@AEAVLocationTableEntry@geonet@1@$0A@@?$pair@AEBVMacAddress@vanetza@@AEAVLocationTableEntry@geonet@2@@std@@QEAA@AEBVMacAddress@vanetza@@AEAVLocationTableEntry@geonet@3@@Z
	??$?0AEBVSequenceNumber@geonet@vanetza@@@?$_Tuple_val@VSequenceNumber@geonet@vanetza@@@std@@QEAA@AEBVSequenceNumber@geonet@vanetza@@@Z
	??$?0AEBW4UpperProtocol@geonet@vanetza@@$$Z$$V@?$pair@$$CBW4UpperProtocol@geonet@vanetza@@PEAVTransportInterface@23@@std@@QEAA@Upiecewise_construct_t@1@V?$tuple@AEBW4UpperProtocol@geonet@vanetza@@@1@V?$tuple@$$V@1@@Z
	??$?0AEBW4UpperProtocol@geonet@vanetza@@$0A@@?$tuple@AEBW4UpperProtocol@geonet@vanetza@@@std@@QEAA@AEBW4UpperProtocol@geonet@vanetza@@@Z
	??$?0AEBW4UpperProtocol@geonet@vanetza@@@?$_Tuple_val@AEBW4UpperProtocol@geonet@vanetza@@@std@@QEAA@AEBW4UpperProtocol@geonet@vanetza@@@Z
	??$?0D@?$allocator@U_Container_proxy@std@@@std@@QEAA@AEBV?$allocator@D@1@@Z
	??$?0E@?$allocator@U_Container_proxy@std@@@std@@QEAA@AEBV?$allocator@E@1@@Z
	??$?0G@?$quantity@V?$unit@U?$list@U?$dim@Ulength_base_dimension@units@boost@@V?$static_rational@$00$00@23@@units@boost@@Udimensionless_type@23@@units@boost@@U?$homogeneous_system@U?$list@Umeter_base_unit@si@units@boost@@U?$list@U?$scaled_base_unit@Ugram_base_unit@cgs@units@boost@@U?$scale@$09V?$static_rational@$02$00@units@boost@@@34@@units@boost@@U?$list@Usecond_base_unit@si@units@boost@@U?$list@Uampere_base_unit@si@units@boost@@U?$list@Ukelvin_base_unit@si@units@boost@@U?$list@Umole_base_unit@si@units@boost@@U?$list@Ucandela_base_unit@si@units@boost@@U?$list@Uradian_base_unit@angle@units@boost@@U?$list@Usteradian_base_unit@angle@units@boost@@Udimensionless_type@34@@34@@34@@34@@34@@34@@34@@23@@34@@units@boost@@@23@X@units@boost@@N@units@boost@@QEAA@AEBV?$quantity@V?$unit@U?$list@U?$dim@Ulength_base_dimension@units@boost@@V?$static_rational@$00$00@23@@units@boost@@Udimensionless_type@23@@units@boost@@U?$homogeneous_system@U?$list@Umeter_base_unit@si@units@boost@@U?$list@U?$scaled_base_unit@Ugram_base_unit@cgs@units@boost@@U?$scale@$09V?$static_rational@$02$00@units@boost@@@34@@units@boost@@U?$list@Usecond_base_unit@si@units@boost@@U?$list@Uampere_base_unit@si@units@boost@@U?$list@Ukelvin_base_unit@si@units@boost@@U?$list@Umole_base_unit@si@units@boost@@U?$list@Ucandela_base_unit@si@units@boost@@U?$list@Uradian_base_unit@angle@units@boost@@U?$list@Usteradian_base_unit@angle@units@boost@@Udimensionless_type@34@@34@@34@@34@@34@@34@@34@@23@@34@@units@boost@@@23@X@units@boost@@G@12@PEAX@Z
	??$?0H$0A@@?$duration@_JU?$ratio@$00$00@std@@@chrono@std@@QEAA@AEBH@Z
	??$?0H$0A@@?$duration@_JU?$ratio@$00$0DOI@@std@@@chrono@std@@QEAA@AEBH@Z
	??$?0H@?$quantity@V?$unit@U?$list@U?$dim@Ulength_base_dimension@units@boost@@V?$static_rational@$00$00@23@@units@boost@@Udimensionless_type@23@@units@boost@@U?$homogeneous_system@U?$list@Umeter_base_unit@si@units@boost@@U?$list@U?$scaled_base_unit@Ugram_base_unit@cgs@units@boost@@U?$scale@$09V?$static_rational@$02$00@units@boost@@@34@@units@boost@@U?$list@Usecond_base_unit@si@units@boost@@U?$list@Uampere_base_unit@si@units@boost@@U?$list@Ukelvin_base_unit@si@units@boost@@U?$list@Umole_base_unit@si@units@boost@@U?$list@Ucandela_base_unit@si@units@boost@@U?$list@Uradian_base_unit@angle@units@boost@@U?$list@Usteradian_base_unit@angle@units@boost@@Udimensionless_type@34@@34@@34@@34@@34@@34@@34@@23@@34@@units@boost@@@23@X@units@boost@@N@units@boost@@QEAA@AEBV?$quantity@V?$unit@U?$list@U?$dim@Ulength_base_dimension@units@boost@@V?$static_rational@$00$00@23@@units@boost@@Udimensionless_type@23@@units@boost@@U?$homogeneous_system@U?$list@Umeter_base_unit@si@units@boost@@U?$list@U?$scaled_base_unit@Ugram_base_unit@cgs@units@boost@@U?$scale@$09V?$static_rational@$02$00@units@boost@@@34@@units@boost@@U?$list@Usecond_base_unit@si@units@boost@@U?$list@Uampere_base_unit@si@units@boost@@U?$list@Ukelvin_base_unit@si@units@boost@@U?$list@Umole_base_unit@si@units@boost@@U?$list@Ucandela_base_unit@si@units@boost@@U?$list@Uradian_base_unit@angle@units@boost@@U?$list@Usteradian_base_unit@angle@units@boost@@Udimensionless_type@34@@34@@34@@34@@34@@34@@34@@23@@34@@units@boost@@@23@X@units@boost@@H@12@PEAX@Z
	??$?0H@?$quantity@V?$unit@U?$list@U?$dim@Utime_base_dimension@units@boost@@V?$static_rational@$00$00@23@@units@boost@@Udimensionless_type@23@@units@boost@@U?$homogeneous_system@U?$list@Umeter_base_unit@si@units@boost@@U?$list@U?$scaled_base_unit@Ugram_base_unit@cgs@units@boost@@U?$scale@$09V?$static_rational@$02$00@units@boost@@@34@@units@boost@@U?$list@Usecond_base_unit@si@units@boost@@U?$list@Uampere_base_unit@si@units@boost@@U?$list@Ukelvin_base_unit@si@units@boost@@U?$list@Umole_base_unit@si@units@boost@@U?$list@Ucandela_base_unit@si@units@boost@@U?$list@Uradian_base_unit@angle@units@boost@@U?$list@Usteradian_base_unit@angle@units@boost@@Udimensionless_type@34@@34@@34@@34@@34@@34@@34@@23@@34@@units@boost@@@23@X@units@boost@@N@units@boost@@QEAA@AEBV?$quantity@V?$unit@U?$list@U?$dim@Utime_base_dimension@units@boost@@V?$static_rational@$00$00@23@@units@boost@@Udimensionless_type@23@@units@boost@@U?$homogeneous_system@U?$list@Umeter_base_unit@si@units@boost@@U?$list@U?$scaled_base_unit@Ugram_base_unit@cgs@units@boost@@U?$scale@$09V?$static_rational@$02$00@units@boost@@@34@@units@boost@@U?$list@Usecond_base_unit@si@units@boost@@U?$list@Uampere_base_unit@si@units@boost@@U?$list@Ukelvin_base_unit@si@units@boost@@U?$list@Umole_base_unit@si@units@boost@@U?$list@Ucandela_base_unit@si@units@boost@@U?$list@Uradian_base_unit@angle@units@boost@@U?$list@Usteradian_base_unit@angle@units@boost@@Udimensionless_type@34@@34@@34@@34@@34@@34@@34@@23@@34@@units@boost@@@23@X@units@boost@@H@12@PEAX@Z
	??$?0I@?$variant@VDccMcoField@geonet@vanetza@@I@boost@@QEAA@$$QEAI_N@Z
	??$?0I@?$variant@VDccMcoField@geonet@vanetza@@I@boost@@QEAA@AEBI_N@Z
	??$?0M@?$_Compressed_pair@U?$equal_to@V?$tuple@VAddress@geonet@vanetza@@VSequenceNumber@23@@std@@@std@@M$00@std@@QEAA@U_Zero_then_variadic_args_t@1@$$QEAM@Z
	??$?0M@?$_Compressed_pair@U?$equal_to@VMacAddress@vanetza@@@std@@M$00@std@@QEAA@U_Zero_then_variadic_args_t@1@$$QEAM@Z
	??$?0N$0A@@?$duration@NU?$ratio@$00$00@std@@@chrono@std@@QEAA@AEBN@Z
	??$?0N@?$quantity@V?$unit@U?$list@U?$dim@Ulength_base_dimension@units@boost@@V?$static_rational@$00$00@23@@units@boost@@Udimensionless_type@23@@units@boost@@U?$homogeneous_system@U?$list@Umeter_base_unit@si@units@boost@@U?$list@U?$scaled_base_unit@Ugram_base_unit@cgs@units@boost@@U?$scale@$09V?$static_rational@$02$00@units@boost@@@34@@units@boost@@U?$list@Usecond_base_unit@si@units@boost@@U?$list@Uampere_base_unit@si@units@boost@@U?$list@Ukelvin_base_unit@si@units@boost@@U?$list@Umole_base_unit@si@units@boost@@U?$list@Ucandela_base_unit@si@units@boost@@U?$list@Uradian_base_unit@angle@units@boost@@U?$list@Usteradian_base_unit@angle@units@boost@@Udimensionless_type@34@@34@@34@@34@@34@@34@@34@@23@@34@@units@boost@@@23@X@units@boost@@G@units@boost@@QEAA@AEBV?$quantity@V?$unit@U?$list@U?$dim@Ulength_base_dimension@units@boost@@V?$static_rational@$00$00@23@@units@boost@@Udimensionless_type@23@@units@boost@@U?$homogeneous_system@U?$list@Umeter_base_unit@si@units@boost@@U?$list@U?$scaled_base_unit@Ugram_base_unit@cgs@units@boost@@U?$scale@$09V?$static_rational@$02$00@units@boost@@@34@@units@boost@@U?$list@Usecond_base_unit@si@units@boost@@U?$list@Uampere_base_unit@si@units@boost@@U?$list@Ukelvin_base_unit@si@units@boost@@U?$list@Umole_base_unit@si@units@boost@@U?$list@Ucandela_base_unit@si@units@boost@@U?$list@Uradian_base_unit@angle@units@boost@@U?$list@Usteradian_base_unit@angle@units@boost@@Udimensionless_type@34@@34@@34@@34@@34@@34@@34@@23@@34@@units@boost@@@23@X@units@boost@@N@12@PEAX@Z
	??$?0P8Repeater@geonet@vanetza@@EAAXV?$_List_iterator@V?$_List_val@U?$_List_simple_types@URepetition@Repeater@geonet@vanetza@@@std@@@std@@@std@@V?$time_point@VClock@vanetza@@V?$duration@_JU?$ratio@$00$0PECEA@@std@@@chrono@std@@@chrono@4@@ZPEAV012@AEAV34@AEAU?$_Ph@$00@4@@?$_Compressed_pair@P8Repeater@geonet@vanetza@@EAAXV?$_List_iterator@V?$_List_val@U?$_List_simple_types@URepetition@Repeater@geonet@vanetza@@@std@@@std@@@std@@V?$time_point@VClock@vanetza@@V?$duration@_JU?$ratio@$00$0PECEA@@std@@@chrono@std@@@chrono@5@@ZV?$tuple@PEAVRepeater@geonet@vanetza@@V?$_List_iterator@V?$_List_val@U?$_List_simple_types@URepetition@Repeater@geonet@vanetza@@@std@@@std@@@std@@U?$_Ph@$00@5@@5@$0A@@std@@QEAA@U_One_then_variadic_args_t@1@$$QEAP8Repeater@geonet@vanetza@@EAAXV?$_List_iterator@V?$_List_val@U?$_List_simple_types@URepetition@Repeater@geonet@vanetza@@@std@@@std@@@1@V?$time_point@VClock@vanetza@@V?$duration@_JU?$ratio@$00$0PECEA@@std@@@chrono@std@@@chrono@1@@Z$$QEAPEAV345@AEAV61@AEAU?$_Ph@$00@1@@Z
	??$?0P8Router@geonet@vanetza@@EAAXAEBV?$variant@UGucDataRequest@geonet@vanetza@@UGbcDataRequest@23@UGacDataRequest@23@UShbDataRequest@23@UTsbDataRequest@23@@boost@@V?$unique_ptr@VChunkPacket@vanetza@@U?$default_delete@VChunkPacket@vanetza@@@std@@@std@@@ZPEAV012@AEBU?$_Ph@$00@6@AEBU?$_Ph@$01@6@@?$_Compressed_pair@P8Router@geonet@vanetza@@EAAXAEBV?$variant@UGucDataRequest@geonet@vanetza@@UGbcDataRequest@23@UGacDataRequest@23@UShbDataRequest@23@UTsbDataRequest@23@@boost@@V?$unique_ptr@VChunkPacket@vanetza@@U?$default_delete@VChunkPacket@vanetza@@@std@@@std@@@ZV?$tuple@PEAVRouter@geonet@vanetza@@U?$_Ph@$00@std@@U?$_Ph@$01@5@@7@$0A@@std@@QEAA@U_One_then_variadic_args_t@1@$$QEAP8Router@geonet@vanetza@@EAAXAEBV?$variant@UGucDataRequest@geonet@vanetza@@UGbcDataRequest@23@UGacDataRequest@23@UShbDataRequest@23@UTsbDataRequest@23@@boost@@V?$unique_ptr@VChunkPacket@vanetza@@U?$default_delete@VChunkPacket@vanetza@@@std@@@1@@Z$$QEAPEAV345@AEBU?$_Ph@$00@1@AEBU?$_Ph@$01@1@@Z
	??$?0PEAU?$_List_node@U?$pair@$$CBV?$tuple@VAddress@geonet@vanetza@@VSequenceNumber@23@@std@@_K@std@@PEAX@std@@_N$0A@@?$pair@PEAU?$_List_node@U?$pair@$$CBV?$tuple@VAddress@geonet@vanetza@@VSequenceNumber@23@@std@@_K@std@@PEAX@std@@_N@std@@QEAA@$$QEAPEAU?$_List_node@U?$pair@$$CBV?$tuple@VAddress@geonet@vanetza@@VSequenceNumber@23@@std@@_K@std@@PEAX@1@$$QEA_N@Z
	??$?0PEAU?$_Tree_node@U?$pair@$$CBVtype_index@std@@Uobject_handle@ObjectContainer@vanetza@@@std@@PEAX@std@@_N$0A@@?$pair@PEAU?$_Tree_node@U?$pair@$$CBVtype_index@std@@Uobject_handle@ObjectContainer@vanetza@@@std@@PEAX@std@@_N@std@@QEAA@$$QEAPEAU?$_Tree_node@U?$pair@$$CBVtype_index@std@@Uobject_handle@ObjectContainer@vanetza@@@std@@PEAX@1@$$QEA_N@Z
	??$?0PEAU?$_Tree_node@U?$pair@$$CBW4UpperProtocol@geonet@vanetza@@PEAVTransportInterface@23@@std@@PEAX@std@@_N$0A@@?$pair@PEAU?$_Tree_node@U?$pair@$$CBW4UpperProtocol@geonet@vanetza@@PEAVTransportInterface@23@@std@@PEAX@std@@_N@std@@QEAA@$$QEAPEAU?$_Tree_node@U?$pair@$$CBW4UpperProtocol@geonet@vanetza@@PEAVTransportInterface@23@@std@@PEAX@1@$$QEA_N@Z
	??$?0PEAVRepeater@geonet@vanetza@@@?$_Tuple_val@PEAVRepeater@geonet@vanetza@@@std@@QEAA@$$QEAPEAVRepeater@geonet@vanetza@@@Z
	??$?0PEAVRepeater@geonet@vanetza@@AEAV?$_List_iterator@V?$_List_val@U?$_List_simple_types@URepetition@Repeater@geonet@vanetza@@@std@@@std@@@std@@AEAU?$_Ph@$00@4@$0A@@?$tuple@PEAVRepeater@geonet@vanetza@@V?$_List_iterator@V?$_List_val@U?$_List_simple_types@URepetition@Repeater@geonet@vanetza@@@std@@@std@@@std@@U?$_Ph@$00@5@@std@@QEAA@$$QEAPEAVRepeater@geonet@vanetza@@AEAV?$_List_iterator@V?$_List_val@U?$_List_simple_types@URepetition@Repeater@geonet@vanetza@@@std@@@std@@@1@AEAU?$_Ph@$00@1@@Z
	??$?0PEAVRouter@geonet@vanetza@@@?$_Tuple_val@PEAVRouter@geonet@vanetza@@@std@@QEAA@$$QEAPEAVRouter@geonet@vanetza@@@Z
	??$?0PEAVRouter@geonet@vanetza@@AEBU?$_Ph@$00@std@@AEBU?$_Ph@$01@4@$0A@@?$tuple@PEAVRouter@geonet@vanetza@@U?$_Ph@$00@std@@U?$_Ph@$01@5@@std@@QEAA@$$QEAPEAVRouter@geonet@vanetza@@AEBU?$_Ph@$00@1@AEBU?$_Ph@$01@1@@Z
	??$?0U?$SoftStateDefaultCreator@_K@geonet@vanetza@@@?$SoftStateMap@V?$tuple@VAddress@geonet@vanetza@@VSequenceNumber@23@@std@@_KU?$SoftStateDefaultCreator@_K@geonet@vanetza@@@geonet@vanetza@@QEAA@AEBVRuntime@2@PEAX@Z
	??$?0U?$_List_node@U?$pair@$$CBV?$tuple@VAddress@geonet@vanetza@@VSequenceNumber@23@@std@@UValueWithHandle@?$SoftStateMap@V?$tuple@VAddress@geonet@vanetza@@VSequenceNumber@23@@std@@_KU?$SoftStateDefaultCreator@_K@geonet@vanetza@@@geonet@vanetza@@@std@@PEAX@std@@@?$allocator@U_Container_proxy@std@@@std@@QEAA@AEBV?$allocator@U?$_List_node@U?$pair@$$CBV?$tuple@VAddress@geonet@vanetza@@VSequenceNumber@23@@std@@UValueWithHandle@?$SoftStateMap@V?$tuple@VAddress@geonet@vanetza@@VSequenceNumber@23@@std@@_KU?$SoftStateDefaultCreator@_K@geonet@vanetza@@@geonet@vanetza@@@std@@PEAX@std@@@1@@Z
	??$?0U?$_List_node@U?$pair@$$CBV?$tuple@VAddress@geonet@vanetza@@VSequenceNumber@23@@std@@_K@std@@PEAX@std@@@?$allocator@U_Container_proxy@std@@@std@@QEAA@AEBV?$allocator@U?$_List_node@U?$pair@$$CBV?$tuple@VAddress@geonet@vanetza@@VSequenceNumber@23@@std@@_K@std@@PEAX@std@@@1@@Z
	??$?0U?$_List_node@U?$pair@$$CBVMacAddress@vanetza@@UValueWithHandle@?$SoftStateMap@VMacAddress@vanetza@@VLocationTableEntry@geonet@2@VLocationTableEntryCreator@42@@geonet@2@@std@@PEAX@std@@@?$allocator@U_Container_proxy@std@@@std@@QEAA@AEBV?$allocator@U?$_List_node@U?$pair@$$CBVMacAddress@vanetza@@UValueWithHandle@?$SoftStateMap@VMacAddress@vanetza@@VLocationTableEntry@geonet@2@VLocationTableEntryCreator@42@@geonet@2@@std@@PEAX@std@@@1@@Z
	??$?0U?$_List_node@UCertificate@v2@security@vanetza@@PEAX@std@@@?$allocator@U_Container_proxy@std@@@std@@QEAA@AEBV?$allocator@U?$_List_node@UCertificate@v2@security@vanetza@@PEAX@std@@@1@@Z
	??$?0U?$_List_node@UItsAidSsp@v2@security@vanetza@@PEAX@std@@@?$allocator@U_Container_proxy@std@@@std@@QEAA@AEBV?$allocator@U?$_List_node@UItsAidSsp@v2@security@vanetza@@PEAX@std@@@1@@Z
	??$?0U?$_List_node@URecipientInfo@v2@security@vanetza@@PEAX@std@@@?$allocator@U_Container_proxy@std@@@std@@QEAA@AEBV?$allocator@U?$_List_node@URecipientInfo@v2@security@vanetza@@PEAX@std@@@1@@Z
	??$?0U?$_List_node@URectangularRegion@v2@security@vanetza@@PEAX@std@@@?$allocator@U_Container_proxy@std@@@std@@QEAA@AEBV?$allocator@U?$_List_node@URectangularRegion@v2@security@vanetza@@PEAX@std@@@1@@Z
	??$?0U?$_List_node@URepetition@Repeater@geonet@vanetza@@PEAX@std@@@?$allocator@U_Container_proxy@std@@@std@@QEAA@AEBV?$allocator@U?$_List_node@URepetition@Repeater@geonet@vanetza@@PEAX@std@@@1@@Z
	??$?0U?$_List_node@UTwoDLocation@v2@security@vanetza@@PEAX@std@@@?$allocator@U_Container_proxy@std@@@std@@QEAA@AEBV?$allocator@U?$_List_node@UTwoDLocation@v2@security@vanetza@@PEAX@std@@@1@@Z
	??$?0U?$_List_node@V?$_List_iterator@V?$_List_val@U?$_List_simple_types@V?$tuple@VExpiry@packet_buffer@geonet@vanetza@@V?$unique_ptr@VData@packet_buffer@geonet@vanetza@@U?$default_delete@VData@packet_buffer@geonet@vanetza@@@std@@@std@@@std@@@std@@@std@@@std@@PEAX@std@@@?$allocator@U_Container_proxy@std@@@std@@QEAA@AEBV?$allocator@U?$_List_node@V?$_List_iterator@V?$_List_val@U?$_List_simple_types@V?$tuple@VExpiry@packet_buffer@geonet@vanetza@@V?$unique_ptr@VData@packet_buffer@geonet@vanetza@@U?$default_delete@VData@packet_buffer@geonet@vanetza@@@std@@@std@@@std@@@std@@@std@@@std@@PEAX@std@@@1@@Z
	??$?0U?$_List_node@V?$array@E$02@std@@PEAX@std@@@?$allocator@U_Container_proxy@std@@@std@@QEAA@AEBV?$allocator@U?$_List_node@V?$array@E$02@std@@PEAX@std@@@1@@Z
	??$?0U?$_List_node@V?$tuple@VExpiry@packet_buffer@geonet@vanetza@@V?$unique_ptr@VData@packet_buffer@geonet@vanetza@@U?$default_delete@VData@packet_buffer@geonet@vanetza@@@std@@@std@@@std@@PEAX@std@@@?$allocator@U_Container_proxy@std@@@std@@QEAA@AEBV?$allocator@U?$_List_node@V?$tuple@VExpiry@packet_buffer@geonet@vanetza@@V?$unique_ptr@VData@packet_buffer@geonet@vanetza@@U?$default_delete@VData@packet_buffer@geonet@vanetza@@@std@@@std@@@std@@PEAX@std@@@1@@Z
	??$?0U?$_List_node@V?$variant@IUStartAndEndValidity@v2@security@vanetza@@UStartAndDurationValidity@234@V?$variant@UNoneRegion@v2@security@vanetza@@UCircularRegion@234@V?$list@URectangularRegion@v2@security@vanetza@@V?$allocator@URectangularRegion@v2@security@vanetza@@@std@@@std@@V?$list@UTwoDLocation@v2@security@vanetza@@V?$allocator@UTwoDLocation@v2@security@vanetza@@@std@@@7@UIdentifiedRegion@234@@boost@@@boost@@PEAX@std@@@?$allocator@U_Container_proxy@std@@@std@@QEAA@AEBV?$allocator@U?$_List_node@V?$variant@IUStartAndEndValidity@v2@security@vanetza@@UStartAndDurationValidity@234@V?$variant@UNoneRegion@v2@security@vanetza@@UCircularRegion@234@V?$list@URectangularRegion@v2@security@vanetza@@V?$allocator@URectangularRegion@v2@security@vanetza@@@std@@@std@@V?$list@UTwoDLocation@v2@security@vanetza@@V?$allocator@UTwoDLocation@v2@security@vanetza@@@std@@@7@UIdentifiedRegion@234@@boost@@@boost@@PEAX@std@@@1@@Z
	??$?0U?$_List_node@V?$variant@USignature@v2@security@vanetza@@$$V@boost@@PEAX@std@@@?$allocator@U_Container_proxy@std@@@std@@QEAA@AEBV?$allocator@U?$_List_node@V?$variant@USignature@v2@security@vanetza@@$$V@boost@@PEAX@std@@@1@@Z
	??$?0U?$_List_node@V?$variant@UVerificationKey@v2@security@vanetza@@UEncryptionKey@234@USubjectAssurance@234@V?$variant@UX_Coordinate_Only@security@vanetza@@UCompressed_Lsb_Y_0@23@UCompressed_Lsb_Y_1@23@UUncompressed@23@@boost@@V?$list@VIntX@v2@security@vanetza@@V?$allocator@VIntX@v2@security@vanetza@@@std@@@std@@V?$list@UItsAidSsp@v2@security@vanetza@@V?$allocator@UItsAidSsp@v2@security@vanetza@@@std@@@std@@@boost@@PEAX@std@@@?$allocator@U_Container_proxy@std@@@std@@QEAA@AEBV?$allocator@U?$_List_node@V?$variant@UVerificationKey@v2@security@vanetza@@UEncryptionKey@234@USubjectAssurance@234@V?$variant@UX_Coordinate_Only@security@vanetza@@UCompressed_Lsb_Y_0@23@UCompressed_Lsb_Y_1@23@UUncompressed@23@@boost@@V?$list@VIntX@v2@security@vanetza@@V?$allocator@VIntX@v2@security@vanetza@@@std@@@std@@V?$list@UItsAidSsp@v2@security@vanetza@@V?$allocator@UItsAidSsp@v2@security@vanetza@@@std@@@std@@@boost@@PEAX@std@@@1@@Z
	??$?0U?$_List_node@V?$variant@_KUTime64WithStandardDeviation@v2@security@vanetza@@IUThreeDLocation@234@V?$list@V?$array@E$02@std@@V?$allocator@V?$array@E$02@std@@@2@@std@@VIntX@234@V?$variant@$$TV?$array@E$07@std@@V?$recursive_wrapper@UCertificate@v2@security@vanetza@@@boost@@V?$list@UCertificate@v2@security@vanetza@@V?$allocator@UCertificate@v2@security@vanetza@@@std@@@2@UCertificateDigestWithOtherAlgorithm@v2@security@vanetza@@@boost@@V?$variant@V?$array@E$0M@@std@@$$V@boost@@V?$list@URecipientInfo@v2@security@vanetza@@V?$allocator@URecipientInfo@v2@security@vanetza@@@std@@@7@@boost@@PEAX@std@@@?$allocator@U_Container_proxy@std@@@std@@QEAA@AEBV?$allocator@U?$_List_node@V?$variant@_KUTime64WithStandardDeviation@v2@security@vanetza@@IUThreeDLocation@234@V?$list@V?$array@E$02@std@@V?$allocator@V?$array@E$02@std@@@2@@std@@VIntX@234@V?$variant@$$TV?$array@E$07@std@@V?$recursive_wrapper@UCertificate@v2@security@vanetza@@@boost@@V?$list@UCertificate@v2@security@vanetza@@V?$allocator@UCertificate@v2@security@vanetza@@@std@@@2@UCertificateDigestWithOtherAlgorithm@v2@security@vanetza@@@boost@@V?$variant@V?$array@E$0M@@std@@$$V@boost@@V?$list@URecipientInfo@v2@security@vanetza@@V?$allocator@URecipientInfo@v2@security@vanetza@@@std@@@7@@boost@@PEAX@std@@@1@@Z
	??$?0U?$_List_node@VCbfPacket@geonet@vanetza@@PEAX@std@@@?$allocator@U_Container_proxy@std@@@std@@QEAA@AEBV?$allocator@U?$_List_node@VCbfPacket@geonet@vanetza@@PEAX@std@@@1@@Z
	??$?0U?$_List_node@VIntX@v2@security@vanetza@@PEAX@std@@@?$allocator@U_Container_proxy@std@@@std@@QEAA@AEBV?$allocator@U?$_List_node@VIntX@v2@security@vanetza@@PEAX@std@@@1@@Z
	??$?0U?$_Ph@$00@std@@$0A@@?$tuple@U?$_Ph@$00@std@@VMacAddress@vanetza@@@std@@QEAA@AEBU?$_Ph@$00@1@AEBVMacAddress@vanetza@@@Z
	??$?0U?$_Tree_node@U?$pair@$$CBVtype_index@std@@Uobject_handle@ObjectContainer@vanetza@@@std@@PEAX@std@@@?$allocator@U_Container_proxy@std@@@std@@QEAA@AEBV?$allocator@U?$_Tree_node@U?$pair@$$CBVtype_index@std@@Uobject_handle@ObjectContainer@vanetza@@@std@@PEAX@std@@@1@@Z
	??$?0U?$_Tree_node@U?$pair@$$CBW4OsiLayer@vanetza@@VByteBufferConvertible@2@@std@@PEAX@std@@@?$allocator@U_Container_proxy@std@@@std@@QEAA@AEBV?$allocator@U?$_Tree_node@U?$pair@$$CBW4OsiLayer@vanetza@@VByteBufferConvertible@2@@std@@PEAX@std@@@1@@Z
	??$?0U?$_Tree_node@U?$pair@$$CBW4UpperProtocol@geonet@vanetza@@PEAVTransportInterface@23@@std@@PEAX@std@@@?$allocator@U_Container_proxy@std@@@std@@QEAA@AEBV?$allocator@U?$_Tree_node@U?$pair@$$CBW4UpperProtocol@geonet@vanetza@@PEAVTransportInterface@23@@std@@PEAX@std@@@1@@Z
	??$?0U?$bhtraits@U?$heap_node_base@$0A@@detail@heap@boost@@U?$list_node_traits@PEAX@intrusive@4@$00Udft_tag@64@$00@intrusive@boost@@@?$array_initializer@V?$list_impl@U?$bhtraits@U?$heap_node_base@$0A@@detail@heap@boost@@U?$list_node_traits@PEAX@intrusive@4@$00Udft_tag@64@$00@intrusive@boost@@_K$00X@intrusive@boost@@$0EA@@detail@intrusive@boost@@QEAA@AEBU?$bhtraits@U?$heap_node_base@$0A@@detail@heap@boost@@U?$list_node_traits@PEAX@intrusive@4@$00Udft_tag@64@$00@23@@Z
	??$?0U?$byte_buffer_impl@VSecuredPdu@geonet@vanetza@@@convertible@vanetza@@$0A@@?$default_delete@Ubyte_buffer@convertible@vanetza@@@std@@QEAA@AEBU?$default_delete@U?$byte_buffer_impl@VSecuredPdu@geonet@vanetza@@@convertible@vanetza@@@1@@Z
	??$?0U?$byte_buffer_impl@VSecuredPdu@geonet@vanetza@@@convertible@vanetza@@U?$default_delete@U?$byte_buffer_impl@VSecuredPdu@geonet@vanetza@@@convertible@vanetza@@@std@@$0A@@?$unique_ptr@Ubyte_buffer@convertible@vanetza@@U?$default_delete@Ubyte_buffer@convertible@vanetza@@@std@@@std@@QEAA@$$QEAV?$unique_ptr@U?$byte_buffer_impl@VSecuredPdu@geonet@vanetza@@@convertible@vanetza@@U?$default_delete@U?$byte_buffer_impl@VSecuredPdu@geonet@vanetza@@@convertible@vanetza@@@std@@@1@@Z
	??$?0U?$default_delete@U?$byte_buffer_impl@VSecuredPdu@geonet@vanetza@@@convertible@vanetza@@@std@@$0A@@?$unique_ptr@U?$byte_buffer_impl@VSecuredPdu@geonet@vanetza@@@convertible@vanetza@@U?$default_delete@U?$byte_buffer_impl@VSecuredPdu@geonet@vanetza@@@convertible@vanetza@@@std@@@std@@QEAA@PEAU?$byte_buffer_impl@VSecuredPdu@geonet@vanetza@@@convertible@vanetza@@@Z
	??$?0U?$default_delete@U?$byte_buffer_impl@VSecuredPdu@geonet@vanetza@@@convertible@vanetza@@@std@@PEAU?$byte_buffer_impl@VSecuredPdu@geonet@vanetza@@@convertible@vanetza@@@?$_Compressed_pair@U?$default_delete@Ubyte_buffer@convertible@vanetza@@@std@@PEAUbyte_buffer@convertible@vanetza@@$00@std@@QEAA@U_One_then_variadic_args_t@1@$$QEAU?$default_delete@U?$byte_buffer_impl@VSecuredPdu@geonet@vanetza@@@convertible@vanetza@@@1@$$QEAPEAU?$byte_buffer_impl@VSecuredPdu@geonet@vanetza@@@convertible@vanetza@@@Z
	??$?0U?$default_delete@ULocTEX_G5@geonet@vanetza@@@std@@$0A@@?$unique_ptr@ULocTEX_G5@geonet@vanetza@@U?$default_delete@ULocTEX_G5@geonet@vanetza@@@std@@@std@@QEAA@$$QEAV01@@Z
	??$?0U?$default_delete@ULocTEX_G5@geonet@vanetza@@@std@@$0A@@?$unique_ptr@ULocTEX_G5@geonet@vanetza@@U?$default_delete@ULocTEX_G5@geonet@vanetza@@@std@@@std@@QEAA@PEAULocTEX_G5@geonet@vanetza@@@Z
	??$?0U?$default_delete@ULocTEX_G5@geonet@vanetza@@@std@@PEAULocTEX_G5@geonet@vanetza@@@?$_Compressed_pair@U?$default_delete@ULocTEX_G5@geonet@vanetza@@@std@@PEAULocTEX_G5@geonet@vanetza@@$00@std@@QEAA@U_One_then_variadic_args_t@1@$$QEAU?$default_delete@ULocTEX_G5@geonet@vanetza@@@1@$$QEAPEAULocTEX_G5@geonet@vanetza@@@Z
	??$?0U?$default_delete@Ubyte_buffer@convertible@vanetza@@@std@@$0A@@?$unique_ptr@Ubyte_buffer@convertible@vanetza@@U?$default_delete@Ubyte_buffer@convertible@vanetza@@@std@@@std@@QEAA@$$QEAV01@@Z
	??$?0U?$default_delete@Ubyte_buffer@convertible@vanetza@@@std@@$0A@@?$unique_ptr@Ubyte_buffer@convertible@vanetza@@U?$default_delete@Ubyte_buffer@convertible@vanetza@@@std@@@std@@QEAA@PEAUbyte_buffer@convertible@vanetza@@@Z
	??$?0U?$default_delete@Ubyte_buffer@convertible@vanetza@@@std@@PEAUbyte_buffer@convertible@vanetza@@@?$_Compressed_pair@U?$default_delete@Ubyte_buffer@convertible@vanetza@@@std@@PEAUbyte_buffer@convertible@vanetza@@$00@std@@QEAA@U_One_then_variadic_args_t@1@$$QEAU?$default_delete@Ubyte_buffer@convertible@vanetza@@@1@$$QEAPEAUbyte_buffer@convertible@vanetza@@@Z
	??$?0U?$default_delete@V?$ExtendedPdu@UBeaconHeader@geonet@vanetza@@@geonet@vanetza@@@std@@$0A@@?$unique_ptr@V?$ExtendedPdu@UBeaconHeader@geonet@vanetza@@@geonet@vanetza@@U?$default_delete@V?$ExtendedPdu@UBeaconHeader@geonet@vanetza@@@geonet@vanetza@@@std@@@std@@QEAA@$$QEAV01@@Z
	??$?0U?$default_delete@V?$ExtendedPdu@UBeaconHeader@geonet@vanetza@@@geonet@vanetza@@@std@@$0A@@?$unique_ptr@V?$ExtendedPdu@UBeaconHeader@geonet@vanetza@@@geonet@vanetza@@U?$default_delete@V?$ExtendedPdu@UBeaconHeader@geonet@vanetza@@@geonet@vanetza@@@std@@@std@@QEAA@PEAV?$ExtendedPdu@UBeaconHeader@geonet@vanetza@@@geonet@vanetza@@@Z
	??$?0U?$default_delete@V?$ExtendedPdu@UBeaconHeader@geonet@vanetza@@@geonet@vanetza@@@std@@PEAV?$ExtendedPdu@UBeaconHeader@geonet@vanetza@@@geonet@vanetza@@@?$_Compressed_pair@U?$default_delete@V?$ExtendedPdu@UBeaconHeader@geonet@vanetza@@@geonet@vanetza@@@std@@PEAV?$ExtendedPdu@UBeaconHeader@geonet@vanetza@@@geonet@vanetza@@$00@std@@QEAA@U_One_then_variadic_args_t@1@$$QEAU?$default_delete@V?$ExtendedPdu@UBeaconHeader@geonet@vanetza@@@geonet@vanetza@@@1@$$QEAPEAV?$ExtendedPdu@UBeaconHeader@geonet@vanetza@@@geonet@vanetza@@@Z
	??$?0U?$default_delete@V?$ExtendedPdu@UBeaconHeader@geonet@vanetza@@@geonet@vanetza@@@std@@PEAV?$ExtendedPdu@UBeaconHeader@geonet@vanetza@@@geonet@vanetza@@@?$_Compressed_pair@U?$default_delete@VPdu@geonet@vanetza@@@std@@PEAVPdu@geonet@vanetza@@$00@std@@QEAA@U_One_then_variadic_args_t@1@$$QEAU?$default_delete@V?$ExtendedPdu@UBeaconHeader@geonet@vanetza@@@geonet@vanetza@@@1@$$QEAPEAV?$ExtendedPdu@UBeaconHeader@geonet@vanetza@@@geonet@vanetza@@@Z
	??$?0U?$default_delete@V?$ExtendedPdu@UGeoBroadcastHeader@geonet@vanetza@@@geonet@vanetza@@@std@@$0A@@?$unique_ptr@V?$ExtendedPdu@UGeoBroadcastHeader@geonet@vanetza@@@geonet@vanetza@@U?$default_delete@V?$ExtendedPdu@UGeoBroadcastHeader@geonet@vanetza@@@geonet@vanetza@@@std@@@std@@QEAA@$$QEAV01@@Z
	??$?0U?$default_delete@V?$ExtendedPdu@UGeoBroadcastHeader@geonet@vanetza@@@geonet@vanetza@@@std@@$0A@@?$unique_ptr@V?$ExtendedPdu@UGeoBroadcastHeader@geonet@vanetza@@@geonet@vanetza@@U?$default_delete@V?$ExtendedPdu@UGeoBroadcastHeader@geonet@vanetza@@@geonet@vanetza@@@std@@@std@@QEAA@PEAV?$ExtendedPdu@UGeoBroadcastHeader@geonet@vanetza@@@geonet@vanetza@@@Z
	??$?0U?$default_delete@V?$ExtendedPdu@UGeoBroadcastHeader@geonet@vanetza@@@geonet@vanetza@@@std@@$0A@@?$unique_ptr@V?$ExtendedPdu@UGeoBroadcastHeader@geonet@vanetza@@@geonet@vanetza@@U?$default_delete@V?$ExtendedPdu@UGeoBroadcastHeader@geonet@vanetza@@@geonet@vanetza@@@std@@@std@@QEAA@XZ
	??$?0U?$default_delete@V?$ExtendedPdu@UGeoBroadcastHeader@geonet@vanetza@@@geonet@vanetza@@@std@@PEAV?$ExtendedPdu@UGeoBroadcastHeader@geonet@vanetza@@@geonet@vanetza@@@?$_Compressed_pair@U?$default_delete@V?$ExtendedPdu@UGeoBroadcastHeader@geonet@vanetza@@@geonet@vanetza@@@std@@PEAV?$ExtendedPdu@UGeoBroadcastHeader@geonet@vanetza@@@geonet@vanetza@@$00@std@@QEAA@U_One_then_variadic_args_t@1@$$QEAU?$default_delete@V?$ExtendedPdu@UGeoBroadcastHeader@geonet@vanetza@@@geonet@vanetza@@@1@$$QEAPEAV?$ExtendedPdu@UGeoBroadcastHeader@geonet@vanetza@@@geonet@vanetza@@@Z
	??$?0U?$default_delete@V?$ExtendedPdu@UGeoBroadcastHeader@geonet@vanetza@@@geonet@vanetza@@@std@@PEAV?$ExtendedPdu@UGeoBroadcastHeader@geonet@vanetza@@@geonet@vanetza@@@?$_Compressed_pair@U?$default_delete@VPdu@geonet@vanetza@@@std@@PEAVPdu@geonet@vanetza@@$00@std@@QEAA@U_One_then_variadic_args_t@1@$$QEAU?$default_delete@V?$ExtendedPdu@UGeoBroadcastHeader@geonet@vanetza@@@geonet@vanetza@@@1@$$QEAPEAV?$ExtendedPdu@UGeoBroadcastHeader@geonet@vanetza@@@geonet@vanetza@@@Z
	??$?0U?$default_delete@V?$ExtendedPdu@UShbHeader@geonet@vanetza@@@geonet@vanetza@@@std@@$0A@@?$unique_ptr@V?$ExtendedPdu@UShbHeader@geonet@vanetza@@@geonet@vanetza@@U?$default_delete@V?$ExtendedPdu@UShbHeader@geonet@vanetza@@@geonet@vanetza@@@std@@@std@@QEAA@$$QEAV01@@Z
	??$?0U?$default_delete@V?$ExtendedPdu@UShbHeader@geonet@vanetza@@@geonet@vanetza@@@std@@$0A@@?$unique_ptr@V?$ExtendedPdu@UShbHeader@geonet@vanetza@@@geonet@vanetza@@U?$default_delete@V?$ExtendedPdu@UShbHeader@geonet@vanetza@@@geonet@vanetza@@@std@@@std@@QEAA@PEAV?$ExtendedPdu@UShbHeader@geonet@vanetza@@@geonet@vanetza@@@Z
	??$?0U?$default_delete@V?$ExtendedPdu@UShbHeader@geonet@vanetza@@@geonet@vanetza@@@std@@$0A@@?$unique_ptr@V?$ExtendedPdu@UShbHeader@geonet@vanetza@@@geonet@vanetza@@U?$default_delete@V?$ExtendedPdu@UShbHeader@geonet@vanetza@@@geonet@vanetza@@@std@@@std@@QEAA@XZ
	??$?0U?$default_delete@V?$ExtendedPdu@UShbHeader@geonet@vanetza@@@geonet@vanetza@@@std@@PEAV?$ExtendedPdu@UShbHeader@geonet@vanetza@@@geonet@vanetza@@@?$_Compressed_pair@U?$default_delete@V?$ExtendedPdu@UShbHeader@geonet@vanetza@@@geonet@vanetza@@@std@@PEAV?$ExtendedPdu@UShbHeader@geonet@vanetza@@@geonet@vanetza@@$00@std@@QEAA@U_One_then_variadic_args_t@1@$$QEAU?$default_delete@V?$ExtendedPdu@UShbHeader@geonet@vanetza@@@geonet@vanetza@@@1@$$QEAPEAV?$ExtendedPdu@UShbHeader@geonet@vanetza@@@geonet@vanetza@@@Z
	??$?0U?$default_delete@V?$ExtendedPdu@UShbHeader@geonet@vanetza@@@geonet@vanetza@@@std@@PEAV?$ExtendedPdu@UShbHeader@geonet@vanetza@@@geonet@vanetza@@@?$_Compressed_pair@U?$default_delete@VPdu@geonet@vanetza@@@std@@PEAVPdu@geonet@vanetza@@$00@std@@QEAA@U_One_then_variadic_args_t@1@$$QEAU?$default_delete@V?$ExtendedPdu@UShbHeader@geonet@vanetza@@@geonet@vanetza@@@1@$$QEAPEAV?$ExtendedPdu@UShbHeader@geonet@vanetza@@@geonet@vanetza@@@Z
	??$?0U?$default_delete@V?$ExtendedPdu@UTsbHeader@geonet@vanetza@@@geonet@vanetza@@@std@@$0A@@?$unique_ptr@V?$ExtendedPdu@UTsbHeader@geonet@vanetza@@@geonet@vanetza@@U?$default_delete@V?$ExtendedPdu@UTsbHeader@geonet@vanetza@@@geonet@vanetza@@@std@@@std@@QEAA@$$QEAV01@@Z
	??$?0U?$default_delete@V?$ExtendedPdu@UTsbHeader@geonet@vanetza@@@geonet@vanetza@@@std@@$0A@@?$unique_ptr@V?$ExtendedPdu@UTsbHeader@geonet@vanetza@@@geonet@vanetza@@U?$default_delete@V?$ExtendedPdu@UTsbHeader@geonet@vanetza@@@geonet@vanetza@@@std@@@std@@QEAA@PEAV?$ExtendedPdu@UTsbHeader@geonet@vanetza@@@geonet@vanetza@@@Z
	??$?0U?$default_delete@V?$ExtendedPdu@UTsbHeader@geonet@vanetza@@@geonet@vanetza@@@std@@PEAV?$ExtendedPdu@UTsbHeader@geonet@vanetza@@@geonet@vanetza@@@?$_Compressed_pair@U?$default_delete@V?$ExtendedPdu@UTsbHeader@geonet@vanetza@@@geonet@vanetza@@@std@@PEAV?$ExtendedPdu@UTsbHeader@geonet@vanetza@@@geonet@vanetza@@$00@std@@QEAA@U_One_then_variadic_args_t@1@$$QEAU?$default_delete@V?$ExtendedPdu@UTsbHeader@geonet@vanetza@@@geonet@vanetza@@@1@$$QEAPEAV?$ExtendedPdu@UTsbHeader@geonet@vanetza@@@geonet@vanetza@@@Z
	??$?0U?$default_delete@V?$ExtendedPdu@UTsbHeader@geonet@vanetza@@@geonet@vanetza@@@std@@PEAV?$ExtendedPdu@UTsbHeader@geonet@vanetza@@@geonet@vanetza@@@?$_Compressed_pair@U?$default_delete@VPdu@geonet@vanetza@@@std@@PEAVPdu@geonet@vanetza@@$00@std@@QEAA@U_One_then_variadic_args_t@1@$$QEAU?$default_delete@V?$ExtendedPdu@UTsbHeader@geonet@vanetza@@@geonet@vanetza@@@1@$$QEAPEAV?$ExtendedPdu@UTsbHeader@geonet@vanetza@@@geonet@vanetza@@@Z
	??$?0U?$default_delete@V?$variant@VChunkPacket@vanetza@@VCohesivePacket@2@@boost@@@std@@$0A@@?$unique_ptr@V?$variant@VChunkPacket@vanetza@@VCohesivePacket@2@@boost@@U?$default_delete@V?$variant@VChunkPacket@vanetza@@VCohesivePacket@2@@boost@@@std@@@std@@QEAA@$$QEAV01@@Z
	??$?0U?$default_delete@V?$variant@VChunkPacket@vanetza@@VCohesivePacket@2@@boost@@@std@@PEAV?$variant@VChunkPacket@vanetza@@VCohesivePacket@2@@boost@@@?$_Compressed_pair@U?$default_delete@V?$variant@VChunkPacket@vanetza@@VCohesivePacket@2@@boost@@@std@@PEAV?$variant@VChunkPacket@vanetza@@VCohesivePacket@2@@boost@@$00@std@@QEAA@U_One_then_variadic_args_t@1@$$QEAU?$default_delete@V?$variant@VChunkPacket@vanetza@@VCohesivePacket@2@@boost@@@1@$$QEAPEAV?$variant@VChunkPacket@vanetza@@VCohesivePacket@2@@boost@@@Z
	??$?0U?$default_delete@VCbfCounter@geonet@vanetza@@@std@@$0A@@?$unique_ptr@VCbfCounter@geonet@vanetza@@U?$default_delete@VCbfCounter@geonet@vanetza@@@std@@@std@@QEAA@$$QEAV01@@Z
	??$?0U?$default_delete@VCbfCounter@geonet@vanetza@@@std@@$0A@@?$unique_ptr@VCbfCounter@geonet@vanetza@@U?$default_delete@VCbfCounter@geonet@vanetza@@@std@@@std@@QEAA@XZ
	??$?0U?$default_delete@VCbfCounter@geonet@vanetza@@@std@@PEAVCbfCounter@geonet@vanetza@@@?$_Compressed_pair@U?$default_delete@VCbfCounter@geonet@vanetza@@@std@@PEAVCbfCounter@geonet@vanetza@@$00@std@@QEAA@U_One_then_variadic_args_t@1@$$QEAU?$default_delete@VCbfCounter@geonet@vanetza@@@1@$$QEAPEAVCbfCounter@geonet@vanetza@@@Z
	??$?0U?$default_delete@VChunkPacket@vanetza@@@std@@$0A@@?$unique_ptr@VChunkPacket@vanetza@@U?$default_delete@VChunkPacket@vanetza@@@std@@@std@@QEAA@$$QEAV01@@Z
	??$?0U?$default_delete@VChunkPacket@vanetza@@@std@@$0A@@?$unique_ptr@VChunkPacket@vanetza@@U?$default_delete@VChunkPacket@vanetza@@@std@@@std@@QEAA@$$T@Z
	??$?0U?$default_delete@VChunkPacket@vanetza@@@std@@$0A@@?$unique_ptr@VChunkPacket@vanetza@@U?$default_delete@VChunkPacket@vanetza@@@std@@@std@@QEAA@PEAVChunkPacket@vanetza@@@Z
	??$?0U?$default_delete@VChunkPacket@vanetza@@@std@@$0A@@?$unique_ptr@VChunkPacket@vanetza@@U?$default_delete@VChunkPacket@vanetza@@@std@@@std@@QEAA@XZ
	??$?0U?$default_delete@VChunkPacket@vanetza@@@std@@PEAVChunkPacket@vanetza@@@?$_Compressed_pair@U?$default_delete@VChunkPacket@vanetza@@@std@@PEAVChunkPacket@vanetza@@$00@std@@QEAA@U_One_then_variadic_args_t@1@$$QEAU?$default_delete@VChunkPacket@vanetza@@@1@$$QEAPEAVChunkPacket@vanetza@@@Z
	??$?0U?$default_delete@VData@packet_buffer@geonet@vanetza@@@std@@$0A@@?$unique_ptr@VData@packet_buffer@geonet@vanetza@@U?$default_delete@VData@packet_buffer@geonet@vanetza@@@std@@@std@@QEAA@$$QEAV01@@Z
	??$?0U?$default_delete@VData@packet_buffer@geonet@vanetza@@@std@@$0A@@?$unique_ptr@VData@packet_buffer@geonet@vanetza@@U?$default_delete@VData@packet_buffer@geonet@vanetza@@@std@@@std@@QEAA@PEAVData@packet_buffer@geonet@vanetza@@@Z
	??$?0U?$default_delete@VData@packet_buffer@geonet@vanetza@@@std@@PEAVData@packet_buffer@geonet@vanetza@@@?$_Compressed_pair@U?$default_delete@VData@packet_buffer@geonet@vanetza@@@std@@PEAVData@packet_buffer@geonet@vanetza@@$00@std@@QEAA@U_One_then_variadic_args_t@1@$$QEAU?$default_delete@VData@packet_buffer@geonet@vanetza@@@1@$$QEAPEAVData@packet_buffer@geonet@vanetza@@@Z
	??$?0U?$default_delete@VDuplicatePacketList@geonet@vanetza@@@std@@$0A@@?$unique_ptr@VDuplicatePacketList@geonet@vanetza@@U?$default_delete@VDuplicatePacketList@geonet@vanetza@@@std@@@std@@QEAA@$$QEAV01@@Z
	??$?0U?$default_delete@VDuplicatePacketList@geonet@vanetza@@@std@@$0A@@?$unique_ptr@VDuplicatePacketList@geonet@vanetza@@U?$default_delete@VDuplicatePacketList@geonet@vanetza@@@std@@@std@@QEAA@PEAVDuplicatePacketList@geonet@vanetza@@@Z
	??$?0U?$default_delete@VDuplicatePacketList@geonet@vanetza@@@std@@PEAVDuplicatePacketList@geonet@vanetza@@@?$_Compressed_pair@U?$default_delete@VDuplicatePacketList@geonet@vanetza@@@std@@PEAVDuplicatePacketList@geonet@vanetza@@$00@std@@QEAA@U_One_then_variadic_args_t@1@$$QEAU?$default_delete@VDuplicatePacketList@geonet@vanetza@@@1@$$QEAPEAVDuplicatePacketList@geonet@vanetza@@@Z
	??$?0U?$default_delete@VPdu@geonet@vanetza@@@std@@$0A@@?$unique_ptr@VPdu@geonet@vanetza@@U?$default_delete@VPdu@geonet@vanetza@@@std@@@std@@QEAA@$$QEAV01@@Z
	??$?0U?$default_delete@VPdu@geonet@vanetza@@@std@@$0A@@?$unique_ptr@VPdu@geonet@vanetza@@U?$default_delete@VPdu@geonet@vanetza@@@std@@@std@@QEAA@PEAVPdu@geonet@vanetza@@@Z
	??$?0U?$default_delete@VPdu@geonet@vanetza@@@std@@$0A@@?$unique_ptr@VPdu@geonet@vanetza@@U?$default_delete@VPdu@geonet@vanetza@@@std@@@std@@QEAA@XZ
	??$?0U?$default_delete@VPdu@geonet@vanetza@@@std@@PEAVPdu@geonet@vanetza@@@?$_Compressed_pair@U?$default_delete@VPdu@geonet@vanetza@@@std@@PEAVPdu@geonet@vanetza@@$00@std@@QEAA@U_One_then_variadic_args_t@1@$$QEAU?$default_delete@VPdu@geonet@vanetza@@@1@$$QEAPEAVPdu@geonet@vanetza@@@Z
	??$?0U?$hashed_index_node@U?$ordered_index_node@Unull_augment_policy@detail@multi_index@boost@@U?$index_node_base@V?$mutant_relation@U?$tagged@$$CBUTimer@CbfPacketBuffer@geonet@vanetza@@Uleft@member_at@relation@bimaps@boost@@@tags@bimaps@boost@@U?$tagged@$$CBV?$tuple@VAddress@geonet@vanetza@@VSequenceNumber@23@@std@@Uright@member_at@relation@bimaps@boost@@@234@V?$_List_iterator@V?$_List_val@U?$_List_simple_types@VCbfPacket@geonet@vanetza@@@std@@@std@@@std@@$00@relation@bimaps@boost@@V?$allocator@V?$mutant_relation@U?$tagged@$$CBUTimer@CbfPacketBuffer@geonet@vanetza@@Uleft@member_at@relation@bimaps@boost@@@tags@bimaps@boost@@U?$tagged@$$CBV?$tuple@VAddress@geonet@vanetza@@VSequenceNumber@23@@std@@Uright@member_at@relation@bimaps@boost@@@234@V?$_List_iterator@V?$_List_val@U?$_List_simple_types@VCbfPacket@geonet@vanetza@@@std@@@std@@@std@@$00@relation@bimaps@boost@@@std@@@234@@detail@multi_index@boost@@@detail@multi_index@boost@@@?$allocator@V?$mutant_relation@U?$tagged@$$CBUTimer@CbfPacketBuffer@geonet@vanetza@@Uleft@member_at@relation@bimaps@boost@@@tags@bimaps@boost@@U?$tagged@$$CBV?$tuple@VAddress@geonet@vanetza@@VSequenceNumber@23@@std@@Uright@member_at@relation@bimaps@boost@@@234@V?$_List_iterator@V?$_List_val@U?$_List_simple_types@VCbfPacket@geonet@vanetza@@@std@@@std@@@std@@$00@relation@bimaps@boost@@@std@@QEAA@AEBV?$allocator@U?$hashed_index_node@U?$ordered_index_node@Unull_augment_policy@detail@multi_index@boost@@U?$index_node_base@V?$mutant_relation@U?$tagged@$$CBUTimer@CbfPacketBuffer@geonet@vanetza@@Uleft@member_at@relation@bimaps@boost@@@tags@bimaps@boost@@U?$tagged@$$CBV?$tuple@VAddress@geonet@vanetza@@VSequenceNumber@23@@std@@Uright@member_at@relation@bimaps@boost@@@234@V?$_List_iterator@V?$_List_val@U?$_List_simple_types@VCbfPacket@geonet@vanetza@@@std@@@std@@@std@@$00@relation@bimaps@boost@@V?$allocator@V?$mutant_relation@U?$tagged@$$CBUTimer@CbfPacketBuffer@geonet@vanetza@@Uleft@member_at@relation@bimaps@boost@@@tags@bimaps@boost@@U?$tagged@$$CBV?$tuple@VAddress@geonet@vanetza@@VSequenceNumber@23@@std@@Uright@member_at@relation@bimaps@boost@@@234@V?$_List_iterator@V?$_List_val@U?$_List_simple_types@VCbfPacket@geonet@vanetza@@@std@@@std@@@std@@$00@relation@bimaps@boost@@@std@@@234@@detail@multi_index@boost@@@detail@multi_index@boost@@@1@@Z
	??$?0U?$less@Vtype_index@std@@@std@@U_One_then_variadic_args_t@1@V?$allocator@U?$_Tree_node@U?$pair@$$CBVtype_index@std@@Uobject_handle@ObjectContainer@vanetza@@@std@@PEAX@std@@@1@@?$_Compressed_pair@U?$less@Vtype_index@std@@@std@@V?$_Compressed_pair@V?$allocator@U?$_Tree_node@U?$pair@$$CBVtype_index@std@@Uobject_handle@ObjectContainer@vanetza@@@std@@PEAX@std@@@std@@V?$_Tree_val@U?$_Tree_simple_types@U?$pair@$$CBVtype_index@std@@Uobject_handle@ObjectContainer@vanetza@@@std@@@std@@@2@$00@2@$00@std@@QEAA@U_One_then_variadic_args_t@1@$$QEAU?$less@Vtype_index@std@@@1@$$QEAU21@$$QEAV?$allocator@U?$_Tree_node@U?$pair@$$CBVtype_index@std@@Uobject_handle@ObjectContainer@vanetza@@@std@@PEAX@std@@@1@@Z
	??$?0U?$less@W4OsiLayer@vanetza@@@std@@U_One_then_variadic_args_t@1@V?$allocator@U?$_Tree_node@U?$pair@$$CBW4OsiLayer@vanetza@@VByteBufferConvertible@2@@std@@PEAX@std@@@1@@?$_Compressed_pair@U?$less@W4OsiLayer@vanetza@@@std@@V?$_Compressed_pair@V?$allocator@U?$_Tree_node@U?$pair@$$CBW4OsiLayer@vanetza@@VByteBufferConvertible@2@@std@@PEAX@std@@@std@@V?$_Tree_val@U?$_Tree_simple_types@U?$pair@$$CBW4OsiLayer@vanetza@@VByteBufferConvertible@2@@std@@@std@@@2@$00@2@$00@std@@QEAA@U_One_then_variadic_args_t@1@$$QEAU?$less@W4OsiLayer@vanetza@@@1@$$QEAU21@$$QEAV?$allocator@U?$_Tree_node@U?$pair@$$CBW4OsiLayer@vanetza@@VByteBufferConvertible@2@@std@@PEAX@std@@@1@@Z
	??$?0U?$pair@$$CBV?$tuple@VAddress@geonet@vanetza@@VSequenceNumber@23@@std@@UValueWithHandle@?$SoftStateMap@V?$tuple@VAddress@geonet@vanetza@@VSequenceNumber@23@@std@@_KU?$SoftStateDefaultCreator@_K@geonet@vanetza@@@geonet@vanetza@@@std@@@?$allocator@U?$_List_node@U?$pair@$$CBV?$tuple@VAddress@geonet@vanetza@@VSequenceNumber@23@@std@@UValueWithHandle@?$SoftStateMap@V?$tuple@VAddress@geonet@vanetza@@VSequenceNumber@23@@std@@_KU?$SoftStateDefaultCreator@_K@geonet@vanetza@@@geonet@vanetza@@@std@@PEAX@std@@@std@@QEAA@AEBV?$allocator@U?$pair@$$CBV?$tuple@VAddress@geonet@vanetza@@VSequenceNumber@23@@std@@UValueWithHandle@?$SoftStateMap@V?$tuple@VAddress@geonet@vanetza@@VSequenceNumber@23@@std@@_KU?$SoftStateDefaultCreator@_K@geonet@vanetza@@@geonet@vanetza@@@std@@@1@@Z
	??$?0U?$pair@$$CBV?$tuple@VAddress@geonet@vanetza@@VSequenceNumber@23@@std@@UValueWithHandle@?$SoftStateMap@V?$tuple@VAddress@geonet@vanetza@@VSequenceNumber@23@@std@@_KU?$SoftStateDefaultCreator@_K@geonet@vanetza@@@geonet@vanetza@@@std@@@?$allocator@V?$_List_unchecked_iterator@V?$_List_val@U?$_List_simple_types@U?$pair@$$CBV?$tuple@VAddress@geonet@vanetza@@VSequenceNumber@23@@std@@UValueWithHandle@?$SoftStateMap@V?$tuple@VAddress@geonet@vanetza@@VSequenceNumber@23@@std@@_KU?$SoftStateDefaultCreator@_K@geonet@vanetza@@@geonet@vanetza@@@std@@@std@@@std@@@std@@@std@@QEAA@AEBV?$allocator@U?$pair@$$CBV?$tuple@VAddress@geonet@vanetza@@VSequenceNumber@23@@std@@UValueWithHandle@?$SoftStateMap@V?$tuple@VAddress@geonet@vanetza@@VSequenceNumber@23@@std@@_KU?$SoftStateDefaultCreator@_K@geonet@vanetza@@@geonet@vanetza@@@std@@@1@@Z
	??$?0U?$pair@$$CBV?$tuple@VAddress@geonet@vanetza@@VSequenceNumber@23@@std@@_K@std@@@?$allocator@U?$_List_node@U?$pair@$$CBV?$tuple@VAddress@geonet@vanetza@@VSequenceNumber@23@@std@@_K@std@@PEAX@std@@@std@@QEAA@AEBV?$allocator@U?$pair@$$CBV?$tuple@VAddress@geonet@vanetza@@VSequenceNumber@23@@std@@_K@std@@@1@@Z
	??$?0U?$pair@$$CBV?$tuple@VAddress@geonet@vanetza@@VSequenceNumber@23@@std@@_K@std@@@?$allocator@V?$_List_unchecked_iterator@V?$_List_val@U?$_List_simple_types@U?$pair@$$CBV?$tuple@VAddress@geonet@vanetza@@VSequenceNumber@23@@std@@_K@std@@@std@@@std@@@std@@@std@@QEAA@AEBV?$allocator@U?$pair@$$CBV?$tuple@VAddress@geonet@vanetza@@VSequenceNumber@23@@std@@_K@std@@@1@@Z
	??$?0U?$pair@$$CBVMacAddress@vanetza@@UValueWithHandle@?$SoftStateMap@VMacAddress@vanetza@@VLocationTableEntry@geonet@2@VLocationTableEntryCreator@42@@geonet@2@@std@@@?$allocator@U?$_List_node@U?$pair@$$CBVMacAddress@vanetza@@UValueWithHandle@?$SoftStateMap@VMacAddress@vanetza@@VLocationTableEntry@geonet@2@VLocationTableEntryCreator@42@@geonet@2@@std@@PEAX@std@@@std@@QEAA@AEBV?$allocator@U?$pair@$$CBVMacAddress@vanetza@@UValueWithHandle@?$SoftStateMap@VMacAddress@vanetza@@VLocationTableEntry@geonet@2@VLocationTableEntryCreator@42@@geonet@2@@std@@@1@@Z
	??$?0U?$pair@$$CBVMacAddress@vanetza@@UValueWithHandle@?$SoftStateMap@VMacAddress@vanetza@@VLocationTableEntry@geonet@2@VLocationTableEntryCreator@42@@geonet@2@@std@@@?$allocator@V?$_List_unchecked_iterator@V?$_List_val@U?$_List_simple_types@U?$pair@$$CBVMacAddress@vanetza@@UValueWithHandle@?$SoftStateMap@VMacAddress@vanetza@@VLocationTableEntry@geonet@2@VLocationTableEntryCreator@42@@geonet@2@@std@@@std@@@std@@@std@@@std@@QEAA@AEBV?$allocator@U?$pair@$$CBVMacAddress@vanetza@@UValueWithHandle@?$SoftStateMap@VMacAddress@vanetza@@VLocationTableEntry@geonet@2@VLocationTableEntryCreator@42@@geonet@2@@std@@@1@@Z
	??$?0U?$sequenced_index_node@U?$hashed_index_node@U?$index_node_base@V?$tuple@VAddress@geonet@vanetza@@VSequenceNumber@23@@std@@V?$allocator@V?$tuple@VAddress@geonet@vanetza@@VSequenceNumber@23@@std@@@2@@detail@multi_index@boost@@@detail@multi_index@boost@@@detail@multi_index@boost@@@?$allocator@V?$tuple@VAddress@geonet@vanetza@@VSequenceNumber@23@@std@@@std@@QEAA@AEBV?$allocator@U?$sequenced_index_node@U?$hashed_index_node@U?$index_node_base@V?$tuple@VAddress@geonet@vanetza@@VSequenceNumber@23@@std@@V?$allocator@V?$tuple@VAddress@geonet@vanetza@@VSequenceNumber@23@@std@@@2@@detail@multi_index@boost@@@detail@multi_index@boost@@@detail@multi_index@boost@@@1@@Z
	??$?0U?$set_view_iterator@V?$bidir_node_iterator@U?$ordered_index_node@Unull_augment_policy@detail@multi_index@boost@@U?$index_node_base@V?$mutant_relation@U?$tagged@$$CBUTimer@CbfPacketBuffer@geonet@vanetza@@Uleft@member_at@relation@bimaps@boost@@@tags@bimaps@boost@@U?$tagged@$$CBV?$tuple@VAddress@geonet@vanetza@@VSequenceNumber@23@@std@@Uright@member_at@relation@bimaps@boost@@@234@V?$_List_iterator@V?$_List_val@U?$_List_simple_types@VCbfPacket@geonet@vanetza@@@std@@@std@@@std@@$00@relation@bimaps@boost@@V?$allocator@V?$mutant_relation@U?$tagged@$$CBUTimer@CbfPacketBuffer@geonet@vanetza@@Uleft@member_at@relation@bimaps@boost@@@tags@bimaps@boost@@U?$tagged@$$CBV?$tuple@VAddress@geonet@vanetza@@VSequenceNumber@23@@std@@Uright@member_at@relation@bimaps@boost@@@234@V?$_List_iterator@V?$_List_val@U?$_List_simple_types@VCbfPacket@geonet@vanetza@@@std@@@std@@@std@@$00@relation@bimaps@boost@@@std@@@234@@detail@multi_index@boost@@@detail@multi_index@boost@@@detail@bimaps@boost@@AEA_N$0A@@?$pair@U?$set_view_iterator@V?$bidir_node_iterator@U?$ordered_index_node@Unull_augment_policy@detail@multi_index@boost@@U?$index_node_base@V?$mutant_relation@U?$tagged@$$CBUTimer@CbfPacketBuffer@geonet@vanetza@@Uleft@member_at@relation@bimaps@boost@@@tags@bimaps@boost@@U?$tagged@$$CBV?$tuple@VAddress@geonet@vanetza@@VSequenceNumber@23@@std@@Uright@member_at@relation@bimaps@boost@@@234@V?$_List_iterator@V?$_List_val@U?$_List_simple_types@VCbfPacket@geonet@vanetza@@@std@@@std@@@std@@$00@relation@bimaps@boost@@V?$allocator@V?$mutant_relation@U?$tagged@$$CBUTimer@CbfPacketBuffer@geonet@vanetza@@Uleft@member_at@relation@bimaps@boost@@@tags@bimaps@boost@@U?$tagged@$$CBV?$tuple@VAddress@geonet@vanetza@@VSequenceNumber@23@@std@@Uright@member_at@relation@bimaps@boost@@@234@V?$_List_iterator@V?$_List_val@U?$_List_simple_types@VCbfPacket@geonet@vanetza@@@std@@@std@@@std@@$00@relation@bimaps@boost@@@std@@@234@@detail@multi_index@boost@@@detail@multi_index@boost@@@detail@bimaps@boost@@_N@std@@QEAA@$$QEAU?$set_view_iterator@V?$bidir_node_iterator@U?$ordered_index_node@Unull_augment_policy@detail@multi_index@boost@@U?$index_node_base@V?$mutant_relation@U?$tagged@$$CBUTimer@CbfPacketBuffer@geonet@vanetza@@Uleft@member_at@relation@bimaps@boost@@@tags@bimaps@boost@@U?$tagged@$$CBV?$tuple@VAddress@geonet@vanetza@@VSequenceNumber@23@@std@@Uright@member_at@relation@bimaps@boost@@@234@V?$_List_iterator@V?$_List_val@U?$_List_simple_types@VCbfPacket@geonet@vanetza@@@std@@@std@@@std@@$00@relation@bimaps@boost@@V?$allocator@V?$mutant_relation@U?$tagged@$$CBUTimer@CbfPacketBuffer@geonet@vanetza@@Uleft@member_at@relation@bimaps@boost@@@tags@bimaps@boost@@U?$tagged@$$CBV?$tuple@VAddress@geonet@vanetza@@VSequenceNumber@23@@std@@Uright@member_at@relation@bimaps@boost@@@234@V?$_List_iterator@V?$_List_val@U?$_List_simple_types@VCbfPacket@geonet@vanetza@@@std@@@std@@@std@@$00@relation@bimaps@boost@@@std@@@234@@detail@multi_index@boost@@@detail@multi_index@boost@@@detail@bimaps@boost@@AEA_N@Z
	??$?0UArea@geonet@vanetza@@@?$variant@VAddress@geonet@vanetza@@UArea@23@$$T@boost@@QEAA@$$QEAUArea@geonet@vanetza@@_N@Z
	??$?0UBeaconHeader@geonet@vanetza@@@?$backup_assigner@V?$variant@UBeaconHeader@geonet@vanetza@@UGeoBroadcastHeader@23@UShbHeader@23@UTsbHeader@23@@boost@@@variant@detail@boost@@QEAA@AEAV?$variant@UBeaconHeader@geonet@vanetza@@UGeoBroadcastHeader@23@UShbHeader@23@UTsbHeader@23@@3@HAEBUBeaconHeader@geonet@vanetza@@@Z
	??$?0UBeaconHeader@geonet@vanetza@@@?$variant@AEBUBeaconHeader@geonet@vanetza@@AEBUGeoBroadcastHeader@23@AEBUShbHeader@23@AEBUTsbHeader@23@@boost@@QEAA@AEBUBeaconHeader@geonet@vanetza@@_N@Z
	??$?0UBeaconHeader@geonet@vanetza@@@?$variant@UBeaconHeader@geonet@vanetza@@UGeoBroadcastHeader@23@UShbHeader@23@UTsbHeader@23@@boost@@QEAA@$$QEAUBeaconHeader@geonet@vanetza@@_N@Z
	??$?0UCircle@geonet@vanetza@@@?$backup_assigner@V?$variant@URectangle@geonet@vanetza@@UEllipse@23@UCircle@23@@boost@@@variant@detail@boost@@QEAA@AEAV?$variant@URectangle@geonet@vanetza@@UEllipse@23@UCircle@23@@3@HAEBUCircle@geonet@vanetza@@@Z
	??$?0UCircle@geonet@vanetza@@@?$variant@URectangle@geonet@vanetza@@UEllipse@23@UCircle@23@@boost@@QEAA@$$QEAUCircle@geonet@vanetza@@_N@Z
	??$?0UEllipse@geonet@vanetza@@@?$backup_assigner@V?$variant@URectangle@geonet@vanetza@@UEllipse@23@UCircle@23@@boost@@@variant@detail@boost@@QEAA@AEAV?$variant@URectangle@geonet@vanetza@@UEllipse@23@UCircle@23@@3@HAEBUEllipse@geonet@vanetza@@@Z
	??$?0UEllipse@geonet@vanetza@@@?$variant@URectangle@geonet@vanetza@@UEllipse@23@UCircle@23@@boost@@QEAA@$$QEAUEllipse@geonet@vanetza@@_N@Z
	??$?0UGbcDataRequest@geonet@vanetza@@@?$variant@UGucDataRequest@geonet@vanetza@@UGbcDataRequest@23@UGacDataRequest@23@UShbDataRequest@23@UTsbDataRequest@23@@boost@@QEAA@AEBUGbcDataRequest@geonet@vanetza@@_N@Z
	??$?0UGeoBroadcastHeader@geonet@vanetza@@@?$backup_assigner@V?$variant@UBeaconHeader@geonet@vanetza@@UGeoBroadcastHeader@23@UShbHeader@23@UTsbHeader@23@@boost@@@variant@detail@boost@@QEAA@AEAV?$variant@UBeaconHeader@geonet@vanetza@@UGeoBroadcastHeader@23@UShbHeader@23@UTsbHeader@23@@3@HAEBUGeoBroadcastHeader@geonet@vanetza@@@Z
	??$?0UGeoBroadcastHeader@geonet@vanetza@@@?$variant@AEBUBeaconHeader@geonet@vanetza@@AEBUGeoBroadcastHeader@23@AEBUShbHeader@23@AEBUTsbHeader@23@@boost@@QEAA@AEBUGeoBroadcastHeader@geonet@vanetza@@_N@Z
	??$?0UGeoBroadcastHeader@geonet@vanetza@@@?$variant@UBeaconHeader@geonet@vanetza@@UGeoBroadcastHeader@23@UShbHeader@23@UTsbHeader@23@@boost@@QEAA@$$QEAUGeoBroadcastHeader@geonet@vanetza@@_N@Z
	??$?0ULocTEX_G5@geonet@vanetza@@@object_handle@ObjectContainer@vanetza@@QEAA@V?$unique_ptr@ULocTEX_G5@geonet@vanetza@@U?$default_delete@ULocTEX_G5@geonet@vanetza@@@std@@@std@@@Z
	??$?0URectangle@geonet@vanetza@@@?$backup_assigner@V?$variant@URectangle@geonet@vanetza@@UEllipse@23@UCircle@23@@boost@@@variant@detail@boost@@QEAA@AEAV?$variant@URectangle@geonet@vanetza@@UEllipse@23@UCircle@23@@3@HAEBURectangle@geonet@vanetza@@@Z
	??$?0URectangle@geonet@vanetza@@@?$variant@URectangle@geonet@vanetza@@UEllipse@23@UCircle@23@@boost@@QEAA@$$QEAURectangle@geonet@vanetza@@_N@Z
	??$?0USecuredMessage@v2@security@vanetza@@@?$backup_assigner@V?$variant@USecuredMessage@v2@security@vanetza@@U1v3@34@@boost@@@variant@detail@boost@@QEAA@AEAV?$variant@USecuredMessage@v2@security@vanetza@@U1v3@34@@3@HAEBUSecuredMessage@v2@security@vanetza@@@Z
	??$?0USecuredMessage@v2@security@vanetza@@@?$variant@USecuredMessage@v2@security@vanetza@@U1v3@34@@boost@@QEAA@$$QEAUSecuredMessage@v2@security@vanetza@@_N@Z
	??$?0USecuredMessage@v3@security@vanetza@@@?$variant@USecuredMessage@v2@security@vanetza@@U1v3@34@@boost@@QEAA@$$QEAUSecuredMessage@v3@security@vanetza@@_N@Z
	??$?0UShbDataRequest@geonet@vanetza@@@?$variant@UGucDataRequest@geonet@vanetza@@UGbcDataRequest@23@UGacDataRequest@23@UShbDataRequest@23@UTsbDataRequest@23@@boost@@QEAA@AEBUShbDataRequest@geonet@vanetza@@_N@Z
	??$?0UShbHeader@geonet@vanetza@@@?$backup_assigner@V?$variant@UBeaconHeader@geonet@vanetza@@UGeoBroadcastHeader@23@UShbHeader@23@UTsbHeader@23@@boost@@@variant@detail@boost@@QEAA@AEAV?$variant@UBeaconHeader@geonet@vanetza@@UGeoBroadcastHeader@23@UShbHeader@23@UTsbHeader@23@@3@HAEBUShbHeader@geonet@vanetza@@@Z
	??$?0UShbHeader@geonet@vanetza@@@?$variant@AEBUBeaconHeader@geonet@vanetza@@AEBUGeoBroadcastHeader@23@AEBUShbHeader@23@AEBUTsbHeader@23@@boost@@QEAA@AEBUShbHeader@geonet@vanetza@@_N@Z
	??$?0UShbHeader@geonet@vanetza@@@?$variant@UBeaconHeader@geonet@vanetza@@UGeoBroadcastHeader@23@UShbHeader@23@UTsbHeader@23@@boost@@QEAA@$$QEAUShbHeader@geonet@vanetza@@_N@Z
	??$?0USignRequest@security@vanetza@@@?$variant@USignRequest@security@vanetza@@$$V@boost@@QEAA@$$QEAUSignRequest@security@vanetza@@_N@Z
	??$?0UTsbHeader@geonet@vanetza@@@?$backup_assigner@V?$variant@UBeaconHeader@geonet@vanetza@@UGeoBroadcastHeader@23@UShbHeader@23@UTsbHeader@23@@boost@@@variant@detail@boost@@QEAA@AEAV?$variant@UBeaconHeader@geonet@vanetza@@UGeoBroadcastHeader@23@UShbHeader@23@UTsbHeader@23@@3@HAEBUTsbHeader@geonet@vanetza@@@Z
	??$?0UTsbHeader@geonet@vanetza@@@?$variant@AEBUBeaconHeader@geonet@vanetza@@AEBUGeoBroadcastHeader@23@AEBUShbHeader@23@AEBUTsbHeader@23@@boost@@QEAA@AEBUTsbHeader@geonet@vanetza@@_N@Z
	??$?0UTsbHeader@geonet@vanetza@@@?$variant@UBeaconHeader@geonet@vanetza@@UGeoBroadcastHeader@23@UShbHeader@23@UTsbHeader@23@@boost@@QEAA@$$QEAUTsbHeader@geonet@vanetza@@_N@Z
	??$?0U_Exact_args_t@std@@$0A@@?$tuple@$$V@std@@QEAA@U_Exact_args_t@1@@Z
	??$?0U_Exact_args_t@std@@AEAU?$_Ph@$00@1@$$V$0A@@?$tuple@U?$_Ph@$00@std@@@std@@QEAA@U_Exact_args_t@1@AEAU?$_Ph@$00@1@@Z
	??$?0U_Exact_args_t@std@@AEAV?$_List_iterator@V?$_List_val@U?$_List_simple_types@URepetition@Repeater@geonet@vanetza@@@std@@@std@@@1@AEAU?$_Ph@$00@1@$0A@@?$tuple@V?$_List_iterator@V?$_List_val@U?$_List_simple_types@URepetition@Repeater@geonet@vanetza@@@std@@@std@@@std@@U?$_Ph@$00@2@@std@@QEAA@U_Exact_args_t@1@AEAV?$_List_iterator@V?$_List_val@U?$_List_simple_types@URepetition@Repeater@geonet@vanetza@@@std@@@std@@@1@AEAU?$_Ph@$00@1@@Z
	??$?0U_Exact_args_t@std@@AEAV?$unique_ptr@V?$ExtendedPdu@UGeoBroadcastHeader@geonet@vanetza@@@geonet@vanetza@@U?$default_delete@V?$ExtendedPdu@UGeoBroadcastHeader@geonet@vanetza@@@geonet@vanetza@@@std@@@1@AEAV?$unique_ptr@VChunkPacket@vanetza@@U?$default_delete@VChunkPacket@vanetza@@@std@@@1@$0A@@?$tuple@AEAV?$unique_ptr@V?$ExtendedPdu@UGeoBroadcastHeader@geonet@vanetza@@@geonet@vanetza@@U?$default_delete@V?$ExtendedPdu@UGeoBroadcastHeader@geonet@vanetza@@@geonet@vanetza@@@std@@@std@@AEAV?$unique_ptr@VChunkPacket@vanetza@@U?$default_delete@VChunkPacket@vanetza@@@std@@@2@@std@@QEAA@U_Exact_args_t@1@AEAV?$unique_ptr@V?$ExtendedPdu@UGeoBroadcastHeader@geonet@vanetza@@@geonet@vanetza@@U?$default_delete@V?$ExtendedPdu@UGeoBroadcastHeader@geonet@vanetza@@@geonet@vanetza@@@std@@@1@AEAV?$unique_ptr@VChunkPacket@vanetza@@U?$default_delete@VChunkPacket@vanetza@@@std@@@1@@Z
	??$?0U_Exact_args_t@std@@AEAV?$unique_ptr@V?$ExtendedPdu@UShbHeader@geonet@vanetza@@@geonet@vanetza@@U?$default_delete@V?$ExtendedPdu@UShbHeader@geonet@vanetza@@@geonet@vanetza@@@std@@@1@AEAV?$unique_ptr@VChunkPacket@vanetza@@U?$default_delete@VChunkPacket@vanetza@@@std@@@1@$0A@@?$tuple@AEAV?$unique_ptr@V?$ExtendedPdu@UShbHeader@geonet@vanetza@@@geonet@vanetza@@U?$default_delete@V?$ExtendedPdu@UShbHeader@geonet@vanetza@@@geonet@vanetza@@@std@@@std@@AEAV?$unique_ptr@VChunkPacket@vanetza@@U?$default_delete@VChunkPacket@vanetza@@@std@@@2@@std@@QEAA@U_Exact_args_t@1@AEAV?$unique_ptr@V?$ExtendedPdu@UShbHeader@geonet@vanetza@@@geonet@vanetza@@U?$default_delete@V?$ExtendedPdu@UShbHeader@geonet@vanetza@@@geonet@vanetza@@@std@@@1@AEAV?$unique_ptr@VChunkPacket@vanetza@@U?$default_delete@VChunkPacket@vanetza@@@std@@@1@@Z
	??$?0U_Exact_args_t@std@@AEAV?$unique_ptr@VChunkPacket@vanetza@@U?$default_delete@VChunkPacket@vanetza@@@std@@@1@$$V$0A@@?$tuple@AEAV?$unique_ptr@VChunkPacket@vanetza@@U?$default_delete@VChunkPacket@vanetza@@@std@@@std@@@std@@QEAA@U_Exact_args_t@1@AEAV?$unique_ptr@VChunkPacket@vanetza@@U?$default_delete@VChunkPacket@vanetza@@@std@@@1@@Z
	??$?0U_Exact_args_t@std@@AEAV?$unique_ptr@VPdu@geonet@vanetza@@U?$default_delete@VPdu@geonet@vanetza@@@std@@@1@AEAV?$unique_ptr@VChunkPacket@vanetza@@U?$default_delete@VChunkPacket@vanetza@@@std@@@1@$0A@@?$tuple@AEAV?$unique_ptr@VPdu@geonet@vanetza@@U?$default_delete@VPdu@geonet@vanetza@@@std@@@std@@AEAV?$unique_ptr@VChunkPacket@vanetza@@U?$default_delete@VChunkPacket@vanetza@@@std@@@2@@std@@QEAA@U_Exact_args_t@1@AEAV?$unique_ptr@VPdu@geonet@vanetza@@U?$default_delete@VPdu@geonet@vanetza@@@std@@@1@AEAV?$unique_ptr@VChunkPacket@vanetza@@U?$default_delete@VChunkPacket@vanetza@@@std@@@1@@Z
	??$?0U_Exact_args_t@std@@AEAVMacAddress@vanetza@@$$V$0A@@?$tuple@VMacAddress@vanetza@@@std@@QEAA@U_Exact_args_t@1@AEAVMacAddress@vanetza@@@Z
	??$?0U_Exact_args_t@std@@AEAVSequenceNumber@geonet@vanetza@@$$V$0A@@?$tuple@VSequenceNumber@geonet@vanetza@@@std@@QEAA@U_Exact_args_t@1@AEAVSequenceNumber@geonet@vanetza@@@Z
	??$?0U_Exact_args_t@std@@AEBU?$_Ph@$00@1@AEAVMacAddress@vanetza@@$0A@@?$tuple@U?$_Ph@$00@std@@VMacAddress@vanetza@@@std@@QEAA@U_Exact_args_t@1@AEBU?$_Ph@$00@1@AEAVMacAddress@vanetza@@@Z
	??$?0U_Exact_args_t@std@@AEBU?$_Ph@$00@1@AEBU?$_Ph@$01@1@$0A@@?$tuple@U?$_Ph@$00@std@@U?$_Ph@$01@2@@std@@QEAA@U_Exact_args_t@1@AEBU?$_Ph@$00@1@AEBU?$_Ph@$01@1@@Z
	??$?0U_Exact_args_t@std@@AEBU?$_Ph@$00@1@AEBVMacAddress@vanetza@@$0A@@?$tuple@U?$_Ph@$00@std@@VMacAddress@vanetza@@@std@@QEAA@U_Exact_args_t@1@AEBU?$_Ph@$00@1@AEBVMacAddress@vanetza@@@Z
	??$?0U_Exact_args_t@std@@AEBU?$_Ph@$01@1@$$V$0A@@?$tuple@U?$_Ph@$01@std@@@std@@QEAA@U_Exact_args_t@1@AEBU?$_Ph@$01@1@@Z
	??$?0U_Exact_args_t@std@@AEBV?$tuple@VAddress@geonet@vanetza@@VSequenceNumber@23@@1@$$V$0A@@?$tuple@AEBV?$tuple@VAddress@geonet@vanetza@@VSequenceNumber@23@@std@@@std@@QEAA@U_Exact_args_t@1@AEBV?$tuple@VAddress@geonet@vanetza@@VSequenceNumber@23@@1@@Z
	??$?0U_Exact_args_t@std@@AEBV?$variant@UGucDataRequest@geonet@vanetza@@UGbcDataRequest@23@UGacDataRequest@23@UShbDataRequest@23@UTsbDataRequest@23@@boost@@V?$unique_ptr@VChunkPacket@vanetza@@U?$default_delete@VChunkPacket@vanetza@@@std@@@1@$0A@@?$tuple@AEBV?$variant@UGucDataRequest@geonet@vanetza@@UGbcDataRequest@23@UGacDataRequest@23@UShbDataRequest@23@UTsbDataRequest@23@@boost@@$$QEAV?$unique_ptr@VChunkPacket@vanetza@@U?$default_delete@VChunkPacket@vanetza@@@std@@@std@@@std@@QEAA@U_Exact_args_t@1@AEBV?$variant@UGucDataRequest@geonet@vanetza@@UGbcDataRequest@23@UGacDataRequest@23@UShbDataRequest@23@UTsbDataRequest@23@@boost@@$$QEAV?$unique_ptr@VChunkPacket@vanetza@@U?$default_delete@VChunkPacket@vanetza@@@std@@@1@@Z
	??$?0U_Exact_args_t@std@@AEBVAddress@geonet@vanetza@@AEAVSequenceNumber@34@$0A@@?$tuple@VAddress@geonet@vanetza@@VSequenceNumber@23@@std@@QEAA@U_Exact_args_t@1@AEBVAddress@geonet@vanetza@@AEAVSequenceNumber@45@@Z
	??$?0U_Exact_args_t@std@@AEBVAddress@geonet@vanetza@@AEBVSequenceNumber@34@$0A@@?$tuple@VAddress@geonet@vanetza@@VSequenceNumber@23@@std@@QEAA@U_Exact_args_t@1@AEBVAddress@geonet@vanetza@@AEBVSequenceNumber@45@@Z
	??$?0U_Exact_args_t@std@@AEBVMacAddress@vanetza@@$$V$0A@@?$tuple@AEBVMacAddress@vanetza@@@std@@QEAA@U_Exact_args_t@1@AEBVMacAddress@vanetza@@@Z
	??$?0U_Exact_args_t@std@@AEBVMacAddress@vanetza@@$$V$0A@@?$tuple@VMacAddress@vanetza@@@std@@QEAA@U_Exact_args_t@1@AEBVMacAddress@vanetza@@@Z
	??$?0U_Exact_args_t@std@@AEBVSequenceNumber@geonet@vanetza@@$$V$0A@@?$tuple@VSequenceNumber@geonet@vanetza@@@std@@QEAA@U_Exact_args_t@1@AEBVSequenceNumber@geonet@vanetza@@@Z
	??$?0U_Exact_args_t@std@@AEBW4UpperProtocol@geonet@vanetza@@$$V$0A@@?$tuple@AEBW4UpperProtocol@geonet@vanetza@@@std@@QEAA@U_Exact_args_t@1@AEBW4UpperProtocol@geonet@vanetza@@@Z
	??$?0U_Exact_args_t@std@@PEAVRepeater@geonet@vanetza@@AEAV?$_List_iterator@V?$_List_val@U?$_List_simple_types@URepetition@Repeater@geonet@vanetza@@@std@@@std@@@1@AEAU?$_Ph@$00@1@$0A@@?$tuple@PEAVRepeater@geonet@vanetza@@V?$_List_iterator@V?$_List_val@U?$_List_simple_types@URepetition@Repeater@geonet@vanetza@@@std@@@std@@@std@@U?$_Ph@$00@5@@std@@QEAA@U_Exact_args_t@1@$$QEAPEAVRepeater@geonet@vanetza@@AEAV?$_List_iterator@V?$_List_val@U?$_List_simple_types@URepetition@Repeater@geonet@vanetza@@@std@@@std@@@1@AEAU?$_Ph@$00@1@@Z
	??$?0U_Exact_args_t@std@@PEAVRouter@geonet@vanetza@@AEBU?$_Ph@$00@1@AEBU?$_Ph@$01@1@$0A@@?$tuple@PEAVRouter@geonet@vanetza@@U?$_Ph@$00@std@@U?$_Ph@$01@5@@std@@QEAA@U_Exact_args_t@1@$$QEAPEAVRouter@geonet@vanetza@@AEBU?$_Ph@$00@1@AEBU?$_Ph@$01@1@@Z
	??$?0U_Exact_args_t@std@@V?$time_point@VClock@vanetza@@V?$duration@_JU?$ratio@$00$0PECEA@@std@@@chrono@std@@@chrono@1@$$V$0A@@?$tuple@$$QEAV?$time_point@VClock@vanetza@@V?$duration@_JU?$ratio@$00$0PECEA@@std@@@chrono@std@@@chrono@std@@@std@@QEAA@U_Exact_args_t@1@$$QEAV?$time_point@VClock@vanetza@@V?$duration@_JU?$ratio@$00$0PECEA@@std@@@chrono@std@@@chrono@1@@Z
	??$?0U_Exact_args_t@std@@V?$tuple@V?$unique_ptr@V?$ExtendedPdu@UGeoBroadcastHeader@geonet@vanetza@@@geonet@vanetza@@U?$default_delete@V?$ExtendedPdu@UGeoBroadcastHeader@geonet@vanetza@@@geonet@vanetza@@@std@@@std@@V?$unique_ptr@VChunkPacket@vanetza@@U?$default_delete@VChunkPacket@vanetza@@@std@@@2@@1@$$V$0A@@?$tuple@$$QEAV?$tuple@V?$unique_ptr@V?$ExtendedPdu@UGeoBroadcastHeader@geonet@vanetza@@@geonet@vanetza@@U?$default_delete@V?$ExtendedPdu@UGeoBroadcastHeader@geonet@vanetza@@@geonet@vanetza@@@std@@@std@@V?$unique_ptr@VChunkPacket@vanetza@@U?$default_delete@VChunkPacket@vanetza@@@std@@@2@@std@@@std@@QEAA@U_Exact_args_t@1@$$QEAV?$tuple@V?$unique_ptr@V?$ExtendedPdu@UGeoBroadcastHeader@geonet@vanetza@@@geonet@vanetza@@U?$default_delete@V?$ExtendedPdu@UGeoBroadcastHeader@geonet@vanetza@@@geonet@vanetza@@@std@@@std@@V?$unique_ptr@VChunkPacket@vanetza@@U?$default_delete@VChunkPacket@vanetza@@@std@@@2@@1@@Z
	??$?0U_Exact_args_t@std@@V?$unique_ptr@V?$ExtendedPdu@UGeoBroadcastHeader@geonet@vanetza@@@geonet@vanetza@@U?$default_delete@V?$ExtendedPdu@UGeoBroadcastHeader@geonet@vanetza@@@geonet@vanetza@@@std@@@1@V?$unique_ptr@VChunkPacket@vanetza@@U?$default_delete@VChunkPacket@vanetza@@@std@@@1@$0A@@?$tuple@V?$unique_ptr@V?$ExtendedPdu@UGeoBroadcastHeader@geonet@vanetza@@@geonet@vanetza@@U?$default_delete@V?$ExtendedPdu@UGeoBroadcastHeader@geonet@vanetza@@@geonet@vanetza@@@std@@@std@@V?$unique_ptr@VChunkPacket@vanetza@@U?$default_delete@VChunkPacket@vanetza@@@std@@@2@@std@@QEAA@U_Exact_args_t@1@$$QEAV?$unique_ptr@V?$ExtendedPdu@UGeoBroadcastHeader@geonet@vanetza@@@geonet@vanetza@@U?$default_delete@V?$ExtendedPdu@UGeoBroadcastHeader@geonet@vanetza@@@geonet@vanetza@@@std@@@1@$$QEAV?$unique_ptr@VChunkPacket@vanetza@@U?$default_delete@VChunkPacket@vanetza@@@std@@@1@@Z
	??$?0U_Exact_args_t@std@@V?$unique_ptr@V?$ExtendedPdu@UShbHeader@geonet@vanetza@@@geonet@vanetza@@U?$default_delete@V?$ExtendedPdu@UShbHeader@geonet@vanetza@@@geonet@vanetza@@@std@@@1@V?$unique_ptr@VChunkPacket@vanetza@@U?$default_delete@VChunkPacket@vanetza@@@std@@@1@$0A@@?$tuple@V?$unique_ptr@V?$ExtendedPdu@UShbHeader@geonet@vanetza@@@geonet@vanetza@@U?$default_delete@V?$ExtendedPdu@UShbHeader@geonet@vanetza@@@geonet@vanetza@@@std@@@std@@V?$unique_ptr@VChunkPacket@vanetza@@U?$default_delete@VChunkPacket@vanetza@@@std@@@2@@std@@QEAA@U_Exact_args_t@1@$$QEAV?$unique_ptr@V?$ExtendedPdu@UShbHeader@geonet@vanetza@@@geonet@vanetza@@U?$default_delete@V?$ExtendedPdu@UShbHeader@geonet@vanetza@@@geonet@vanetza@@@std@@@1@$$QEAV?$unique_ptr@VChunkPacket@vanetza@@U?$default_delete@VChunkPacket@vanetza@@@std@@@1@@Z
	??$?0U_Exact_args_t@std@@V?$unique_ptr@V?$ExtendedPdu@UTsbHeader@geonet@vanetza@@@geonet@vanetza@@U?$default_delete@V?$ExtendedPdu@UTsbHeader@geonet@vanetza@@@geonet@vanetza@@@std@@@1@V?$unique_ptr@VChunkPacket@vanetza@@U?$default_delete@VChunkPacket@vanetza@@@std@@@1@$0A@@?$tuple@V?$unique_ptr@V?$ExtendedPdu@UTsbHeader@geonet@vanetza@@@geonet@vanetza@@U?$default_delete@V?$ExtendedPdu@UTsbHeader@geonet@vanetza@@@geonet@vanetza@@@std@@@std@@V?$unique_ptr@VChunkPacket@vanetza@@U?$default_delete@VChunkPacket@vanetza@@@std@@@2@@std@@QEAA@U_Exact_args_t@1@$$QEAV?$unique_ptr@V?$ExtendedPdu@UTsbHeader@geonet@vanetza@@@geonet@vanetza@@U?$default_delete@V?$ExtendedPdu@UTsbHeader@geonet@vanetza@@@geonet@vanetza@@@std@@@1@$$QEAV?$unique_ptr@VChunkPacket@vanetza@@U?$default_delete@VChunkPacket@vanetza@@@std@@@1@@Z
	??$?0U_Exact_args_t@std@@V?$unique_ptr@VChunkPacket@vanetza@@U?$default_delete@VChunkPacket@vanetza@@@std@@@1@$$V$0A@@?$tuple@$$QEAV?$unique_ptr@VChunkPacket@vanetza@@U?$default_delete@VChunkPacket@vanetza@@@std@@@std@@@std@@QEAA@U_Exact_args_t@1@$$QEAV?$unique_ptr@VChunkPacket@vanetza@@U?$default_delete@VChunkPacket@vanetza@@@std@@@1@@Z
	??$?0U_Exact_args_t@std@@V?$unique_ptr@VChunkPacket@vanetza@@U?$default_delete@VChunkPacket@vanetza@@@std@@@1@$$V$0A@@?$tuple@V?$unique_ptr@VChunkPacket@vanetza@@U?$default_delete@VChunkPacket@vanetza@@@std@@@std@@@std@@QEAA@U_Exact_args_t@1@$$QEAV?$unique_ptr@VChunkPacket@vanetza@@U?$default_delete@VChunkPacket@vanetza@@@std@@@1@@Z
	??$?0U_Exact_args_t@std@@V?$unique_ptr@VData@packet_buffer@geonet@vanetza@@U?$default_delete@VData@packet_buffer@geonet@vanetza@@@std@@@1@$$V$0A@@?$tuple@V?$unique_ptr@VData@packet_buffer@geonet@vanetza@@U?$default_delete@VData@packet_buffer@geonet@vanetza@@@std@@@std@@@std@@QEAA@U_Exact_args_t@1@$$QEAV?$unique_ptr@VData@packet_buffer@geonet@vanetza@@U?$default_delete@VData@packet_buffer@geonet@vanetza@@@std@@@1@@Z
	??$?0U_Exact_args_t@std@@VExpiry@packet_buffer@geonet@vanetza@@V?$unique_ptr@VData@packet_buffer@geonet@vanetza@@U?$default_delete@VData@packet_buffer@geonet@vanetza@@@std@@@1@$0A@@?$tuple@VExpiry@packet_buffer@geonet@vanetza@@V?$unique_ptr@VData@packet_buffer@geonet@vanetza@@U?$default_delete@VData@packet_buffer@geonet@vanetza@@@std@@@std@@@std@@QEAA@U_Exact_args_t@1@$$QEAVExpiry@packet_buffer@geonet@vanetza@@$$QEAV?$unique_ptr@VData@packet_buffer@geonet@vanetza@@U?$default_delete@VData@packet_buffer@geonet@vanetza@@@std@@@1@@Z
	??$?0U_Exact_args_t@std@@VLocationTableEntry@geonet@vanetza@@$$V$0A@@?$tuple@$$QEAVLocationTableEntry@geonet@vanetza@@@std@@QEAA@U_Exact_args_t@1@$$QEAVLocationTableEntry@geonet@vanetza@@@Z
	??$?0U_Exact_args_t@std@@_K$$V$0A@@?$tuple@$$QEA_K@std@@QEAA@U_Exact_args_t@1@$$QEA_K@Z
	??$?0U_Zero_then_variadic_args_t@std@@M@?$_Compressed_pair@U?$hash@V?$tuple@VAddress@geonet@vanetza@@VSequenceNumber@23@@std@@@std@@V?$_Compressed_pair@U?$equal_to@V?$tuple@VAddress@geonet@vanetza@@VSequenceNumber@23@@std@@@std@@M$00@2@$00@std@@QEAA@U_Zero_then_variadic_args_t@1@$$QEAU21@$$QEAM@Z
	??$?0U_Zero_then_variadic_args_t@std@@M@?$_Compressed_pair@U?$hash@VMacAddress@vanetza@@@std@@V?$_Compressed_pair@U?$equal_to@VMacAddress@vanetza@@@std@@M$00@2@$00@std@@QEAA@U_Zero_then_variadic_args_t@1@$$QEAU21@$$QEAM@Z
	??$?0Ublank@boost@@@?$variant@Ublank@boost@@W4VerificationReport@security@vanetza@@@boost@@QEAA@$$QEAUblank@1@_N@Z
	??$?0V<lambda_5e0a116e2d6524a72cb9a27344976bf6>@@$0A@@?$_Func_impl_no_alloc@V<lambda_5e0a116e2d6524a72cb9a27344976bf6>@@X$$QEAV?$tuple@V?$unique_ptr@V?$ExtendedPdu@UGeoBroadcastHeader@geonet@vanetza@@@geonet@vanetza@@U?$default_delete@V?$ExtendedPdu@UGeoBroadcastHeader@geonet@vanetza@@@geonet@vanetza@@@std@@@std@@V?$unique_ptr@VChunkPacket@vanetza@@U?$default_delete@VChunkPacket@vanetza@@@std@@@2@@std@@@std@@QEAA@$$QEAV<lambda_5e0a116e2d6524a72cb9a27344976bf6>@@@Z
	??$?0V<lambda_5e0a116e2d6524a72cb9a27344976bf6>@@$0A@@?$function@$$A6AX$$QEAV?$tuple@V?$unique_ptr@V?$ExtendedPdu@UGeoBroadcastHeader@geonet@vanetza@@@geonet@vanetza@@U?$default_delete@V?$ExtendedPdu@UGeoBroadcastHeader@geonet@vanetza@@@geonet@vanetza@@@std@@@std@@V?$unique_ptr@VChunkPacket@vanetza@@U?$default_delete@VChunkPacket@vanetza@@@std@@@2@@std@@@Z@std@@QEAA@$$QEAV<lambda_5e0a116e2d6524a72cb9a27344976bf6>@@@Z
	??$?0V<lambda_6e14cc19a7b7a66feb8d443e6224547e>@@$0A@@?$_Func_impl_no_alloc@V<lambda_6e14cc19a7b7a66feb8d443e6224547e>@@XPEAX@std@@QEAA@$$QEAV<lambda_6e14cc19a7b7a66feb8d443e6224547e>@@@Z
	??$?0V<lambda_6e14cc19a7b7a66feb8d443e6224547e>@@$0A@@?$function@$$A6AXPEAX@Z@std@@QEAA@$$QEAV<lambda_6e14cc19a7b7a66feb8d443e6224547e>@@@Z
	??$?0V<lambda_94eaf4af09dce1d91512f71f7e68e4f7>@@$0A@@?$_Func_impl_no_alloc@V<lambda_94eaf4af09dce1d91512f71f7e68e4f7>@@U?$pair@AEBVMacAddress@vanetza@@AEAVLocationTableEntry@geonet@2@@std@@AEAU?$pair@$$CBVMacAddress@vanetza@@UValueWithHandle@?$SoftStateMap@VMacAddress@vanetza@@VLocationTableEntry@geonet@2@VLocationTableEntryCreator@42@@geonet@2@@3@@std@@QEAA@$$QEAV<lambda_94eaf4af09dce1d91512f71f7e68e4f7>@@@Z
	??$?0V<lambda_94eaf4af09dce1d91512f71f7e68e4f7>@@$0A@@?$function@$$A6A?AU?$pair@AEBVMacAddress@vanetza@@AEAVLocationTableEntry@geonet@2@@std@@AEAU?$pair@$$CBVMacAddress@vanetza@@UValueWithHandle@?$SoftStateMap@VMacAddress@vanetza@@VLocationTableEntry@geonet@2@VLocationTableEntryCreator@42@@geonet@2@@2@@Z@std@@QEAA@$$QEAV<lambda_94eaf4af09dce1d91512f71f7e68e4f7>@@@Z
	??$?0V<lambda_998660ec7709c5781b48f2460704a28d>@@$0A@@?$_Func_impl_no_alloc@V<lambda_998660ec7709c5781b48f2460704a28d>@@_NAEBU?$pair@$$CBVMacAddress@vanetza@@UValueWithHandle@?$SoftStateMap@VMacAddress@vanetza@@VLocationTableEntry@geonet@2@VLocationTableEntryCreator@42@@geonet@2@@std@@@std@@QEAA@$$QEAV<lambda_998660ec7709c5781b48f2460704a28d>@@@Z
	??$?0V<lambda_998660ec7709c5781b48f2460704a28d>@@$0A@@?$function@$$A6A_NAEBU?$pair@$$CBVMacAddress@vanetza@@UValueWithHandle@?$SoftStateMap@VMacAddress@vanetza@@VLocationTableEntry@geonet@2@VLocationTableEntryCreator@42@@geonet@2@@std@@@Z@std@@QEAA@$$QEAV<lambda_998660ec7709c5781b48f2460704a28d>@@@Z
	??$?0V<lambda_ace2e5351e8d6488b54e5d993b6d0f7c>@@$0A@@?$_Func_impl_no_alloc@V<lambda_ace2e5351e8d6488b54e5d993b6d0f7c>@@XPEAX@std@@QEAA@$$QEAV<lambda_ace2e5351e8d6488b54e5d993b6d0f7c>@@@Z
	??$?0V<lambda_ace2e5351e8d6488b54e5d993b6d0f7c>@@$0A@@?$function@$$A6AXPEAX@Z@std@@QEAA@$$QEAV<lambda_ace2e5351e8d6488b54e5d993b6d0f7c>@@@Z
	??$?0V<lambda_cdd8ce8507032cbf359a6017b9b5d9c9>@@$0A@@?$_Func_impl_no_alloc@V<lambda_cdd8ce8507032cbf359a6017b9b5d9c9>@@X$$QEAV?$tuple@V?$unique_ptr@V?$ExtendedPdu@UGeoBroadcastHeader@geonet@vanetza@@@geonet@vanetza@@U?$default_delete@V?$ExtendedPdu@UGeoBroadcastHeader@geonet@vanetza@@@geonet@vanetza@@@std@@@std@@V?$unique_ptr@VChunkPacket@vanetza@@U?$default_delete@VChunkPacket@vanetza@@@std@@@2@@std@@@std@@QEAA@$$QEAV<lambda_cdd8ce8507032cbf359a6017b9b5d9c9>@@@Z
	??$?0V<lambda_cdd8ce8507032cbf359a6017b9b5d9c9>@@$0A@@?$function@$$A6AX$$QEAV?$tuple@V?$unique_ptr@V?$ExtendedPdu@UGeoBroadcastHeader@geonet@vanetza@@@geonet@vanetza@@U?$default_delete@V?$ExtendedPdu@UGeoBroadcastHeader@geonet@vanetza@@@geonet@vanetza@@@std@@@std@@V?$unique_ptr@VChunkPacket@vanetza@@U?$default_delete@VChunkPacket@vanetza@@@std@@@2@@std@@@Z@std@@QEAA@$$QEAV<lambda_cdd8ce8507032cbf359a6017b9b5d9c9>@@@Z
	??$?0V<lambda_e9a74d497f7f428606c5ca5ca6eca7a6>@@$0A@@?$_Func_impl_no_alloc@V<lambda_e9a74d497f7f428606c5ca5ca6eca7a6>@@X$$QEAV?$tuple@V?$unique_ptr@V?$ExtendedPdu@UGeoBroadcastHeader@geonet@vanetza@@@geonet@vanetza@@U?$default_delete@V?$ExtendedPdu@UGeoBroadcastHeader@geonet@vanetza@@@geonet@vanetza@@@std@@@std@@V?$unique_ptr@VChunkPacket@vanetza@@U?$default_delete@VChunkPacket@vanetza@@@std@@@2@@std@@@std@@QEAA@$$QEAV<lambda_e9a74d497f7f428606c5ca5ca6eca7a6>@@@Z
	??$?0V<lambda_e9a74d497f7f428606c5ca5ca6eca7a6>@@$0A@@?$function@$$A6AX$$QEAV?$tuple@V?$unique_ptr@V?$ExtendedPdu@UGeoBroadcastHeader@geonet@vanetza@@@geonet@vanetza@@U?$default_delete@V?$ExtendedPdu@UGeoBroadcastHeader@geonet@vanetza@@@geonet@vanetza@@@std@@@std@@V?$unique_ptr@VChunkPacket@vanetza@@U?$default_delete@VChunkPacket@vanetza@@@std@@@2@@std@@@Z@std@@QEAA@$$QEAV<lambda_e9a74d497f7f428606c5ca5ca6eca7a6>@@@Z
	??$?0V?$ExtendedPdu@UBeaconHeader@geonet@vanetza@@@geonet@vanetza@@$0A@@?$default_delete@VPdu@geonet@vanetza@@@std@@QEAA@AEBU?$default_delete@V?$ExtendedPdu@UBeaconHeader@geonet@vanetza@@@geonet@vanetza@@@1@@Z
	??$?0V?$ExtendedPdu@UBeaconHeader@geonet@vanetza@@@geonet@vanetza@@U?$default_delete@V?$ExtendedPdu@UBeaconHeader@geonet@vanetza@@@geonet@vanetza@@@std@@$0A@@?$unique_ptr@VPdu@geonet@vanetza@@U?$default_delete@VPdu@geonet@vanetza@@@std@@@std@@QEAA@$$QEAV?$unique_ptr@V?$ExtendedPdu@UBeaconHeader@geonet@vanetza@@@geonet@vanetza@@U?$default_delete@V?$ExtendedPdu@UBeaconHeader@geonet@vanetza@@@geonet@vanetza@@@std@@@1@@Z
	??$?0V?$ExtendedPdu@UGeoBroadcastHeader@geonet@vanetza@@@geonet@vanetza@@$0A@@?$default_delete@VPdu@geonet@vanetza@@@std@@QEAA@AEBU?$default_delete@V?$ExtendedPdu@UGeoBroadcastHeader@geonet@vanetza@@@geonet@vanetza@@@1@@Z
	??$?0V?$ExtendedPdu@UGeoBroadcastHeader@geonet@vanetza@@@geonet@vanetza@@U?$default_delete@V?$ExtendedPdu@UGeoBroadcastHeader@geonet@vanetza@@@geonet@vanetza@@@std@@$0A@@?$unique_ptr@VPdu@geonet@vanetza@@U?$default_delete@VPdu@geonet@vanetza@@@std@@@std@@QEAA@$$QEAV?$unique_ptr@V?$ExtendedPdu@UGeoBroadcastHeader@geonet@vanetza@@@geonet@vanetza@@U?$default_delete@V?$ExtendedPdu@UGeoBroadcastHeader@geonet@vanetza@@@geonet@vanetza@@@std@@@1@@Z
	??$?0V?$ExtendedPdu@UShbHeader@geonet@vanetza@@@geonet@vanetza@@$0A@@?$default_delete@VPdu@geonet@vanetza@@@std@@QEAA@AEBU?$default_delete@V?$ExtendedPdu@UShbHeader@geonet@vanetza@@@geonet@vanetza@@@1@@Z
	??$?0V?$ExtendedPdu@UShbHeader@geonet@vanetza@@@geonet@vanetza@@U?$default_delete@V?$ExtendedPdu@UShbHeader@geonet@vanetza@@@geonet@vanetza@@@std@@$0A@@?$unique_ptr@VPdu@geonet@vanetza@@U?$default_delete@VPdu@geonet@vanetza@@@std@@@std@@QEAA@$$QEAV?$unique_ptr@V?$ExtendedPdu@UShbHeader@geonet@vanetza@@@geonet@vanetza@@U?$default_delete@V?$ExtendedPdu@UShbHeader@geonet@vanetza@@@geonet@vanetza@@@std@@@1@@Z
	??$?0V?$ExtendedPdu@UTsbHeader@geonet@vanetza@@@geonet@vanetza@@$0A@@?$default_delete@VPdu@geonet@vanetza@@@std@@QEAA@AEBU?$default_delete@V?$ExtendedPdu@UTsbHeader@geonet@vanetza@@@geonet@vanetza@@@1@@Z
	??$?0V?$ExtendedPdu@UTsbHeader@geonet@vanetza@@@geonet@vanetza@@U?$default_delete@V?$ExtendedPdu@UTsbHeader@geonet@vanetza@@@geonet@vanetza@@@std@@$0A@@?$unique_ptr@VPdu@geonet@vanetza@@U?$default_delete@VPdu@geonet@vanetza@@@std@@@std@@QEAA@$$QEAV?$unique_ptr@V?$ExtendedPdu@UTsbHeader@geonet@vanetza@@@geonet@vanetza@@U?$default_delete@V?$ExtendedPdu@UTsbHeader@geonet@vanetza@@@geonet@vanetza@@@std@@@1@@Z
	??$?0V?$_Array_const_iterator@W4OsiLayer@vanetza@@$06@std@@@?$iterator_range@V?$_Array_const_iterator@W4OsiLayer@vanetza@@$06@std@@@boost@@QEAA@V?$_Array_const_iterator@W4OsiLayer@vanetza@@$06@std@@0@Z
	??$?0V?$_Array_const_iterator@W4OsiLayer@vanetza@@$06@std@@@?$iterator_range_base@V?$_Array_const_iterator@W4OsiLayer@vanetza@@$06@std@@Ubidirectional_traversal_tag@iterators@boost@@@iterator_range_detail@boost@@IEAA@V?$_Array_const_iterator@W4OsiLayer@vanetza@@$06@std@@0@Z
	??$?0V?$_Array_const_iterator@W4OsiLayer@vanetza@@$06@std@@@?$iterator_range_base@V?$_Array_const_iterator@W4OsiLayer@vanetza@@$06@std@@Uincrementable_traversal_tag@iterators@boost@@@iterator_range_detail@boost@@IEAA@V?$_Array_const_iterator@W4OsiLayer@vanetza@@$06@std@@0@Z
	??$?0V?$_Array_const_iterator@W4OsiLayer@vanetza@@$06@std@@@?$iterator_range_base@V?$_Array_const_iterator@W4OsiLayer@vanetza@@$06@std@@Urandom_access_traversal_tag@iterators@boost@@@iterator_range_detail@boost@@IEAA@V?$_Array_const_iterator@W4OsiLayer@vanetza@@$06@std@@0@Z
	??$?0V?$_Binder@U_Unforced@std@@AEAV?$function@$$A6AX$$QEAV?$tuple@V?$unique_ptr@V?$ExtendedPdu@UGeoBroadcastHeader@geonet@vanetza@@@geonet@vanetza@@U?$default_delete@V?$ExtendedPdu@UGeoBroadcastHeader@geonet@vanetza@@@geonet@vanetza@@@std@@@std@@V?$unique_ptr@VChunkPacket@vanetza@@U?$default_delete@VChunkPacket@vanetza@@@std@@@2@@std@@AEBVMacAddress@vanetza@@@Z@2@AEBU?$_Ph@$00@2@AEAVMacAddress@vanetza@@@std@@$0A@@?$_Func_impl_no_alloc@V?$_Binder@U_Unforced@std@@AEAV?$function@$$A6AX$$QEAV?$tuple@V?$unique_ptr@V?$ExtendedPdu@UGeoBroadcastHeader@geonet@vanetza@@@geonet@vanetza@@U?$default_delete@V?$ExtendedPdu@UGeoBroadcastHeader@geonet@vanetza@@@geonet@vanetza@@@std@@@std@@V?$unique_ptr@VChunkPacket@vanetza@@U?$default_delete@VChunkPacket@vanetza@@@std@@@2@@std@@AEBVMacAddress@vanetza@@@Z@2@AEBU?$_Ph@$00@2@AEAVMacAddress@vanetza@@@std@@X$$QEAV?$tuple@V?$unique_ptr@V?$ExtendedPdu@UGeoBroadcastHeader@geonet@vanetza@@@geonet@vanetza@@U?$default_delete@V?$ExtendedPdu@UGeoBroadcastHeader@geonet@vanetza@@@geonet@vanetza@@@std@@@std@@V?$unique_ptr@VChunkPacket@vanetza@@U?$default_delete@VChunkPacket@vanetza@@@std@@@2@@2@@std@@QEAA@$$QEAV?$_Binder@U_Unforced@std@@AEAV?$function@$$A6AX$$QEAV?$tuple@V?$unique_ptr@V?$ExtendedPdu@UGeoBroadcastHeader@geonet@vanetza@@@geonet@vanetza@@U?$default_delete@V?$ExtendedPdu@UGeoBroadcastHeader@geonet@vanetza@@@geonet@vanetza@@@std@@@std@@V?$unique_ptr@VChunkPacket@vanetza@@U?$default_delete@VChunkPacket@vanetza@@@std@@@2@@std@@AEBVMacAddress@vanetza@@@Z@2@AEBU?$_Ph@$00@2@AEAVMacAddress@vanetza@@@1@@Z
	??$?0V?$_Binder@U_Unforced@std@@AEAV?$function@$$A6AX$$QEAV?$tuple@V?$unique_ptr@V?$ExtendedPdu@UGeoBroadcastHeader@geonet@vanetza@@@geonet@vanetza@@U?$default_delete@V?$ExtendedPdu@UGeoBroadcastHeader@geonet@vanetza@@@geonet@vanetza@@@std@@@std@@V?$unique_ptr@VChunkPacket@vanetza@@U?$default_delete@VChunkPacket@vanetza@@@std@@@2@@std@@AEBVMacAddress@vanetza@@@Z@2@AEBU?$_Ph@$00@2@AEAVMacAddress@vanetza@@@std@@$0A@@?$function@$$A6AX$$QEAV?$tuple@V?$unique_ptr@V?$ExtendedPdu@UGeoBroadcastHeader@geonet@vanetza@@@geonet@vanetza@@U?$default_delete@V?$ExtendedPdu@UGeoBroadcastHeader@geonet@vanetza@@@geonet@vanetza@@@std@@@std@@V?$unique_ptr@VChunkPacket@vanetza@@U?$default_delete@VChunkPacket@vanetza@@@std@@@2@@std@@@Z@std@@QEAA@$$QEAV?$_Binder@U_Unforced@std@@AEAV?$function@$$A6AX$$QEAV?$tuple@V?$unique_ptr@V?$ExtendedPdu@UGeoBroadcastHeader@geonet@vanetza@@@geonet@vanetza@@U?$default_delete@V?$ExtendedPdu@UGeoBroadcastHeader@geonet@vanetza@@@geonet@vanetza@@@std@@@std@@V?$unique_ptr@VChunkPacket@vanetza@@U?$default_delete@VChunkPacket@vanetza@@@std@@@2@@std@@AEBVMacAddress@vanetza@@@Z@2@AEBU?$_Ph@$00@2@AEAVMacAddress@vanetza@@@1@@Z
	??$?0V?$_Binder@U_Unforced@std@@AEAV?$function@$$A6AX$$QEAV?$tuple@V?$unique_ptr@V?$ExtendedPdu@UGeoBroadcastHeader@geonet@vanetza@@@geonet@vanetza@@U?$default_delete@V?$ExtendedPdu@UGeoBroadcastHeader@geonet@vanetza@@@geonet@vanetza@@@std@@@std@@V?$unique_ptr@VChunkPacket@vanetza@@U?$default_delete@VChunkPacket@vanetza@@@std@@@2@@std@@AEBVMacAddress@vanetza@@@Z@2@AEBU?$_Ph@$00@2@AEBVMacAddress@vanetza@@@std@@$0A@@?$_Func_impl_no_alloc@V?$_Binder@U_Unforced@std@@AEAV?$function@$$A6AX$$QEAV?$tuple@V?$unique_ptr@V?$ExtendedPdu@UGeoBroadcastHeader@geonet@vanetza@@@geonet@vanetza@@U?$default_delete@V?$ExtendedPdu@UGeoBroadcastHeader@geonet@vanetza@@@geonet@vanetza@@@std@@@std@@V?$unique_ptr@VChunkPacket@vanetza@@U?$default_delete@VChunkPacket@vanetza@@@std@@@2@@std@@AEBVMacAddress@vanetza@@@Z@2@AEBU?$_Ph@$00@2@AEBVMacAddress@vanetza@@@std@@X$$QEAV?$tuple@V?$unique_ptr@V?$ExtendedPdu@UGeoBroadcastHeader@geonet@vanetza@@@geonet@vanetza@@U?$default_delete@V?$ExtendedPdu@UGeoBroadcastHeader@geonet@vanetza@@@geonet@vanetza@@@std@@@std@@V?$unique_ptr@VChunkPacket@vanetza@@U?$default_delete@VChunkPacket@vanetza@@@std@@@2@@2@@std@@QEAA@$$QEAV?$_Binder@U_Unforced@std@@AEAV?$function@$$A6AX$$QEAV?$tuple@V?$unique_ptr@V?$ExtendedPdu@UGeoBroadcastHeader@geonet@vanetza@@@geonet@vanetza@@U?$default_delete@V?$ExtendedPdu@UGeoBroadcastHeader@geonet@vanetza@@@geonet@vanetza@@@std@@@std@@V?$unique_ptr@VChunkPacket@vanetza@@U?$default_delete@VChunkPacket@vanetza@@@std@@@2@@std@@AEBVMacAddress@vanetza@@@Z@2@AEBU?$_Ph@$00@2@AEBVMacAddress@vanetza@@@1@@Z
	??$?0V?$_Binder@U_Unforced@std@@AEAV?$function@$$A6AX$$QEAV?$tuple@V?$unique_ptr@V?$ExtendedPdu@UGeoBroadcastHeader@geonet@vanetza@@@geonet@vanetza@@U?$default_delete@V?$ExtendedPdu@UGeoBroadcastHeader@geonet@vanetza@@@geonet@vanetza@@@std@@@std@@V?$unique_ptr@VChunkPacket@vanetza@@U?$default_delete@VChunkPacket@vanetza@@@std@@@2@@std@@AEBVMacAddress@vanetza@@@Z@2@AEBU?$_Ph@$00@2@AEBVMacAddress@vanetza@@@std@@$0A@@?$function@$$A6AX$$QEAV?$tuple@V?$unique_ptr@V?$ExtendedPdu@UGeoBroadcastHeader@geonet@vanetza@@@geonet@vanetza@@U?$default_delete@V?$ExtendedPdu@UGeoBroadcastHeader@geonet@vanetza@@@geonet@vanetza@@@std@@@std@@V?$unique_ptr@VChunkPacket@vanetza@@U?$default_delete@VChunkPacket@vanetza@@@std@@@2@@std@@@Z@std@@QEAA@$$QEAV?$_Binder@U_Unforced@std@@AEAV?$function@$$A6AX$$QEAV?$tuple@V?$unique_ptr@V?$ExtendedPdu@UGeoBroadcastHeader@geonet@vanetza@@@geonet@vanetza@@U?$default_delete@V?$ExtendedPdu@UGeoBroadcastHeader@geonet@vanetza@@@geonet@vanetza@@@std@@@std@@V?$unique_ptr@VChunkPacket@vanetza@@U?$default_delete@VChunkPacket@vanetza@@@std@@@2@@std@@AEBVMacAddress@vanetza@@@Z@2@AEBU?$_Ph@$00@2@AEBVMacAddress@vanetza@@@1@@Z
	??$?0V?$_Binder@U_Unforced@std@@P8Router@geonet@vanetza@@EAAXAEBV?$variant@UGucDataRequest@geonet@vanetza@@UGbcDataRequest@23@UGacDataRequest@23@UShbDataRequest@23@UTsbDataRequest@23@@boost@@V?$unique_ptr@VChunkPacket@vanetza@@U?$default_delete@VChunkPacket@vanetza@@@std@@@2@@ZPEAV345@AEBU?$_Ph@$00@2@AEBU?$_Ph@$01@2@@std@@$0A@@?$_Func_impl_no_alloc@V?$_Binder@U_Unforced@std@@P8Router@geonet@vanetza@@EAAXAEBV?$variant@UGucDataRequest@geonet@vanetza@@UGbcDataRequest@23@UGacDataRequest@23@UShbDataRequest@23@UTsbDataRequest@23@@boost@@V?$unique_ptr@VChunkPacket@vanetza@@U?$default_delete@VChunkPacket@vanetza@@@std@@@2@@ZPEAV345@AEBU?$_Ph@$00@2@AEBU?$_Ph@$01@2@@std@@XAEBV?$variant@UGucDataRequest@geonet@vanetza@@UGbcDataRequest@23@UGacDataRequest@23@UShbDataRequest@23@UTsbDataRequest@23@@boost@@V?$unique_ptr@VChunkPacket@vanetza@@U?$default_delete@VChunkPacket@vanetza@@@std@@@2@@std@@QEAA@$$QEAV?$_Binder@U_Unforced@std@@P8Router@geonet@vanetza@@EAAXAEBV?$variant@UGucDataRequest@geonet@vanetza@@UGbcDataRequest@23@UGacDataRequest@23@UShbDataRequest@23@UTsbDataRequest@23@@boost@@V?$unique_ptr@VChunkPacket@vanetza@@U?$default_delete@VChunkPacket@vanetza@@@std@@@2@@ZPEAV345@AEBU?$_Ph@$00@2@AEBU?$_Ph@$01@2@@1@@Z
	??$?0V?$_Binder@U_Unforced@std@@P8Router@geonet@vanetza@@EAAXAEBV?$variant@UGucDataRequest@geonet@vanetza@@UGbcDataRequest@23@UGacDataRequest@23@UShbDataRequest@23@UTsbDataRequest@23@@boost@@V?$unique_ptr@VChunkPacket@vanetza@@U?$default_delete@VChunkPacket@vanetza@@@std@@@2@@ZPEAV345@AEBU?$_Ph@$00@2@AEBU?$_Ph@$01@2@@std@@$0A@@?$function@$$A6AXAEBV?$variant@UGucDataRequest@geonet@vanetza@@UGbcDataRequest@23@UGacDataRequest@23@UShbDataRequest@23@UTsbDataRequest@23@@boost@@V?$unique_ptr@VChunkPacket@vanetza@@U?$default_delete@VChunkPacket@vanetza@@@std@@@std@@@Z@std@@QEAA@$$QEAV?$_Binder@U_Unforced@std@@P8Router@geonet@vanetza@@EAAXAEBV?$variant@UGucDataRequest@geonet@vanetza@@UGbcDataRequest@23@UGacDataRequest@23@UShbDataRequest@23@UTsbDataRequest@23@@boost@@V?$unique_ptr@VChunkPacket@vanetza@@U?$default_delete@VChunkPacket@vanetza@@@std@@@2@@ZPEAV345@AEBU?$_Ph@$00@2@AEBU?$_Ph@$01@2@@1@@Z
	??$?0V?$_Binder@XP8Repeater@geonet@vanetza@@EAAXV?$_List_iterator@V?$_List_val@U?$_List_simple_types@URepetition@Repeater@geonet@vanetza@@@std@@@std@@@std@@V?$time_point@VClock@vanetza@@V?$duration@_JU?$ratio@$00$0PECEA@@std@@@chrono@std@@@chrono@5@@ZPEAV123@AEAV45@AEAU?$_Ph@$00@5@@std@@$0A@@?$_Func_impl_no_alloc@V?$_Binder@XP8Repeater@geonet@vanetza@@EAAXV?$_List_iterator@V?$_List_val@U?$_List_simple_types@URepetition@Repeater@geonet@vanetza@@@std@@@std@@@std@@V?$time_point@VClock@vanetza@@V?$duration@_JU?$ratio@$00$0PECEA@@std@@@chrono@std@@@chrono@5@@ZPEAV123@AEAV45@AEAU?$_Ph@$00@5@@std@@XV?$time_point@VClock@vanetza@@V?$duration@_JU?$ratio@$00$0PECEA@@std@@@chrono@std@@@chrono@2@@std@@QEAA@$$QEAV?$_Binder@XP8Repeater@geonet@vanetza@@EAAXV?$_List_iterator@V?$_List_val@U?$_List_simple_types@URepetition@Repeater@geonet@vanetza@@@std@@@std@@@std@@V?$time_point@VClock@vanetza@@V?$duration@_JU?$ratio@$00$0PECEA@@std@@@chrono@std@@@chrono@5@@ZPEAV123@AEAV45@AEAU?$_Ph@$00@5@@1@@Z
	??$?0V?$_Binder@XP8Repeater@geonet@vanetza@@EAAXV?$_List_iterator@V?$_List_val@U?$_List_simple_types@URepetition@Repeater@geonet@vanetza@@@std@@@std@@@std@@V?$time_point@VClock@vanetza@@V?$duration@_JU?$ratio@$00$0PECEA@@std@@@chrono@std@@@chrono@5@@ZPEAV123@AEAV45@AEAU?$_Ph@$00@5@@std@@$0A@@?$function@$$A6AXV?$time_point@VClock@vanetza@@V?$duration@_JU?$ratio@$00$0PECEA@@std@@@chrono@std@@@chrono@std@@@Z@std@@QEAA@$$QEAV?$_Binder@XP8Repeater@geonet@vanetza@@EAAXV?$_List_iterator@V?$_List_val@U?$_List_simple_types@URepetition@Repeater@geonet@vanetza@@@std@@@std@@@std@@V?$time_point@VClock@vanetza@@V?$duration@_JU?$ratio@$00$0PECEA@@std@@@chrono@std@@@chrono@5@@ZPEAV123@AEAV45@AEAU?$_Ph@$00@5@@1@@Z
	??$?0V?$_List_iterator@V?$_List_val@U?$_List_simple_types@U?$pair@$$CBV?$tuple@VAddress@geonet@vanetza@@VSequenceNumber@23@@std@@UValueWithHandle@?$SoftStateMap@V?$tuple@VAddress@geonet@vanetza@@VSequenceNumber@23@@std@@_KU?$SoftStateDefaultCreator@_K@geonet@vanetza@@@geonet@vanetza@@@std@@@std@@@std@@@std@@_N$0A@@?$pair@V?$_List_iterator@V?$_List_val@U?$_List_simple_types@U?$pair@$$CBV?$tuple@VAddress@geonet@vanetza@@VSequenceNumber@23@@std@@UValueWithHandle@?$SoftStateMap@V?$tuple@VAddress@geonet@vanetza@@VSequenceNumber@23@@std@@_KU?$SoftStateDefaultCreator@_K@geonet@vanetza@@@geonet@vanetza@@@std@@@std@@@std@@@std@@_N@std@@QEAA@$$QEAV?$_List_iterator@V?$_List_val@U?$_List_simple_types@U?$pair@$$CBV?$tuple@VAddress@geonet@vanetza@@VSequenceNumber@23@@std@@UValueWithHandle@?$SoftStateMap@V?$tuple@VAddress@geonet@vanetza@@VSequenceNumber@23@@std@@_KU?$SoftStateDefaultCreator@_K@geonet@vanetza@@@geonet@vanetza@@@std@@@std@@@std@@@1@$$QEA_N@Z
	??$?0V?$_List_iterator@V?$_List_val@U?$_List_simple_types@U?$pair@$$CBVMacAddress@vanetza@@UValueWithHandle@?$SoftStateMap@VMacAddress@vanetza@@VLocationTableEntry@geonet@2@VLocationTableEntryCreator@42@@geonet@2@@std@@@std@@@std@@@std@@@?$iterator_range@V?$_List_iterator@V?$_List_val@U?$_List_simple_types@U?$pair@$$CBVMacAddress@vanetza@@UValueWithHandle@?$SoftStateMap@VMacAddress@vanetza@@VLocationTableEntry@geonet@2@VLocationTableEntryCreator@42@@geonet@2@@std@@@std@@@std@@@std@@@boost@@QEAA@V?$_List_iterator@V?$_List_val@U?$_List_simple_types@U?$pair@$$CBVMacAddress@vanetza@@UValueWithHandle@?$SoftStateMap@VMacAddress@vanetza@@VLocationTableEntry@geonet@2@VLocationTableEntryCreator@42@@geonet@2@@std@@@std@@@std@@@std@@0@Z
	??$?0V?$_List_iterator@V?$_List_val@U?$_List_simple_types@U?$pair@$$CBVMacAddress@vanetza@@UValueWithHandle@?$SoftStateMap@VMacAddress@vanetza@@VLocationTableEntry@geonet@2@VLocationTableEntryCreator@42@@geonet@2@@std@@@std@@@std@@@std@@@?$iterator_range_base@V?$_List_iterator@V?$_List_val@U?$_List_simple_types@U?$pair@$$CBVMacAddress@vanetza@@UValueWithHandle@?$SoftStateMap@VMacAddress@vanetza@@VLocationTableEntry@geonet@2@VLocationTableEntryCreator@42@@geonet@2@@std@@@std@@@std@@@std@@Ubidirectional_traversal_tag@iterators@boost@@@iterator_range_detail@boost@@IEAA@V?$_List_iterator@V?$_List_val@U?$_List_simple_types@U?$pair@$$CBVMacAddress@vanetza@@UValueWithHandle@?$SoftStateMap@VMacAddress@vanetza@@VLocationTableEntry@geonet@2@VLocationTableEntryCreator@42@@geonet@2@@std@@@std@@@std@@@std@@0@Z
	??$?0V?$_List_iterator@V?$_List_val@U?$_List_simple_types@U?$pair@$$CBVMacAddress@vanetza@@UValueWithHandle@?$SoftStateMap@VMacAddress@vanetza@@VLocationTableEntry@geonet@2@VLocationTableEntryCreator@42@@geonet@2@@std@@@std@@@std@@@std@@@?$iterator_range_base@V?$_List_iterator@V?$_List_val@U?$_List_simple_types@U?$pair@$$CBVMacAddress@vanetza@@UValueWithHandle@?$SoftStateMap@VMacAddress@vanetza@@VLocationTableEntry@geonet@2@VLocationTableEntryCreator@42@@geonet@2@@std@@@std@@@std@@@std@@Uincrementable_traversal_tag@iterators@boost@@@iterator_range_detail@boost@@IEAA@V?$_List_iterator@V?$_List_val@U?$_List_simple_types@U?$pair@$$CBVMacAddress@vanetza@@UValueWithHandle@?$SoftStateMap@VMacAddress@vanetza@@VLocationTableEntry@geonet@2@VLocationTableEntryCreator@42@@geonet@2@@std@@@std@@@std@@@std@@0@Z
	??$?0V?$_List_iterator@V?$_List_val@U?$_List_simple_types@U?$pair@$$CBVMacAddress@vanetza@@UValueWithHandle@?$SoftStateMap@VMacAddress@vanetza@@VLocationTableEntry@geonet@2@VLocationTableEntryCreator@42@@geonet@2@@std@@@std@@@std@@@std@@_N$0A@@?$pair@V?$_List_iterator@V?$_List_val@U?$_List_simple_types@U?$pair@$$CBVMacAddress@vanetza@@UValueWithHandle@?$SoftStateMap@VMacAddress@vanetza@@VLocationTableEntry@geonet@2@VLocationTableEntryCreator@42@@geonet@2@@std@@@std@@@std@@@std@@_N@std@@QEAA@$$QEAV?$_List_iterator@V?$_List_val@U?$_List_simple_types@U?$pair@$$CBVMacAddress@vanetza@@UValueWithHandle@?$SoftStateMap@VMacAddress@vanetza@@VLocationTableEntry@geonet@2@VLocationTableEntryCreator@42@@geonet@2@@std@@@std@@@std@@@1@$$QEA_N@Z
	??$?0V?$_List_unchecked_iterator@V?$_List_val@U?$_List_simple_types@U?$pair@$$CBV?$tuple@VAddress@geonet@vanetza@@VSequenceNumber@23@@std@@UValueWithHandle@?$SoftStateMap@V?$tuple@VAddress@geonet@vanetza@@VSequenceNumber@23@@std@@_KU?$SoftStateDefaultCreator@_K@geonet@vanetza@@@geonet@vanetza@@@std@@@std@@@std@@@std@@@?$allocator@U_Container_proxy@std@@@std@@QEAA@AEBV?$allocator@V?$_List_unchecked_iterator@V?$_List_val@U?$_List_simple_types@U?$pair@$$CBV?$tuple@VAddress@geonet@vanetza@@VSequenceNumber@23@@std@@UValueWithHandle@?$SoftStateMap@V?$tuple@VAddress@geonet@vanetza@@VSequenceNumber@23@@std@@_KU?$SoftStateDefaultCreator@_K@geonet@vanetza@@@geonet@vanetza@@@std@@@std@@@std@@@std@@@1@@Z
	??$?0V?$_List_unchecked_iterator@V?$_List_val@U?$_List_simple_types@U?$pair@$$CBV?$tuple@VAddress@geonet@vanetza@@VSequenceNumber@23@@std@@_K@std@@@std@@@std@@@std@@@?$allocator@U_Container_proxy@std@@@std@@QEAA@AEBV?$allocator@V?$_List_unchecked_iterator@V?$_List_val@U?$_List_simple_types@U?$pair@$$CBV?$tuple@VAddress@geonet@vanetza@@VSequenceNumber@23@@std@@_K@std@@@std@@@std@@@std@@@1@@Z
	??$?0V?$_List_unchecked_iterator@V?$_List_val@U?$_List_simple_types@U?$pair@$$CBVMacAddress@vanetza@@UValueWithHandle@?$SoftStateMap@VMacAddress@vanetza@@VLocationTableEntry@geonet@2@VLocationTableEntryCreator@42@@geonet@2@@std@@@std@@@std@@@std@@@?$allocator@U_Container_proxy@std@@@std@@QEAA@AEBV?$allocator@V?$_List_unchecked_iterator@V?$_List_val@U?$_List_simple_types@U?$pair@$$CBVMacAddress@vanetza@@UValueWithHandle@?$SoftStateMap@VMacAddress@vanetza@@VLocationTableEntry@geonet@2@VLocationTableEntryCreator@42@@geonet@2@@std@@@std@@@std@@@std@@@1@@Z
	??$?0V?$_Tree_iterator@V?$_Tree_val@U?$_Tree_simple_types@U?$pair@$$CBVtype_index@std@@Uobject_handle@ObjectContainer@vanetza@@@std@@@std@@@std@@@std@@AEB_N$0A@@?$pair@V?$_Tree_iterator@V?$_Tree_val@U?$_Tree_simple_types@U?$pair@$$CBVtype_index@std@@Uobject_handle@ObjectContainer@vanetza@@@std@@@std@@@std@@@std@@_N@std@@QEAA@$$QEAV?$_Tree_iterator@V?$_Tree_val@U?$_Tree_simple_types@U?$pair@$$CBVtype_index@std@@Uobject_handle@ObjectContainer@vanetza@@@std@@@std@@@std@@@1@AEB_N@Z
	??$?0V?$_Vector_const_iterator@V?$_Vector_val@U?$_Simple_types@E@std@@@std@@@std@@@?$iterator_range_base@V?$_Vector_const_iterator@V?$_Vector_val@U?$_Simple_types@E@std@@@std@@@std@@Ubidirectional_traversal_tag@iterators@boost@@@iterator_range_detail@boost@@IEAA@V?$_Vector_const_iterator@V?$_Vector_val@U?$_Simple_types@E@std@@@std@@@std@@0@Z
	??$?0V?$_Vector_const_iterator@V?$_Vector_val@U?$_Simple_types@E@std@@@std@@@std@@@?$iterator_range_base@V?$_Vector_const_iterator@V?$_Vector_val@U?$_Simple_types@E@std@@@std@@@std@@Uincrementable_traversal_tag@iterators@boost@@@iterator_range_detail@boost@@IEAA@V?$_Vector_const_iterator@V?$_Vector_val@U?$_Simple_types@E@std@@@std@@@std@@0@Z
	??$?0V?$_Vector_const_iterator@V?$_Vector_val@U?$_Simple_types@E@std@@@std@@@std@@@?$iterator_range_base@V?$_Vector_const_iterator@V?$_Vector_val@U?$_Simple_types@E@std@@@std@@@std@@Urandom_access_traversal_tag@iterators@boost@@@iterator_range_detail@boost@@IEAA@V?$_Vector_const_iterator@V?$_Vector_val@U?$_Simple_types@E@std@@@std@@@std@@0@Z
	??$?0V?$allocator@D@std@@$$V@?$_Compressed_pair@V?$allocator@D@std@@V?$_String_val@U?$_Simple_types@D@std@@@2@$00@std@@QEAA@U_One_then_variadic_args_t@1@$$QEAV?$allocator@D@1@@Z
	??$?0V?$allocator@E@std@@$$V@?$_Compressed_pair@V?$allocator@E@std@@V?$_Vector_val@U?$_Simple_types@E@std@@@2@$00@std@@QEAA@U_One_then_variadic_args_t@1@$$QEAV?$allocator@E@1@@Z
	??$?0V?$allocator@E@std@@PEAEPEAEPEAE@?$_Compressed_pair@V?$allocator@E@std@@V?$_Vector_val@U?$_Simple_types@E@std@@@2@$00@std@@QEAA@U_One_then_variadic_args_t@1@$$QEAV?$allocator@E@1@$$QEAPEAE22@Z
	??$?0V?$allocator@U?$_List_node@UCertificate@v2@security@vanetza@@PEAX@std@@@std@@$$V@?$_Compressed_pair@V?$allocator@U?$_List_node@UCertificate@v2@security@vanetza@@PEAX@std@@@std@@V?$_List_val@U?$_List_simple_types@UCertificate@v2@security@vanetza@@@std@@@2@$00@std@@QEAA@U_One_then_variadic_args_t@1@$$QEAV?$allocator@U?$_List_node@UCertificate@v2@security@vanetza@@PEAX@std@@@1@@Z
	??$?0V?$allocator@U?$_List_node@UItsAidSsp@v2@security@vanetza@@PEAX@std@@@std@@$$V@?$_Compressed_pair@V?$allocator@U?$_List_node@UItsAidSsp@v2@security@vanetza@@PEAX@std@@@std@@V?$_List_val@U?$_List_simple_types@UItsAidSsp@v2@security@vanetza@@@std@@@2@$00@std@@QEAA@U_One_then_variadic_args_t@1@$$QEAV?$allocator@U?$_List_node@UItsAidSsp@v2@security@vanetza@@PEAX@std@@@1@@Z
	??$?0V?$allocator@U?$_List_node@URecipientInfo@v2@security@vanetza@@PEAX@std@@@std@@$$V@?$_Compressed_pair@V?$allocator@U?$_List_node@URecipientInfo@v2@security@vanetza@@PEAX@std@@@std@@V?$_List_val@U?$_List_simple_types@URecipientInfo@v2@security@vanetza@@@std@@@2@$00@std@@QEAA@U_One_then_variadic_args_t@1@$$QEAV?$allocator@U?$_List_node@URecipientInfo@v2@security@vanetza@@PEAX@std@@@1@@Z
	??$?0V?$allocator@U?$_List_node@URectangularRegion@v2@security@vanetza@@PEAX@std@@@std@@$$V@?$_Compressed_pair@V?$allocator@U?$_List_node@URectangularRegion@v2@security@vanetza@@PEAX@std@@@std@@V?$_List_val@U?$_List_simple_types@URectangularRegion@v2@security@vanetza@@@std@@@2@$00@std@@QEAA@U_One_then_variadic_args_t@1@$$QEAV?$allocator@U?$_List_node@URectangularRegion@v2@security@vanetza@@PEAX@std@@@1@@Z
	??$?0V?$allocator@U?$_List_node@UTwoDLocation@v2@security@vanetza@@PEAX@std@@@std@@$$V@?$_Compressed_pair@V?$allocator@U?$_List_node@UTwoDLocation@v2@security@vanetza@@PEAX@std@@@std@@V?$_List_val@U?$_List_simple_types@UTwoDLocation@v2@security@vanetza@@@std@@@2@$00@std@@QEAA@U_One_then_variadic_args_t@1@$$QEAV?$allocator@U?$_List_node@UTwoDLocation@v2@security@vanetza@@PEAX@std@@@1@@Z
	??$?0V?$allocator@U?$_List_node@V?$array@E$02@std@@PEAX@std@@@std@@$$V@?$_Compressed_pair@V?$allocator@U?$_List_node@V?$array@E$02@std@@PEAX@std@@@std@@V?$_List_val@U?$_List_simple_types@V?$array@E$02@std@@@std@@@2@$00@std@@QEAA@U_One_then_variadic_args_t@1@$$QEAV?$allocator@U?$_List_node@V?$array@E$02@std@@PEAX@std@@@1@@Z
	??$?0V?$allocator@U?$_List_node@V?$variant@IUStartAndEndValidity@v2@security@vanetza@@UStartAndDurationValidity@234@V?$variant@UNoneRegion@v2@security@vanetza@@UCircularRegion@234@V?$list@URectangularRegion@v2@security@vanetza@@V?$allocator@URectangularRegion@v2@security@vanetza@@@std@@@std@@V?$list@UTwoDLocation@v2@security@vanetza@@V?$allocator@UTwoDLocation@v2@security@vanetza@@@std@@@7@UIdentifiedRegion@234@@boost@@@boost@@PEAX@std@@@std@@$$V@?$_Compressed_pair@V?$allocator@U?$_List_node@V?$variant@IUStartAndEndValidity@v2@security@vanetza@@UStartAndDurationValidity@234@V?$variant@UNoneRegion@v2@security@vanetza@@UCircularRegion@234@V?$list@URectangularRegion@v2@security@vanetza@@V?$allocator@URectangularRegion@v2@security@vanetza@@@std@@@std@@V?$list@UTwoDLocation@v2@security@vanetza@@V?$allocator@UTwoDLocation@v2@security@vanetza@@@std@@@7@UIdentifiedRegion@234@@boost@@@boost@@PEAX@std@@@std@@V?$_List_val@U?$_List_simple_types@V?$variant@IUStartAndEndValidity@v2@security@vanetza@@UStartAndDurationValidity@234@V?$variant@UNoneRegion@v2@security@vanetza@@UCircularRegion@234@V?$list@URectangularRegion@v2@security@vanetza@@V?$allocator@URectangularRegion@v2@security@vanetza@@@std@@@std@@V?$list@UTwoDLocation@v2@security@vanetza@@V?$allocator@UTwoDLocation@v2@security@vanetza@@@std@@@7@UIdentifiedRegion@234@@boost@@@boost@@@std@@@2@$00@std@@QEAA@U_One_then_variadic_args_t@1@$$QEAV?$allocator@U?$_List_node@V?$variant@IUStartAndEndValidity@v2@security@vanetza@@UStartAndDurationValidity@234@V?$variant@UNoneRegion@v2@security@vanetza@@UCircularRegion@234@V?$list@URectangularRegion@v2@security@vanetza@@V?$allocator@URectangularRegion@v2@security@vanetza@@@std@@@std@@V?$list@UTwoDLocation@v2@security@vanetza@@V?$allocator@UTwoDLocation@v2@security@vanetza@@@std@@@7@UIdentifiedRegion@234@@boost@@@boost@@PEAX@std@@@1@@Z
	??$?0V?$allocator@U?$_List_node@V?$variant@USignature@v2@security@vanetza@@$$V@boost@@PEAX@std@@@std@@$$V@?$_Compressed_pair@V?$allocator@U?$_List_node@V?$variant@USignature@v2@security@vanetza@@$$V@boost@@PEAX@std@@@std@@V?$_List_val@U?$_List_simple_types@V?$variant@USignature@v2@security@vanetza@@$$V@boost@@@std@@@2@$00@std@@QEAA@U_One_then_variadic_args_t@1@$$QEAV?$allocator@U?$_List_node@V?$variant@USignature@v2@security@vanetza@@$$V@boost@@PEAX@std@@@1@@Z
	??$?0V?$allocator@U?$_List_node@V?$variant@UVerificationKey@v2@security@vanetza@@UEncryptionKey@234@USubjectAssurance@234@V?$variant@UX_Coordinate_Only@security@vanetza@@UCompressed_Lsb_Y_0@23@UCompressed_Lsb_Y_1@23@UUncompressed@23@@boost@@V?$list@VIntX@v2@security@vanetza@@V?$allocator@VIntX@v2@security@vanetza@@@std@@@std@@V?$list@UItsAidSsp@v2@security@vanetza@@V?$allocator@UItsAidSsp@v2@security@vanetza@@@std@@@std@@@boost@@PEAX@std@@@std@@$$V@?$_Compressed_pair@V?$allocator@U?$_List_node@V?$variant@UVerificationKey@v2@security@vanetza@@UEncryptionKey@234@USubjectAssurance@234@V?$variant@UX_Coordinate_Only@security@vanetza@@UCompressed_Lsb_Y_0@23@UCompressed_Lsb_Y_1@23@UUncompressed@23@@boost@@V?$list@VIntX@v2@security@vanetza@@V?$allocator@VIntX@v2@security@vanetza@@@std@@@std@@V?$list@UItsAidSsp@v2@security@vanetza@@V?$allocator@UItsAidSsp@v2@security@vanetza@@@std@@@std@@@boost@@PEAX@std@@@std@@V?$_List_val@U?$_List_simple_types@V?$variant@UVerificationKey@v2@security@vanetza@@UEncryptionKey@234@USubjectAssurance@234@V?$variant@UX_Coordinate_Only@security@vanetza@@UCompressed_Lsb_Y_0@23@UCompressed_Lsb_Y_1@23@UUncompressed@23@@boost@@V?$list@VIntX@v2@security@vanetza@@V?$allocator@VIntX@v2@security@vanetza@@@std@@@std@@V?$list@UItsAidSsp@v2@security@vanetza@@V?$allocator@UItsAidSsp@v2@security@vanetza@@@std@@@std@@@boost@@@std@@@2@$00@std@@QEAA@U_One_then_variadic_args_t@1@$$QEAV?$allocator@U?$_List_node@V?$variant@UVerificationKey@v2@security@vanetza@@UEncryptionKey@234@USubjectAssurance@234@V?$variant@UX_Coordinate_Only@security@vanetza@@UCompressed_Lsb_Y_0@23@UCompressed_Lsb_Y_1@23@UUncompressed@23@@boost@@V?$list@VIntX@v2@security@vanetza@@V?$allocator@VIntX@v2@security@vanetza@@@std@@@std@@V?$list@UItsAidSsp@v2@security@vanetza@@V?$allocator@UItsAidSsp@v2@security@vanetza@@@std@@@std@@@boost@@PEAX@std@@@1@@Z
	??$?0V?$allocator@U?$_List_node@V?$variant@_KUTime64WithStandardDeviation@v2@security@vanetza@@IUThreeDLocation@234@V?$list@V?$array@E$02@std@@V?$allocator@V?$array@E$02@std@@@2@@std@@VIntX@234@V?$variant@$$TV?$array@E$07@std@@V?$recursive_wrapper@UCertificate@v2@security@vanetza@@@boost@@V?$list@UCertificate@v2@security@vanetza@@V?$allocator@UCertificate@v2@security@vanetza@@@std@@@2@UCertificateDigestWithOtherAlgorithm@v2@security@vanetza@@@boost@@V?$variant@V?$array@E$0M@@std@@$$V@boost@@V?$list@URecipientInfo@v2@security@vanetza@@V?$allocator@URecipientInfo@v2@security@vanetza@@@std@@@7@@boost@@PEAX@std@@@std@@$$V@?$_Compressed_pair@V?$allocator@U?$_List_node@V?$variant@_KUTime64WithStandardDeviation@v2@security@vanetza@@IUThreeDLocation@234@V?$list@V?$array@E$02@std@@V?$allocator@V?$array@E$02@std@@@2@@std@@VIntX@234@V?$variant@$$TV?$array@E$07@std@@V?$recursive_wrapper@UCertificate@v2@security@vanetza@@@boost@@V?$list@UCertificate@v2@security@vanetza@@V?$allocator@UCertificate@v2@security@vanetza@@@std@@@2@UCertificateDigestWithOtherAlgorithm@v2@security@vanetza@@@boost@@V?$variant@V?$array@E$0M@@std@@$$V@boost@@V?$list@URecipientInfo@v2@security@vanetza@@V?$allocator@URecipientInfo@v2@security@vanetza@@@std@@@7@@boost@@PEAX@std@@@std@@V?$_List_val@U?$_List_simple_types@V?$variant@_KUTime64WithStandardDeviation@v2@security@vanetza@@IUThreeDLocation@234@V?$list@V?$array@E$02@std@@V?$allocator@V?$array@E$02@std@@@2@@std@@VIntX@234@V?$variant@$$TV?$array@E$07@std@@V?$recursive_wrapper@UCertificate@v2@security@vanetza@@@boost@@V?$list@UCertificate@v2@security@vanetza@@V?$allocator@UCertificate@v2@security@vanetza@@@std@@@2@UCertificateDigestWithOtherAlgorithm@v2@security@vanetza@@@boost@@V?$variant@V?$array@E$0M@@std@@$$V@boost@@V?$list@URecipientInfo@v2@security@vanetza@@V?$allocator@URecipientInfo@v2@security@vanetza@@@std@@@7@@boost@@@std@@@2@$00@std@@QEAA@U_One_then_variadic_args_t@1@$$QEAV?$allocator@U?$_List_node@V?$variant@_KUTime64WithStandardDeviation@v2@security@vanetza@@IUThreeDLocation@234@V?$list@V?$array@E$02@std@@V?$allocator@V?$array@E$02@std@@@2@@std@@VIntX@234@V?$variant@$$TV?$array@E$07@std@@V?$recursive_wrapper@UCertificate@v2@security@vanetza@@@boost@@V?$list@UCertificate@v2@security@vanetza@@V?$allocator@UCertificate@v2@security@vanetza@@@std@@@2@UCertificateDigestWithOtherAlgorithm@v2@security@vanetza@@@boost@@V?$variant@V?$array@E$0M@@std@@$$V@boost@@V?$list@URecipientInfo@v2@security@vanetza@@V?$allocator@URecipientInfo@v2@security@vanetza@@@std@@@7@@boost@@PEAX@std@@@1@@Z
	??$?0V?$allocator@U?$_List_node@VIntX@v2@security@vanetza@@PEAX@std@@@std@@$$V@?$_Compressed_pair@V?$allocator@U?$_List_node@VIntX@v2@security@vanetza@@PEAX@std@@@std@@V?$_List_val@U?$_List_simple_types@VIntX@v2@security@vanetza@@@std@@@2@$00@std@@QEAA@U_One_then_variadic_args_t@1@$$QEAV?$allocator@U?$_List_node@VIntX@v2@security@vanetza@@PEAX@std@@@1@@Z
	??$?0V?$allocator@U?$_Tree_node@U?$pair@$$CBVtype_index@std@@Uobject_handle@ObjectContainer@vanetza@@@std@@PEAX@std@@@std@@$$V@?$_Compressed_pair@V?$allocator@U?$_Tree_node@U?$pair@$$CBVtype_index@std@@Uobject_handle@ObjectContainer@vanetza@@@std@@PEAX@std@@@std@@V?$_Tree_val@U?$_Tree_simple_types@U?$pair@$$CBVtype_index@std@@Uobject_handle@ObjectContainer@vanetza@@@std@@@std@@@2@$00@std@@QEAA@U_One_then_variadic_args_t@1@$$QEAV?$allocator@U?$_Tree_node@U?$pair@$$CBVtype_index@std@@Uobject_handle@ObjectContainer@vanetza@@@std@@PEAX@std@@@1@@Z
	??$?0V?$allocator@U?$_Tree_node@U?$pair@$$CBW4OsiLayer@vanetza@@VByteBufferConvertible@2@@std@@PEAX@std@@@std@@$$V@?$_Compressed_pair@V?$allocator@U?$_Tree_node@U?$pair@$$CBW4OsiLayer@vanetza@@VByteBufferConvertible@2@@std@@PEAX@std@@@std@@V?$_Tree_val@U?$_Tree_simple_types@U?$pair@$$CBW4OsiLayer@vanetza@@VByteBufferConvertible@2@@std@@@std@@@2@$00@std@@QEAA@U_One_then_variadic_args_t@1@$$QEAV?$allocator@U?$_Tree_node@U?$pair@$$CBW4OsiLayer@vanetza@@VByteBufferConvertible@2@@std@@PEAX@std@@@1@@Z
	??$?0V?$allocator@V?$tuple@VAddress@geonet@vanetza@@VSequenceNumber@23@@std@@@std@@X@?$base_from_member@V?$allocator@U?$sequenced_index_node@U?$hashed_index_node@U?$index_node_base@V?$tuple@VAddress@geonet@vanetza@@VSequenceNumber@23@@std@@V?$allocator@V?$tuple@VAddress@geonet@vanetza@@VSequenceNumber@23@@std@@@2@@detail@multi_index@boost@@@detail@multi_index@boost@@@detail@multi_index@boost@@@std@@$0A@@boost@@IEAA@$$QEAV?$allocator@V?$tuple@VAddress@geonet@vanetza@@VSequenceNumber@23@@std@@@std@@@Z
	??$?0V?$backup_holder@UBeaconHeader@geonet@vanetza@@@variant@detail@boost@@@?$backup_assigner@V?$variant@UBeaconHeader@geonet@vanetza@@UGeoBroadcastHeader@23@UShbHeader@23@UTsbHeader@23@@boost@@@variant@detail@boost@@QEAA@AEAV?$variant@UBeaconHeader@geonet@vanetza@@UGeoBroadcastHeader@23@UShbHeader@23@UTsbHeader@23@@3@HAEBV?$backup_holder@UBeaconHeader@geonet@vanetza@@@123@@Z
	??$?0V?$backup_holder@UCircle@geonet@vanetza@@@variant@detail@boost@@@?$backup_assigner@V?$variant@URectangle@geonet@vanetza@@UEllipse@23@UCircle@23@@boost@@@variant@detail@boost@@QEAA@AEAV?$variant@URectangle@geonet@vanetza@@UEllipse@23@UCircle@23@@3@HAEBV?$backup_holder@UCircle@geonet@vanetza@@@123@@Z
	??$?0V?$backup_holder@UEllipse@geonet@vanetza@@@variant@detail@boost@@@?$backup_assigner@V?$variant@URectangle@geonet@vanetza@@UEllipse@23@UCircle@23@@boost@@@variant@detail@boost@@QEAA@AEAV?$variant@URectangle@geonet@vanetza@@UEllipse@23@UCircle@23@@3@HAEBV?$backup_holder@UEllipse@geonet@vanetza@@@123@@Z
	??$?0V?$backup_holder@UGeoBroadcastHeader@geonet@vanetza@@@variant@detail@boost@@@?$backup_assigner@V?$variant@UBeaconHeader@geonet@vanetza@@UGeoBroadcastHeader@23@UShbHeader@23@UTsbHeader@23@@boost@@@variant@detail@boost@@QEAA@AEAV?$variant@UBeaconHeader@geonet@vanetza@@UGeoBroadcastHeader@23@UShbHeader@23@UTsbHeader@23@@3@HAEBV?$backup_holder@UGeoBroadcastHeader@geonet@vanetza@@@123@@Z
	??$?0V?$backup_holder@URectangle@geonet@vanetza@@@variant@detail@boost@@@?$backup_assigner@V?$variant@URectangle@geonet@vanetza@@UEllipse@23@UCircle@23@@boost@@@variant@detail@boost@@QEAA@AEAV?$variant@URectangle@geonet@vanetza@@UEllipse@23@UCircle@23@@3@HAEBV?$backup_holder@URectangle@geonet@vanetza@@@123@@Z
	??$?0V?$backup_holder@USecuredMessage@v2@security@vanetza@@@variant@detail@boost@@@?$backup_assigner@V?$variant@USecuredMessage@v2@security@vanetza@@U1v3@34@@boost@@@variant@detail@boost@@QEAA@AEAV?$variant@USecuredMessage@v2@security@vanetza@@U1v3@34@@3@HAEBV?$backup_holder@USecuredMessage@v2@security@vanetza@@@123@@Z
	??$?0V?$backup_holder@UShbHeader@geonet@vanetza@@@variant@detail@boost@@@?$backup_assigner@V?$variant@UBeaconHeader@geonet@vanetza@@UGeoBroadcastHeader@23@UShbHeader@23@UTsbHeader@23@@boost@@@variant@detail@boost@@QEAA@AEAV?$variant@UBeaconHeader@geonet@vanetza@@UGeoBroadcastHeader@23@UShbHeader@23@UTsbHeader@23@@3@HAEBV?$backup_holder@UShbHeader@geonet@vanetza@@@123@@Z
	??$?0V?$backup_holder@UTsbHeader@geonet@vanetza@@@variant@detail@boost@@@?$backup_assigner@V?$variant@UBeaconHeader@geonet@vanetza@@UGeoBroadcastHeader@23@UShbHeader@23@UTsbHeader@23@@boost@@@variant@detail@boost@@QEAA@AEAV?$variant@UBeaconHeader@geonet@vanetza@@UGeoBroadcastHeader@23@UShbHeader@23@UTsbHeader@23@@3@HAEBV?$backup_holder@UTsbHeader@geonet@vanetza@@@123@@Z
	??$?0V?$backup_holder@VChunkPacket@vanetza@@@variant@detail@boost@@@?$backup_assigner@V?$variant@VChunkPacket@vanetza@@VCohesivePacket@2@@boost@@@variant@detail@boost@@QEAA@AEAV?$variant@VChunkPacket@vanetza@@VCohesivePacket@2@@3@HAEBV?$backup_holder@VChunkPacket@vanetza@@@123@@Z
	??$?0V?$bidir_node_iterator@U?$ordered_index_node@Unull_augment_policy@detail@multi_index@boost@@U?$index_node_base@V?$mutant_relation@U?$tagged@$$CBUTimer@CbfPacketBuffer@geonet@vanetza@@Uleft@member_at@relation@bimaps@boost@@@tags@bimaps@boost@@U?$tagged@$$CBV?$tuple@VAddress@geonet@vanetza@@VSequenceNumber@23@@std@@Uright@member_at@relation@bimaps@boost@@@234@V?$_List_iterator@V?$_List_val@U?$_List_simple_types@VCbfPacket@geonet@vanetza@@@std@@@std@@@std@@$00@relation@bimaps@boost@@V?$allocator@V?$mutant_relation@U?$tagged@$$CBUTimer@CbfPacketBuffer@geonet@vanetza@@Uleft@member_at@relation@bimaps@boost@@@tags@bimaps@boost@@U?$tagged@$$CBV?$tuple@VAddress@geonet@vanetza@@VSequenceNumber@23@@std@@Uright@member_at@relation@bimaps@boost@@@234@V?$_List_iterator@V?$_List_val@U?$_List_simple_types@VCbfPacket@geonet@vanetza@@@std@@@std@@@std@@$00@relation@bimaps@boost@@@std@@@234@@detail@multi_index@boost@@@detail@multi_index@boost@@AEA_N$0A@@?$pair@V?$bidir_node_iterator@U?$ordered_index_node@Unull_augment_policy@detail@multi_index@boost@@U?$index_node_base@V?$mutant_relation@U?$tagged@$$CBUTimer@CbfPacketBuffer@geonet@vanetza@@Uleft@member_at@relation@bimaps@boost@@@tags@bimaps@boost@@U?$tagged@$$CBV?$tuple@VAddress@geonet@vanetza@@VSequenceNumber@23@@std@@Uright@member_at@relation@bimaps@boost@@@234@V?$_List_iterator@V?$_List_val@U?$_List_simple_types@VCbfPacket@geonet@vanetza@@@std@@@std@@@std@@$00@relation@bimaps@boost@@V?$allocator@V?$mutant_relation@U?$tagged@$$CBUTimer@CbfPacketBuffer@geonet@vanetza@@Uleft@member_at@relation@bimaps@boost@@@tags@bimaps@boost@@U?$tagged@$$CBV?$tuple@VAddress@geonet@vanetza@@VSequenceNumber@23@@std@@Uright@member_at@relation@bimaps@boost@@@234@V?$_List_iterator@V?$_List_val@U?$_List_simple_types@VCbfPacket@geonet@vanetza@@@std@@@std@@@std@@$00@relation@bimaps@boost@@@std@@@234@@detail@multi_index@boost@@@detail@multi_index@boost@@_N@std@@QEAA@$$QEAV?$bidir_node_iterator@U?$ordered_index_node@Unull_augment_policy@detail@multi_index@boost@@U?$index_node_base@V?$mutant_relation@U?$tagged@$$CBUTimer@CbfPacketBuffer@geonet@vanetza@@Uleft@member_at@relation@bimaps@boost@@@tags@bimaps@boost@@U?$tagged@$$CBV?$tuple@VAddress@geonet@vanetza@@VSequenceNumber@23@@std@@Uright@member_at@relation@bimaps@boost@@@234@V?$_List_iterator@V?$_List_val@U?$_List_simple_types@VCbfPacket@geonet@vanetza@@@std@@@std@@@std@@$00@relation@bimaps@boost@@V?$allocator@V?$mutant_relation@U?$tagged@$$CBUTimer@CbfPacketBuffer@geonet@vanetza@@Uleft@member_at@relation@bimaps@boost@@@tags@bimaps@boost@@U?$tagged@$$CBV?$tuple@VAddress@geonet@vanetza@@VSequenceNumber@23@@std@@Uright@member_at@relation@bimaps@boost@@@234@V?$_List_iterator@V?$_List_val@U?$_List_simple_types@VCbfPacket@geonet@vanetza@@@std@@@std@@@std@@$00@relation@bimaps@boost@@@std@@@234@@detail@multi_index@boost@@@detail@multi_index@boost@@AEA_N@Z
	??$?0V?$bidir_node_iterator@U?$sequenced_index_node@U?$hashed_index_node@U?$index_node_base@V?$tuple@VAddress@geonet@vanetza@@VSequenceNumber@23@@std@@V?$allocator@V?$tuple@VAddress@geonet@vanetza@@VSequenceNumber@23@@std@@@2@@detail@multi_index@boost@@@detail@multi_index@boost@@@detail@multi_index@boost@@@detail@multi_index@boost@@AEA_N$0A@@?$pair@V?$bidir_node_iterator@U?$sequenced_index_node@U?$hashed_index_node@U?$index_node_base@V?$tuple@VAddress@geonet@vanetza@@VSequenceNumber@23@@std@@V?$allocator@V?$tuple@VAddress@geonet@vanetza@@VSequenceNumber@23@@std@@@2@@detail@multi_index@boost@@@detail@multi_index@boost@@@detail@multi_index@boost@@@detail@multi_index@boost@@_N@std@@QEAA@$$QEAV?$bidir_node_iterator@U?$sequenced_index_node@U?$hashed_index_node@U?$index_node_base@V?$tuple@VAddress@geonet@vanetza@@VSequenceNumber@23@@std@@V?$allocator@V?$tuple@VAddress@geonet@vanetza@@VSequenceNumber@23@@std@@@2@@detail@multi_index@boost@@@detail@multi_index@boost@@@detail@multi_index@boost@@@detail@multi_index@boost@@AEA_N@Z
	??$?0V?$filter_iterator@V?$default_constructible_unary_fn_wrapper@V?$function@$$A6A_NAEBU?$pair@$$CBVMacAddress@vanetza@@UValueWithHandle@?$SoftStateMap@VMacAddress@vanetza@@VLocationTableEntry@geonet@2@VLocationTableEntryCreator@42@@geonet@2@@std@@@Z@std@@_N@range_detail@boost@@V?$_List_iterator@V?$_List_val@U?$_List_simple_types@U?$pair@$$CBVMacAddress@vanetza@@UValueWithHandle@?$SoftStateMap@VMacAddress@vanetza@@VLocationTableEntry@geonet@2@VLocationTableEntryCreator@42@@geonet@2@@std@@@std@@@std@@@std@@@iterators@boost@@@?$iterator_range@V?$filter_iterator@V?$default_constructible_unary_fn_wrapper@V?$function@$$A6A_NAEBU?$pair@$$CBVMacAddress@vanetza@@UValueWithHandle@?$SoftStateMap@VMacAddress@vanetza@@VLocationTableEntry@geonet@2@VLocationTableEntryCreator@42@@geonet@2@@std@@@Z@std@@_N@range_detail@boost@@V?$_List_iterator@V?$_List_val@U?$_List_simple_types@U?$pair@$$CBVMacAddress@vanetza@@UValueWithHandle@?$SoftStateMap@VMacAddress@vanetza@@VLocationTableEntry@geonet@2@VLocationTableEntryCreator@42@@geonet@2@@std@@@std@@@std@@@std@@@iterators@boost@@@boost@@QEAA@V?$filter_iterator@V?$default_constructible_unary_fn_wrapper@V?$function@$$A6A_NAEBU?$pair@$$CBVMacAddress@vanetza@@UValueWithHandle@?$SoftStateMap@VMacAddress@vanetza@@VLocationTableEntry@geonet@2@VLocationTableEntryCreator@42@@geonet@2@@std@@@Z@std@@_N@range_detail@boost@@V?$_List_iterator@V?$_List_val@U?$_List_simple_types@U?$pair@$$CBVMacAddress@vanetza@@UValueWithHandle@?$SoftStateMap@VMacAddress@vanetza@@VLocationTableEntry@geonet@2@VLocationTableEntryCreator@42@@geonet@2@@std@@@std@@@std@@@std@@@iterators@1@0@Z
	??$?0V?$filter_iterator@V?$default_constructible_unary_fn_wrapper@V?$function@$$A6A_NAEBU?$pair@$$CBVMacAddress@vanetza@@UValueWithHandle@?$SoftStateMap@VMacAddress@vanetza@@VLocationTableEntry@geonet@2@VLocationTableEntryCreator@42@@geonet@2@@std@@@Z@std@@_N@range_detail@boost@@V?$_List_iterator@V?$_List_val@U?$_List_simple_types@U?$pair@$$CBVMacAddress@vanetza@@UValueWithHandle@?$SoftStateMap@VMacAddress@vanetza@@VLocationTableEntry@geonet@2@VLocationTableEntryCreator@42@@geonet@2@@std@@@std@@@std@@@std@@@iterators@boost@@@?$iterator_range_base@V?$filter_iterator@V?$default_constructible_unary_fn_wrapper@V?$function@$$A6A_NAEBU?$pair@$$CBVMacAddress@vanetza@@UValueWithHandle@?$SoftStateMap@VMacAddress@vanetza@@VLocationTableEntry@geonet@2@VLocationTableEntryCreator@42@@geonet@2@@std@@@Z@std@@_N@range_detail@boost@@V?$_List_iterator@V?$_List_val@U?$_List_simple_types@U?$pair@$$CBVMacAddress@vanetza@@UValueWithHandle@?$SoftStateMap@VMacAddress@vanetza@@VLocationTableEntry@geonet@2@VLocationTableEntryCreator@42@@geonet@2@@std@@@std@@@std@@@std@@@iterators@boost@@Ubidirectional_traversal_tag@23@@iterator_range_detail@boost@@IEAA@V?$filter_iterator@V?$default_constructible_unary_fn_wrapper@V?$function@$$A6A_NAEBU?$pair@$$CBVMacAddress@vanetza@@UValueWithHandle@?$SoftStateMap@VMacAddress@vanetza@@VLocationTableEntry@geonet@2@VLocationTableEntryCreator@42@@geonet@2@@std@@@Z@std@@_N@range_detail@boost@@V?$_List_iterator@V?$_List_val@U?$_List_simple_types@U?$pair@$$CBVMacAddress@vanetza@@UValueWithHandle@?$SoftStateMap@VMacAddress@vanetza@@VLocationTableEntry@geonet@2@VLocationTableEntryCreator@42@@geonet@2@@std@@@std@@@std@@@std@@@iterators@2@0@Z
	??$?0V?$filter_iterator@V?$default_constructible_unary_fn_wrapper@V?$function@$$A6A_NAEBU?$pair@$$CBVMacAddress@vanetza@@UValueWithHandle@?$SoftStateMap@VMacAddress@vanetza@@VLocationTableEntry@geonet@2@VLocationTableEntryCreator@42@@geonet@2@@std@@@Z@std@@_N@range_detail@boost@@V?$_List_iterator@V?$_List_val@U?$_List_simple_types@U?$pair@$$CBVMacAddress@vanetza@@UValueWithHandle@?$SoftStateMap@VMacAddress@vanetza@@VLocationTableEntry@geonet@2@VLocationTableEntryCreator@42@@geonet@2@@std@@@std@@@std@@@std@@@iterators@boost@@@?$iterator_range_base@V?$filter_iterator@V?$default_constructible_unary_fn_wrapper@V?$function@$$A6A_NAEBU?$pair@$$CBVMacAddress@vanetza@@UValueWithHandle@?$SoftStateMap@VMacAddress@vanetza@@VLocationTableEntry@geonet@2@VLocationTableEntryCreator@42@@geonet@2@@std@@@Z@std@@_N@range_detail@boost@@V?$_List_iterator@V?$_List_val@U?$_List_simple_types@U?$pair@$$CBVMacAddress@vanetza@@UValueWithHandle@?$SoftStateMap@VMacAddress@vanetza@@VLocationTableEntry@geonet@2@VLocationTableEntryCreator@42@@geonet@2@@std@@@std@@@std@@@std@@@iterators@boost@@Uincrementable_traversal_tag@23@@iterator_range_detail@boost@@IEAA@V?$filter_iterator@V?$default_constructible_unary_fn_wrapper@V?$function@$$A6A_NAEBU?$pair@$$CBVMacAddress@vanetza@@UValueWithHandle@?$SoftStateMap@VMacAddress@vanetza@@VLocationTableEntry@geonet@2@VLocationTableEntryCreator@42@@geonet@2@@std@@@Z@std@@_N@range_detail@boost@@V?$_List_iterator@V?$_List_val@U?$_List_simple_types@U?$pair@$$CBVMacAddress@vanetza@@UValueWithHandle@?$SoftStateMap@VMacAddress@vanetza@@VLocationTableEntry@geonet@2@VLocationTableEntryCreator@42@@geonet@2@@std@@@std@@@std@@@std@@@iterators@2@0@Z
	??$?0V?$filter_iterator@V?$default_constructible_unary_fn_wrapper@V?$function@$$A6A_NAEBU?$pair@AEBVMacAddress@vanetza@@AEAVLocationTableEntry@geonet@2@@std@@@Z@std@@_N@range_detail@boost@@V?$transform_iterator@V?$default_constructible_unary_fn_wrapper@V?$function@$$A6A?AU?$pair@AEBVMacAddress@vanetza@@AEAVLocationTableEntry@geonet@2@@std@@AEAU?$pair@$$CBVMacAddress@vanetza@@UValueWithHandle@?$SoftStateMap@VMacAddress@vanetza@@VLocationTableEntry@geonet@2@VLocationTableEntryCreator@42@@geonet@2@@2@@Z@std@@U?$pair@AEBVMacAddress@vanetza@@AEAVLocationTableEntry@geonet@2@@2@@range_detail@boost@@V?$filter_iterator@V?$default_constructible_unary_fn_wrapper@V?$function@$$A6A_NAEBU?$pair@$$CBVMacAddress@vanetza@@UValueWithHandle@?$SoftStateMap@VMacAddress@vanetza@@VLocationTableEntry@geonet@2@VLocationTableEntryCreator@42@@geonet@2@@std@@@Z@std@@_N@range_detail@boost@@V?$_List_iterator@V?$_List_val@U?$_List_simple_types@U?$pair@$$CBVMacAddress@vanetza@@UValueWithHandle@?$SoftStateMap@VMacAddress@vanetza@@VLocationTableEntry@geonet@2@VLocationTableEntryCreator@42@@geonet@2@@std@@@std@@@std@@@std@@@iterators@3@Uuse_default@3@U63@@iterators@3@@iterators@boost@@@?$iterator_range@V?$filter_iterator@V?$default_constructible_unary_fn_wrapper@V?$function@$$A6A_NAEBU?$pair@AEBVMacAddress@vanetza@@AEAVLocationTableEntry@geonet@2@@std@@@Z@std@@_N@range_detail@boost@@V?$transform_iterator@V?$default_constructible_unary_fn_wrapper@V?$function@$$A6A?AU?$pair@AEBVMacAddress@vanetza@@AEAVLocationTableEntry@geonet@2@@std@@AEAU?$pair@$$CBVMacAddress@vanetza@@UValueWithHandle@?$SoftStateMap@VMacAddress@vanetza@@VLocationTableEntry@geonet@2@VLocationTableEntryCreator@42@@geonet@2@@2@@Z@std@@U?$pair@AEBVMacAddress@vanetza@@AEAVLocationTableEntry@geonet@2@@2@@range_detail@boost@@V?$filter_iterator@V?$default_constructible_unary_fn_wrapper@V?$function@$$A6A_NAEBU?$pair@$$CBVMacAddress@vanetza@@UValueWithHandle@?$SoftStateMap@VMacAddress@vanetza@@VLocationTableEntry@geonet@2@VLocationTableEntryCreator@42@@geonet@2@@std@@@Z@std@@_N@range_detail@boost@@V?$_List_iterator@V?$_List_val@U?$_List_simple_types@U?$pair@$$CBVMacAddress@vanetza@@UValueWithHandle@?$SoftStateMap@VMacAddress@vanetza@@VLocationTableEntry@geonet@2@VLocationTableEntryCreator@42@@geonet@2@@std@@@std@@@std@@@std@@@iterators@3@Uuse_default@3@U63@@iterators@3@@iterators@boost@@@boost@@QEAA@V?$filter_iterator@V?$default_constructible_unary_fn_wrapper@V?$function@$$A6A_NAEBU?$pair@AEBVMacAddress@vanetza@@AEAVLocationTableEntry@geonet@2@@std@@@Z@std@@_N@range_detail@boost@@V?$transform_iterator@V?$default_constructible_unary_fn_wrapper@V?$function@$$A6A?AU?$pair@AEBVMacAddress@vanetza@@AEAVLocationTableEntry@geonet@2@@std@@AEAU?$pair@$$CBVMacAddress@vanetza@@UValueWithHandle@?$SoftStateMap@VMacAddress@vanetza@@VLocationTableEntry@geonet@2@VLocationTableEntryCreator@42@@geonet@2@@2@@Z@std@@U?$pair@AEBVMacAddress@vanetza@@AEAVLocationTableEntry@geonet@2@@2@@range_detail@boost@@V?$filter_iterator@V?$default_constructible_unary_fn_wrapper@V?$function@$$A6A_NAEBU?$pair@$$CBVMacAddress@vanetza@@UValueWithHandle@?$SoftStateMap@VMacAddress@vanetza@@VLocationTableEntry@geonet@2@VLocationTableEntryCreator@42@@geonet@2@@std@@@Z@std@@_N@range_detail@boost@@V?$_List_iterator@V?$_List_val@U?$_List_simple_types@U?$pair@$$CBVMacAddress@vanetza@@UValueWithHandle@?$SoftStateMap@VMacAddress@vanetza@@VLocationTableEntry@geonet@2@VLocationTableEntryCreator@42@@geonet@2@@std@@@std@@@std@@@std@@@iterators@3@Uuse_default@3@U63@@iterators@3@@iterators@1@0@Z
	??$?0V?$filter_iterator@V?$default_constructible_unary_fn_wrapper@V?$function@$$A6A_NAEBU?$pair@AEBVMacAddress@vanetza@@AEAVLocationTableEntry@geonet@2@@std@@@Z@std@@_N@range_detail@boost@@V?$transform_iterator@V?$default_constructible_unary_fn_wrapper@V?$function@$$A6A?AU?$pair@AEBVMacAddress@vanetza@@AEAVLocationTableEntry@geonet@2@@std@@AEAU?$pair@$$CBVMacAddress@vanetza@@UValueWithHandle@?$SoftStateMap@VMacAddress@vanetza@@VLocationTableEntry@geonet@2@VLocationTableEntryCreator@42@@geonet@2@@2@@Z@std@@U?$pair@AEBVMacAddress@vanetza@@AEAVLocationTableEntry@geonet@2@@2@@range_detail@boost@@V?$filter_iterator@V?$default_constructible_unary_fn_wrapper@V?$function@$$A6A_NAEBU?$pair@$$CBVMacAddress@vanetza@@UValueWithHandle@?$SoftStateMap@VMacAddress@vanetza@@VLocationTableEntry@geonet@2@VLocationTableEntryCreator@42@@geonet@2@@std@@@Z@std@@_N@range_detail@boost@@V?$_List_iterator@V?$_List_val@U?$_List_simple_types@U?$pair@$$CBVMacAddress@vanetza@@UValueWithHandle@?$SoftStateMap@VMacAddress@vanetza@@VLocationTableEntry@geonet@2@VLocationTableEntryCreator@42@@geonet@2@@std@@@std@@@std@@@std@@@iterators@3@Uuse_default@3@U63@@iterators@3@@iterators@boost@@@?$iterator_range_base@V?$filter_iterator@V?$default_constructible_unary_fn_wrapper@V?$function@$$A6A_NAEBU?$pair@AEBVMacAddress@vanetza@@AEAVLocationTableEntry@geonet@2@@std@@@Z@std@@_N@range_detail@boost@@V?$transform_iterator@V?$default_constructible_unary_fn_wrapper@V?$function@$$A6A?AU?$pair@AEBVMacAddress@vanetza@@AEAVLocationTableEntry@geonet@2@@std@@AEAU?$pair@$$CBVMacAddress@vanetza@@UValueWithHandle@?$SoftStateMap@VMacAddress@vanetza@@VLocationTableEntry@geonet@2@VLocationTableEntryCreator@42@@geonet@2@@2@@Z@std@@U?$pair@AEBVMacAddress@vanetza@@AEAVLocationTableEntry@geonet@2@@2@@range_detail@boost@@V?$filter_iterator@V?$default_constructible_unary_fn_wrapper@V?$function@$$A6A_NAEBU?$pair@$$CBVMacAddress@vanetza@@UValueWithHandle@?$SoftStateMap@VMacAddress@vanetza@@VLocationTableEntry@geonet@2@VLocationTableEntryCreator@42@@geonet@2@@std@@@Z@std@@_N@range_detail@boost@@V?$_List_iterator@V?$_List_val@U?$_List_simple_types@U?$pair@$$CBVMacAddress@vanetza@@UValueWithHandle@?$SoftStateMap@VMacAddress@vanetza@@VLocationTableEntry@geonet@2@VLocationTableEntryCreator@42@@geonet@2@@std@@@std@@@std@@@std@@@iterators@3@Uuse_default@3@U63@@iterators@3@@iterators@boost@@Ubidirectional_traversal_tag@23@@iterator_range_detail@boost@@IEAA@V?$filter_iterator@V?$default_constructible_unary_fn_wrapper@V?$function@$$A6A_NAEBU?$pair@AEBVMacAddress@vanetza@@AEAVLocationTableEntry@geonet@2@@std@@@Z@std@@_N@range_detail@boost@@V?$transform_iterator@V?$default_constructible_unary_fn_wrapper@V?$function@$$A6A?AU?$pair@AEBVMacAddress@vanetza@@AEAVLocationTableEntry@geonet@2@@std@@AEAU?$pair@$$CBVMacAddress@vanetza@@UValueWithHandle@?$SoftStateMap@VMacAddress@vanetza@@VLocationTableEntry@geonet@2@VLocationTableEntryCreator@42@@geonet@2@@2@@Z@std@@U?$pair@AEBVMacAddress@vanetza@@AEAVLocationTableEntry@geonet@2@@2@@range_detail@boost@@V?$filter_iterator@V?$default_constructible_unary_fn_wrapper@V?$function@$$A6A_NAEBU?$pair@$$CBVMacAddress@vanetza@@UValueWithHandle@?$SoftStateMap@VMacAddress@vanetza@@VLocationTableEntry@geonet@2@VLocationTableEntryCreator@42@@geonet@2@@std@@@Z@std@@_N@range_detail@boost@@V?$_List_iterator@V?$_List_val@U?$_List_simple_types@U?$pair@$$CBVMacAddress@vanetza@@UValueWithHandle@?$SoftStateMap@VMacAddress@vanetza@@VLocationTableEntry@geonet@2@VLocationTableEntryCreator@42@@geonet@2@@std@@@std@@@std@@@std@@@iterators@3@Uuse_default@3@U63@@iterators@3@@iterators@2@0@Z
	??$?0V?$filter_iterator@V?$default_constructible_unary_fn_wrapper@V?$function@$$A6A_NAEBU?$pair@AEBVMacAddress@vanetza@@AEAVLocationTableEntry@geonet@2@@std@@@Z@std@@_N@range_detail@boost@@V?$transform_iterator@V?$default_constructible_unary_fn_wrapper@V?$function@$$A6A?AU?$pair@AEBVMacAddress@vanetza@@AEAVLocationTableEntry@geonet@2@@std@@AEAU?$pair@$$CBVMacAddress@vanetza@@UValueWithHandle@?$SoftStateMap@VMacAddress@vanetza@@VLocationTableEntry@geonet@2@VLocationTableEntryCreator@42@@geonet@2@@2@@Z@std@@U?$pair@AEBVMacAddress@vanetza@@AEAVLocationTableEntry@geonet@2@@2@@range_detail@boost@@V?$filter_iterator@V?$default_constructible_unary_fn_wrapper@V?$function@$$A6A_NAEBU?$pair@$$CBVMacAddress@vanetza@@UValueWithHandle@?$SoftStateMap@VMacAddress@vanetza@@VLocationTableEntry@geonet@2@VLocationTableEntryCreator@42@@geonet@2@@std@@@Z@std@@_N@range_detail@boost@@V?$_List_iterator@V?$_List_val@U?$_List_simple_types@U?$pair@$$CBVMacAddress@vanetza@@UValueWithHandle@?$SoftStateMap@VMacAddress@vanetza@@VLocationTableEntry@geonet@2@VLocationTableEntryCreator@42@@geonet@2@@std@@@std@@@std@@@std@@@iterators@3@Uuse_default@3@U63@@iterators@3@@iterators@boost@@@?$iterator_range_base@V?$filter_iterator@V?$default_constructible_unary_fn_wrapper@V?$function@$$A6A_NAEBU?$pair@AEBVMacAddress@vanetza@@AEAVLocationTableEntry@geonet@2@@std@@@Z@std@@_N@range_detail@boost@@V?$transform_iterator@V?$default_constructible_unary_fn_wrapper@V?$function@$$A6A?AU?$pair@AEBVMacAddress@vanetza@@AEAVLocationTableEntry@geonet@2@@std@@AEAU?$pair@$$CBVMacAddress@vanetza@@UValueWithHandle@?$SoftStateMap@VMacAddress@vanetza@@VLocationTableEntry@geonet@2@VLocationTableEntryCreator@42@@geonet@2@@2@@Z@std@@U?$pair@AEBVMacAddress@vanetza@@AEAVLocationTableEntry@geonet@2@@2@@range_detail@boost@@V?$filter_iterator@V?$default_constructible_unary_fn_wrapper@V?$function@$$A6A_NAEBU?$pair@$$CBVMacAddress@vanetza@@UValueWithHandle@?$SoftStateMap@VMacAddress@vanetza@@VLocationTableEntry@geonet@2@VLocationTableEntryCreator@42@@geonet@2@@std@@@Z@std@@_N@range_detail@boost@@V?$_List_iterator@V?$_List_val@U?$_List_simple_types@U?$pair@$$CBVMacAddress@vanetza@@UValueWithHandle@?$SoftStateMap@VMacAddress@vanetza@@VLocationTableEntry@geonet@2@VLocationTableEntryCreator@42@@geonet@2@@std@@@std@@@std@@@std@@@iterators@3@Uuse_default@3@U63@@iterators@3@@iterators@boost@@Uincrementable_traversal_tag@23@@iterator_range_detail@boost@@IEAA@V?$filter_iterator@V?$default_constructible_unary_fn_wrapper@V?$function@$$A6A_NAEBU?$pair@AEBVMacAddress@vanetza@@AEAVLocationTableEntry@geonet@2@@std@@@Z@std@@_N@range_detail@boost@@V?$transform_iterator@V?$default_constructible_unary_fn_wrapper@V?$function@$$A6A?AU?$pair@AEBVMacAddress@vanetza@@AEAVLocationTableEntry@geonet@2@@std@@AEAU?$pair@$$CBVMacAddress@vanetza@@UValueWithHandle@?$SoftStateMap@VMacAddress@vanetza@@VLocationTableEntry@geonet@2@VLocationTableEntryCreator@42@@geonet@2@@2@@Z@std@@U?$pair@AEBVMacAddress@vanetza@@AEAVLocationTableEntry@geonet@2@@2@@range_detail@boost@@V?$filter_iterator@V?$default_constructible_unary_fn_wrapper@V?$function@$$A6A_NAEBU?$pair@$$CBVMacAddress@vanetza@@UValueWithHandle@?$SoftStateMap@VMacAddress@vanetza@@VLocationTableEntry@geonet@2@VLocationTableEntryCreator@42@@geonet@2@@std@@@Z@std@@_N@range_detail@boost@@V?$_List_iterator@V?$_List_val@U?$_List_simple_types@U?$pair@$$CBVMacAddress@vanetza@@UValueWithHandle@?$SoftStateMap@VMacAddress@vanetza@@VLocationTableEntry@geonet@2@VLocationTableEntryCreator@42@@geonet@2@@std@@@std@@@std@@@std@@@iterators@3@Uuse_default@3@U63@@iterators@3@@iterators@2@0@Z
	??$?0V?$iterator_range@V?$_Vector_iterator@V?$_Vector_val@U?$_Simple_types@E@std@@@std@@@std@@@boost@@@?$iterator_range@V?$_Vector_const_iterator@V?$_Vector_val@U?$_Simple_types@E@std@@@std@@@std@@@boost@@QEAA@AEBV?$iterator_range@V?$_Vector_iterator@V?$_Vector_val@U?$_Simple_types@E@std@@@std@@@std@@@1@PEAX@Z
	??$?0V?$mutant_relation@U?$tagged@$$CBUTimer@CbfPacketBuffer@geonet@vanetza@@Uleft@member_at@relation@bimaps@boost@@@tags@bimaps@boost@@U?$tagged@$$CBV?$tuple@VAddress@geonet@vanetza@@VSequenceNumber@23@@std@@Uright@member_at@relation@bimaps@boost@@@234@V?$_List_iterator@V?$_List_val@U?$_List_simple_types@VCbfPacket@geonet@vanetza@@@std@@@std@@@std@@$00@relation@bimaps@boost@@@?$allocator@PEAU?$hashed_index_node_impl@V?$allocator@D@std@@@detail@multi_index@boost@@@std@@QEAA@AEBV?$allocator@V?$mutant_relation@U?$tagged@$$CBUTimer@CbfPacketBuffer@geonet@vanetza@@Uleft@member_at@relation@bimaps@boost@@@tags@bimaps@boost@@U?$tagged@$$CBV?$tuple@VAddress@geonet@vanetza@@VSequenceNumber@23@@std@@Uright@member_at@relation@bimaps@boost@@@234@V?$_List_iterator@V?$_List_val@U?$_List_simple_types@VCbfPacket@geonet@vanetza@@@std@@@std@@@std@@$00@relation@bimaps@boost@@@1@@Z
	??$?0V?$mutant_relation@U?$tagged@$$CBUTimer@CbfPacketBuffer@geonet@vanetza@@Uleft@member_at@relation@bimaps@boost@@@tags@bimaps@boost@@U?$tagged@$$CBV?$tuple@VAddress@geonet@vanetza@@VSequenceNumber@23@@std@@Uright@member_at@relation@bimaps@boost@@@234@V?$_List_iterator@V?$_List_val@U?$_List_simple_types@VCbfPacket@geonet@vanetza@@@std@@@std@@@std@@$00@relation@bimaps@boost@@@?$allocator@U?$hashed_index_base_node_impl@V?$allocator@D@std@@@detail@multi_index@boost@@@std@@QEAA@AEBV?$allocator@V?$mutant_relation@U?$tagged@$$CBUTimer@CbfPacketBuffer@geonet@vanetza@@Uleft@member_at@relation@bimaps@boost@@@tags@bimaps@boost@@U?$tagged@$$CBV?$tuple@VAddress@geonet@vanetza@@VSequenceNumber@23@@std@@Uright@member_at@relation@bimaps@boost@@@234@V?$_List_iterator@V?$_List_val@U?$_List_simple_types@VCbfPacket@geonet@vanetza@@@std@@@std@@@std@@$00@relation@bimaps@boost@@@1@@Z
	??$?0V?$mutant_relation@U?$tagged@$$CBUTimer@CbfPacketBuffer@geonet@vanetza@@Uleft@member_at@relation@bimaps@boost@@@tags@bimaps@boost@@U?$tagged@$$CBV?$tuple@VAddress@geonet@vanetza@@VSequenceNumber@23@@std@@Uright@member_at@relation@bimaps@boost@@@234@V?$_List_iterator@V?$_List_val@U?$_List_simple_types@VCbfPacket@geonet@vanetza@@@std@@@std@@@std@@$00@relation@bimaps@boost@@@?$allocator@U?$hashed_index_node@U?$ordered_index_node@Unull_augment_policy@detail@multi_index@boost@@U?$index_node_base@V?$mutant_relation@U?$tagged@$$CBUTimer@CbfPacketBuffer@geonet@vanetza@@Uleft@member_at@relation@bimaps@boost@@@tags@bimaps@boost@@U?$tagged@$$CBV?$tuple@VAddress@geonet@vanetza@@VSequenceNumber@23@@std@@Uright@member_at@relation@bimaps@boost@@@234@V?$_List_iterator@V?$_List_val@U?$_List_simple_types@VCbfPacket@geonet@vanetza@@@std@@@std@@@std@@$00@relation@bimaps@boost@@V?$allocator@V?$mutant_relation@U?$tagged@$$CBUTimer@CbfPacketBuffer@geonet@vanetza@@Uleft@member_at@relation@bimaps@boost@@@tags@bimaps@boost@@U?$tagged@$$CBV?$tuple@VAddress@geonet@vanetza@@VSequenceNumber@23@@std@@Uright@member_at@relation@bimaps@boost@@@234@V?$_List_iterator@V?$_List_val@U?$_List_simple_types@VCbfPacket@geonet@vanetza@@@std@@@std@@@std@@$00@relation@bimaps@boost@@@std@@@234@@detail@multi_index@boost@@@detail@multi_index@boost@@@std@@QEAA@AEBV?$allocator@V?$mutant_relation@U?$tagged@$$CBUTimer@CbfPacketBuffer@geonet@vanetza@@Uleft@member_at@relation@bimaps@boost@@@tags@bimaps@boost@@U?$tagged@$$CBV?$tuple@VAddress@geonet@vanetza@@VSequenceNumber@23@@std@@Uright@member_at@relation@bimaps@boost@@@234@V?$_List_iterator@V?$_List_val@U?$_List_simple_types@VCbfPacket@geonet@vanetza@@@std@@@std@@@std@@$00@relation@bimaps@boost@@@1@@Z
	??$?0V?$mutant_relation@U?$tagged@$$CBUTimer@CbfPacketBuffer@geonet@vanetza@@Uleft@member_at@relation@bimaps@boost@@@tags@bimaps@boost@@U?$tagged@$$CBV?$tuple@VAddress@geonet@vanetza@@VSequenceNumber@23@@std@@Uright@member_at@relation@bimaps@boost@@@234@V?$_List_iterator@V?$_List_val@U?$_List_simple_types@VCbfPacket@geonet@vanetza@@@std@@@std@@@std@@$00@relation@bimaps@boost@@@?$allocator@_K@std@@QEAA@AEBV?$allocator@V?$mutant_relation@U?$tagged@$$CBUTimer@CbfPacketBuffer@geonet@vanetza@@Uleft@member_at@relation@bimaps@boost@@@tags@bimaps@boost@@U?$tagged@$$CBV?$tuple@VAddress@geonet@vanetza@@VSequenceNumber@23@@std@@Uright@member_at@relation@bimaps@boost@@@234@V?$_List_iterator@V?$_List_val@U?$_List_simple_types@VCbfPacket@geonet@vanetza@@@std@@@std@@@std@@$00@relation@bimaps@boost@@@1@@Z
	??$?0V?$mutant_relation@U?$tagged@$$CBUTimer@CbfPacketBuffer@geonet@vanetza@@Uleft@member_at@relation@bimaps@boost@@@tags@bimaps@boost@@U?$tagged@$$CBV?$tuple@VAddress@geonet@vanetza@@VSequenceNumber@23@@std@@Uright@member_at@relation@bimaps@boost@@@234@V?$_List_iterator@V?$_List_val@U?$_List_simple_types@VCbfPacket@geonet@vanetza@@@std@@@std@@@std@@$00@relation@bimaps@boost@@@?$relation_info_hook@U?$tagged@$$CBUTimer@CbfPacketBuffer@geonet@vanetza@@Uleft@member_at@relation@bimaps@boost@@@tags@bimaps@boost@@U?$tagged@$$CBV?$tuple@VAddress@geonet@vanetza@@VSequenceNumber@23@@std@@Uright@member_at@relation@bimaps@boost@@@234@V?$_List_iterator@V?$_List_val@U?$_List_simple_types@VCbfPacket@geonet@vanetza@@@std@@@std@@@std@@$00@detail@relation@bimaps@boost@@IEAA@AEBV?$mutant_relation@U?$tagged@$$CBUTimer@CbfPacketBuffer@geonet@vanetza@@Uleft@member_at@relation@bimaps@boost@@@tags@bimaps@boost@@U?$tagged@$$CBV?$tuple@VAddress@geonet@vanetza@@VSequenceNumber@23@@std@@Uright@member_at@relation@bimaps@boost@@@234@V?$_List_iterator@V?$_List_val@U?$_List_simple_types@VCbfPacket@geonet@vanetza@@@std@@@std@@@std@@$00@234@@Z
	??$?0V?$quantity@V?$unit@Udimensionless_type@units@boost@@U?$homogeneous_system@U?$list@Umeter_base_unit@si@units@boost@@U?$list@U?$scaled_base_unit@Ugram_base_unit@cgs@units@boost@@U?$scale@$09V?$static_rational@$02$00@units@boost@@@34@@units@boost@@U?$list@Usecond_base_unit@si@units@boost@@U?$list@Uampere_base_unit@si@units@boost@@U?$list@Ukelvin_base_unit@si@units@boost@@U?$list@Umole_base_unit@si@units@boost@@U?$list@Ucandela_base_unit@si@units@boost@@U?$list@Uradian_base_unit@angle@units@boost@@U?$list@Usteradian_base_unit@angle@units@boost@@Udimensionless_type@34@@34@@34@@34@@34@@34@@34@@23@@34@@units@boost@@@23@X@units@boost@@N@units@boost@@$0A@@?$duration@NU?$ratio@$00$00@std@@@chrono@std@@QEAA@AEBV?$quantity@V?$unit@Udimensionless_type@units@boost@@U?$homogeneous_system@U?$list@Umeter_base_unit@si@units@boost@@U?$list@U?$scaled_base_unit@Ugram_base_unit@cgs@units@boost@@U?$scale@$09V?$static_rational@$02$00@units@boost@@@34@@units@boost@@U?$list@Usecond_base_unit@si@units@boost@@U?$list@Uampere_base_unit@si@units@boost@@U?$list@Ukelvin_base_unit@si@units@boost@@U?$list@Umole_base_unit@si@units@boost@@U?$list@Ucandela_base_unit@si@units@boost@@U?$list@Uradian_base_unit@angle@units@boost@@U?$list@Usteradian_base_unit@angle@units@boost@@Udimensionless_type@34@@34@@34@@34@@34@@34@@34@@23@@34@@units@boost@@@23@X@units@boost@@N@units@boost@@@Z
	??$?0V?$quantity@V?$unit@Udimensionless_type@units@boost@@U?$homogeneous_system@U?$list@Umeter_base_unit@si@units@boost@@U?$list@U?$scaled_base_unit@Ugram_base_unit@cgs@units@boost@@U?$scale@$09V?$static_rational@$02$00@units@boost@@@34@@units@boost@@U?$list@Usecond_base_unit@si@units@boost@@U?$list@Uampere_base_unit@si@units@boost@@U?$list@Ukelvin_base_unit@si@units@boost@@U?$list@Umole_base_unit@si@units@boost@@U?$list@Ucandela_base_unit@si@units@boost@@U?$list@Uradian_base_unit@angle@units@boost@@U?$list@Usteradian_base_unit@angle@units@boost@@Udimensionless_type@34@@34@@34@@34@@34@@34@@34@@23@@34@@units@boost@@@23@X@units@boost@@N@units@boost@@$0A@@?$duration@_JU?$ratio@$00$00@std@@@chrono@std@@QEAA@AEBV?$quantity@V?$unit@Udimensionless_type@units@boost@@U?$homogeneous_system@U?$list@Umeter_base_unit@si@units@boost@@U?$list@U?$scaled_base_unit@Ugram_base_unit@cgs@units@boost@@U?$scale@$09V?$static_rational@$02$00@units@boost@@@34@@units@boost@@U?$list@Usecond_base_unit@si@units@boost@@U?$list@Uampere_base_unit@si@units@boost@@U?$list@Ukelvin_base_unit@si@units@boost@@U?$list@Umole_base_unit@si@units@boost@@U?$list@Ucandela_base_unit@si@units@boost@@U?$list@Uradian_base_unit@angle@units@boost@@U?$list@Usteradian_base_unit@angle@units@boost@@Udimensionless_type@34@@34@@34@@34@@34@@34@@34@@23@@34@@units@boost@@@23@X@units@boost@@N@units@boost@@@Z
	??$?0V?$time_point@VClock@vanetza@@V?$duration@_JU?$ratio@$00$0PECEA@@std@@@chrono@std@@@chrono@std@@$$V$0A@@?$tuple@$$QEAV?$time_point@VClock@vanetza@@V?$duration@_JU?$ratio@$00$0PECEA@@std@@@chrono@std@@@chrono@std@@@std@@QEAA@$$QEAV?$time_point@VClock@vanetza@@V?$duration@_JU?$ratio@$00$0PECEA@@std@@@chrono@std@@@chrono@1@@Z
	??$?0V?$time_point@VClock@vanetza@@V?$duration@_JU?$ratio@$00$0PECEA@@std@@@chrono@std@@@chrono@std@@@?$_Tuple_val@$$QEAV?$time_point@VClock@vanetza@@V?$duration@_JU?$ratio@$00$0PECEA@@std@@@chrono@std@@@chrono@std@@@std@@QEAA@$$QEAV?$time_point@VClock@vanetza@@V?$duration@_JU?$ratio@$00$0PECEA@@std@@@chrono@std@@@chrono@1@@Z
	??$?0V?$transform_iterator@V?$default_constructible_unary_fn_wrapper@V?$function@$$A6A?AU?$pair@AEBVMacAddress@vanetza@@AEAVLocationTableEntry@geonet@2@@std@@AEAU?$pair@$$CBVMacAddress@vanetza@@UValueWithHandle@?$SoftStateMap@VMacAddress@vanetza@@VLocationTableEntry@geonet@2@VLocationTableEntryCreator@42@@geonet@2@@2@@Z@std@@U?$pair@AEBVMacAddress@vanetza@@AEAVLocationTableEntry@geonet@2@@2@@range_detail@boost@@V?$filter_iterator@V?$default_constructible_unary_fn_wrapper@V?$function@$$A6A_NAEBU?$pair@$$CBVMacAddress@vanetza@@UValueWithHandle@?$SoftStateMap@VMacAddress@vanetza@@VLocationTableEntry@geonet@2@VLocationTableEntryCreator@42@@geonet@2@@std@@@Z@std@@_N@range_detail@boost@@V?$_List_iterator@V?$_List_val@U?$_List_simple_types@U?$pair@$$CBVMacAddress@vanetza@@UValueWithHandle@?$SoftStateMap@VMacAddress@vanetza@@VLocationTableEntry@geonet@2@VLocationTableEntryCreator@42@@geonet@2@@std@@@std@@@std@@@std@@@iterators@3@Uuse_default@3@U63@@iterators@boost@@@?$iterator_range@V?$transform_iterator@V?$default_constructible_unary_fn_wrapper@V?$function@$$A6A?AU?$pair@AEBVMacAddress@vanetza@@AEAVLocationTableEntry@geonet@2@@std@@AEAU?$pair@$$CBVMacAddress@vanetza@@UValueWithHandle@?$SoftStateMap@VMacAddress@vanetza@@VLocationTableEntry@geonet@2@VLocationTableEntryCreator@42@@geonet@2@@2@@Z@std@@U?$pair@AEBVMacAddress@vanetza@@AEAVLocationTableEntry@geonet@2@@2@@range_detail@boost@@V?$filter_iterator@V?$default_constructible_unary_fn_wrapper@V?$function@$$A6A_NAEBU?$pair@$$CBVMacAddress@vanetza@@UValueWithHandle@?$SoftStateMap@VMacAddress@vanetza@@VLocationTableEntry@geonet@2@VLocationTableEntryCreator@42@@geonet@2@@std@@@Z@std@@_N@range_detail@boost@@V?$_List_iterator@V?$_List_val@U?$_List_simple_types@U?$pair@$$CBVMacAddress@vanetza@@UValueWithHandle@?$SoftStateMap@VMacAddress@vanetza@@VLocationTableEntry@geonet@2@VLocationTableEntryCreator@42@@geonet@2@@std@@@std@@@std@@@std@@@iterators@3@Uuse_default@3@U63@@iterators@boost@@@boost@@QEAA@V?$transform_iterator@V?$default_constructible_unary_fn_wrapper@V?$function@$$A6A?AU?$pair@AEBVMacAddress@vanetza@@AEAVLocationTableEntry@geonet@2@@std@@AEAU?$pair@$$CBVMacAddress@vanetza@@UValueWithHandle@?$SoftStateMap@VMacAddress@vanetza@@VLocationTableEntry@geonet@2@VLocationTableEntryCreator@42@@geonet@2@@2@@Z@std@@U?$pair@AEBVMacAddress@vanetza@@AEAVLocationTableEntry@geonet@2@@2@@range_detail@boost@@V?$filter_iterator@V?$default_constructible_unary_fn_wrapper@V?$function@$$A6A_NAEBU?$pair@$$CBVMacAddress@vanetza@@UValueWithHandle@?$SoftStateMap@VMacAddress@vanetza@@VLocationTableEntry@geonet@2@VLocationTableEntryCreator@42@@geonet@2@@std@@@Z@std@@_N@range_detail@boost@@V?$_List_iterator@V?$_List_val@U?$_List_simple_types@U?$pair@$$CBVMacAddress@vanetza@@UValueWithHandle@?$SoftStateMap@VMacAddress@vanetza@@VLocationTableEntry@geonet@2@VLocationTableEntryCreator@42@@geonet@2@@std@@@std@@@std@@@std@@@iterators@3@Uuse_default@3@U63@@iterators@1@0@Z
	??$?0V?$transform_iterator@V?$default_constructible_unary_fn_wrapper@V?$function@$$A6A?AU?$pair@AEBVMacAddress@vanetza@@AEAVLocationTableEntry@geonet@2@@std@@AEAU?$pair@$$CBVMacAddress@vanetza@@UValueWithHandle@?$SoftStateMap@VMacAddress@vanetza@@VLocationTableEntry@geonet@2@VLocationTableEntryCreator@42@@geonet@2@@2@@Z@std@@U?$pair@AEBVMacAddress@vanetza@@AEAVLocationTableEntry@geonet@2@@2@@range_detail@boost@@V?$filter_iterator@V?$default_constructible_unary_fn_wrapper@V?$function@$$A6A_NAEBU?$pair@$$CBVMacAddress@vanetza@@UValueWithHandle@?$SoftStateMap@VMacAddress@vanetza@@VLocationTableEntry@geonet@2@VLocationTableEntryCreator@42@@geonet@2@@std@@@Z@std@@_N@range_detail@boost@@V?$_List_iterator@V?$_List_val@U?$_List_simple_types@U?$pair@$$CBVMacAddress@vanetza@@UValueWithHandle@?$SoftStateMap@VMacAddress@vanetza@@VLocationTableEntry@geonet@2@VLocationTableEntryCreator@42@@geonet@2@@std@@@std@@@std@@@std@@@iterators@3@Uuse_default@3@U63@@iterators@boost@@@?$iterator_range_base@V?$transform_iterator@V?$default_constructible_unary_fn_wrapper@V?$function@$$A6A?AU?$pair@AEBVMacAddress@vanetza@@AEAVLocationTableEntry@geonet@2@@std@@AEAU?$pair@$$CBVMacAddress@vanetza@@UValueWithHandle@?$SoftStateMap@VMacAddress@vanetza@@VLocationTableEntry@geonet@2@VLocationTableEntryCreator@42@@geonet@2@@2@@Z@std@@U?$pair@AEBVMacAddress@vanetza@@AEAVLocationTableEntry@geonet@2@@2@@range_detail@boost@@V?$filter_iterator@V?$default_constructible_unary_fn_wrapper@V?$function@$$A6A_NAEBU?$pair@$$CBVMacAddress@vanetza@@UValueWithHandle@?$SoftStateMap@VMacAddress@vanetza@@VLocationTableEntry@geonet@2@VLocationTableEntryCreator@42@@geonet@2@@std@@@Z@std@@_N@range_detail@boost@@V?$_List_iterator@V?$_List_val@U?$_List_simple_types@U?$pair@$$CBVMacAddress@vanetza@@UValueWithHandle@?$SoftStateMap@VMacAddress@vanetza@@VLocationTableEntry@geonet@2@VLocationTableEntryCreator@42@@geonet@2@@std@@@std@@@std@@@std@@@iterators@3@Uuse_default@3@U63@@iterators@boost@@Ubidirectional_traversal_tag@23@@iterator_range_detail@boost@@IEAA@V?$transform_iterator@V?$default_constructible_unary_fn_wrapper@V?$function@$$A6A?AU?$pair@AEBVMacAddress@vanetza@@AEAVLocationTableEntry@geonet@2@@std@@AEAU?$pair@$$CBVMacAddress@vanetza@@UValueWithHandle@?$SoftStateMap@VMacAddress@vanetza@@VLocationTableEntry@geonet@2@VLocationTableEntryCreator@42@@geonet@2@@2@@Z@std@@U?$pair@AEBVMacAddress@vanetza@@AEAVLocationTableEntry@geonet@2@@2@@range_detail@boost@@V?$filter_iterator@V?$default_constructible_unary_fn_wrapper@V?$function@$$A6A_NAEBU?$pair@$$CBVMacAddress@vanetza@@UValueWithHandle@?$SoftStateMap@VMacAddress@vanetza@@VLocationTableEntry@geonet@2@VLocationTableEntryCreator@42@@geonet@2@@std@@@Z@std@@_N@range_detail@boost@@V?$_List_iterator@V?$_List_val@U?$_List_simple_types@U?$pair@$$CBVMacAddress@vanetza@@UValueWithHandle@?$SoftStateMap@VMacAddress@vanetza@@VLocationTableEntry@geonet@2@VLocationTableEntryCreator@42@@geonet@2@@std@@@std@@@std@@@std@@@iterators@3@Uuse_default@3@U63@@iterators@2@0@Z
	??$?0V?$transform_iterator@V?$default_constructible_unary_fn_wrapper@V?$function@$$A6A?AU?$pair@AEBVMacAddress@vanetza@@AEAVLocationTableEntry@geonet@2@@std@@AEAU?$pair@$$CBVMacAddress@vanetza@@UValueWithHandle@?$SoftStateMap@VMacAddress@vanetza@@VLocationTableEntry@geonet@2@VLocationTableEntryCreator@42@@geonet@2@@2@@Z@std@@U?$pair@AEBVMacAddress@vanetza@@AEAVLocationTableEntry@geonet@2@@2@@range_detail@boost@@V?$filter_iterator@V?$default_constructible_unary_fn_wrapper@V?$function@$$A6A_NAEBU?$pair@$$CBVMacAddress@vanetza@@UValueWithHandle@?$SoftStateMap@VMacAddress@vanetza@@VLocationTableEntry@geonet@2@VLocationTableEntryCreator@42@@geonet@2@@std@@@Z@std@@_N@range_detail@boost@@V?$_List_iterator@V?$_List_val@U?$_List_simple_types@U?$pair@$$CBVMacAddress@vanetza@@UValueWithHandle@?$SoftStateMap@VMacAddress@vanetza@@VLocationTableEntry@geonet@2@VLocationTableEntryCreator@42@@geonet@2@@std@@@std@@@std@@@std@@@iterators@3@Uuse_default@3@U63@@iterators@boost@@@?$iterator_range_base@V?$transform_iterator@V?$default_constructible_unary_fn_wrapper@V?$function@$$A6A?AU?$pair@AEBVMacAddress@vanetza@@AEAVLocationTableEntry@geonet@2@@std@@AEAU?$pair@$$CBVMacAddress@vanetza@@UValueWithHandle@?$SoftStateMap@VMacAddress@vanetza@@VLocationTableEntry@geonet@2@VLocationTableEntryCreator@42@@geonet@2@@2@@Z@std@@U?$pair@AEBVMacAddress@vanetza@@AEAVLocationTableEntry@geonet@2@@2@@range_detail@boost@@V?$filter_iterator@V?$default_constructible_unary_fn_wrapper@V?$function@$$A6A_NAEBU?$pair@$$CBVMacAddress@vanetza@@UValueWithHandle@?$SoftStateMap@VMacAddress@vanetza@@VLocationTableEntry@geonet@2@VLocationTableEntryCreator@42@@geonet@2@@std@@@Z@std@@_N@range_detail@boost@@V?$_List_iterator@V?$_List_val@U?$_List_simple_types@U?$pair@$$CBVMacAddress@vanetza@@UValueWithHandle@?$SoftStateMap@VMacAddress@vanetza@@VLocationTableEntry@geonet@2@VLocationTableEntryCreator@42@@geonet@2@@std@@@std@@@std@@@std@@@iterators@3@Uuse_default@3@U63@@iterators@boost@@Uincrementable_traversal_tag@23@@iterator_range_detail@boost@@IEAA@V?$transform_iterator@V?$default_constructible_unary_fn_wrapper@V?$function@$$A6A?AU?$pair@AEBVMacAddress@vanetza@@AEAVLocationTableEntry@geonet@2@@std@@AEAU?$pair@$$CBVMacAddress@vanetza@@UValueWithHandle@?$SoftStateMap@VMacAddress@vanetza@@VLocationTableEntry@geonet@2@VLocationTableEntryCreator@42@@geonet@2@@2@@Z@std@@U?$pair@AEBVMacAddress@vanetza@@AEAVLocationTableEntry@geonet@2@@2@@range_detail@boost@@V?$filter_iterator@V?$default_constructible_unary_fn_wrapper@V?$function@$$A6A_NAEBU?$pair@$$CBVMacAddress@vanetza@@UValueWithHandle@?$SoftStateMap@VMacAddress@vanetza@@VLocationTableEntry@geonet@2@VLocationTableEntryCreator@42@@geonet@2@@std@@@Z@std@@_N@range_detail@boost@@V?$_List_iterator@V?$_List_val@U?$_List_simple_types@U?$pair@$$CBVMacAddress@vanetza@@UValueWithHandle@?$SoftStateMap@VMacAddress@vanetza@@VLocationTableEntry@geonet@2@VLocationTableEntryCreator@42@@geonet@2@@std@@@std@@@std@@@std@@@iterators@3@Uuse_default@3@U63@@iterators@2@0@Z
	??$?0V?$tuple@AEBV?$tuple@VAddress@geonet@vanetza@@VSequenceNumber@23@@std@@@std@@V?$tuple@$$QEA_K@1@$0A@$$Z$0A@@?$pair@$$CBV?$tuple@VAddress@geonet@vanetza@@VSequenceNumber@23@@std@@UValueWithHandle@?$SoftStateMap@V?$tuple@VAddress@geonet@vanetza@@VSequenceNumber@23@@std@@_KU?$SoftStateDefaultCreator@_K@geonet@vanetza@@@geonet@vanetza@@@std@@QEAA@AEAV?$tuple@AEBV?$tuple@VAddress@geonet@vanetza@@VSequenceNumber@23@@std@@@1@AEAV?$tuple@$$QEA_K@1@U?$integer_sequence@_K$0A@@1@2@Z
	??$?0V?$tuple@AEBV?$tuple@VAddress@geonet@vanetza@@VSequenceNumber@23@@std@@@std@@V?$tuple@$$V@1@$0A@$$Z$S@?$pair@$$CBV?$tuple@VAddress@geonet@vanetza@@VSequenceNumber@23@@std@@_K@std@@QEAA@AEAV?$tuple@AEBV?$tuple@VAddress@geonet@vanetza@@VSequenceNumber@23@@std@@@1@AEAV?$tuple@$$V@1@U?$integer_sequence@_K$0A@@1@U?$integer_sequence@_K$S@1@@Z
	??$?0V?$tuple@AEBVMacAddress@vanetza@@@std@@V?$tuple@$$QEAVLocationTableEntry@geonet@vanetza@@@1@$0A@$$Z$0A@@?$pair@$$CBVMacAddress@vanetza@@UValueWithHandle@?$SoftStateMap@VMacAddress@vanetza@@VLocationTableEntry@geonet@2@VLocationTableEntryCreator@42@@geonet@2@@std@@QEAA@AEAV?$tuple@AEBVMacAddress@vanetza@@@1@AEAV?$tuple@$$QEAVLocationTableEntry@geonet@vanetza@@@1@U?$integer_sequence@_K$0A@@1@2@Z
	??$?0V?$tuple@AEBW4UpperProtocol@geonet@vanetza@@@std@@V?$tuple@$$V@1@$0A@$$Z$S@?$pair@$$CBW4UpperProtocol@geonet@vanetza@@PEAVTransportInterface@23@@std@@QEAA@AEAV?$tuple@AEBW4UpperProtocol@geonet@vanetza@@@1@AEAV?$tuple@$$V@1@U?$integer_sequence@_K$0A@@1@U?$integer_sequence@_K$S@1@@Z
	??$?0V?$tuple@V?$unique_ptr@V?$ExtendedPdu@UGeoBroadcastHeader@geonet@vanetza@@@geonet@vanetza@@U?$default_delete@V?$ExtendedPdu@UGeoBroadcastHeader@geonet@vanetza@@@geonet@vanetza@@@std@@@std@@V?$unique_ptr@VChunkPacket@vanetza@@U?$default_delete@VChunkPacket@vanetza@@@std@@@2@@std@@$$V$0A@@?$tuple@$$QEAV?$tuple@V?$unique_ptr@V?$ExtendedPdu@UGeoBroadcastHeader@geonet@vanetza@@@geonet@vanetza@@U?$default_delete@V?$ExtendedPdu@UGeoBroadcastHeader@geonet@vanetza@@@geonet@vanetza@@@std@@@std@@V?$unique_ptr@VChunkPacket@vanetza@@U?$default_delete@VChunkPacket@vanetza@@@std@@@2@@std@@@std@@QEAA@$$QEAV?$tuple@V?$unique_ptr@V?$ExtendedPdu@UGeoBroadcastHeader@geonet@vanetza@@@geonet@vanetza@@U?$default_delete@V?$ExtendedPdu@UGeoBroadcastHeader@geonet@vanetza@@@geonet@vanetza@@@std@@@std@@V?$unique_ptr@VChunkPacket@vanetza@@U?$default_delete@VChunkPacket@vanetza@@@std@@@2@@1@@Z
	??$?0V?$tuple@V?$unique_ptr@V?$ExtendedPdu@UGeoBroadcastHeader@geonet@vanetza@@@geonet@vanetza@@U?$default_delete@V?$ExtendedPdu@UGeoBroadcastHeader@geonet@vanetza@@@geonet@vanetza@@@std@@@std@@V?$unique_ptr@VChunkPacket@vanetza@@U?$default_delete@VChunkPacket@vanetza@@@std@@@2@@std@@@?$_Tuple_val@$$QEAV?$tuple@V?$unique_ptr@V?$ExtendedPdu@UGeoBroadcastHeader@geonet@vanetza@@@geonet@vanetza@@U?$default_delete@V?$ExtendedPdu@UGeoBroadcastHeader@geonet@vanetza@@@geonet@vanetza@@@std@@@std@@V?$unique_ptr@VChunkPacket@vanetza@@U?$default_delete@VChunkPacket@vanetza@@@std@@@2@@std@@@std@@QEAA@$$QEAV?$tuple@V?$unique_ptr@V?$ExtendedPdu@UGeoBroadcastHeader@geonet@vanetza@@@geonet@vanetza@@U?$default_delete@V?$ExtendedPdu@UGeoBroadcastHeader@geonet@vanetza@@@geonet@vanetza@@@std@@@std@@V?$unique_ptr@VChunkPacket@vanetza@@U?$default_delete@VChunkPacket@vanetza@@@std@@@2@@1@@Z
	??$?0V?$tuple@VAddress@geonet@vanetza@@VSequenceNumber@23@@std@@@?$allocator@PEAU?$hashed_index_node_impl@V?$allocator@D@std@@@detail@multi_index@boost@@@std@@QEAA@AEBV?$allocator@V?$tuple@VAddress@geonet@vanetza@@VSequenceNumber@23@@std@@@1@@Z
	??$?0V?$tuple@VAddress@geonet@vanetza@@VSequenceNumber@23@@std@@@?$allocator@U?$hashed_index_base_node_impl@V?$allocator@D@std@@@detail@multi_index@boost@@@std@@QEAA@AEBV?$allocator@V?$tuple@VAddress@geonet@vanetza@@VSequenceNumber@23@@std@@@1@@Z
	??$?0V?$tuple@VAddress@geonet@vanetza@@VSequenceNumber@23@@std@@@?$allocator@U?$sequenced_index_node@U?$hashed_index_node@U?$index_node_base@V?$tuple@VAddress@geonet@vanetza@@VSequenceNumber@23@@std@@V?$allocator@V?$tuple@VAddress@geonet@vanetza@@VSequenceNumber@23@@std@@@2@@detail@multi_index@boost@@@detail@multi_index@boost@@@detail@multi_index@boost@@@std@@QEAA@AEBV?$allocator@V?$tuple@VAddress@geonet@vanetza@@VSequenceNumber@23@@std@@@1@@Z
	??$?0V?$tuple@VAddress@geonet@vanetza@@VSequenceNumber@23@@std@@@?$allocator@_K@std@@QEAA@AEBV?$allocator@V?$tuple@VAddress@geonet@vanetza@@VSequenceNumber@23@@std@@@1@@Z
	??$?0V?$tuple@VExpiry@packet_buffer@geonet@vanetza@@V?$unique_ptr@VData@packet_buffer@geonet@vanetza@@U?$default_delete@VData@packet_buffer@geonet@vanetza@@@std@@@std@@@std@@@?$_List_node_emplace_op2@V?$allocator@U?$_List_node@V?$tuple@VExpiry@packet_buffer@geonet@vanetza@@V?$unique_ptr@VData@packet_buffer@geonet@vanetza@@U?$default_delete@VData@packet_buffer@geonet@vanetza@@@std@@@std@@@std@@PEAX@std@@@std@@@std@@QEAA@AEAV?$allocator@U?$_List_node@V?$tuple@VExpiry@packet_buffer@geonet@vanetza@@V?$unique_ptr@VData@packet_buffer@geonet@vanetza@@U?$default_delete@VData@packet_buffer@geonet@vanetza@@@std@@@std@@@std@@PEAX@std@@@1@$$QEAV?$tuple@VExpiry@packet_buffer@geonet@vanetza@@V?$unique_ptr@VData@packet_buffer@geonet@vanetza@@U?$default_delete@VData@packet_buffer@geonet@vanetza@@@std@@@std@@@1@@Z
	??$?0V?$unique_ptr@V?$ExtendedPdu@UGeoBroadcastHeader@geonet@vanetza@@@geonet@vanetza@@U?$default_delete@V?$ExtendedPdu@UGeoBroadcastHeader@geonet@vanetza@@@geonet@vanetza@@@std@@@std@@$0A@@?$tuple@V?$unique_ptr@V?$ExtendedPdu@UGeoBroadcastHeader@geonet@vanetza@@@geonet@vanetza@@U?$default_delete@V?$ExtendedPdu@UGeoBroadcastHeader@geonet@vanetza@@@geonet@vanetza@@@std@@@std@@V?$unique_ptr@VChunkPacket@vanetza@@U?$default_delete@VChunkPacket@vanetza@@@std@@@2@@std@@QEAA@XZ
	??$?0V?$unique_ptr@V?$ExtendedPdu@UGeoBroadcastHeader@geonet@vanetza@@@geonet@vanetza@@U?$default_delete@V?$ExtendedPdu@UGeoBroadcastHeader@geonet@vanetza@@@geonet@vanetza@@@std@@@std@@@?$_Tuple_val@V?$unique_ptr@V?$ExtendedPdu@UGeoBroadcastHeader@geonet@vanetza@@@geonet@vanetza@@U?$default_delete@V?$ExtendedPdu@UGeoBroadcastHeader@geonet@vanetza@@@geonet@vanetza@@@std@@@std@@@std@@QEAA@$$QEAV?$unique_ptr@V?$ExtendedPdu@UGeoBroadcastHeader@geonet@vanetza@@@geonet@vanetza@@U?$default_delete@V?$ExtendedPdu@UGeoBroadcastHeader@geonet@vanetza@@@geonet@vanetza@@@std@@@1@@Z
	??$?0V?$unique_ptr@V?$ExtendedPdu@UGeoBroadcastHeader@geonet@vanetza@@@geonet@vanetza@@U?$default_delete@V?$ExtendedPdu@UGeoBroadcastHeader@geonet@vanetza@@@geonet@vanetza@@@std@@@std@@V?$unique_ptr@VChunkPacket@vanetza@@U?$default_delete@VChunkPacket@vanetza@@@std@@@1@$0A@@?$tuple@V?$unique_ptr@V?$ExtendedPdu@UGeoBroadcastHeader@geonet@vanetza@@@geonet@vanetza@@U?$default_delete@V?$ExtendedPdu@UGeoBroadcastHeader@geonet@vanetza@@@geonet@vanetza@@@std@@@std@@V?$unique_ptr@VChunkPacket@vanetza@@U?$default_delete@VChunkPacket@vanetza@@@std@@@2@@std@@QEAA@$$QEAV?$unique_ptr@V?$ExtendedPdu@UGeoBroadcastHeader@geonet@vanetza@@@geonet@vanetza@@U?$default_delete@V?$ExtendedPdu@UGeoBroadcastHeader@geonet@vanetza@@@geonet@vanetza@@@std@@@1@$$QEAV?$unique_ptr@VChunkPacket@vanetza@@U?$default_delete@VChunkPacket@vanetza@@@std@@@1@@Z
	??$?0V?$unique_ptr@V?$ExtendedPdu@UShbHeader@geonet@vanetza@@@geonet@vanetza@@U?$default_delete@V?$ExtendedPdu@UShbHeader@geonet@vanetza@@@geonet@vanetza@@@std@@@std@@@?$_Tuple_val@V?$unique_ptr@V?$ExtendedPdu@UShbHeader@geonet@vanetza@@@geonet@vanetza@@U?$default_delete@V?$ExtendedPdu@UShbHeader@geonet@vanetza@@@geonet@vanetza@@@std@@@std@@@std@@QEAA@$$QEAV?$unique_ptr@V?$ExtendedPdu@UShbHeader@geonet@vanetza@@@geonet@vanetza@@U?$default_delete@V?$ExtendedPdu@UShbHeader@geonet@vanetza@@@geonet@vanetza@@@std@@@1@@Z
	??$?0V?$unique_ptr@V?$ExtendedPdu@UShbHeader@geonet@vanetza@@@geonet@vanetza@@U?$default_delete@V?$ExtendedPdu@UShbHeader@geonet@vanetza@@@geonet@vanetza@@@std@@@std@@V?$unique_ptr@VChunkPacket@vanetza@@U?$default_delete@VChunkPacket@vanetza@@@std@@@1@$0A@@?$tuple@V?$unique_ptr@V?$ExtendedPdu@UShbHeader@geonet@vanetza@@@geonet@vanetza@@U?$default_delete@V?$ExtendedPdu@UShbHeader@geonet@vanetza@@@geonet@vanetza@@@std@@@std@@V?$unique_ptr@VChunkPacket@vanetza@@U?$default_delete@VChunkPacket@vanetza@@@std@@@2@@std@@QEAA@$$QEAV?$unique_ptr@V?$ExtendedPdu@UShbHeader@geonet@vanetza@@@geonet@vanetza@@U?$default_delete@V?$ExtendedPdu@UShbHeader@geonet@vanetza@@@geonet@vanetza@@@std@@@1@$$QEAV?$unique_ptr@VChunkPacket@vanetza@@U?$default_delete@VChunkPacket@vanetza@@@std@@@1@@Z
	??$?0V?$unique_ptr@V?$ExtendedPdu@UTsbHeader@geonet@vanetza@@@geonet@vanetza@@U?$default_delete@V?$ExtendedPdu@UTsbHeader@geonet@vanetza@@@geonet@vanetza@@@std@@@std@@@?$_Tuple_val@V?$unique_ptr@V?$ExtendedPdu@UTsbHeader@geonet@vanetza@@@geonet@vanetza@@U?$default_delete@V?$ExtendedPdu@UTsbHeader@geonet@vanetza@@@geonet@vanetza@@@std@@@std@@@std@@QEAA@$$QEAV?$unique_ptr@V?$ExtendedPdu@UTsbHeader@geonet@vanetza@@@geonet@vanetza@@U?$default_delete@V?$ExtendedPdu@UTsbHeader@geonet@vanetza@@@geonet@vanetza@@@std@@@1@@Z
	??$?0V?$unique_ptr@V?$ExtendedPdu@UTsbHeader@geonet@vanetza@@@geonet@vanetza@@U?$default_delete@V?$ExtendedPdu@UTsbHeader@geonet@vanetza@@@geonet@vanetza@@@std@@@std@@V?$unique_ptr@VChunkPacket@vanetza@@U?$default_delete@VChunkPacket@vanetza@@@std@@@1@$0A@@?$tuple@V?$unique_ptr@V?$ExtendedPdu@UTsbHeader@geonet@vanetza@@@geonet@vanetza@@U?$default_delete@V?$ExtendedPdu@UTsbHeader@geonet@vanetza@@@geonet@vanetza@@@std@@@std@@V?$unique_ptr@VChunkPacket@vanetza@@U?$default_delete@VChunkPacket@vanetza@@@std@@@2@@std@@QEAA@$$QEAV?$unique_ptr@V?$ExtendedPdu@UTsbHeader@geonet@vanetza@@@geonet@vanetza@@U?$default_delete@V?$ExtendedPdu@UTsbHeader@geonet@vanetza@@@geonet@vanetza@@@std@@@1@$$QEAV?$unique_ptr@VChunkPacket@vanetza@@U?$default_delete@VChunkPacket@vanetza@@@std@@@1@@Z
	??$?0V?$unique_ptr@VChunkPacket@vanetza@@U?$default_delete@VChunkPacket@vanetza@@@std@@@std@@$0A@@?$tuple@V?$unique_ptr@VChunkPacket@vanetza@@U?$default_delete@VChunkPacket@vanetza@@@std@@@std@@@std@@QEAA@XZ
	??$?0V?$unique_ptr@VChunkPacket@vanetza@@U?$default_delete@VChunkPacket@vanetza@@@std@@@std@@@?$_Tuple_val@$$QEAV?$unique_ptr@VChunkPacket@vanetza@@U?$default_delete@VChunkPacket@vanetza@@@std@@@std@@@std@@QEAA@$$QEAV?$unique_ptr@VChunkPacket@vanetza@@U?$default_delete@VChunkPacket@vanetza@@@std@@@1@@Z
	??$?0V?$unique_ptr@VChunkPacket@vanetza@@U?$default_delete@VChunkPacket@vanetza@@@std@@@std@@@?$_Tuple_val@V?$unique_ptr@VChunkPacket@vanetza@@U?$default_delete@VChunkPacket@vanetza@@@std@@@std@@@std@@QEAA@$$QEAV?$unique_ptr@VChunkPacket@vanetza@@U?$default_delete@VChunkPacket@vanetza@@@std@@@1@@Z
	??$?0V?$unique_ptr@VData@packet_buffer@geonet@vanetza@@U?$default_delete@VData@packet_buffer@geonet@vanetza@@@std@@@std@@@?$_Tuple_val@V?$unique_ptr@VData@packet_buffer@geonet@vanetza@@U?$default_delete@VData@packet_buffer@geonet@vanetza@@@std@@@std@@@std@@QEAA@$$QEAV?$unique_ptr@VData@packet_buffer@geonet@vanetza@@U?$default_delete@VData@packet_buffer@geonet@vanetza@@@std@@@1@@Z
	??$?0V?$unique_ptr@VPdu@geonet@vanetza@@U?$default_delete@VPdu@geonet@vanetza@@@std@@@std@@@ByteBufferConvertible@vanetza@@QEAA@$$QEAV?$unique_ptr@VPdu@geonet@vanetza@@U?$default_delete@VPdu@geonet@vanetza@@@std@@@std@@@Z
	??$?0V?$unit@U?$list@U?$dim@Ulength_base_dimension@units@boost@@V?$static_rational@$00$00@23@@units@boost@@U?$list@U?$dim@Utime_base_dimension@units@boost@@V?$static_rational@$0?0$00@23@@units@boost@@Udimensionless_type@23@@23@@units@boost@@U?$homogeneous_system@U?$list@Umeter_base_unit@si@units@boost@@U?$list@U?$scaled_base_unit@Ugram_base_unit@cgs@units@boost@@U?$scale@$09V?$static_rational@$02$00@units@boost@@@34@@units@boost@@U?$list@Usecond_base_unit@si@units@boost@@U?$list@Uampere_base_unit@si@units@boost@@U?$list@Ukelvin_base_unit@si@units@boost@@U?$list@Umole_base_unit@si@units@boost@@U?$list@Ucandela_base_unit@si@units@boost@@U?$list@Uradian_base_unit@angle@units@boost@@U?$list@Usteradian_base_unit@angle@units@boost@@Udimensionless_type@34@@34@@34@@34@@34@@34@@34@@23@@34@@units@boost@@@23@X@units@boost@@N@?$quantity@V?$unit@U?$list@U?$dim@Ulength_base_dimension@units@boost@@V?$static_rational@$00$00@23@@units@boost@@U?$list@U?$dim@Utime_base_dimension@units@boost@@V?$static_rational@$0?0$00@23@@units@boost@@Udimensionless_type@23@@23@@units@boost@@U?$heterogeneous_system@U?$heterogeneous_system_impl@U?$list@U?$heterogeneous_system_dim@Umeter_base_unit@si@units@boost@@V?$static_rational@$00$00@34@@units@boost@@U?$list@U?$heterogeneous_system_dim@Usecond_base_unit@si@units@boost@@V?$static_rational@$0?0$00@34@@units@boost@@Udimensionless_type@23@@23@@units@boost@@U?$list@U?$dim@Ulength_base_dimension@units@boost@@V?$static_rational@$00$00@23@@units@boost@@U?$list@U?$dim@Utime_base_dimension@units@boost@@V?$static_rational@$0?0$00@23@@units@boost@@Udimensionless_type@23@@23@@23@U?$list@U?$scale_list_dim@U?$scale@$09V?$static_rational@$0?1$00@units@boost@@@units@boost@@@units@boost@@Udimensionless_type@23@@23@@units@boost@@@23@X@units@boost@@V?$BitNumber@I$0P@@vanetza@@@units@boost@@QEAA@AEBV?$quantity@V?$unit@U?$list@U?$dim@Ulength_base_dimension@units@boost@@V?$static_rational@$00$00@23@@units@boost@@U?$list@U?$dim@Utime_base_dimension@units@boost@@V?$static_rational@$0?0$00@23@@units@boost@@Udimensionless_type@23@@23@@units@boost@@U?$homogeneous_system@U?$list@Umeter_base_unit@si@units@boost@@U?$list@U?$scaled_base_unit@Ugram_base_unit@cgs@units@boost@@U?$scale@$09V?$static_rational@$02$00@units@boost@@@34@@units@boost@@U?$list@Usecond_base_unit@si@units@boost@@U?$list@Uampere_base_unit@si@units@boost@@U?$list@Ukelvin_base_unit@si@units@boost@@U?$list@Umole_base_unit@si@units@boost@@U?$list@Ucandela_base_unit@si@units@boost@@U?$list@Uradian_base_unit@angle@units@boost@@U?$list@Usteradian_base_unit@angle@units@boost@@Udimensionless_type@34@@34@@34@@34@@34@@34@@34@@23@@34@@units@boost@@@23@X@units@boost@@N@12@PEAX@Z
	??$?0V?$unit@U?$list@U?$dim@Ulength_base_dimension@units@boost@@V?$static_rational@$01$00@23@@units@boost@@Udimensionless_type@23@@units@boost@@U?$heterogeneous_system@U?$heterogeneous_system_impl@U?$list@U?$heterogeneous_system_dim@Umeter_base_unit@si@units@boost@@V?$static_rational@$01$00@34@@units@boost@@Udimensionless_type@23@@units@boost@@U?$list@U?$dim@Ulength_base_dimension@units@boost@@V?$static_rational@$01$00@23@@units@boost@@Udimensionless_type@23@@23@U?$list@U?$scale_list_dim@U?$scale@$09V?$static_rational@$05$00@units@boost@@@units@boost@@@units@boost@@Udimensionless_type@23@@23@@units@boost@@@23@X@units@boost@@H@?$quantity@V?$unit@U?$list@U?$dim@Ulength_base_dimension@units@boost@@V?$static_rational@$01$00@23@@units@boost@@Udimensionless_type@23@@units@boost@@U?$homogeneous_system@U?$list@Umeter_base_unit@si@units@boost@@U?$list@U?$scaled_base_unit@Ugram_base_unit@cgs@units@boost@@U?$scale@$09V?$static_rational@$02$00@units@boost@@@34@@units@boost@@U?$list@Usecond_base_unit@si@units@boost@@U?$list@Uampere_base_unit@si@units@boost@@U?$list@Ukelvin_base_unit@si@units@boost@@U?$list@Umole_base_unit@si@units@boost@@U?$list@Ucandela_base_unit@si@units@boost@@U?$list@Uradian_base_unit@angle@units@boost@@U?$list@Usteradian_base_unit@angle@units@boost@@Udimensionless_type@34@@34@@34@@34@@34@@34@@34@@23@@34@@units@boost@@@23@X@units@boost@@N@units@boost@@QEAA@AEBV?$quantity@V?$unit@U?$list@U?$dim@Ulength_base_dimension@units@boost@@V?$static_rational@$01$00@23@@units@boost@@Udimensionless_type@23@@units@boost@@U?$heterogeneous_system@U?$heterogeneous_system_impl@U?$list@U?$heterogeneous_system_dim@Umeter_base_unit@si@units@boost@@V?$static_rational@$01$00@34@@units@boost@@Udimensionless_type@23@@units@boost@@U?$list@U?$dim@Ulength_base_dimension@units@boost@@V?$static_rational@$01$00@23@@units@boost@@Udimensionless_type@23@@23@U?$list@U?$scale_list_dim@U?$scale@$09V?$static_rational@$05$00@units@boost@@@units@boost@@@units@boost@@Udimensionless_type@23@@23@@units@boost@@@23@X@units@boost@@H@12@PEAX@Z
	??$?0V?$unit@U?$list@U?$dim@Uplane_angle_base_dimension@units@boost@@V?$static_rational@$00$00@23@@units@boost@@Udimensionless_type@23@@units@boost@@U?$heterogeneous_system@U?$heterogeneous_system_impl@U?$list@U?$heterogeneous_system_dim@Udegree_base_unit@angle@units@boost@@V?$static_rational@$00$00@34@@units@boost@@Udimensionless_type@23@@units@boost@@U?$list@U?$dim@Uplane_angle_base_dimension@units@boost@@V?$static_rational@$00$00@23@@units@boost@@Udimensionless_type@23@@23@U?$list@U?$scale_list_dim@U?$scale@$09V?$static_rational@$0?6$00@units@boost@@@units@boost@@@units@boost@@Udimensionless_type@23@@23@@units@boost@@@23@X@units@boost@@H@?$quantity@V?$unit@U?$list@U?$dim@Uplane_angle_base_dimension@units@boost@@V?$static_rational@$00$00@23@@units@boost@@Udimensionless_type@23@@units@boost@@U?$homogeneous_system@U?$list@Udegree_base_unit@angle@units@boost@@Udimensionless_type@34@@units@boost@@@23@X@units@boost@@N@units@boost@@QEAA@AEBV?$quantity@V?$unit@U?$list@U?$dim@Uplane_angle_base_dimension@units@boost@@V?$static_rational@$00$00@23@@units@boost@@Udimensionless_type@23@@units@boost@@U?$heterogeneous_system@U?$heterogeneous_system_impl@U?$list@U?$heterogeneous_system_dim@Udegree_base_unit@angle@units@boost@@V?$static_rational@$00$00@34@@units@boost@@Udimensionless_type@23@@units@boost@@U?$list@U?$dim@Uplane_angle_base_dimension@units@boost@@V?$static_rational@$00$00@23@@units@boost@@Udimensionless_type@23@@23@U?$list@U?$scale_list_dim@U?$scale@$09V?$static_rational@$0?6$00@units@boost@@@units@boost@@@units@boost@@Udimensionless_type@23@@23@@units@boost@@@23@X@units@boost@@H@12@PEAX@Z
	??$?0V?$unit@U?$list@U?$dim@Uplane_angle_base_dimension@units@boost@@V?$static_rational@$00$00@23@@units@boost@@Udimensionless_type@23@@units@boost@@U?$homogeneous_system@U?$list@Udegree_base_unit@angle@units@boost@@Udimensionless_type@34@@units@boost@@@23@X@units@boost@@G@?$quantity@V?$unit@U?$list@U?$dim@Uplane_angle_base_dimension@units@boost@@V?$static_rational@$00$00@23@@units@boost@@Udimensionless_type@23@@units@boost@@U?$homogeneous_system@U?$list@Umeter_base_unit@si@units@boost@@U?$list@U?$scaled_base_unit@Ugram_base_unit@cgs@units@boost@@U?$scale@$09V?$static_rational@$02$00@units@boost@@@34@@units@boost@@U?$list@Usecond_base_unit@si@units@boost@@U?$list@Uampere_base_unit@si@units@boost@@U?$list@Ukelvin_base_unit@si@units@boost@@U?$list@Umole_base_unit@si@units@boost@@U?$list@Ucandela_base_unit@si@units@boost@@U?$list@Uradian_base_unit@angle@units@boost@@U?$list@Usteradian_base_unit@angle@units@boost@@Udimensionless_type@34@@34@@34@@34@@34@@34@@34@@23@@34@@units@boost@@@23@X@units@boost@@N@units@boost@@QEAA@AEBV?$quantity@V?$unit@U?$list@U?$dim@Uplane_angle_base_dimension@units@boost@@V?$static_rational@$00$00@23@@units@boost@@Udimensionless_type@23@@units@boost@@U?$homogeneous_system@U?$list@Udegree_base_unit@angle@units@boost@@Udimensionless_type@34@@units@boost@@@23@X@units@boost@@G@12@PEAX@Z
	??$?0V?$unit@U?$list@U?$dim@Uplane_angle_base_dimension@units@boost@@V?$static_rational@$00$00@23@@units@boost@@Udimensionless_type@23@@units@boost@@U?$homogeneous_system@U?$list@Udegree_base_unit@angle@units@boost@@Udimensionless_type@34@@units@boost@@@23@X@units@boost@@H@?$quantity@V?$unit@U?$list@U?$dim@Uplane_angle_base_dimension@units@boost@@V?$static_rational@$00$00@23@@units@boost@@Udimensionless_type@23@@units@boost@@U?$homogeneous_system@U?$list@Umeter_base_unit@si@units@boost@@U?$list@U?$scaled_base_unit@Ugram_base_unit@cgs@units@boost@@U?$scale@$09V?$static_rational@$02$00@units@boost@@@34@@units@boost@@U?$list@Usecond_base_unit@si@units@boost@@U?$list@Uampere_base_unit@si@units@boost@@U?$list@Ukelvin_base_unit@si@units@boost@@U?$list@Umole_base_unit@si@units@boost@@U?$list@Ucandela_base_unit@si@units@boost@@U?$list@Uradian_base_unit@angle@units@boost@@U?$list@Usteradian_base_unit@angle@units@boost@@Udimensionless_type@34@@34@@34@@34@@34@@34@@34@@23@@34@@units@boost@@@23@X@units@boost@@N@units@boost@@QEAA@AEBV?$quantity@V?$unit@U?$list@U?$dim@Uplane_angle_base_dimension@units@boost@@V?$static_rational@$00$00@23@@units@boost@@Udimensionless_type@23@@units@boost@@U?$homogeneous_system@U?$list@Udegree_base_unit@angle@units@boost@@Udimensionless_type@34@@units@boost@@@23@X@units@boost@@H@12@PEAX@Z
	??$?0V?$unit@U?$list@U?$dim@Uplane_angle_base_dimension@units@boost@@V?$static_rational@$00$00@23@@units@boost@@Udimensionless_type@23@@units@boost@@U?$homogeneous_system@U?$list@Udegree_base_unit@angle@units@boost@@Udimensionless_type@34@@units@boost@@@23@X@units@boost@@N@?$quantity@V?$unit@U?$list@U?$dim@Uplane_angle_base_dimension@units@boost@@V?$static_rational@$00$00@23@@units@boost@@Udimensionless_type@23@@units@boost@@U?$heterogeneous_system@U?$heterogeneous_system_impl@U?$list@U?$heterogeneous_system_dim@Udegree_base_unit@angle@units@boost@@V?$static_rational@$00$00@34@@units@boost@@Udimensionless_type@23@@units@boost@@U?$list@U?$dim@Uplane_angle_base_dimension@units@boost@@V?$static_rational@$00$00@23@@units@boost@@Udimensionless_type@23@@23@U?$list@U?$scale_list_dim@U?$scale@$09V?$static_rational@$0?0$00@units@boost@@@units@boost@@@units@boost@@Udimensionless_type@23@@23@@units@boost@@@23@X@units@boost@@G@units@boost@@QEAA@AEBV?$quantity@V?$unit@U?$list@U?$dim@Uplane_angle_base_dimension@units@boost@@V?$static_rational@$00$00@23@@units@boost@@Udimensionless_type@23@@units@boost@@U?$homogeneous_system@U?$list@Udegree_base_unit@angle@units@boost@@Udimensionless_type@34@@units@boost@@@23@X@units@boost@@N@12@PEAX@Z
	??$?0V?$unit@U?$list@U?$dim@Uplane_angle_base_dimension@units@boost@@V?$static_rational@$00$00@23@@units@boost@@Udimensionless_type@23@@units@boost@@U?$homogeneous_system@U?$list@Udegree_base_unit@angle@units@boost@@Udimensionless_type@34@@units@boost@@@23@X@units@boost@@N@?$quantity@V?$unit@U?$list@U?$dim@Uplane_angle_base_dimension@units@boost@@V?$static_rational@$00$00@23@@units@boost@@Udimensionless_type@23@@units@boost@@U?$heterogeneous_system@U?$heterogeneous_system_impl@U?$list@U?$heterogeneous_system_dim@Udegree_base_unit@angle@units@boost@@V?$static_rational@$00$00@34@@units@boost@@Udimensionless_type@23@@units@boost@@U?$list@U?$dim@Uplane_angle_base_dimension@units@boost@@V?$static_rational@$00$00@23@@units@boost@@Udimensionless_type@23@@23@U?$list@U?$scale_list_dim@U?$scale@$09V?$static_rational@$0?6$00@units@boost@@@units@boost@@@units@boost@@Udimensionless_type@23@@23@@units@boost@@@23@X@units@boost@@H@units@boost@@QEAA@AEBV?$quantity@V?$unit@U?$list@U?$dim@Uplane_angle_base_dimension@units@boost@@V?$static_rational@$00$00@23@@units@boost@@Udimensionless_type@23@@units@boost@@U?$homogeneous_system@U?$list@Udegree_base_unit@angle@units@boost@@Udimensionless_type@34@@units@boost@@@23@X@units@boost@@N@12@PEAX@Z
	??$?0V?$unit@U?$list@U?$dim@Uplane_angle_base_dimension@units@boost@@V?$static_rational@$00$00@23@@units@boost@@Udimensionless_type@23@@units@boost@@U?$homogeneous_system@U?$list@Umeter_base_unit@si@units@boost@@U?$list@U?$scaled_base_unit@Ugram_base_unit@cgs@units@boost@@U?$scale@$09V?$static_rational@$02$00@units@boost@@@34@@units@boost@@U?$list@Usecond_base_unit@si@units@boost@@U?$list@Uampere_base_unit@si@units@boost@@U?$list@Ukelvin_base_unit@si@units@boost@@U?$list@Umole_base_unit@si@units@boost@@U?$list@Ucandela_base_unit@si@units@boost@@U?$list@Uradian_base_unit@angle@units@boost@@U?$list@Usteradian_base_unit@angle@units@boost@@Udimensionless_type@34@@34@@34@@34@@34@@34@@34@@23@@34@@units@boost@@@23@X@units@boost@@N@?$quantity@V?$unit@U?$list@U?$dim@Uplane_angle_base_dimension@units@boost@@V?$static_rational@$00$00@23@@units@boost@@Udimensionless_type@23@@units@boost@@U?$homogeneous_system@U?$list@Udegree_base_unit@angle@units@boost@@Udimensionless_type@34@@units@boost@@@23@X@units@boost@@G@units@boost@@QEAA@AEBV?$quantity@V?$unit@U?$list@U?$dim@Uplane_angle_base_dimension@units@boost@@V?$static_rational@$00$00@23@@units@boost@@Udimensionless_type@23@@units@boost@@U?$homogeneous_system@U?$list@Umeter_base_unit@si@units@boost@@U?$list@U?$scaled_base_unit@Ugram_base_unit@cgs@units@boost@@U?$scale@$09V?$static_rational@$02$00@units@boost@@@34@@units@boost@@U?$list@Usecond_base_unit@si@units@boost@@U?$list@Uampere_base_unit@si@units@boost@@U?$list@Ukelvin_base_unit@si@units@boost@@U?$list@Umole_base_unit@si@units@boost@@U?$list@Ucandela_base_unit@si@units@boost@@U?$list@Uradian_base_unit@angle@units@boost@@U?$list@Usteradian_base_unit@angle@units@boost@@Udimensionless_type@34@@34@@34@@34@@34@@34@@34@@23@@34@@units@boost@@@23@X@units@boost@@N@12@PEAX@Z
	??$?0V?$unit@U?$list@U?$dim@Utime_base_dimension@units@boost@@V?$static_rational@$00$00@23@@units@boost@@Udimensionless_type@23@@units@boost@@U?$heterogeneous_system@U?$heterogeneous_system_impl@U?$list@U?$heterogeneous_system_dim@Usecond_base_unit@si@units@boost@@V?$static_rational@$00$00@34@@units@boost@@Udimensionless_type@23@@units@boost@@U?$list@U?$dim@Utime_base_dimension@units@boost@@V?$static_rational@$00$00@23@@units@boost@@Udimensionless_type@23@@23@U?$list@U?$scale_list_dim@U?$scale@$09V?$static_rational@$0?2$00@units@boost@@@units@boost@@@units@boost@@Udimensionless_type@23@@23@@units@boost@@@23@X@units@boost@@H@?$quantity@V?$unit@U?$list@U?$dim@Utime_base_dimension@units@boost@@V?$static_rational@$00$00@23@@units@boost@@Udimensionless_type@23@@units@boost@@U?$homogeneous_system@U?$list@Umeter_base_unit@si@units@boost@@U?$list@U?$scaled_base_unit@Ugram_base_unit@cgs@units@boost@@U?$scale@$09V?$static_rational@$02$00@units@boost@@@34@@units@boost@@U?$list@Usecond_base_unit@si@units@boost@@U?$list@Uampere_base_unit@si@units@boost@@U?$list@Ukelvin_base_unit@si@units@boost@@U?$list@Umole_base_unit@si@units@boost@@U?$list@Ucandela_base_unit@si@units@boost@@U?$list@Uradian_base_unit@angle@units@boost@@U?$list@Usteradian_base_unit@angle@units@boost@@Udimensionless_type@34@@34@@34@@34@@34@@34@@34@@23@@34@@units@boost@@@23@X@units@boost@@N@units@boost@@QEAA@AEBV?$quantity@V?$unit@U?$list@U?$dim@Utime_base_dimension@units@boost@@V?$static_rational@$00$00@23@@units@boost@@Udimensionless_type@23@@units@boost@@U?$heterogeneous_system@U?$heterogeneous_system_impl@U?$list@U?$heterogeneous_system_dim@Usecond_base_unit@si@units@boost@@V?$static_rational@$00$00@34@@units@boost@@Udimensionless_type@23@@units@boost@@U?$list@U?$dim@Utime_base_dimension@units@boost@@V?$static_rational@$00$00@23@@units@boost@@Udimensionless_type@23@@23@U?$list@U?$scale_list_dim@U?$scale@$09V?$static_rational@$0?2$00@units@boost@@@units@boost@@@units@boost@@Udimensionless_type@23@@23@@units@boost@@@23@X@units@boost@@H@12@PEAX@Z
	??$?0V?$unit@U?$list@U?$dim@Utime_base_dimension@units@boost@@V?$static_rational@$0?0$00@23@@units@boost@@Udimensionless_type@23@@units@boost@@U?$heterogeneous_system@U?$heterogeneous_system_impl@U?$list@U?$heterogeneous_system_dim@Usecond_base_unit@si@units@boost@@V?$static_rational@$0?0$00@34@@units@boost@@Udimensionless_type@23@@units@boost@@U?$list@U?$dim@Utime_base_dimension@units@boost@@V?$static_rational@$0?0$00@23@@units@boost@@Udimensionless_type@23@@23@U?$list@U?$scale_list_dim@U?$scale@$09V?$static_rational@$02$00@units@boost@@@units@boost@@@units@boost@@Udimensionless_type@23@@23@@units@boost@@@23@X@units@boost@@N@?$quantity@V?$unit@U?$list@U?$dim@Utime_base_dimension@units@boost@@V?$static_rational@$0?0$00@23@@units@boost@@Udimensionless_type@23@@units@boost@@U?$homogeneous_system@U?$list@Umeter_base_unit@si@units@boost@@U?$list@U?$scaled_base_unit@Ugram_base_unit@cgs@units@boost@@U?$scale@$09V?$static_rational@$02$00@units@boost@@@34@@units@boost@@U?$list@Usecond_base_unit@si@units@boost@@U?$list@Uampere_base_unit@si@units@boost@@U?$list@Ukelvin_base_unit@si@units@boost@@U?$list@Umole_base_unit@si@units@boost@@U?$list@Ucandela_base_unit@si@units@boost@@U?$list@Uradian_base_unit@angle@units@boost@@U?$list@Usteradian_base_unit@angle@units@boost@@Udimensionless_type@34@@34@@34@@34@@34@@34@@34@@23@@34@@units@boost@@@23@X@units@boost@@N@units@boost@@QEAA@AEBV?$quantity@V?$unit@U?$list@U?$dim@Utime_base_dimension@units@boost@@V?$static_rational@$0?0$00@23@@units@boost@@Udimensionless_type@23@@units@boost@@U?$heterogeneous_system@U?$heterogeneous_system_impl@U?$list@U?$heterogeneous_system_dim@Usecond_base_unit@si@units@boost@@V?$static_rational@$0?0$00@34@@units@boost@@Udimensionless_type@23@@units@boost@@U?$list@U?$dim@Utime_base_dimension@units@boost@@V?$static_rational@$0?0$00@23@@units@boost@@Udimensionless_type@23@@23@U?$list@U?$scale_list_dim@U?$scale@$09V?$static_rational@$02$00@units@boost@@@units@boost@@@units@boost@@Udimensionless_type@23@@23@@units@boost@@@23@X@units@boost@@N@12@PEAX@Z
	??$?0V?$variant@AEBUBeaconHeader@geonet@vanetza@@AEBUGeoBroadcastHeader@23@AEBUShbHeader@23@AEBUTsbHeader@23@@boost@@@?$variant@UBeaconHeader@geonet@vanetza@@UGeoBroadcastHeader@23@UShbHeader@23@UTsbHeader@23@@boost@@QEAA@$$QEAV?$variant@AEBUBeaconHeader@geonet@vanetza@@AEBUGeoBroadcastHeader@23@AEBUShbHeader@23@AEBUTsbHeader@23@@1@_N@Z
	??$?0V?$variant@UBeaconHeader@geonet@vanetza@@UGeoBroadcastHeader@23@UShbHeader@23@UTsbHeader@23@@boost@@@?$variant@AEBUBeaconHeader@geonet@vanetza@@AEBUGeoBroadcastHeader@23@AEBUShbHeader@23@AEBUTsbHeader@23@@boost@@QEAA@AEAV?$variant@UBeaconHeader@geonet@vanetza@@UGeoBroadcastHeader@23@UShbHeader@23@UTsbHeader@23@@1@_N@Z
	??$?0V?$variant@UBeaconHeader@geonet@vanetza@@UGeoBroadcastHeader@23@UShbHeader@23@UTsbHeader@23@@boost@@@?$variant@AEBUBeaconHeader@geonet@vanetza@@AEBUGeoBroadcastHeader@23@AEBUShbHeader@23@AEBUTsbHeader@23@@boost@@QEAA@AEBV?$variant@UBeaconHeader@geonet@vanetza@@UGeoBroadcastHeader@23@UShbHeader@23@UTsbHeader@23@@1@_N@Z
	??$?0VAddress@geonet@vanetza@@$0A@@?$tuple@VAddress@geonet@vanetza@@VSequenceNumber@23@@std@@QEAA@AEBVAddress@geonet@vanetza@@AEBVSequenceNumber@34@@Z
	??$?0VCbfPacket@geonet@vanetza@@@?$_List_node_emplace_op2@V?$allocator@U?$_List_node@VCbfPacket@geonet@vanetza@@PEAX@std@@@std@@@std@@QEAA@AEAV?$allocator@U?$_List_node@VCbfPacket@geonet@vanetza@@PEAX@std@@@1@$$QEAVCbfPacket@geonet@vanetza@@@Z
	??$?0VChunkPacket@vanetza@@@?$backup_assigner@V?$variant@VChunkPacket@vanetza@@VCohesivePacket@2@@boost@@@variant@detail@boost@@QEAA@AEAV?$variant@VChunkPacket@vanetza@@VCohesivePacket@2@@3@HAEBVChunkPacket@vanetza@@@Z
	??$?0VCohesivePacket@vanetza@@@?$variant@VChunkPacket@vanetza@@VCohesivePacket@2@@boost@@QEAA@AEBVCohesivePacket@vanetza@@_N@Z
	??$?0VDccMcoField@geonet@vanetza@@@?$variant@VDccMcoField@geonet@vanetza@@I@boost@@QEAA@$$QEAVDccMcoField@geonet@vanetza@@_N@Z
	??$?0VDuplicatePacketList@geonet@vanetza@@@object_handle@ObjectContainer@vanetza@@QEAA@V?$unique_ptr@VDuplicatePacketList@geonet@vanetza@@U?$default_delete@VDuplicatePacketList@geonet@vanetza@@@std@@@std@@@Z
	??$?0VExpiry@packet_buffer@geonet@vanetza@@@?$_Tuple_val@VExpiry@packet_buffer@geonet@vanetza@@@std@@QEAA@$$QEAVExpiry@packet_buffer@geonet@vanetza@@@Z
	??$?0VExpiry@packet_buffer@geonet@vanetza@@V?$unique_ptr@VData@packet_buffer@geonet@vanetza@@U?$default_delete@VData@packet_buffer@geonet@vanetza@@@std@@@std@@$0A@@?$tuple@VExpiry@packet_buffer@geonet@vanetza@@V?$unique_ptr@VData@packet_buffer@geonet@vanetza@@U?$default_delete@VData@packet_buffer@geonet@vanetza@@@std@@@std@@@std@@QEAA@$$QEAVExpiry@packet_buffer@geonet@vanetza@@$$QEAV?$unique_ptr@VData@packet_buffer@geonet@vanetza@@U?$default_delete@VData@packet_buffer@geonet@vanetza@@@std@@@1@@Z
	??$?0VExpiryWithKey@?$SoftStateMap@V?$tuple@VAddress@geonet@vanetza@@VSequenceNumber@23@@std@@_KU?$SoftStateDefaultCreator@_K@geonet@vanetza@@@geonet@vanetza@@@?$heap_node@VExpiryWithKey@?$SoftStateMap@V?$tuple@VAddress@geonet@vanetza@@VSequenceNumber@23@@std@@_KU?$SoftStateDefaultCreator@_K@geonet@vanetza@@@geonet@vanetza@@$00@detail@heap@boost@@QEAA@$$QEAVExpiryWithKey@?$SoftStateMap@V?$tuple@VAddress@geonet@vanetza@@VSequenceNumber@23@@std@@_KU?$SoftStateDefaultCreator@_K@geonet@vanetza@@@geonet@vanetza@@@Z
	??$?0VExpiryWithKey@?$SoftStateMap@V?$tuple@VAddress@geonet@vanetza@@VSequenceNumber@23@@std@@_KU?$SoftStateDefaultCreator@_K@geonet@vanetza@@@geonet@vanetza@@@?$parent_pointing_heap_node@VExpiryWithKey@?$SoftStateMap@V?$tuple@VAddress@geonet@vanetza@@VSequenceNumber@23@@std@@_KU?$SoftStateDefaultCreator@_K@geonet@vanetza@@@geonet@vanetza@@@detail@heap@boost@@QEAA@$$QEAVExpiryWithKey@?$SoftStateMap@V?$tuple@VAddress@geonet@vanetza@@VSequenceNumber@23@@std@@_KU?$SoftStateDefaultCreator@_K@geonet@vanetza@@@geonet@vanetza@@@Z
	??$?0VExpiryWithKey@?$SoftStateMap@VMacAddress@vanetza@@VLocationTableEntry@geonet@2@VLocationTableEntryCreator@42@@geonet@vanetza@@@?$heap_node@VExpiryWithKey@?$SoftStateMap@VMacAddress@vanetza@@VLocationTableEntry@geonet@2@VLocationTableEntryCreator@42@@geonet@vanetza@@$00@detail@heap@boost@@QEAA@$$QEAVExpiryWithKey@?$SoftStateMap@VMacAddress@vanetza@@VLocationTableEntry@geonet@2@VLocationTableEntryCreator@42@@geonet@vanetza@@@Z
	??$?0VExpiryWithKey@?$SoftStateMap@VMacAddress@vanetza@@VLocationTableEntry@geonet@2@VLocationTableEntryCreator@42@@geonet@vanetza@@@?$parent_pointing_heap_node@VExpiryWithKey@?$SoftStateMap@VMacAddress@vanetza@@VLocationTableEntry@geonet@2@VLocationTableEntryCreator@42@@geonet@vanetza@@@detail@heap@boost@@QEAA@$$QEAVExpiryWithKey@?$SoftStateMap@VMacAddress@vanetza@@VLocationTableEntry@geonet@2@VLocationTableEntryCreator@42@@geonet@vanetza@@@Z
	??$?0VLocationTableEntry@geonet@vanetza@@$$V$0A@@?$tuple@$$QEAVLocationTableEntry@geonet@vanetza@@@std@@QEAA@$$QEAVLocationTableEntry@geonet@vanetza@@@Z
	??$?0VLocationTableEntry@geonet@vanetza@@@?$_Tuple_val@$$QEAVLocationTableEntry@geonet@vanetza@@@std@@QEAA@$$QEAVLocationTableEntry@geonet@vanetza@@@Z
	??$?0VSecuredPdu@geonet@vanetza@@@ByteBufferConvertible@vanetza@@QEAA@$$QEAVSecuredPdu@geonet@1@@Z
	??$?0Vtype_index@std@@V?$unique_ptr@ULocTEX_G5@geonet@vanetza@@U?$default_delete@ULocTEX_G5@geonet@vanetza@@@std@@@1@$0A@@?$pair@$$CBVtype_index@std@@Uobject_handle@ObjectContainer@vanetza@@@std@@QEAA@$$QEAVtype_index@1@$$QEAV?$unique_ptr@ULocTEX_G5@geonet@vanetza@@U?$default_delete@ULocTEX_G5@geonet@vanetza@@@std@@@1@@Z
	??$?0Vtype_index@std@@V?$unique_ptr@ULocTEX_G5@geonet@vanetza@@U?$default_delete@ULocTEX_G5@geonet@vanetza@@@std@@@1@@?$_Tree_temp_node@V?$allocator@U?$_Tree_node@U?$pair@$$CBVtype_index@std@@Uobject_handle@ObjectContainer@vanetza@@@std@@PEAX@std@@@std@@@std@@QEAA@AEAV?$allocator@U?$_Tree_node@U?$pair@$$CBVtype_index@std@@Uobject_handle@ObjectContainer@vanetza@@@std@@PEAX@std@@@1@PEAU?$_Tree_node@U?$pair@$$CBVtype_index@std@@Uobject_handle@ObjectContainer@vanetza@@@std@@PEAX@1@$$QEAVtype_index@1@$$QEAV?$unique_ptr@ULocTEX_G5@geonet@vanetza@@U?$default_delete@ULocTEX_G5@geonet@vanetza@@@std@@@1@@Z
	??$?0Vtype_index@std@@V?$unique_ptr@VDuplicatePacketList@geonet@vanetza@@U?$default_delete@VDuplicatePacketList@geonet@vanetza@@@std@@@1@$0A@@?$pair@$$CBVtype_index@std@@Uobject_handle@ObjectContainer@vanetza@@@std@@QEAA@$$QEAVtype_index@1@$$QEAV?$unique_ptr@VDuplicatePacketList@geonet@vanetza@@U?$default_delete@VDuplicatePacketList@geonet@vanetza@@@std@@@1@@Z
	??$?0Vtype_index@std@@V?$unique_ptr@VDuplicatePacketList@geonet@vanetza@@U?$default_delete@VDuplicatePacketList@geonet@vanetza@@@std@@@1@@?$_Tree_temp_node@V?$allocator@U?$_Tree_node@U?$pair@$$CBVtype_index@std@@Uobject_handle@ObjectContainer@vanetza@@@std@@PEAX@std@@@std@@@std@@QEAA@AEAV?$allocator@U?$_Tree_node@U?$pair@$$CBVtype_index@std@@Uobject_handle@ObjectContainer@vanetza@@@std@@PEAX@std@@@1@PEAU?$_Tree_node@U?$pair@$$CBVtype_index@std@@Uobject_handle@ObjectContainer@vanetza@@@std@@PEAX@1@$$QEAVtype_index@1@$$QEAV?$unique_ptr@VDuplicatePacketList@geonet@vanetza@@U?$default_delete@VDuplicatePacketList@geonet@vanetza@@@std@@@1@@Z
	??$?0_J$0A@@?$duration@_JU?$ratio@$00$0DOI@@std@@@chrono@std@@QEAA@AEB_J@Z
	??$?0_J$0A@@?$duration@_JU?$ratio@$00$0PECEA@@std@@@chrono@std@@QEAA@AEB_J@Z
	??$?0_J@?$quantity@V?$absolute@V?$unit@U?$list@U?$dim@Utime_base_dimension@units@boost@@V?$static_rational@$00$00@23@@units@boost@@Udimensionless_type@23@@units@boost@@U?$heterogeneous_system@U?$heterogeneous_system_impl@U?$list@U?$heterogeneous_system_dim@Usecond_base_unit@si@units@boost@@V?$static_rational@$00$00@34@@units@boost@@Udimensionless_type@23@@units@boost@@U?$list@U?$dim@Utime_base_dimension@units@boost@@V?$static_rational@$00$00@23@@units@boost@@Udimensionless_type@23@@23@U?$list@U?$scale_list_dim@U?$scale@$09V?$static_rational@$0?2$00@units@boost@@@units@boost@@@units@boost@@Udimensionless_type@23@@23@@units@boost@@@23@X@units@boost@@@units@boost@@I@units@boost@@QEAA@AEBV?$quantity@V?$absolute@V?$unit@U?$list@U?$dim@Utime_base_dimension@units@boost@@V?$static_rational@$00$00@23@@units@boost@@Udimensionless_type@23@@units@boost@@U?$heterogeneous_system@U?$heterogeneous_system_impl@U?$list@U?$heterogeneous_system_dim@Usecond_base_unit@si@units@boost@@V?$static_rational@$00$00@34@@units@boost@@Udimensionless_type@23@@units@boost@@U?$list@U?$dim@Utime_base_dimension@units@boost@@V?$static_rational@$00$00@23@@units@boost@@Udimensionless_type@23@@23@U?$list@U?$scale_list_dim@U?$scale@$09V?$static_rational@$0?2$00@units@boost@@@units@boost@@@units@boost@@Udimensionless_type@23@@23@@units@boost@@@23@X@units@boost@@@units@boost@@_J@12@PEAX@Z
	??$?0_JU?$ratio@$00$00@std@@$0A@@?$duration@_JU?$ratio@$00$0PECEA@@std@@@chrono@std@@QEAA@AEBV?$duration@_JU?$ratio@$00$00@std@@@12@@Z
	??$?0_JU?$ratio@$00$0DOI@@std@@$0A@@?$duration@_JU?$ratio@$00$0PECEA@@std@@@chrono@std@@QEAA@AEBV?$duration@_JU?$ratio@$00$0DOI@@std@@@12@@Z
	??$?0_JU?$ratio@$00$0PECEA@@std@@$0A@@?$duration@NU?$ratio@$00$00@std@@@chrono@std@@QEAA@AEBV?$duration@_JU?$ratio@$00$0PECEA@@std@@@12@@Z
	??$?0_K$$V$0A@@?$tuple@$$QEA_K@std@@QEAA@$$QEA_K@Z
	??$?0_K@?$_Tuple_val@$$QEA_K@std@@QEAA@$$QEA_K@Z
	??$?4AEAI@?$optional@I@boost@@QEAAAEAV01@AEAI@Z
	??$?4AEAV?$vector@EV?$allocator@E@std@@@std@@@?$optional@V?$vector@EV?$allocator@E@std@@@std@@@boost@@QEAAAEAV01@AEAV?$vector@EV?$allocator@E@std@@@std@@@Z
	??$?4AEBE@?$optional@I@boost@@QEAAAEAV01@AEBE@Z
	??$?4AEBV?$variant@USecuredMessage@v2@security@vanetza@@U1v3@34@@boost@@@?$optional@V?$variant@USecuredMessage@v2@security@vanetza@@U1v3@34@@boost@@@boost@@QEAAAEAV01@AEBV?$variant@USecuredMessage@v2@security@vanetza@@U1v3@34@@1@@Z
	??$?4AEBVLifetime@geonet@vanetza@@@?$optional@VLifetime@geonet@vanetza@@@boost@@QEAAAEAV01@AEBVLifetime@geonet@vanetza@@@Z
	??$?4G@?$quantity@V?$unit@U?$list@U?$dim@Ulength_base_dimension@units@boost@@V?$static_rational@$00$00@23@@units@boost@@Udimensionless_type@23@@units@boost@@U?$homogeneous_system@U?$list@Umeter_base_unit@si@units@boost@@U?$list@U?$scaled_base_unit@Ugram_base_unit@cgs@units@boost@@U?$scale@$09V?$static_rational@$02$00@units@boost@@@34@@units@boost@@U?$list@Usecond_base_unit@si@units@boost@@U?$list@Uampere_base_unit@si@units@boost@@U?$list@Ukelvin_base_unit@si@units@boost@@U?$list@Umole_base_unit@si@units@boost@@U?$list@Ucandela_base_unit@si@units@boost@@U?$list@Uradian_base_unit@angle@units@boost@@U?$list@Usteradian_base_unit@angle@units@boost@@Udimensionless_type@34@@34@@34@@34@@34@@34@@34@@23@@34@@units@boost@@@23@X@units@boost@@N@units@boost@@QEAAAEAV012@AEBV?$quantity@V?$unit@U?$list@U?$dim@Ulength_base_dimension@units@boost@@V?$static_rational@$00$00@23@@units@boost@@Udimensionless_type@23@@units@boost@@U?$homogeneous_system@U?$list@Umeter_base_unit@si@units@boost@@U?$list@U?$scaled_base_unit@Ugram_base_unit@cgs@units@boost@@U?$scale@$09V?$static_rational@$02$00@units@boost@@@34@@units@boost@@U?$list@Usecond_base_unit@si@units@boost@@U?$list@Uampere_base_unit@si@units@boost@@U?$list@Ukelvin_base_unit@si@units@boost@@U?$list@Umole_base_unit@si@units@boost@@U?$list@Ucandela_base_unit@si@units@boost@@U?$list@Uradian_base_unit@angle@units@boost@@U?$list@Usteradian_base_unit@angle@units@boost@@Udimensionless_type@34@@34@@34@@34@@34@@34@@34@@23@@34@@units@boost@@@23@X@units@boost@@G@12@@Z
	??$?4I@?$variant@VDccMcoField@geonet@vanetza@@I@boost@@QEAAAEAV01@AEBI@Z
	??$?4N@?$quantity@V?$unit@U?$list@U?$dim@Ulength_base_dimension@units@boost@@V?$static_rational@$00$00@23@@units@boost@@Udimensionless_type@23@@units@boost@@U?$homogeneous_system@U?$list@Umeter_base_unit@si@units@boost@@U?$list@U?$scaled_base_unit@Ugram_base_unit@cgs@units@boost@@U?$scale@$09V?$static_rational@$02$00@units@boost@@@34@@units@boost@@U?$list@Usecond_base_unit@si@units@boost@@U?$list@Uampere_base_unit@si@units@boost@@U?$list@Ukelvin_base_unit@si@units@boost@@U?$list@Umole_base_unit@si@units@boost@@U?$list@Ucandela_base_unit@si@units@boost@@U?$list@Uradian_base_unit@angle@units@boost@@U?$list@Usteradian_base_unit@angle@units@boost@@Udimensionless_type@34@@34@@34@@34@@34@@34@@34@@23@@34@@units@boost@@@23@X@units@boost@@G@units@boost@@QEAAAEAV012@AEBV?$quantity@V?$unit@U?$list@U?$dim@Ulength_base_dimension@units@boost@@V?$static_rational@$00$00@23@@units@boost@@Udimensionless_type@23@@units@boost@@U?$homogeneous_system@U?$list@Umeter_base_unit@si@units@boost@@U?$list@U?$scaled_base_unit@Ugram_base_unit@cgs@units@boost@@U?$scale@$09V?$static_rational@$02$00@units@boost@@@34@@units@boost@@U?$list@Usecond_base_unit@si@units@boost@@U?$list@Uampere_base_unit@si@units@boost@@U?$list@Ukelvin_base_unit@si@units@boost@@U?$list@Umole_base_unit@si@units@boost@@U?$list@Ucandela_base_unit@si@units@boost@@U?$list@Uradian_base_unit@angle@units@boost@@U?$list@Usteradian_base_unit@angle@units@boost@@Udimensionless_type@34@@34@@34@@34@@34@@34@@34@@23@@34@@units@boost@@@23@X@units@boost@@N@12@@Z
	??$?4U?$default_delete@Ubyte_buffer@convertible@vanetza@@@std@@$0A@@?$unique_ptr@Ubyte_buffer@convertible@vanetza@@U?$default_delete@Ubyte_buffer@convertible@vanetza@@@std@@@std@@QEAAAEAV01@$$QEAV01@@Z
	??$?4U?$default_delete@V?$ExtendedPdu@UGeoBroadcastHeader@geonet@vanetza@@@geonet@vanetza@@@std@@$0A@@?$unique_ptr@V?$ExtendedPdu@UGeoBroadcastHeader@geonet@vanetza@@@geonet@vanetza@@U?$default_delete@V?$ExtendedPdu@UGeoBroadcastHeader@geonet@vanetza@@@geonet@vanetza@@@std@@@std@@QEAAAEAV01@$$QEAV01@@Z
	??$?4U?$default_delete@V?$ExtendedPdu@UShbHeader@geonet@vanetza@@@geonet@vanetza@@@std@@$0A@@?$unique_ptr@V?$ExtendedPdu@UShbHeader@geonet@vanetza@@@geonet@vanetza@@U?$default_delete@V?$ExtendedPdu@UShbHeader@geonet@vanetza@@@geonet@vanetza@@@std@@@std@@QEAAAEAV01@$$QEAV01@@Z
	??$?4U?$default_delete@VChunkPacket@vanetza@@@std@@$0A@@?$unique_ptr@VChunkPacket@vanetza@@U?$default_delete@VChunkPacket@vanetza@@@std@@@std@@QEAAAEAV01@$$QEAV01@@Z
	??$?4UArea@geonet@vanetza@@@?$variant@VAddress@geonet@vanetza@@UArea@23@$$T@boost@@QEAAAEAV01@$$QEAUArea@geonet@vanetza@@@Z
	??$?4UBeaconHeader@geonet@vanetza@@@?$variant@UBeaconHeader@geonet@vanetza@@UGeoBroadcastHeader@23@UShbHeader@23@UTsbHeader@23@@boost@@QEAAAEAV01@$$QEAUBeaconHeader@geonet@vanetza@@@Z
	??$?4UCircle@geonet@vanetza@@@?$variant@URectangle@geonet@vanetza@@UEllipse@23@UCircle@23@@boost@@QEAAAEAV01@$$QEAUCircle@geonet@vanetza@@@Z
	??$?4UEllipse@geonet@vanetza@@@?$variant@URectangle@geonet@vanetza@@UEllipse@23@UCircle@23@@boost@@QEAAAEAV01@$$QEAUEllipse@geonet@vanetza@@@Z
	??$?4UGeoBroadcastHeader@geonet@vanetza@@@?$variant@UBeaconHeader@geonet@vanetza@@UGeoBroadcastHeader@23@UShbHeader@23@UTsbHeader@23@@boost@@QEAAAEAV01@$$QEAUGeoBroadcastHeader@geonet@vanetza@@@Z
	??$?4URectangle@geonet@vanetza@@@?$variant@URectangle@geonet@vanetza@@UEllipse@23@UCircle@23@@boost@@QEAAAEAV01@$$QEAURectangle@geonet@vanetza@@@Z
	??$?4USecuredMessage@v2@security@vanetza@@@?$variant@USecuredMessage@v2@security@vanetza@@U1v3@34@@boost@@QEAAAEAV01@$$QEAUSecuredMessage@v2@security@vanetza@@@Z
	??$?4USecuredMessage@v3@security@vanetza@@@?$variant@USecuredMessage@v2@security@vanetza@@U1v3@34@@boost@@QEAAAEAV01@$$QEAUSecuredMessage@v3@security@vanetza@@@Z
	??$?4UShbHeader@geonet@vanetza@@@?$variant@UBeaconHeader@geonet@vanetza@@UGeoBroadcastHeader@23@UShbHeader@23@UTsbHeader@23@@boost@@QEAAAEAV01@$$QEAUShbHeader@geonet@vanetza@@@Z
	??$?4UTsbHeader@geonet@vanetza@@@?$variant@UBeaconHeader@geonet@vanetza@@UGeoBroadcastHeader@23@UShbHeader@23@UTsbHeader@23@@boost@@QEAAAEAV01@$$QEAUTsbHeader@geonet@vanetza@@@Z
	??$?4Ublank@boost@@@?$variant@Ublank@boost@@W4VerificationReport@security@vanetza@@@boost@@QEAAAEAV01@$$QEAUblank@1@@Z
	??$?4V<lambda_5e0a116e2d6524a72cb9a27344976bf6>@@$0A@@?$function@$$A6AX$$QEAV?$tuple@V?$unique_ptr@V?$ExtendedPdu@UGeoBroadcastHeader@geonet@vanetza@@@geonet@vanetza@@U?$default_delete@V?$ExtendedPdu@UGeoBroadcastHeader@geonet@vanetza@@@geonet@vanetza@@@std@@@std@@V?$unique_ptr@VChunkPacket@vanetza@@U?$default_delete@VChunkPacket@vanetza@@@std@@@2@@std@@@Z@std@@QEAAAEAV01@$$QEAV<lambda_5e0a116e2d6524a72cb9a27344976bf6>@@@Z
	??$?4V<lambda_cdd8ce8507032cbf359a6017b9b5d9c9>@@$0A@@?$function@$$A6AX$$QEAV?$tuple@V?$unique_ptr@V?$ExtendedPdu@UGeoBroadcastHeader@geonet@vanetza@@@geonet@vanetza@@U?$default_delete@V?$ExtendedPdu@UGeoBroadcastHeader@geonet@vanetza@@@geonet@vanetza@@@std@@@std@@V?$unique_ptr@VChunkPacket@vanetza@@U?$default_delete@VChunkPacket@vanetza@@@std@@@2@@std@@@Z@std@@QEAAAEAV01@$$QEAV<lambda_cdd8ce8507032cbf359a6017b9b5d9c9>@@@Z
	??$?4V<lambda_e9a74d497f7f428606c5ca5ca6eca7a6>@@$0A@@?$function@$$A6AX$$QEAV?$tuple@V?$unique_ptr@V?$ExtendedPdu@UGeoBroadcastHeader@geonet@vanetza@@@geonet@vanetza@@U?$default_delete@V?$ExtendedPdu@UGeoBroadcastHeader@geonet@vanetza@@@geonet@vanetza@@@std@@@std@@V?$unique_ptr@VChunkPacket@vanetza@@U?$default_delete@VChunkPacket@vanetza@@@std@@@2@@std@@@Z@std@@QEAAAEAV01@$$QEAV<lambda_e9a74d497f7f428606c5ca5ca6eca7a6>@@@Z
	??$?4V?$ExtendedPdu@UGeoBroadcastHeader@geonet@vanetza@@@geonet@vanetza@@U?$default_delete@V?$ExtendedPdu@UGeoBroadcastHeader@geonet@vanetza@@@geonet@vanetza@@@std@@$0A@@?$unique_ptr@VPdu@geonet@vanetza@@U?$default_delete@VPdu@geonet@vanetza@@@std@@@std@@QEAAAEAV01@$$QEAV?$unique_ptr@V?$ExtendedPdu@UGeoBroadcastHeader@geonet@vanetza@@@geonet@vanetza@@U?$default_delete@V?$ExtendedPdu@UGeoBroadcastHeader@geonet@vanetza@@@geonet@vanetza@@@std@@@1@@Z
	??$?4V?$ExtendedPdu@UTsbHeader@geonet@vanetza@@@geonet@vanetza@@U?$default_delete@V?$ExtendedPdu@UTsbHeader@geonet@vanetza@@@geonet@vanetza@@@std@@$0A@@?$unique_ptr@VPdu@geonet@vanetza@@U?$default_delete@VPdu@geonet@vanetza@@@std@@@std@@QEAAAEAV01@$$QEAV?$unique_ptr@V?$ExtendedPdu@UTsbHeader@geonet@vanetza@@@geonet@vanetza@@U?$default_delete@V?$ExtendedPdu@UTsbHeader@geonet@vanetza@@@geonet@vanetza@@@std@@@1@@Z
	??$?4V?$tuple@V?$unique_ptr@V?$ExtendedPdu@UGeoBroadcastHeader@geonet@vanetza@@@geonet@vanetza@@U?$default_delete@V?$ExtendedPdu@UGeoBroadcastHeader@geonet@vanetza@@@geonet@vanetza@@@std@@@std@@V?$unique_ptr@VChunkPacket@vanetza@@U?$default_delete@VChunkPacket@vanetza@@@std@@@2@@std@@V?$unique_ptr@V?$ExtendedPdu@UGeoBroadcastHeader@geonet@vanetza@@@geonet@vanetza@@U?$default_delete@V?$ExtendedPdu@UGeoBroadcastHeader@geonet@vanetza@@@geonet@vanetza@@@std@@@1@$0A@@?$tuple@V?$unique_ptr@V?$ExtendedPdu@UGeoBroadcastHeader@geonet@vanetza@@@geonet@vanetza@@U?$default_delete@V?$ExtendedPdu@UGeoBroadcastHeader@geonet@vanetza@@@geonet@vanetza@@@std@@@std@@V?$unique_ptr@VChunkPacket@vanetza@@U?$default_delete@VChunkPacket@vanetza@@@std@@@2@@std@@QEAAAEAV01@$$QEAV01@@Z
	??$?4V?$tuple@V?$unique_ptr@VChunkPacket@vanetza@@U?$default_delete@VChunkPacket@vanetza@@@std@@@std@@@std@@V?$unique_ptr@VChunkPacket@vanetza@@U?$default_delete@VChunkPacket@vanetza@@@std@@@1@$0A@@?$tuple@V?$unique_ptr@VChunkPacket@vanetza@@U?$default_delete@VChunkPacket@vanetza@@@std@@@std@@@std@@QEAAAEAV01@$$QEAV01@@Z
	??$?4V?$tuple@VAddress@geonet@vanetza@@VSequenceNumber@23@@std@@VAddress@geonet@vanetza@@$0A@@?$tuple@VAddress@geonet@vanetza@@VSequenceNumber@23@@std@@QEAAAEAV01@AEBV01@@Z
	??$?4V?$tuple@VSequenceNumber@geonet@vanetza@@@std@@VSequenceNumber@geonet@vanetza@@$0A@@?$tuple@VSequenceNumber@geonet@vanetza@@@std@@QEAAAEAV01@AEBV01@@Z
	??$?4V?$unique_ptr@V?$ExtendedPdu@UGeoBroadcastHeader@geonet@vanetza@@@geonet@vanetza@@U?$default_delete@V?$ExtendedPdu@UGeoBroadcastHeader@geonet@vanetza@@@geonet@vanetza@@@std@@@std@@V?$unique_ptr@VChunkPacket@vanetza@@U?$default_delete@VChunkPacket@vanetza@@@std@@@1@$0A@@?$tuple@AEAV?$unique_ptr@V?$ExtendedPdu@UGeoBroadcastHeader@geonet@vanetza@@@geonet@vanetza@@U?$default_delete@V?$ExtendedPdu@UGeoBroadcastHeader@geonet@vanetza@@@geonet@vanetza@@@std@@@std@@AEAV?$unique_ptr@VChunkPacket@vanetza@@U?$default_delete@VChunkPacket@vanetza@@@std@@@2@@std@@QEAAAEAV01@$$QEAV?$tuple@V?$unique_ptr@V?$ExtendedPdu@UGeoBroadcastHeader@geonet@vanetza@@@geonet@vanetza@@U?$default_delete@V?$ExtendedPdu@UGeoBroadcastHeader@geonet@vanetza@@@geonet@vanetza@@@std@@@std@@V?$unique_ptr@VChunkPacket@vanetza@@U?$default_delete@VChunkPacket@vanetza@@@std@@@2@@1@@Z
	??$?4V?$unique_ptr@V?$ExtendedPdu@UGeoBroadcastHeader@geonet@vanetza@@@geonet@vanetza@@U?$default_delete@V?$ExtendedPdu@UGeoBroadcastHeader@geonet@vanetza@@@geonet@vanetza@@@std@@@std@@V?$unique_ptr@VChunkPacket@vanetza@@U?$default_delete@VChunkPacket@vanetza@@@std@@@1@$0A@@?$tuple@AEAV?$unique_ptr@VPdu@geonet@vanetza@@U?$default_delete@VPdu@geonet@vanetza@@@std@@@std@@AEAV?$unique_ptr@VChunkPacket@vanetza@@U?$default_delete@VChunkPacket@vanetza@@@std@@@2@@std@@QEAAAEAV01@$$QEAV?$tuple@V?$unique_ptr@V?$ExtendedPdu@UGeoBroadcastHeader@geonet@vanetza@@@geonet@vanetza@@U?$default_delete@V?$ExtendedPdu@UGeoBroadcastHeader@geonet@vanetza@@@geonet@vanetza@@@std@@@std@@V?$unique_ptr@VChunkPacket@vanetza@@U?$default_delete@VChunkPacket@vanetza@@@std@@@2@@1@@Z
	??$?4V?$unique_ptr@V?$ExtendedPdu@UShbHeader@geonet@vanetza@@@geonet@vanetza@@U?$default_delete@V?$ExtendedPdu@UShbHeader@geonet@vanetza@@@geonet@vanetza@@@std@@@std@@V?$unique_ptr@VChunkPacket@vanetza@@U?$default_delete@VChunkPacket@vanetza@@@std@@@1@$0A@@?$tuple@AEAV?$unique_ptr@V?$ExtendedPdu@UShbHeader@geonet@vanetza@@@geonet@vanetza@@U?$default_delete@V?$ExtendedPdu@UShbHeader@geonet@vanetza@@@geonet@vanetza@@@std@@@std@@AEAV?$unique_ptr@VChunkPacket@vanetza@@U?$default_delete@VChunkPacket@vanetza@@@std@@@2@@std@@QEAAAEAV01@$$QEAV?$tuple@V?$unique_ptr@V?$ExtendedPdu@UShbHeader@geonet@vanetza@@@geonet@vanetza@@U?$default_delete@V?$ExtendedPdu@UShbHeader@geonet@vanetza@@@geonet@vanetza@@@std@@@std@@V?$unique_ptr@VChunkPacket@vanetza@@U?$default_delete@VChunkPacket@vanetza@@@std@@@2@@1@@Z
	??$?4V?$unique_ptr@V?$ExtendedPdu@UTsbHeader@geonet@vanetza@@@geonet@vanetza@@U?$default_delete@V?$ExtendedPdu@UTsbHeader@geonet@vanetza@@@geonet@vanetza@@@std@@@std@@V?$unique_ptr@VChunkPacket@vanetza@@U?$default_delete@VChunkPacket@vanetza@@@std@@@1@$0A@@?$tuple@AEAV?$unique_ptr@VPdu@geonet@vanetza@@U?$default_delete@VPdu@geonet@vanetza@@@std@@@std@@AEAV?$unique_ptr@VChunkPacket@vanetza@@U?$default_delete@VChunkPacket@vanetza@@@std@@@2@@std@@QEAAAEAV01@$$QEAV?$tuple@V?$unique_ptr@V?$ExtendedPdu@UTsbHeader@geonet@vanetza@@@geonet@vanetza@@U?$default_delete@V?$ExtendedPdu@UTsbHeader@geonet@vanetza@@@geonet@vanetza@@@std@@@std@@V?$unique_ptr@VChunkPacket@vanetza@@U?$default_delete@VChunkPacket@vanetza@@@std@@@2@@1@@Z
	??$?4V?$unique_ptr@VChunkPacket@vanetza@@U?$default_delete@VChunkPacket@vanetza@@@std@@@std@@$0A@@?$tuple@AEAV?$unique_ptr@VChunkPacket@vanetza@@U?$default_delete@VChunkPacket@vanetza@@@std@@@std@@@std@@QEAAAEAV01@$$QEAV?$tuple@V?$unique_ptr@VChunkPacket@vanetza@@U?$default_delete@VChunkPacket@vanetza@@@std@@@std@@@1@@Z
	??$?4V?$variant@AEBUBeaconHeader@geonet@vanetza@@AEBUGeoBroadcastHeader@23@AEBUShbHeader@23@AEBUTsbHeader@23@@boost@@@?$variant@UBeaconHeader@geonet@vanetza@@UGeoBroadcastHeader@23@UShbHeader@23@UTsbHeader@23@@boost@@QEAAAEAV01@$$QEAV?$variant@AEBUBeaconHeader@geonet@vanetza@@AEBUGeoBroadcastHeader@23@AEBUShbHeader@23@AEBUTsbHeader@23@@1@@Z
	??$?4VCohesivePacket@vanetza@@@?$variant@VChunkPacket@vanetza@@VCohesivePacket@2@@boost@@QEAAAEAV01@AEBVCohesivePacket@vanetza@@@Z
	??$?4_J@?$quantity@V?$absolute@V?$unit@U?$list@U?$dim@Utime_base_dimension@units@boost@@V?$static_rational@$00$00@23@@units@boost@@Udimensionless_type@23@@units@boost@@U?$heterogeneous_system@U?$heterogeneous_system_impl@U?$list@U?$heterogeneous_system_dim@Usecond_base_unit@si@units@boost@@V?$static_rational@$00$00@34@@units@boost@@Udimensionless_type@23@@units@boost@@U?$list@U?$dim@Utime_base_dimension@units@boost@@V?$static_rational@$00$00@23@@units@boost@@Udimensionless_type@23@@23@U?$list@U?$scale_list_dim@U?$scale@$09V?$static_rational@$0?2$00@units@boost@@@units@boost@@@units@boost@@Udimensionless_type@23@@23@@units@boost@@@23@X@units@boost@@@units@boost@@I@units@boost@@QEAAAEAV012@AEBV?$quantity@V?$absolute@V?$unit@U?$list@U?$dim@Utime_base_dimension@units@boost@@V?$static_rational@$00$00@23@@units@boost@@Udimensionless_type@23@@units@boost@@U?$heterogeneous_system@U?$heterogeneous_system_impl@U?$list@U?$heterogeneous_system_dim@Usecond_base_unit@si@units@boost@@V?$static_rational@$00$00@34@@units@boost@@Udimensionless_type@23@@units@boost@@U?$list@U?$dim@Utime_base_dimension@units@boost@@V?$static_rational@$00$00@23@@units@boost@@Udimensionless_type@23@@23@U?$list@U?$scale_list_dim@U?$scale@$09V?$static_rational@$0?2$00@units@boost@@@units@boost@@@units@boost@@Udimensionless_type@23@@23@@units@boost@@@23@X@units@boost@@@units@boost@@_J@12@@Z
	??$?5E@InputArchive@vanetza@@QEAAAEAV01@AEAE@Z
	??$?5G@InputArchive@vanetza@@QEAAAEAV01@AEAG@Z
	??$?5H@InputArchive@vanetza@@QEAAAEAV01@AEAH@Z
	??$?5I@InputArchive@vanetza@@QEAAAEAV01@AEAI@Z
	??$?6E@OutputArchive@vanetza@@QEAAAEAV01@AEBE@Z
	??$?6G@OutputArchive@vanetza@@QEAAAEAV01@AEBG@Z
	??$?6H@OutputArchive@vanetza@@QEAAAEAV01@AEBH@Z
	??$?6I@OutputArchive@vanetza@@QEAAAEAV01@AEBI@Z
	??$?8U?$_List_node@V?$tuple@VExpiry@packet_buffer@geonet@vanetza@@V?$unique_ptr@VData@packet_buffer@geonet@vanetza@@U?$default_delete@VData@packet_buffer@geonet@vanetza@@@std@@@std@@@std@@PEAX@std@@U01@@std@@YA_NAEBV?$allocator@U?$_List_node@V?$tuple@VExpiry@packet_buffer@geonet@vanetza@@V?$unique_ptr@VData@packet_buffer@geonet@vanetza@@U?$default_delete@VData@packet_buffer@geonet@vanetza@@@std@@@std@@@std@@PEAX@std@@@0@0@Z
	??$?8U?$hashed_index_node@U?$index_node_base@V?$tuple@VAddress@geonet@vanetza@@VSequenceNumber@23@@std@@V?$allocator@V?$tuple@VAddress@geonet@vanetza@@VSequenceNumber@23@@std@@@2@@detail@multi_index@boost@@@detail@multi_index@boost@@V?$bucket_array@V?$allocator@V?$tuple@VAddress@geonet@vanetza@@VSequenceNumber@23@@std@@@std@@@123@Uhashed_unique_tag@123@Uhashed_index_global_iterator_tag@123@@detail@multi_index@boost@@YA_NAEBV?$hashed_index_iterator@U?$hashed_index_node@U?$index_node_base@V?$tuple@VAddress@geonet@vanetza@@VSequenceNumber@23@@std@@V?$allocator@V?$tuple@VAddress@geonet@vanetza@@VSequenceNumber@23@@std@@@2@@detail@multi_index@boost@@@detail@multi_index@boost@@V?$bucket_array@V?$allocator@V?$tuple@VAddress@geonet@vanetza@@VSequenceNumber@23@@std@@@std@@@234@Uhashed_unique_tag@234@Uhashed_index_global_iterator_tag@234@@012@0@Z
	??$?8U?$hashed_index_node@U?$ordered_index_node@Unull_augment_policy@detail@multi_index@boost@@U?$index_node_base@V?$mutant_relation@U?$tagged@$$CBUTimer@CbfPacketBuffer@geonet@vanetza@@Uleft@member_at@relation@bimaps@boost@@@tags@bimaps@boost@@U?$tagged@$$CBV?$tuple@VAddress@geonet@vanetza@@VSequenceNumber@23@@std@@Uright@member_at@relation@bimaps@boost@@@234@V?$_List_iterator@V?$_List_val@U?$_List_simple_types@VCbfPacket@geonet@vanetza@@@std@@@std@@@std@@$00@relation@bimaps@boost@@V?$allocator@V?$mutant_relation@U?$tagged@$$CBUTimer@CbfPacketBuffer@geonet@vanetza@@Uleft@member_at@relation@bimaps@boost@@@tags@bimaps@boost@@U?$tagged@$$CBV?$tuple@VAddress@geonet@vanetza@@VSequenceNumber@23@@std@@Uright@member_at@relation@bimaps@boost@@@234@V?$_List_iterator@V?$_List_val@U?$_List_simple_types@VCbfPacket@geonet@vanetza@@@std@@@std@@@std@@$00@relation@bimaps@boost@@@std@@@234@@detail@multi_index@boost@@@detail@multi_index@boost@@V?$bucket_array@V?$allocator@V?$mutant_relation@U?$tagged@$$CBUTimer@CbfPacketBuffer@geonet@vanetza@@Uleft@member_at@relation@bimaps@boost@@@tags@bimaps@boost@@U?$tagged@$$CBV?$tuple@VAddress@geonet@vanetza@@VSequenceNumber@23@@std@@Uright@member_at@relation@bimaps@boost@@@234@V?$_List_iterator@V?$_List_val@U?$_List_simple_types@VCbfPacket@geonet@vanetza@@@std@@@std@@@std@@$00@relation@bimaps@boost@@@std@@@123@Uhashed_unique_tag@123@Uhashed_index_global_iterator_tag@123@@detail@multi_index@boost@@YA_NAEBV?$hashed_index_iterator@U?$hashed_index_node@U?$ordered_index_node@Unull_augment_policy@detail@multi_index@boost@@U?$index_node_base@V?$mutant_relation@U?$tagged@$$CBUTimer@CbfPacketBuffer@geonet@vanetza@@Uleft@member_at@relation@bimaps@boost@@@tags@bimaps@boost@@U?$tagged@$$CBV?$tuple@VAddress@geonet@vanetza@@VSequenceNumber@23@@std@@Uright@member_at@relation@bimaps@boost@@@234@V?$_List_iterator@V?$_List_val@U?$_List_simple_types@VCbfPacket@geonet@vanetza@@@std@@@std@@@std@@$00@relation@bimaps@boost@@V?$allocator@V?$mutant_relation@U?$tagged@$$CBUTimer@CbfPacketBuffer@geonet@vanetza@@Uleft@member_at@relation@bimaps@boost@@@tags@bimaps@boost@@U?$tagged@$$CBV?$tuple@VAddress@geonet@vanetza@@VSequenceNumber@23@@std@@Uright@member_at@relation@bimaps@boost@@@234@V?$_List_iterator@V?$_List_val@U?$_List_simple_types@VCbfPacket@geonet@vanetza@@@std@@@std@@@std@@$00@relation@bimaps@boost@@@std@@@234@@detail@multi_index@boost@@@detail@multi_index@boost@@V?$bucket_array@V?$allocator@V?$mutant_relation@U?$tagged@$$CBUTimer@CbfPacketBuffer@geonet@vanetza@@Uleft@member_at@relation@bimaps@boost@@@tags@bimaps@boost@@U?$tagged@$$CBV?$tuple@VAddress@geonet@vanetza@@VSequenceNumber@23@@std@@Uright@member_at@relation@bimaps@boost@@@234@V?$_List_iterator@V?$_List_val@U?$_List_simple_types@VCbfPacket@geonet@vanetza@@@std@@@std@@@std@@$00@relation@bimaps@boost@@@std@@@234@Uhashed_unique_tag@234@Uhashed_index_global_iterator_tag@234@@012@0@Z
	??$?8U?$map_view_iterator@Uleft@member_at@relation@bimaps@boost@@V?$bimap_core@U?$multiset_of@UTimer@CbfPacketBuffer@geonet@vanetza@@U?$less@UTimer@CbfPacketBuffer@geonet@vanetza@@@std@@@bimaps@boost@@U?$unordered_set_of@V?$tuple@VAddress@geonet@vanetza@@VSequenceNumber@23@@std@@U?$hash@V?$tuple@VAddress@geonet@vanetza@@VSequenceNumber@23@@std@@@2@U?$equal_to@V?$tuple@VAddress@geonet@vanetza@@VSequenceNumber@23@@std@@@2@@23@U?$with_info@V?$_List_iterator@V?$_List_val@U?$_List_simple_types@VCbfPacket@geonet@vanetza@@@std@@@std@@@std@@@23@Una@mpl@3@U673@@detail@45@@detail@bimaps@boost@@V?$structured_pair@U?$tagged@$$CBUTimer@CbfPacketBuffer@geonet@vanetza@@Uleft@member_at@relation@bimaps@boost@@@tags@bimaps@boost@@U?$tagged@$$CBV?$tuple@VAddress@geonet@vanetza@@VSequenceNumber@23@@std@@Uright@member_at@relation@bimaps@boost@@@234@V?$_List_iterator@V?$_List_val@U?$_List_simple_types@VCbfPacket@geonet@vanetza@@@std@@@std@@@std@@Unormal_layout@relation@34@@relation@23@Ubidirectional_traversal_tag@iterators@3@AEAV4523@_JU0123@V4523@U673@AEAV4523@_J@iterators@boost@@YA_NAEBV?$iterator_facade@U?$map_view_iterator@Uleft@member_at@relation@bimaps@boost@@V?$bimap_core@U?$multiset_of@UTimer@CbfPacketBuffer@geonet@vanetza@@U?$less@UTimer@CbfPacketBuffer@geonet@vanetza@@@std@@@bimaps@boost@@U?$unordered_set_of@V?$tuple@VAddress@geonet@vanetza@@VSequenceNumber@23@@std@@U?$hash@V?$tuple@VAddress@geonet@vanetza@@VSequenceNumber@23@@std@@@2@U?$equal_to@V?$tuple@VAddress@geonet@vanetza@@VSequenceNumber@23@@std@@@2@@23@U?$with_info@V?$_List_iterator@V?$_List_val@U?$_List_simple_types@VCbfPacket@geonet@vanetza@@@std@@@std@@@std@@@23@Una@mpl@3@U673@@detail@45@@detail@bimaps@boost@@V?$structured_pair@U?$tagged@$$CBUTimer@CbfPacketBuffer@geonet@vanetza@@Uleft@member_at@relation@bimaps@boost@@@tags@bimaps@boost@@U?$tagged@$$CBV?$tuple@VAddress@geonet@vanetza@@VSequenceNumber@23@@std@@Uright@member_at@relation@bimaps@boost@@@234@V?$_List_iterator@V?$_List_val@U?$_List_simple_types@VCbfPacket@geonet@vanetza@@@std@@@std@@@std@@Unormal_layout@relation@34@@relation@34@Ubidirectional_traversal_tag@iterators@4@AEAV5634@_J@01@0@Z
	??$?8U?$ordered_index_node@Unull_augment_policy@detail@multi_index@boost@@U?$index_node_base@V?$mutant_relation@U?$tagged@$$CBUTimer@CbfPacketBuffer@geonet@vanetza@@Uleft@member_at@relation@bimaps@boost@@@tags@bimaps@boost@@U?$tagged@$$CBV?$tuple@VAddress@geonet@vanetza@@VSequenceNumber@23@@std@@Uright@member_at@relation@bimaps@boost@@@234@V?$_List_iterator@V?$_List_val@U?$_List_simple_types@VCbfPacket@geonet@vanetza@@@std@@@std@@@std@@$00@relation@bimaps@boost@@V?$allocator@V?$mutant_relation@U?$tagged@$$CBUTimer@CbfPacketBuffer@geonet@vanetza@@Uleft@member_at@relation@bimaps@boost@@@tags@bimaps@boost@@U?$tagged@$$CBV?$tuple@VAddress@geonet@vanetza@@VSequenceNumber@23@@std@@Uright@member_at@relation@bimaps@boost@@@234@V?$_List_iterator@V?$_List_val@U?$_List_simple_types@VCbfPacket@geonet@vanetza@@@std@@@std@@@std@@$00@relation@bimaps@boost@@@std@@@234@@detail@multi_index@boost@@@detail@multi_index@boost@@YA_NAEBV?$bidir_node_iterator@U?$ordered_index_node@Unull_augment_policy@detail@multi_index@boost@@U?$index_node_base@V?$mutant_relation@U?$tagged@$$CBUTimer@CbfPacketBuffer@geonet@vanetza@@Uleft@member_at@relation@bimaps@boost@@@tags@bimaps@boost@@U?$tagged@$$CBV?$tuple@VAddress@geonet@vanetza@@VSequenceNumber@23@@std@@Uright@member_at@relation@bimaps@boost@@@234@V?$_List_iterator@V?$_List_val@U?$_List_simple_types@VCbfPacket@geonet@vanetza@@@std@@@std@@@std@@$00@relation@bimaps@boost@@V?$allocator@V?$mutant_relation@U?$tagged@$$CBUTimer@CbfPacketBuffer@geonet@vanetza@@Uleft@member_at@relation@bimaps@boost@@@tags@bimaps@boost@@U?$tagged@$$CBV?$tuple@VAddress@geonet@vanetza@@VSequenceNumber@23@@std@@Uright@member_at@relation@bimaps@boost@@@234@V?$_List_iterator@V?$_List_val@U?$_List_simple_types@VCbfPacket@geonet@vanetza@@@std@@@std@@@std@@$00@relation@bimaps@boost@@@std@@@234@@detail@multi_index@boost@@@012@0@Z
	??$?8U?$sequenced_index_node@U?$hashed_index_node@U?$index_node_base@V?$tuple@VAddress@geonet@vanetza@@VSequenceNumber@23@@std@@V?$allocator@V?$tuple@VAddress@geonet@vanetza@@VSequenceNumber@23@@std@@@2@@detail@multi_index@boost@@@detail@multi_index@boost@@@detail@multi_index@boost@@@detail@multi_index@boost@@YA_NAEBV?$bidir_node_iterator@U?$sequenced_index_node@U?$hashed_index_node@U?$index_node_base@V?$tuple@VAddress@geonet@vanetza@@VSequenceNumber@23@@std@@V?$allocator@V?$tuple@VAddress@geonet@vanetza@@VSequenceNumber@23@@std@@@2@@detail@multi_index@boost@@@detail@multi_index@boost@@@detail@multi_index@boost@@@012@0@Z
	??$?8V?$filter_iterator@V?$default_constructible_unary_fn_wrapper@V?$function@$$A6A_NAEBU?$pair@$$CBVMacAddress@vanetza@@UValueWithHandle@?$SoftStateMap@VMacAddress@vanetza@@VLocationTableEntry@geonet@2@VLocationTableEntryCreator@42@@geonet@2@@std@@@Z@std@@_N@range_detail@boost@@V?$_List_iterator@V?$_List_val@U?$_List_simple_types@U?$pair@$$CBVMacAddress@vanetza@@UValueWithHandle@?$SoftStateMap@VMacAddress@vanetza@@VLocationTableEntry@geonet@2@VLocationTableEntryCreator@42@@geonet@2@@std@@@std@@@std@@@std@@@iterators@boost@@U?$pair@$$CBVMacAddress@vanetza@@UValueWithHandle@?$SoftStateMap@VMacAddress@vanetza@@VLocationTableEntry@geonet@2@VLocationTableEntryCreator@42@@geonet@2@@std@@Ubidirectional_traversal_tag@12@AEAU34@_JV012@U34@U512@AEAU34@_J@iterators@boost@@YA_NAEBV?$iterator_facade@V?$filter_iterator@V?$default_constructible_unary_fn_wrapper@V?$function@$$A6A_NAEBU?$pair@$$CBVMacAddress@vanetza@@UValueWithHandle@?$SoftStateMap@VMacAddress@vanetza@@VLocationTableEntry@geonet@2@VLocationTableEntryCreator@42@@geonet@2@@std@@@Z@std@@_N@range_detail@boost@@V?$_List_iterator@V?$_List_val@U?$_List_simple_types@U?$pair@$$CBVMacAddress@vanetza@@UValueWithHandle@?$SoftStateMap@VMacAddress@vanetza@@VLocationTableEntry@geonet@2@VLocationTableEntryCreator@42@@geonet@2@@std@@@std@@@std@@@std@@@iterators@boost@@U?$pair@$$CBVMacAddress@vanetza@@UValueWithHandle@?$SoftStateMap@VMacAddress@vanetza@@VLocationTableEntry@geonet@2@VLocationTableEntryCreator@42@@geonet@2@@std@@Ubidirectional_traversal_tag@23@AEAU45@_J@01@0@Z
	??$?8V?$filter_iterator@V?$default_constructible_unary_fn_wrapper@V?$function@$$A6A_NAEBU?$pair@AEBVMacAddress@vanetza@@AEAVLocationTableEntry@geonet@2@@std@@@Z@std@@_N@range_detail@boost@@V?$transform_iterator@V?$default_constructible_unary_fn_wrapper@V?$function@$$A6A?AU?$pair@AEBVMacAddress@vanetza@@AEAVLocationTableEntry@geonet@2@@std@@AEAU?$pair@$$CBVMacAddress@vanetza@@UValueWithHandle@?$SoftStateMap@VMacAddress@vanetza@@VLocationTableEntry@geonet@2@VLocationTableEntryCreator@42@@geonet@2@@2@@Z@std@@U?$pair@AEBVMacAddress@vanetza@@AEAVLocationTableEntry@geonet@2@@2@@range_detail@boost@@V?$filter_iterator@V?$default_constructible_unary_fn_wrapper@V?$function@$$A6A_NAEBU?$pair@$$CBVMacAddress@vanetza@@UValueWithHandle@?$SoftStateMap@VMacAddress@vanetza@@VLocationTableEntry@geonet@2@VLocationTableEntryCreator@42@@geonet@2@@std@@@Z@std@@_N@range_detail@boost@@V?$_List_iterator@V?$_List_val@U?$_List_simple_types@U?$pair@$$CBVMacAddress@vanetza@@UValueWithHandle@?$SoftStateMap@VMacAddress@vanetza@@VLocationTableEntry@geonet@2@VLocationTableEntryCreator@42@@geonet@2@@std@@@std@@@std@@@std@@@iterators@3@Uuse_default@3@U63@@iterators@3@@iterators@boost@@U?$pair@AEBVMacAddress@vanetza@@AEAVLocationTableEntry@geonet@2@@std@@U?$iterator_category_with_traversal@Uinput_iterator_tag@std@@Ubidirectional_traversal_tag@iterators@boost@@@detail@12@U34@_JV012@U34@U5612@U34@_J@iterators@boost@@YA_NAEBV?$iterator_facade@V?$filter_iterator@V?$default_constructible_unary_fn_wrapper@V?$function@$$A6A_NAEBU?$pair@AEBVMacAddress@vanetza@@AEAVLocationTableEntry@geonet@2@@std@@@Z@std@@_N@range_detail@boost@@V?$transform_iterator@V?$default_constructible_unary_fn_wrapper@V?$function@$$A6A?AU?$pair@AEBVMacAddress@vanetza@@AEAVLocationTableEntry@geonet@2@@std@@AEAU?$pair@$$CBVMacAddress@vanetza@@UValueWithHandle@?$SoftStateMap@VMacAddress@vanetza@@VLocationTableEntry@geonet@2@VLocationTableEntryCreator@42@@geonet@2@@2@@Z@std@@U?$pair@AEBVMacAddress@vanetza@@AEAVLocationTableEntry@geonet@2@@2@@range_detail@boost@@V?$filter_iterator@V?$default_constructible_unary_fn_wrapper@V?$function@$$A6A_NAEBU?$pair@$$CBVMacAddress@vanetza@@UValueWithHandle@?$SoftStateMap@VMacAddress@vanetza@@VLocationTableEntry@geonet@2@VLocationTableEntryCreator@42@@geonet@2@@std@@@Z@std@@_N@range_detail@boost@@V?$_List_iterator@V?$_List_val@U?$_List_simple_types@U?$pair@$$CBVMacAddress@vanetza@@UValueWithHandle@?$SoftStateMap@VMacAddress@vanetza@@VLocationTableEntry@geonet@2@VLocationTableEntryCreator@42@@geonet@2@@std@@@std@@@std@@@std@@@iterators@3@Uuse_default@3@U63@@iterators@3@@iterators@boost@@U?$pair@AEBVMacAddress@vanetza@@AEAVLocationTableEntry@geonet@2@@std@@U?$iterator_category_with_traversal@Uinput_iterator_tag@std@@Ubidirectional_traversal_tag@iterators@boost@@@detail@23@U45@_J@01@0@Z
	??$?8V?$transform_iterator@V?$default_constructible_unary_fn_wrapper@V?$function@$$A6A?AU?$pair@AEBVMacAddress@vanetza@@AEAVLocationTableEntry@geonet@2@@std@@AEAU?$pair@$$CBVMacAddress@vanetza@@UValueWithHandle@?$SoftStateMap@VMacAddress@vanetza@@VLocationTableEntry@geonet@2@VLocationTableEntryCreator@42@@geonet@2@@2@@Z@std@@U?$pair@AEBVMacAddress@vanetza@@AEAVLocationTableEntry@geonet@2@@2@@range_detail@boost@@V?$filter_iterator@V?$default_constructible_unary_fn_wrapper@V?$function@$$A6A_NAEBU?$pair@$$CBVMacAddress@vanetza@@UValueWithHandle@?$SoftStateMap@VMacAddress@vanetza@@VLocationTableEntry@geonet@2@VLocationTableEntryCreator@42@@geonet@2@@std@@@Z@std@@_N@range_detail@boost@@V?$_List_iterator@V?$_List_val@U?$_List_simple_types@U?$pair@$$CBVMacAddress@vanetza@@UValueWithHandle@?$SoftStateMap@VMacAddress@vanetza@@VLocationTableEntry@geonet@2@VLocationTableEntryCreator@42@@geonet@2@@std@@@std@@@std@@@std@@@iterators@3@Uuse_default@3@U63@@iterators@boost@@U?$pair@AEBVMacAddress@vanetza@@AEAVLocationTableEntry@geonet@2@@std@@Ubidirectional_traversal_tag@12@U34@_JV012@U34@U512@U34@_J@iterators@boost@@YA_NAEBV?$iterator_facade@V?$transform_iterator@V?$default_constructible_unary_fn_wrapper@V?$function@$$A6A?AU?$pair@AEBVMacAddress@vanetza@@AEAVLocationTableEntry@geonet@2@@std@@AEAU?$pair@$$CBVMacAddress@vanetza@@UValueWithHandle@?$SoftStateMap@VMacAddress@vanetza@@VLocationTableEntry@geonet@2@VLocationTableEntryCreator@42@@geonet@2@@2@@Z@std@@U?$pair@AEBVMacAddress@vanetza@@AEAVLocationTableEntry@geonet@2@@2@@range_detail@boost@@V?$filter_iterator@V?$default_constructible_unary_fn_wrapper@V?$function@$$A6A_NAEBU?$pair@$$CBVMacAddress@vanetza@@UValueWithHandle@?$SoftStateMap@VMacAddress@vanetza@@VLocationTableEntry@geonet@2@VLocationTableEntryCreator@42@@geonet@2@@std@@@Z@std@@_N@range_detail@boost@@V?$_List_iterator@V?$_List_val@U?$_List_simple_types@U?$pair@$$CBVMacAddress@vanetza@@UValueWithHandle@?$SoftStateMap@VMacAddress@vanetza@@VLocationTableEntry@geonet@2@VLocationTableEntryCreator@42@@geonet@2@@std@@@std@@@std@@@std@@@iterators@3@Uuse_default@3@U63@@iterators@boost@@U?$pair@AEBVMacAddress@vanetza@@AEAVLocationTableEntry@geonet@2@@std@@Ubidirectional_traversal_tag@23@U45@_J@01@0@Z
	??$?8V?$unit@U?$list@U?$dim@Ulength_base_dimension@units@boost@@V?$static_rational@$00$00@23@@units@boost@@U?$list@U?$dim@Utime_base_dimension@units@boost@@V?$static_rational@$0?0$00@23@@units@boost@@Udimensionless_type@23@@23@@units@boost@@U?$heterogeneous_system@U?$heterogeneous_system_impl@U?$list@U?$heterogeneous_system_dim@Umeter_base_unit@si@units@boost@@V?$static_rational@$00$00@34@@units@boost@@U?$list@U?$heterogeneous_system_dim@Usecond_base_unit@si@units@boost@@V?$static_rational@$0?0$00@34@@units@boost@@Udimensionless_type@23@@23@@units@boost@@U?$list@U?$dim@Ulength_base_dimension@units@boost@@V?$static_rational@$00$00@23@@units@boost@@U?$list@U?$dim@Utime_base_dimension@units@boost@@V?$static_rational@$0?0$00@23@@units@boost@@Udimensionless_type@23@@23@@23@U?$list@U?$scale_list_dim@U?$scale@$09V?$static_rational@$0?1$00@units@boost@@@units@boost@@@units@boost@@Udimensionless_type@23@@23@@units@boost@@@23@X@units@boost@@V?$BitNumber@I$0P@@vanetza@@V34@@units@boost@@YA_NAEBV?$quantity@V?$unit@U?$list@U?$dim@Ulength_base_dimension@units@boost@@V?$static_rational@$00$00@23@@units@boost@@U?$list@U?$dim@Utime_base_dimension@units@boost@@V?$static_rational@$0?0$00@23@@units@boost@@Udimensionless_type@23@@23@@units@boost@@U?$heterogeneous_system@U?$heterogeneous_system_impl@U?$list@U?$heterogeneous_system_dim@Umeter_base_unit@si@units@boost@@V?$static_rational@$00$00@34@@units@boost@@U?$list@U?$heterogeneous_system_dim@Usecond_base_unit@si@units@boost@@V?$static_rational@$0?0$00@34@@units@boost@@Udimensionless_type@23@@23@@units@boost@@U?$list@U?$dim@Ulength_base_dimension@units@boost@@V?$static_rational@$00$00@23@@units@boost@@U?$list@U?$dim@Utime_base_dimension@units@boost@@V?$static_rational@$0?0$00@23@@units@boost@@Udimensionless_type@23@@23@@23@U?$list@U?$scale_list_dim@U?$scale@$09V?$static_rational@$0?1$00@units@boost@@@units@boost@@@units@boost@@Udimensionless_type@23@@23@@units@boost@@@23@X@units@boost@@V?$BitNumber@I$0P@@vanetza@@@01@0@Z
	??$?8V?$unit@U?$list@U?$dim@Uplane_angle_base_dimension@units@boost@@V?$static_rational@$00$00@23@@units@boost@@Udimensionless_type@23@@units@boost@@U?$heterogeneous_system@U?$heterogeneous_system_impl@U?$list@U?$heterogeneous_system_dim@Udegree_base_unit@angle@units@boost@@V?$static_rational@$00$00@34@@units@boost@@Udimensionless_type@23@@units@boost@@U?$list@U?$dim@Uplane_angle_base_dimension@units@boost@@V?$static_rational@$00$00@23@@units@boost@@Udimensionless_type@23@@23@U?$list@U?$scale_list_dim@U?$scale@$09V?$static_rational@$0?0$00@units@boost@@@units@boost@@@units@boost@@Udimensionless_type@23@@23@@units@boost@@@23@X@units@boost@@GG@units@boost@@YA_NAEBV?$quantity@V?$unit@U?$list@U?$dim@Uplane_angle_base_dimension@units@boost@@V?$static_rational@$00$00@23@@units@boost@@Udimensionless_type@23@@units@boost@@U?$heterogeneous_system@U?$heterogeneous_system_impl@U?$list@U?$heterogeneous_system_dim@Udegree_base_unit@angle@units@boost@@V?$static_rational@$00$00@34@@units@boost@@Udimensionless_type@23@@units@boost@@U?$list@U?$dim@Uplane_angle_base_dimension@units@boost@@V?$static_rational@$00$00@23@@units@boost@@Udimensionless_type@23@@23@U?$list@U?$scale_list_dim@U?$scale@$09V?$static_rational@$0?0$00@units@boost@@@units@boost@@@units@boost@@Udimensionless_type@23@@23@@units@boost@@@23@X@units@boost@@G@01@0@Z
	??$?8V?$unit@U?$list@U?$dim@Uplane_angle_base_dimension@units@boost@@V?$static_rational@$00$00@23@@units@boost@@Udimensionless_type@23@@units@boost@@U?$heterogeneous_system@U?$heterogeneous_system_impl@U?$list@U?$heterogeneous_system_dim@Udegree_base_unit@angle@units@boost@@V?$static_rational@$00$00@34@@units@boost@@Udimensionless_type@23@@units@boost@@U?$list@U?$dim@Uplane_angle_base_dimension@units@boost@@V?$static_rational@$00$00@23@@units@boost@@Udimensionless_type@23@@23@U?$list@U?$scale_list_dim@U?$scale@$09V?$static_rational@$0?6$00@units@boost@@@units@boost@@@units@boost@@Udimensionless_type@23@@23@@units@boost@@@23@X@units@boost@@HH@units@boost@@YA_NAEBV?$quantity@V?$unit@U?$list@U?$dim@Uplane_angle_base_dimension@units@boost@@V?$static_rational@$00$00@23@@units@boost@@Udimensionless_type@23@@units@boost@@U?$heterogeneous_system@U?$heterogeneous_system_impl@U?$list@U?$heterogeneous_system_dim@Udegree_base_unit@angle@units@boost@@V?$static_rational@$00$00@34@@units@boost@@Udimensionless_type@23@@units@boost@@U?$list@U?$dim@Uplane_angle_base_dimension@units@boost@@V?$static_rational@$00$00@23@@units@boost@@Udimensionless_type@23@@23@U?$list@U?$scale_list_dim@U?$scale@$09V?$static_rational@$0?6$00@units@boost@@@units@boost@@@units@boost@@Udimensionless_type@23@@23@@units@boost@@@23@X@units@boost@@H@01@0@Z
	??$?8VAddress@geonet@vanetza@@VSequenceNumber@12@$$ZV012@V312@@std@@YA_NAEBV?$tuple@VAddress@geonet@vanetza@@VSequenceNumber@23@@0@0@Z
	??$?9U?$const_map_view_iterator@Uright@member_at@relation@bimaps@boost@@V?$bimap_core@U?$multiset_of@UTimer@CbfPacketBuffer@geonet@vanetza@@U?$less@UTimer@CbfPacketBuffer@geonet@vanetza@@@std@@@bimaps@boost@@U?$unordered_set_of@V?$tuple@VAddress@geonet@vanetza@@VSequenceNumber@23@@std@@U?$hash@V?$tuple@VAddress@geonet@vanetza@@VSequenceNumber@23@@std@@@2@U?$equal_to@V?$tuple@VAddress@geonet@vanetza@@VSequenceNumber@23@@std@@@2@@23@U?$with_info@V?$_List_iterator@V?$_List_val@U?$_List_simple_types@VCbfPacket@geonet@vanetza@@@std@@@std@@@std@@@23@Una@mpl@3@U673@@detail@45@@detail@bimaps@boost@@$$CBV?$structured_pair@U?$tagged@$$CBV?$tuple@VAddress@geonet@vanetza@@VSequenceNumber@23@@std@@Uright@member_at@relation@bimaps@boost@@@tags@bimaps@boost@@U?$tagged@$$CBUTimer@CbfPacketBuffer@geonet@vanetza@@Uleft@member_at@relation@bimaps@boost@@@234@V?$_List_iterator@V?$_List_val@U?$_List_simple_types@VCbfPacket@geonet@vanetza@@@std@@@std@@@std@@Umirror_layout@relation@34@@relation@23@Uforward_traversal_tag@iterators@3@AEBV4523@_JU0123@$$CBV4523@U673@AEBV4523@_J@iterators@boost@@YA_NAEBV?$iterator_facade@U?$const_map_view_iterator@Uright@member_at@relation@bimaps@boost@@V?$bimap_core@U?$multiset_of@UTimer@CbfPacketBuffer@geonet@vanetza@@U?$less@UTimer@CbfPacketBuffer@geonet@vanetza@@@std@@@bimaps@boost@@U?$unordered_set_of@V?$tuple@VAddress@geonet@vanetza@@VSequenceNumber@23@@std@@U?$hash@V?$tuple@VAddress@geonet@vanetza@@VSequenceNumber@23@@std@@@2@U?$equal_to@V?$tuple@VAddress@geonet@vanetza@@VSequenceNumber@23@@std@@@2@@23@U?$with_info@V?$_List_iterator@V?$_List_val@U?$_List_simple_types@VCbfPacket@geonet@vanetza@@@std@@@std@@@std@@@23@Una@mpl@3@U673@@detail@45@@detail@bimaps@boost@@$$CBV?$structured_pair@U?$tagged@$$CBV?$tuple@VAddress@geonet@vanetza@@VSequenceNumber@23@@std@@Uright@member_at@relation@bimaps@boost@@@tags@bimaps@boost@@U?$tagged@$$CBUTimer@CbfPacketBuffer@geonet@vanetza@@Uleft@member_at@relation@bimaps@boost@@@234@V?$_List_iterator@V?$_List_val@U?$_List_simple_types@VCbfPacket@geonet@vanetza@@@std@@@std@@@std@@Umirror_layout@relation@34@@relation@34@Uforward_traversal_tag@iterators@4@AEBV5634@_J@01@0@Z
	??$?9U?$const_traits@V?$allocator@UListElement@DuplicatePacketList@geonet@vanetza@@@std@@@cb_details@boost@@@?$iterator@V?$circular_buffer@UListElement@DuplicatePacketList@geonet@vanetza@@V?$allocator@UListElement@DuplicatePacketList@geonet@vanetza@@@std@@@boost@@U?$const_traits@V?$allocator@UListElement@DuplicatePacketList@geonet@vanetza@@@std@@@cb_details@2@@cb_details@boost@@QEBA_NAEBU012@@Z
	??$?9U?$map_view_iterator@Uleft@member_at@relation@bimaps@boost@@V?$bimap_core@U?$multiset_of@UTimer@CbfPacketBuffer@geonet@vanetza@@U?$less@UTimer@CbfPacketBuffer@geonet@vanetza@@@std@@@bimaps@boost@@U?$unordered_set_of@V?$tuple@VAddress@geonet@vanetza@@VSequenceNumber@23@@std@@U?$hash@V?$tuple@VAddress@geonet@vanetza@@VSequenceNumber@23@@std@@@2@U?$equal_to@V?$tuple@VAddress@geonet@vanetza@@VSequenceNumber@23@@std@@@2@@23@U?$with_info@V?$_List_iterator@V?$_List_val@U?$_List_simple_types@VCbfPacket@geonet@vanetza@@@std@@@std@@@std@@@23@Una@mpl@3@U673@@detail@45@@detail@bimaps@boost@@V?$structured_pair@U?$tagged@$$CBUTimer@CbfPacketBuffer@geonet@vanetza@@Uleft@member_at@relation@bimaps@boost@@@tags@bimaps@boost@@U?$tagged@$$CBV?$tuple@VAddress@geonet@vanetza@@VSequenceNumber@23@@std@@Uright@member_at@relation@bimaps@boost@@@234@V?$_List_iterator@V?$_List_val@U?$_List_simple_types@VCbfPacket@geonet@vanetza@@@std@@@std@@@std@@Unormal_layout@relation@34@@relation@23@Ubidirectional_traversal_tag@iterators@3@AEAV4523@_JU0123@V4523@U673@AEAV4523@_J@iterators@boost@@YA_NAEBV?$iterator_facade@U?$map_view_iterator@Uleft@member_at@relation@bimaps@boost@@V?$bimap_core@U?$multiset_of@UTimer@CbfPacketBuffer@geonet@vanetza@@U?$less@UTimer@CbfPacketBuffer@geonet@vanetza@@@std@@@bimaps@boost@@U?$unordered_set_of@V?$tuple@VAddress@geonet@vanetza@@VSequenceNumber@23@@std@@U?$hash@V?$tuple@VAddress@geonet@vanetza@@VSequenceNumber@23@@std@@@2@U?$equal_to@V?$tuple@VAddress@geonet@vanetza@@VSequenceNumber@23@@std@@@2@@23@U?$with_info@V?$_List_iterator@V?$_List_val@U?$_List_simple_types@VCbfPacket@geonet@vanetza@@@std@@@std@@@std@@@23@Una@mpl@3@U673@@detail@45@@detail@bimaps@boost@@V?$structured_pair@U?$tagged@$$CBUTimer@CbfPacketBuffer@geonet@vanetza@@Uleft@member_at@relation@bimaps@boost@@@tags@bimaps@boost@@U?$tagged@$$CBV?$tuple@VAddress@geonet@vanetza@@VSequenceNumber@23@@std@@Uright@member_at@relation@bimaps@boost@@@234@V?$_List_iterator@V?$_List_val@U?$_List_simple_types@VCbfPacket@geonet@vanetza@@@std@@@std@@@std@@Unormal_layout@relation@34@@relation@34@Ubidirectional_traversal_tag@iterators@4@AEAV5634@_J@01@0@Z
	??$?9U?$map_view_iterator@Uright@member_at@relation@bimaps@boost@@V?$bimap_core@U?$multiset_of@UTimer@CbfPacketBuffer@geonet@vanetza@@U?$less@UTimer@CbfPacketBuffer@geonet@vanetza@@@std@@@bimaps@boost@@U?$unordered_set_of@V?$tuple@VAddress@geonet@vanetza@@VSequenceNumber@23@@std@@U?$hash@V?$tuple@VAddress@geonet@vanetza@@VSequenceNumber@23@@std@@@2@U?$equal_to@V?$tuple@VAddress@geonet@vanetza@@VSequenceNumber@23@@std@@@2@@23@U?$with_info@V?$_List_iterator@V?$_List_val@U?$_List_simple_types@VCbfPacket@geonet@vanetza@@@std@@@std@@@std@@@23@Una@mpl@3@U673@@detail@45@@detail@bimaps@boost@@V?$structured_pair@U?$tagged@$$CBV?$tuple@VAddress@geonet@vanetza@@VSequenceNumber@23@@std@@Uright@member_at@relation@bimaps@boost@@@tags@bimaps@boost@@U?$tagged@$$CBUTimer@CbfPacketBuffer@geonet@vanetza@@Uleft@member_at@relation@bimaps@boost@@@234@V?$_List_iterator@V?$_List_val@U?$_List_simple_types@VCbfPacket@geonet@vanetza@@@std@@@std@@@std@@Umirror_layout@relation@34@@relation@23@Uforward_traversal_tag@iterators@3@AEAV4523@_JU0123@V4523@U673@AEAV4523@_J@iterators@boost@@YA_NAEBV?$iterator_facade@U?$map_view_iterator@Uright@member_at@relation@bimaps@boost@@V?$bimap_core@U?$multiset_of@UTimer@CbfPacketBuffer@geonet@vanetza@@U?$less@UTimer@CbfPacketBuffer@geonet@vanetza@@@std@@@bimaps@boost@@U?$unordered_set_of@V?$tuple@VAddress@geonet@vanetza@@VSequenceNumber@23@@std@@U?$hash@V?$tuple@VAddress@geonet@vanetza@@VSequenceNumber@23@@std@@@2@U?$equal_to@V?$tuple@VAddress@geonet@vanetza@@VSequenceNumber@23@@std@@@2@@23@U?$with_info@V?$_List_iterator@V?$_List_val@U?$_List_simple_types@VCbfPacket@geonet@vanetza@@@std@@@std@@@std@@@23@Una@mpl@3@U673@@detail@45@@detail@bimaps@boost@@V?$structured_pair@U?$tagged@$$CBV?$tuple@VAddress@geonet@vanetza@@VSequenceNumber@23@@std@@Uright@member_at@relation@bimaps@boost@@@tags@bimaps@boost@@U?$tagged@$$CBUTimer@CbfPacketBuffer@geonet@vanetza@@Uleft@member_at@relation@bimaps@boost@@@234@V?$_List_iterator@V?$_List_val@U?$_List_simple_types@VCbfPacket@geonet@vanetza@@@std@@@std@@@std@@Umirror_layout@relation@34@@relation@34@Uforward_traversal_tag@iterators@4@AEAV5634@_J@01@0@Z
	??$?9U?$nonconst_traits@V?$allocator@UListElement@DuplicatePacketList@geonet@vanetza@@@std@@@cb_details@boost@@@?$iterator@V?$circular_buffer@UListElement@DuplicatePacketList@geonet@vanetza@@V?$allocator@UListElement@DuplicatePacketList@geonet@vanetza@@@std@@@boost@@U?$nonconst_traits@V?$allocator@UListElement@DuplicatePacketList@geonet@vanetza@@@std@@@cb_details@2@@cb_details@boost@@QEBA_NAEBU012@@Z
	??$?9V?$transform_iterator@V?$default_constructible_unary_fn_wrapper@V?$function@$$A6A?AU?$pair@AEBVMacAddress@vanetza@@AEAVLocationTableEntry@geonet@2@@std@@AEAU?$pair@$$CBVMacAddress@vanetza@@UValueWithHandle@?$SoftStateMap@VMacAddress@vanetza@@VLocationTableEntry@geonet@2@VLocationTableEntryCreator@42@@geonet@2@@2@@Z@std@@U?$pair@AEBVMacAddress@vanetza@@AEAVLocationTableEntry@geonet@2@@2@@range_detail@boost@@V?$filter_iterator@V?$default_constructible_unary_fn_wrapper@V?$function@$$A6A_NAEBU?$pair@$$CBVMacAddress@vanetza@@UValueWithHandle@?$SoftStateMap@VMacAddress@vanetza@@VLocationTableEntry@geonet@2@VLocationTableEntryCreator@42@@geonet@2@@std@@@Z@std@@_N@range_detail@boost@@V?$_List_iterator@V?$_List_val@U?$_List_simple_types@U?$pair@$$CBVMacAddress@vanetza@@UValueWithHandle@?$SoftStateMap@VMacAddress@vanetza@@VLocationTableEntry@geonet@2@VLocationTableEntryCreator@42@@geonet@2@@std@@@std@@@std@@@std@@@iterators@3@Uuse_default@3@U63@@iterators@boost@@U?$pair@AEBVMacAddress@vanetza@@AEAVLocationTableEntry@geonet@2@@std@@Ubidirectional_traversal_tag@12@U34@_JV012@U34@U512@U34@_J@iterators@boost@@YA_NAEBV?$iterator_facade@V?$transform_iterator@V?$default_constructible_unary_fn_wrapper@V?$function@$$A6A?AU?$pair@AEBVMacAddress@vanetza@@AEAVLocationTableEntry@geonet@2@@std@@AEAU?$pair@$$CBVMacAddress@vanetza@@UValueWithHandle@?$SoftStateMap@VMacAddress@vanetza@@VLocationTableEntry@geonet@2@VLocationTableEntryCreator@42@@geonet@2@@2@@Z@std@@U?$pair@AEBVMacAddress@vanetza@@AEAVLocationTableEntry@geonet@2@@2@@range_detail@boost@@V?$filter_iterator@V?$default_constructible_unary_fn_wrapper@V?$function@$$A6A_NAEBU?$pair@$$CBVMacAddress@vanetza@@UValueWithHandle@?$SoftStateMap@VMacAddress@vanetza@@VLocationTableEntry@geonet@2@VLocationTableEntryCreator@42@@geonet@2@@std@@@Z@std@@_N@range_detail@boost@@V?$_List_iterator@V?$_List_val@U?$_List_simple_types@U?$pair@$$CBVMacAddress@vanetza@@UValueWithHandle@?$SoftStateMap@VMacAddress@vanetza@@VLocationTableEntry@geonet@2@VLocationTableEntryCreator@42@@geonet@2@@std@@@std@@@std@@@std@@@iterators@3@Uuse_default@3@U63@@iterators@boost@@U?$pair@AEBVMacAddress@vanetza@@AEAVLocationTableEntry@geonet@2@@std@@Ubidirectional_traversal_tag@23@U45@_J@01@0@Z
	??$?DN@units@boost@@YANAEBNAEBUone@01@@Z
	??$?DN@units@boost@@YANAEBUone@01@AEBN@Z
	??$?DU?$heterogeneous_system@U?$heterogeneous_system_impl@U?$list@U?$heterogeneous_system_dim@Usecond_base_unit@si@units@boost@@V?$static_rational@$00$00@34@@units@boost@@Udimensionless_type@23@@units@boost@@U?$list@U?$dim@Utime_base_dimension@units@boost@@V?$static_rational@$00$00@23@@units@boost@@Udimensionless_type@23@@23@U?$list@U?$scale_list_dim@U?$scale@$09V?$static_rational@$0?2$00@units@boost@@@units@boost@@@units@boost@@Udimensionless_type@23@@23@@units@boost@@@units@boost@@U?$list@U?$dim@Utime_base_dimension@units@boost@@V?$static_rational@$00$00@23@@units@boost@@Udimensionless_type@23@@12@H@units@boost@@YA?AV?$quantity@V?$unit@U?$list@U?$dim@Utime_base_dimension@units@boost@@V?$static_rational@$00$00@23@@units@boost@@Udimensionless_type@23@@units@boost@@U?$heterogeneous_system@U?$heterogeneous_system_impl@U?$list@U?$heterogeneous_system_dim@Usecond_base_unit@si@units@boost@@V?$static_rational@$00$00@34@@units@boost@@Udimensionless_type@23@@units@boost@@U?$list@U?$dim@Utime_base_dimension@units@boost@@V?$static_rational@$00$00@23@@units@boost@@Udimensionless_type@23@@23@U?$list@U?$scale_list_dim@U?$scale@$09V?$static_rational@$0?2$00@units@boost@@@units@boost@@@units@boost@@Udimensionless_type@23@@23@@units@boost@@@23@X@units@boost@@H@01@AEBHAEBV?$unit@U?$list@U?$dim@Utime_base_dimension@units@boost@@V?$static_rational@$00$00@23@@units@boost@@Udimensionless_type@23@@units@boost@@U?$heterogeneous_system@U?$heterogeneous_system_impl@U?$list@U?$heterogeneous_system_dim@Usecond_base_unit@si@units@boost@@V?$static_rational@$00$00@34@@units@boost@@Udimensionless_type@23@@units@boost@@U?$list@U?$dim@Utime_base_dimension@units@boost@@V?$static_rational@$00$00@23@@units@boost@@Udimensionless_type@23@@23@U?$list@U?$scale_list_dim@U?$scale@$09V?$static_rational@$0?2$00@units@boost@@@units@boost@@@units@boost@@Udimensionless_type@23@@23@@units@boost@@@23@X@01@@Z
	??$?DU?$heterogeneous_system@U?$heterogeneous_system_impl@U?$list@U?$heterogeneous_system_dim@Usecond_base_unit@si@units@boost@@V?$static_rational@$00$00@34@@units@boost@@Udimensionless_type@23@@units@boost@@U?$list@U?$dim@Utime_base_dimension@units@boost@@V?$static_rational@$00$00@23@@units@boost@@Udimensionless_type@23@@23@U?$list@U?$scale_list_dim@U?$scale@$09V?$static_rational@$0?2$00@units@boost@@@units@boost@@@units@boost@@Udimensionless_type@23@@23@@units@boost@@@units@boost@@U?$list@U?$dim@Utime_base_dimension@units@boost@@V?$static_rational@$00$00@23@@units@boost@@Udimensionless_type@23@@12@N@units@boost@@YA?AV?$quantity@V?$unit@U?$list@U?$dim@Utime_base_dimension@units@boost@@V?$static_rational@$00$00@23@@units@boost@@Udimensionless_type@23@@units@boost@@U?$heterogeneous_system@U?$heterogeneous_system_impl@U?$list@U?$heterogeneous_system_dim@Usecond_base_unit@si@units@boost@@V?$static_rational@$00$00@34@@units@boost@@Udimensionless_type@23@@units@boost@@U?$list@U?$dim@Utime_base_dimension@units@boost@@V?$static_rational@$00$00@23@@units@boost@@Udimensionless_type@23@@23@U?$list@U?$scale_list_dim@U?$scale@$09V?$static_rational@$0?2$00@units@boost@@@units@boost@@@units@boost@@Udimensionless_type@23@@23@@units@boost@@@23@X@units@boost@@N@01@AEBNAEBV?$unit@U?$list@U?$dim@Utime_base_dimension@units@boost@@V?$static_rational@$00$00@23@@units@boost@@Udimensionless_type@23@@units@boost@@U?$heterogeneous_system@U?$heterogeneous_system_impl@U?$list@U?$heterogeneous_system_dim@Usecond_base_unit@si@units@boost@@V?$static_rational@$00$00@34@@units@boost@@Udimensionless_type@23@@units@boost@@U?$list@U?$dim@Utime_base_dimension@units@boost@@V?$static_rational@$00$00@23@@units@boost@@Udimensionless_type@23@@23@U?$list@U?$scale_list_dim@U?$scale@$09V?$static_rational@$0?2$00@units@boost@@@units@boost@@@units@boost@@Udimensionless_type@23@@23@@units@boost@@@23@X@01@@Z
	??$?DU?$heterogeneous_system@U?$heterogeneous_system_impl@Udimensionless_type@units@boost@@U123@U?$list@U?$scale_list_dim@U?$scale@$09V?$static_rational@$02$00@units@boost@@@units@boost@@@units@boost@@Udimensionless_type@23@@23@@units@boost@@@units@boost@@Udimensionless_type@12@H@units@boost@@YA?AV?$quantity@V?$unit@Udimensionless_type@units@boost@@U?$heterogeneous_system@U?$heterogeneous_system_impl@Udimensionless_type@units@boost@@U123@U?$list@U?$scale_list_dim@U?$scale@$09V?$static_rational@$02$00@units@boost@@@units@boost@@@units@boost@@Udimensionless_type@23@@23@@units@boost@@@23@X@units@boost@@H@01@AEBHAEBV?$unit@Udimensionless_type@units@boost@@U?$heterogeneous_system@U?$heterogeneous_system_impl@Udimensionless_type@units@boost@@U123@U?$list@U?$scale_list_dim@U?$scale@$09V?$static_rational@$02$00@units@boost@@@units@boost@@@units@boost@@Udimensionless_type@23@@23@@units@boost@@@23@X@01@@Z
	??$?DU?$homogeneous_system@U?$list@Udegree_base_unit@angle@units@boost@@Udimensionless_type@34@@units@boost@@@units@boost@@U?$list@U?$dim@Uplane_angle_base_dimension@units@boost@@V?$static_rational@$00$00@23@@units@boost@@Udimensionless_type@23@@12@H@units@boost@@YA?AV?$quantity@V?$unit@U?$list@U?$dim@Uplane_angle_base_dimension@units@boost@@V?$static_rational@$00$00@23@@units@boost@@Udimensionless_type@23@@units@boost@@U?$homogeneous_system@U?$list@Udegree_base_unit@angle@units@boost@@Udimensionless_type@34@@units@boost@@@23@X@units@boost@@H@01@AEBHAEBV?$unit@U?$list@U?$dim@Uplane_angle_base_dimension@units@boost@@V?$static_rational@$00$00@23@@units@boost@@Udimensionless_type@23@@units@boost@@U?$homogeneous_system@U?$list@Udegree_base_unit@angle@units@boost@@Udimensionless_type@34@@units@boost@@@23@X@01@@Z
	??$?DU?$homogeneous_system@U?$list@Udegree_base_unit@angle@units@boost@@Udimensionless_type@34@@units@boost@@@units@boost@@U?$list@U?$dim@Uplane_angle_base_dimension@units@boost@@V?$static_rational@$00$00@23@@units@boost@@Udimensionless_type@23@@12@N@units@boost@@YA?AV?$quantity@V?$unit@U?$list@U?$dim@Uplane_angle_base_dimension@units@boost@@V?$static_rational@$00$00@23@@units@boost@@Udimensionless_type@23@@units@boost@@U?$homogeneous_system@U?$list@Udegree_base_unit@angle@units@boost@@Udimensionless_type@34@@units@boost@@@23@X@units@boost@@N@01@AEBNAEBV?$unit@U?$list@U?$dim@Uplane_angle_base_dimension@units@boost@@V?$static_rational@$00$00@23@@units@boost@@Udimensionless_type@23@@units@boost@@U?$homogeneous_system@U?$list@Udegree_base_unit@angle@units@boost@@Udimensionless_type@34@@units@boost@@@23@X@01@@Z
	??$?DU?$homogeneous_system@U?$list@Umeter_base_unit@si@units@boost@@U?$list@U?$scaled_base_unit@Ugram_base_unit@cgs@units@boost@@U?$scale@$09V?$static_rational@$02$00@units@boost@@@34@@units@boost@@U?$list@Usecond_base_unit@si@units@boost@@U?$list@Uampere_base_unit@si@units@boost@@U?$list@Ukelvin_base_unit@si@units@boost@@U?$list@Umole_base_unit@si@units@boost@@U?$list@Ucandela_base_unit@si@units@boost@@U?$list@Uradian_base_unit@angle@units@boost@@U?$list@Usteradian_base_unit@angle@units@boost@@Udimensionless_type@34@@34@@34@@34@@34@@34@@34@@23@@34@@units@boost@@@units@boost@@U?$list@U?$dim@Ulength_base_dimension@units@boost@@V?$static_rational@$00$00@23@@units@boost@@Udimensionless_type@23@@12@H@units@boost@@YA?AV?$quantity@V?$unit@U?$list@U?$dim@Ulength_base_dimension@units@boost@@V?$static_rational@$00$00@23@@units@boost@@Udimensionless_type@23@@units@boost@@U?$homogeneous_system@U?$list@Umeter_base_unit@si@units@boost@@U?$list@U?$scaled_base_unit@Ugram_base_unit@cgs@units@boost@@U?$scale@$09V?$static_rational@$02$00@units@boost@@@34@@units@boost@@U?$list@Usecond_base_unit@si@units@boost@@U?$list@Uampere_base_unit@si@units@boost@@U?$list@Ukelvin_base_unit@si@units@boost@@U?$list@Umole_base_unit@si@units@boost@@U?$list@Ucandela_base_unit@si@units@boost@@U?$list@Uradian_base_unit@angle@units@boost@@U?$list@Usteradian_base_unit@angle@units@boost@@Udimensionless_type@34@@34@@34@@34@@34@@34@@34@@23@@34@@units@boost@@@23@X@units@boost@@H@01@AEBHAEBV?$unit@U?$list@U?$dim@Ulength_base_dimension@units@boost@@V?$static_rational@$00$00@23@@units@boost@@Udimensionless_type@23@@units@boost@@U?$homogeneous_system@U?$list@Umeter_base_unit@si@units@boost@@U?$list@U?$scaled_base_unit@Ugram_base_unit@cgs@units@boost@@U?$scale@$09V?$static_rational@$02$00@units@boost@@@34@@units@boost@@U?$list@Usecond_base_unit@si@units@boost@@U?$list@Uampere_base_unit@si@units@boost@@U?$list@Ukelvin_base_unit@si@units@boost@@U?$list@Umole_base_unit@si@units@boost@@U?$list@Ucandela_base_unit@si@units@boost@@U?$list@Uradian_base_unit@angle@units@boost@@U?$list@Usteradian_base_unit@angle@units@boost@@Udimensionless_type@34@@34@@34@@34@@34@@34@@34@@23@@34@@units@boost@@@23@X@01@@Z
	??$?DU?$homogeneous_system@U?$list@Umeter_base_unit@si@units@boost@@U?$list@U?$scaled_base_unit@Ugram_base_unit@cgs@units@boost@@U?$scale@$09V?$static_rational@$02$00@units@boost@@@34@@units@boost@@U?$list@Usecond_base_unit@si@units@boost@@U?$list@Uampere_base_unit@si@units@boost@@U?$list@Ukelvin_base_unit@si@units@boost@@U?$list@Umole_base_unit@si@units@boost@@U?$list@Ucandela_base_unit@si@units@boost@@U?$list@Uradian_base_unit@angle@units@boost@@U?$list@Usteradian_base_unit@angle@units@boost@@Udimensionless_type@34@@34@@34@@34@@34@@34@@34@@23@@34@@units@boost@@@units@boost@@U?$list@U?$dim@Ulength_base_dimension@units@boost@@V?$static_rational@$00$00@23@@units@boost@@Udimensionless_type@23@@12@N@units@boost@@YA?AV?$quantity@V?$unit@U?$list@U?$dim@Ulength_base_dimension@units@boost@@V?$static_rational@$00$00@23@@units@boost@@Udimensionless_type@23@@units@boost@@U?$homogeneous_system@U?$list@Umeter_base_unit@si@units@boost@@U?$list@U?$scaled_base_unit@Ugram_base_unit@cgs@units@boost@@U?$scale@$09V?$static_rational@$02$00@units@boost@@@34@@units@boost@@U?$list@Usecond_base_unit@si@units@boost@@U?$list@Uampere_base_unit@si@units@boost@@U?$list@Ukelvin_base_unit@si@units@boost@@U?$list@Umole_base_unit@si@units@boost@@U?$list@Ucandela_base_unit@si@units@boost@@U?$list@Uradian_base_unit@angle@units@boost@@U?$list@Usteradian_base_unit@angle@units@boost@@Udimensionless_type@34@@34@@34@@34@@34@@34@@34@@23@@34@@units@boost@@@23@X@units@boost@@N@01@AEBNAEBV?$unit@U?$list@U?$dim@Ulength_base_dimension@units@boost@@V?$static_rational@$00$00@23@@units@boost@@Udimensionless_type@23@@units@boost@@U?$homogeneous_system@U?$list@Umeter_base_unit@si@units@boost@@U?$list@U?$scaled_base_unit@Ugram_base_unit@cgs@units@boost@@U?$scale@$09V?$static_rational@$02$00@units@boost@@@34@@units@boost@@U?$list@Usecond_base_unit@si@units@boost@@U?$list@Uampere_base_unit@si@units@boost@@U?$list@Ukelvin_base_unit@si@units@boost@@U?$list@Umole_base_unit@si@units@boost@@U?$list@Ucandela_base_unit@si@units@boost@@U?$list@Uradian_base_unit@angle@units@boost@@U?$list@Usteradian_base_unit@angle@units@boost@@Udimensionless_type@34@@34@@34@@34@@34@@34@@34@@23@@34@@units@boost@@@23@X@01@@Z
	??$?DU?$homogeneous_system@U?$list@Umeter_base_unit@si@units@boost@@U?$list@U?$scaled_base_unit@Ugram_base_unit@cgs@units@boost@@U?$scale@$09V?$static_rational@$02$00@units@boost@@@34@@units@boost@@U?$list@Usecond_base_unit@si@units@boost@@U?$list@Uampere_base_unit@si@units@boost@@U?$list@Ukelvin_base_unit@si@units@boost@@U?$list@Umole_base_unit@si@units@boost@@U?$list@Ucandela_base_unit@si@units@boost@@U?$list@Uradian_base_unit@angle@units@boost@@U?$list@Usteradian_base_unit@angle@units@boost@@Udimensionless_type@34@@34@@34@@34@@34@@34@@34@@23@@34@@units@boost@@@units@boost@@U?$list@U?$dim@Uplane_angle_base_dimension@units@boost@@V?$static_rational@$00$00@23@@units@boost@@Udimensionless_type@23@@12@N@units@boost@@YA?AV?$quantity@V?$unit@U?$list@U?$dim@Uplane_angle_base_dimension@units@boost@@V?$static_rational@$00$00@23@@units@boost@@Udimensionless_type@23@@units@boost@@U?$homogeneous_system@U?$list@Umeter_base_unit@si@units@boost@@U?$list@U?$scaled_base_unit@Ugram_base_unit@cgs@units@boost@@U?$scale@$09V?$static_rational@$02$00@units@boost@@@34@@units@boost@@U?$list@Usecond_base_unit@si@units@boost@@U?$list@Uampere_base_unit@si@units@boost@@U?$list@Ukelvin_base_unit@si@units@boost@@U?$list@Umole_base_unit@si@units@boost@@U?$list@Ucandela_base_unit@si@units@boost@@U?$list@Uradian_base_unit@angle@units@boost@@U?$list@Usteradian_base_unit@angle@units@boost@@Udimensionless_type@34@@34@@34@@34@@34@@34@@34@@23@@34@@units@boost@@@23@X@units@boost@@N@01@AEBNAEBV?$unit@U?$list@U?$dim@Uplane_angle_base_dimension@units@boost@@V?$static_rational@$00$00@23@@units@boost@@Udimensionless_type@23@@units@boost@@U?$homogeneous_system@U?$list@Umeter_base_unit@si@units@boost@@U?$list@U?$scaled_base_unit@Ugram_base_unit@cgs@units@boost@@U?$scale@$09V?$static_rational@$02$00@units@boost@@@34@@units@boost@@U?$list@Usecond_base_unit@si@units@boost@@U?$list@Uampere_base_unit@si@units@boost@@U?$list@Ukelvin_base_unit@si@units@boost@@U?$list@Umole_base_unit@si@units@boost@@U?$list@Ucandela_base_unit@si@units@boost@@U?$list@Uradian_base_unit@angle@units@boost@@U?$list@Usteradian_base_unit@angle@units@boost@@Udimensionless_type@34@@34@@34@@34@@34@@34@@34@@23@@34@@units@boost@@@23@X@01@@Z
	??$?DU?$homogeneous_system@U?$list@Umeter_base_unit@si@units@boost@@U?$list@U?$scaled_base_unit@Ugram_base_unit@cgs@units@boost@@U?$scale@$09V?$static_rational@$02$00@units@boost@@@34@@units@boost@@U?$list@Usecond_base_unit@si@units@boost@@U?$list@Uampere_base_unit@si@units@boost@@U?$list@Ukelvin_base_unit@si@units@boost@@U?$list@Umole_base_unit@si@units@boost@@U?$list@Ucandela_base_unit@si@units@boost@@U?$list@Uradian_base_unit@angle@units@boost@@U?$list@Usteradian_base_unit@angle@units@boost@@Udimensionless_type@34@@34@@34@@34@@34@@34@@34@@23@@34@@units@boost@@@units@boost@@U?$list@U?$dim@Utime_base_dimension@units@boost@@V?$static_rational@$00$00@23@@units@boost@@Udimensionless_type@23@@12@H@units@boost@@YA?AV?$quantity@V?$unit@U?$list@U?$dim@Utime_base_dimension@units@boost@@V?$static_rational@$00$00@23@@units@boost@@Udimensionless_type@23@@units@boost@@U?$homogeneous_system@U?$list@Umeter_base_unit@si@units@boost@@U?$list@U?$scaled_base_unit@Ugram_base_unit@cgs@units@boost@@U?$scale@$09V?$static_rational@$02$00@units@boost@@@34@@units@boost@@U?$list@Usecond_base_unit@si@units@boost@@U?$list@Uampere_base_unit@si@units@boost@@U?$list@Ukelvin_base_unit@si@units@boost@@U?$list@Umole_base_unit@si@units@boost@@U?$list@Ucandela_base_unit@si@units@boost@@U?$list@Uradian_base_unit@angle@units@boost@@U?$list@Usteradian_base_unit@angle@units@boost@@Udimensionless_type@34@@34@@34@@34@@34@@34@@34@@23@@34@@units@boost@@@23@X@units@boost@@H@01@AEBHAEBV?$unit@U?$list@U?$dim@Utime_base_dimension@units@boost@@V?$static_rational@$00$00@23@@units@boost@@Udimensionless_type@23@@units@boost@@U?$homogeneous_system@U?$list@Umeter_base_unit@si@units@boost@@U?$list@U?$scaled_base_unit@Ugram_base_unit@cgs@units@boost@@U?$scale@$09V?$static_rational@$02$00@units@boost@@@34@@units@boost@@U?$list@Usecond_base_unit@si@units@boost@@U?$list@Uampere_base_unit@si@units@boost@@U?$list@Ukelvin_base_unit@si@units@boost@@U?$list@Umole_base_unit@si@units@boost@@U?$list@Ucandela_base_unit@si@units@boost@@U?$list@Uradian_base_unit@angle@units@boost@@U?$list@Usteradian_base_unit@angle@units@boost@@Udimensionless_type@34@@34@@34@@34@@34@@34@@34@@23@@34@@units@boost@@@23@X@01@@Z
	??$?DU?$homogeneous_system@U?$list@Umeter_base_unit@si@units@boost@@U?$list@U?$scaled_base_unit@Ugram_base_unit@cgs@units@boost@@U?$scale@$09V?$static_rational@$02$00@units@boost@@@34@@units@boost@@U?$list@Usecond_base_unit@si@units@boost@@U?$list@Uampere_base_unit@si@units@boost@@U?$list@Ukelvin_base_unit@si@units@boost@@U?$list@Umole_base_unit@si@units@boost@@U?$list@Ucandela_base_unit@si@units@boost@@U?$list@Uradian_base_unit@angle@units@boost@@U?$list@Usteradian_base_unit@angle@units@boost@@Udimensionless_type@34@@34@@34@@34@@34@@34@@34@@23@@34@@units@boost@@@units@boost@@U?$list@U?$dim@Utime_base_dimension@units@boost@@V?$static_rational@$00$00@23@@units@boost@@Udimensionless_type@23@@12@N@units@boost@@YA?AV?$quantity@V?$unit@U?$list@U?$dim@Utime_base_dimension@units@boost@@V?$static_rational@$00$00@23@@units@boost@@Udimensionless_type@23@@units@boost@@U?$homogeneous_system@U?$list@Umeter_base_unit@si@units@boost@@U?$list@U?$scaled_base_unit@Ugram_base_unit@cgs@units@boost@@U?$scale@$09V?$static_rational@$02$00@units@boost@@@34@@units@boost@@U?$list@Usecond_base_unit@si@units@boost@@U?$list@Uampere_base_unit@si@units@boost@@U?$list@Ukelvin_base_unit@si@units@boost@@U?$list@Umole_base_unit@si@units@boost@@U?$list@Ucandela_base_unit@si@units@boost@@U?$list@Uradian_base_unit@angle@units@boost@@U?$list@Usteradian_base_unit@angle@units@boost@@Udimensionless_type@34@@34@@34@@34@@34@@34@@34@@23@@34@@units@boost@@@23@X@units@boost@@N@01@AEBNAEBV?$unit@U?$list@U?$dim@Utime_base_dimension@units@boost@@V?$static_rational@$00$00@23@@units@boost@@Udimensionless_type@23@@units@boost@@U?$homogeneous_system@U?$list@Umeter_base_unit@si@units@boost@@U?$list@U?$scaled_base_unit@Ugram_base_unit@cgs@units@boost@@U?$scale@$09V?$static_rational@$02$00@units@boost@@@34@@units@boost@@U?$list@Usecond_base_unit@si@units@boost@@U?$list@Uampere_base_unit@si@units@boost@@U?$list@Ukelvin_base_unit@si@units@boost@@U?$list@Umole_base_unit@si@units@boost@@U?$list@Ucandela_base_unit@si@units@boost@@U?$list@Uradian_base_unit@angle@units@boost@@U?$list@Usteradian_base_unit@angle@units@boost@@Udimensionless_type@34@@34@@34@@34@@34@@34@@34@@23@@34@@units@boost@@@23@X@01@@Z
	??$?DU?$list@U?$dim@Utime_base_dimension@units@boost@@V?$static_rational@$00$00@23@@units@boost@@Udimensionless_type@23@@units@boost@@U?$heterogeneous_system@U?$heterogeneous_system_impl@U?$list@U?$heterogeneous_system_dim@Usecond_base_unit@si@units@boost@@V?$static_rational@$00$00@34@@units@boost@@Udimensionless_type@23@@units@boost@@U?$list@U?$dim@Utime_base_dimension@units@boost@@V?$static_rational@$00$00@23@@units@boost@@Udimensionless_type@23@@23@U?$list@U?$scale_list_dim@U?$scale@$09V?$static_rational@$0?2$00@units@boost@@@units@boost@@@units@boost@@Udimensionless_type@23@@23@@units@boost@@@12@I@units@boost@@YA?AV?$quantity@V?$absolute@V?$unit@U?$list@U?$dim@Utime_base_dimension@units@boost@@V?$static_rational@$00$00@23@@units@boost@@Udimensionless_type@23@@units@boost@@U?$heterogeneous_system@U?$heterogeneous_system_impl@U?$list@U?$heterogeneous_system_dim@Usecond_base_unit@si@units@boost@@V?$static_rational@$00$00@34@@units@boost@@Udimensionless_type@23@@units@boost@@U?$list@U?$dim@Utime_base_dimension@units@boost@@V?$static_rational@$00$00@23@@units@boost@@Udimensionless_type@23@@23@U?$list@U?$scale_list_dim@U?$scale@$09V?$static_rational@$0?2$00@units@boost@@@units@boost@@@units@boost@@Udimensionless_type@23@@23@@units@boost@@@23@X@units@boost@@@units@boost@@I@01@AEBIAEBV?$absolute@V?$unit@U?$list@U?$dim@Utime_base_dimension@units@boost@@V?$static_rational@$00$00@23@@units@boost@@Udimensionless_type@23@@units@boost@@U?$heterogeneous_system@U?$heterogeneous_system_impl@U?$list@U?$heterogeneous_system_dim@Usecond_base_unit@si@units@boost@@V?$static_rational@$00$00@34@@units@boost@@Udimensionless_type@23@@units@boost@@U?$list@U?$dim@Utime_base_dimension@units@boost@@V?$static_rational@$00$00@23@@units@boost@@Udimensionless_type@23@@23@U?$list@U?$scale_list_dim@U?$scale@$09V?$static_rational@$0?2$00@units@boost@@@units@boost@@@units@boost@@Udimensionless_type@23@@23@@units@boost@@@23@X@units@boost@@@01@@Z
	??$?DU?$list@U?$dim@Utime_base_dimension@units@boost@@V?$static_rational@$00$00@23@@units@boost@@Udimensionless_type@23@@units@boost@@U?$heterogeneous_system@U?$heterogeneous_system_impl@U?$list@U?$heterogeneous_system_dim@Usecond_base_unit@si@units@boost@@V?$static_rational@$00$00@34@@units@boost@@Udimensionless_type@23@@units@boost@@U?$list@U?$dim@Utime_base_dimension@units@boost@@V?$static_rational@$00$00@23@@units@boost@@Udimensionless_type@23@@23@U?$list@U?$scale_list_dim@U?$scale@$09V?$static_rational@$0?2$00@units@boost@@@units@boost@@@units@boost@@Udimensionless_type@23@@23@@units@boost@@@12@_J@units@boost@@YA?AV?$quantity@V?$absolute@V?$unit@U?$list@U?$dim@Utime_base_dimension@units@boost@@V?$static_rational@$00$00@23@@units@boost@@Udimensionless_type@23@@units@boost@@U?$heterogeneous_system@U?$heterogeneous_system_impl@U?$list@U?$heterogeneous_system_dim@Usecond_base_unit@si@units@boost@@V?$static_rational@$00$00@34@@units@boost@@Udimensionless_type@23@@units@boost@@U?$list@U?$dim@Utime_base_dimension@units@boost@@V?$static_rational@$00$00@23@@units@boost@@Udimensionless_type@23@@23@U?$list@U?$scale_list_dim@U?$scale@$09V?$static_rational@$0?2$00@units@boost@@@units@boost@@@units@boost@@Udimensionless_type@23@@23@@units@boost@@@23@X@units@boost@@@units@boost@@_J@01@AEB_JAEBV?$absolute@V?$unit@U?$list@U?$dim@Utime_base_dimension@units@boost@@V?$static_rational@$00$00@23@@units@boost@@Udimensionless_type@23@@units@boost@@U?$heterogeneous_system@U?$heterogeneous_system_impl@U?$list@U?$heterogeneous_system_dim@Usecond_base_unit@si@units@boost@@V?$static_rational@$00$00@34@@units@boost@@Udimensionless_type@23@@units@boost@@U?$list@U?$dim@Utime_base_dimension@units@boost@@V?$static_rational@$00$00@23@@units@boost@@Udimensionless_type@23@@23@U?$list@U?$scale_list_dim@U?$scale@$09V?$static_rational@$0?2$00@units@boost@@@units@boost@@@units@boost@@Udimensionless_type@23@@23@@units@boost@@@23@X@units@boost@@@01@@Z
	??$?DV?$unit@U?$list@U?$dim@Ulength_base_dimension@units@boost@@V?$static_rational@$00$00@23@@units@boost@@Udimensionless_type@23@@units@boost@@U?$homogeneous_system@U?$list@Umeter_base_unit@si@units@boost@@U?$list@U?$scaled_base_unit@Ugram_base_unit@cgs@units@boost@@U?$scale@$09V?$static_rational@$02$00@units@boost@@@34@@units@boost@@U?$list@Usecond_base_unit@si@units@boost@@U?$list@Uampere_base_unit@si@units@boost@@U?$list@Ukelvin_base_unit@si@units@boost@@U?$list@Umole_base_unit@si@units@boost@@U?$list@Ucandela_base_unit@si@units@boost@@U?$list@Uradian_base_unit@angle@units@boost@@U?$list@Usteradian_base_unit@angle@units@boost@@Udimensionless_type@34@@34@@34@@34@@34@@34@@34@@23@@34@@units@boost@@@23@X@units@boost@@N@units@boost@@YA?AV?$quantity@V?$unit@U?$list@U?$dim@Ulength_base_dimension@units@boost@@V?$static_rational@$00$00@23@@units@boost@@Udimensionless_type@23@@units@boost@@U?$homogeneous_system@U?$list@Umeter_base_unit@si@units@boost@@U?$list@U?$scaled_base_unit@Ugram_base_unit@cgs@units@boost@@U?$scale@$09V?$static_rational@$02$00@units@boost@@@34@@units@boost@@U?$list@Usecond_base_unit@si@units@boost@@U?$list@Uampere_base_unit@si@units@boost@@U?$list@Ukelvin_base_unit@si@units@boost@@U?$list@Umole_base_unit@si@units@boost@@U?$list@Ucandela_base_unit@si@units@boost@@U?$list@Uradian_base_unit@angle@units@boost@@U?$list@Usteradian_base_unit@angle@units@boost@@Udimensionless_type@34@@34@@34@@34@@34@@34@@34@@23@@34@@units@boost@@@23@X@units@boost@@N@01@AEBNAEBV201@@Z
	??$?DV?$unit@U?$list@U?$dim@Ulength_base_dimension@units@boost@@V?$static_rational@$00$00@23@@units@boost@@Udimensionless_type@23@@units@boost@@U?$homogeneous_system@U?$list@Umeter_base_unit@si@units@boost@@U?$list@U?$scaled_base_unit@Ugram_base_unit@cgs@units@boost@@U?$scale@$09V?$static_rational@$02$00@units@boost@@@34@@units@boost@@U?$list@Usecond_base_unit@si@units@boost@@U?$list@Uampere_base_unit@si@units@boost@@U?$list@Ukelvin_base_unit@si@units@boost@@U?$list@Umole_base_unit@si@units@boost@@U?$list@Ucandela_base_unit@si@units@boost@@U?$list@Uradian_base_unit@angle@units@boost@@U?$list@Usteradian_base_unit@angle@units@boost@@Udimensionless_type@34@@34@@34@@34@@34@@34@@34@@23@@34@@units@boost@@@23@X@units@boost@@N@units@boost@@YA?AV?$quantity@V?$unit@U?$list@U?$dim@Ulength_base_dimension@units@boost@@V?$static_rational@$00$00@23@@units@boost@@Udimensionless_type@23@@units@boost@@U?$homogeneous_system@U?$list@Umeter_base_unit@si@units@boost@@U?$list@U?$scaled_base_unit@Ugram_base_unit@cgs@units@boost@@U?$scale@$09V?$static_rational@$02$00@units@boost@@@34@@units@boost@@U?$list@Usecond_base_unit@si@units@boost@@U?$list@Uampere_base_unit@si@units@boost@@U?$list@Ukelvin_base_unit@si@units@boost@@U?$list@Umole_base_unit@si@units@boost@@U?$list@Ucandela_base_unit@si@units@boost@@U?$list@Uradian_base_unit@angle@units@boost@@U?$list@Usteradian_base_unit@angle@units@boost@@Udimensionless_type@34@@34@@34@@34@@34@@34@@34@@23@@34@@units@boost@@@23@X@units@boost@@N@01@AEBV201@AEBN@Z
	??$?DV?$unit@U?$list@U?$dim@Ulength_base_dimension@units@boost@@V?$static_rational@$00$00@23@@units@boost@@Udimensionless_type@23@@units@boost@@U?$homogeneous_system@U?$list@Umeter_base_unit@si@units@boost@@U?$list@U?$scaled_base_unit@Ugram_base_unit@cgs@units@boost@@U?$scale@$09V?$static_rational@$02$00@units@boost@@@34@@units@boost@@U?$list@Usecond_base_unit@si@units@boost@@U?$list@Uampere_base_unit@si@units@boost@@U?$list@Ukelvin_base_unit@si@units@boost@@U?$list@Umole_base_unit@si@units@boost@@U?$list@Ucandela_base_unit@si@units@boost@@U?$list@Uradian_base_unit@angle@units@boost@@U?$list@Usteradian_base_unit@angle@units@boost@@Udimensionless_type@34@@34@@34@@34@@34@@34@@34@@23@@34@@units@boost@@@23@X@units@boost@@V012@NN@units@boost@@YA?AV?$quantity@V?$unit@U?$list@U?$dim@Ulength_base_dimension@units@boost@@V?$static_rational@$01$00@23@@units@boost@@Udimensionless_type@23@@units@boost@@U?$homogeneous_system@U?$list@Umeter_base_unit@si@units@boost@@U?$list@U?$scaled_base_unit@Ugram_base_unit@cgs@units@boost@@U?$scale@$09V?$static_rational@$02$00@units@boost@@@34@@units@boost@@U?$list@Usecond_base_unit@si@units@boost@@U?$list@Uampere_base_unit@si@units@boost@@U?$list@Ukelvin_base_unit@si@units@boost@@U?$list@Umole_base_unit@si@units@boost@@U?$list@Ucandela_base_unit@si@units@boost@@U?$list@Uradian_base_unit@angle@units@boost@@U?$list@Usteradian_base_unit@angle@units@boost@@Udimensionless_type@34@@34@@34@@34@@34@@34@@34@@23@@34@@units@boost@@@23@X@units@boost@@N@01@AEBV?$quantity@V?$unit@U?$list@U?$dim@Ulength_base_dimension@units@boost@@V?$static_rational@$00$00@23@@units@boost@@Udimensionless_type@23@@units@boost@@U?$homogeneous_system@U?$list@Umeter_base_unit@si@units@boost@@U?$list@U?$scaled_base_unit@Ugram_base_unit@cgs@units@boost@@U?$scale@$09V?$static_rational@$02$00@units@boost@@@34@@units@boost@@U?$list@Usecond_base_unit@si@units@boost@@U?$list@Uampere_base_unit@si@units@boost@@U?$list@Ukelvin_base_unit@si@units@boost@@U?$list@Umole_base_unit@si@units@boost@@U?$list@Ucandela_base_unit@si@units@boost@@U?$list@Uradian_base_unit@angle@units@boost@@U?$list@Usteradian_base_unit@angle@units@boost@@Udimensionless_type@34@@34@@34@@34@@34@@34@@34@@23@@34@@units@boost@@@23@X@units@boost@@N@01@0@Z
	??$?DV?$unit@U?$list@U?$dim@Ulength_base_dimension@units@boost@@V?$static_rational@$0?0$00@23@@units@boost@@U?$list@U?$dim@Utime_base_dimension@units@boost@@V?$static_rational@$00$00@23@@units@boost@@Udimensionless_type@23@@23@@units@boost@@U?$homogeneous_system@U?$list@Umeter_base_unit@si@units@boost@@U?$list@U?$scaled_base_unit@Ugram_base_unit@cgs@units@boost@@U?$scale@$09V?$static_rational@$02$00@units@boost@@@34@@units@boost@@U?$list@Usecond_base_unit@si@units@boost@@U?$list@Uampere_base_unit@si@units@boost@@U?$list@Ukelvin_base_unit@si@units@boost@@U?$list@Umole_base_unit@si@units@boost@@U?$list@Ucandela_base_unit@si@units@boost@@U?$list@Uradian_base_unit@angle@units@boost@@U?$list@Usteradian_base_unit@angle@units@boost@@Udimensionless_type@34@@34@@34@@34@@34@@34@@34@@23@@34@@units@boost@@@23@X@units@boost@@V?$unit@U?$list@U?$dim@Ulength_base_dimension@units@boost@@V?$static_rational@$00$00@23@@units@boost@@Udimensionless_type@23@@units@boost@@U?$homogeneous_system@U?$list@Umeter_base_unit@si@units@boost@@U?$list@U?$scaled_base_unit@Ugram_base_unit@cgs@units@boost@@U?$scale@$09V?$static_rational@$02$00@units@boost@@@34@@units@boost@@U?$list@Usecond_base_unit@si@units@boost@@U?$list@Uampere_base_unit@si@units@boost@@U?$list@Ukelvin_base_unit@si@units@boost@@U?$list@Umole_base_unit@si@units@boost@@U?$list@Ucandela_base_unit@si@units@boost@@U?$list@Uradian_base_unit@angle@units@boost@@U?$list@Usteradian_base_unit@angle@units@boost@@Udimensionless_type@34@@34@@34@@34@@34@@34@@34@@23@@34@@units@boost@@@23@X@12@NN@units@boost@@YA?AV?$quantity@V?$unit@U?$list@U?$dim@Utime_base_dimension@units@boost@@V?$static_rational@$00$00@23@@units@boost@@Udimensionless_type@23@@units@boost@@U?$homogeneous_system@U?$list@Umeter_base_unit@si@units@boost@@U?$list@U?$scaled_base_unit@Ugram_base_unit@cgs@units@boost@@U?$scale@$09V?$static_rational@$02$00@units@boost@@@34@@units@boost@@U?$list@Usecond_base_unit@si@units@boost@@U?$list@Uampere_base_unit@si@units@boost@@U?$list@Ukelvin_base_unit@si@units@boost@@U?$list@Umole_base_unit@si@units@boost@@U?$list@Ucandela_base_unit@si@units@boost@@U?$list@Uradian_base_unit@angle@units@boost@@U?$list@Usteradian_base_unit@angle@units@boost@@Udimensionless_type@34@@34@@34@@34@@34@@34@@34@@23@@34@@units@boost@@@23@X@units@boost@@N@01@AEBV?$quantity@V?$unit@U?$list@U?$dim@Ulength_base_dimension@units@boost@@V?$static_rational@$0?0$00@23@@units@boost@@U?$list@U?$dim@Utime_base_dimension@units@boost@@V?$static_rational@$00$00@23@@units@boost@@Udimensionless_type@23@@23@@units@boost@@U?$homogeneous_system@U?$list@Umeter_base_unit@si@units@boost@@U?$list@U?$scaled_base_unit@Ugram_base_unit@cgs@units@boost@@U?$scale@$09V?$static_rational@$02$00@units@boost@@@34@@units@boost@@U?$list@Usecond_base_unit@si@units@boost@@U?$list@Uampere_base_unit@si@units@boost@@U?$list@Ukelvin_base_unit@si@units@boost@@U?$list@Umole_base_unit@si@units@boost@@U?$list@Ucandela_base_unit@si@units@boost@@U?$list@Uradian_base_unit@angle@units@boost@@U?$list@Usteradian_base_unit@angle@units@boost@@Udimensionless_type@34@@34@@34@@34@@34@@34@@34@@23@@34@@units@boost@@@23@X@units@boost@@N@01@AEBV?$quantity@V?$unit@U?$list@U?$dim@Ulength_base_dimension@units@boost@@V?$static_rational@$00$00@23@@units@boost@@Udimensionless_type@23@@units@boost@@U?$homogeneous_system@U?$list@Umeter_base_unit@si@units@boost@@U?$list@U?$scaled_base_unit@Ugram_base_unit@cgs@units@boost@@U?$scale@$09V?$static_rational@$02$00@units@boost@@@34@@units@boost@@U?$list@Usecond_base_unit@si@units@boost@@U?$list@Uampere_base_unit@si@units@boost@@U?$list@Ukelvin_base_unit@si@units@boost@@U?$list@Umole_base_unit@si@units@boost@@U?$list@Ucandela_base_unit@si@units@boost@@U?$list@Uradian_base_unit@angle@units@boost@@U?$list@Usteradian_base_unit@angle@units@boost@@Udimensionless_type@34@@34@@34@@34@@34@@34@@34@@23@@34@@units@boost@@@23@X@units@boost@@N@01@@Z
	??$?DV?$unit@U?$list@U?$dim@Utime_base_dimension@units@boost@@V?$static_rational@$00$00@23@@units@boost@@Udimensionless_type@23@@units@boost@@U?$homogeneous_system@U?$list@Umeter_base_unit@si@units@boost@@U?$list@U?$scaled_base_unit@Ugram_base_unit@cgs@units@boost@@U?$scale@$09V?$static_rational@$02$00@units@boost@@@34@@units@boost@@U?$list@Usecond_base_unit@si@units@boost@@U?$list@Uampere_base_unit@si@units@boost@@U?$list@Ukelvin_base_unit@si@units@boost@@U?$list@Umole_base_unit@si@units@boost@@U?$list@Ucandela_base_unit@si@units@boost@@U?$list@Uradian_base_unit@angle@units@boost@@U?$list@Usteradian_base_unit@angle@units@boost@@Udimensionless_type@34@@34@@34@@34@@34@@34@@34@@23@@34@@units@boost@@@23@X@units@boost@@N@units@boost@@YA?AV?$quantity@V?$unit@U?$list@U?$dim@Utime_base_dimension@units@boost@@V?$static_rational@$00$00@23@@units@boost@@Udimensionless_type@23@@units@boost@@U?$homogeneous_system@U?$list@Umeter_base_unit@si@units@boost@@U?$list@U?$scaled_base_unit@Ugram_base_unit@cgs@units@boost@@U?$scale@$09V?$static_rational@$02$00@units@boost@@@34@@units@boost@@U?$list@Usecond_base_unit@si@units@boost@@U?$list@Uampere_base_unit@si@units@boost@@U?$list@Ukelvin_base_unit@si@units@boost@@U?$list@Umole_base_unit@si@units@boost@@U?$list@Ucandela_base_unit@si@units@boost@@U?$list@Uradian_base_unit@angle@units@boost@@U?$list@Usteradian_base_unit@angle@units@boost@@Udimensionless_type@34@@34@@34@@34@@34@@34@@34@@23@@34@@units@boost@@@23@X@units@boost@@N@01@AEBNAEBV201@@Z
	??$?DV?$unit@Udimensionless_type@units@boost@@U?$heterogeneous_system@U?$heterogeneous_system_impl@Udimensionless_type@units@boost@@U123@U?$list@U?$scale_list_dim@U?$scale@$09V?$static_rational@$02$00@units@boost@@@units@boost@@@units@boost@@Udimensionless_type@23@@23@@units@boost@@@23@X@units@boost@@U?$heterogeneous_system@U?$heterogeneous_system_impl@Udimensionless_type@units@boost@@U123@U?$list@U?$scale_list_dim@U?$scale@$09V?$static_rational@$02$00@units@boost@@@units@boost@@@units@boost@@Udimensionless_type@23@@23@@units@boost@@@12@Udimensionless_type@12@H@units@boost@@YA?AV?$quantity@V?$unit@Udimensionless_type@units@boost@@U?$heterogeneous_system@U?$heterogeneous_system_impl@Udimensionless_type@units@boost@@U123@U?$list@U?$scale_list_dim@U?$scale@$09V?$static_rational@$05$00@units@boost@@@units@boost@@@units@boost@@Udimensionless_type@23@@23@@units@boost@@@23@X@units@boost@@H@01@AEBV?$quantity@V?$unit@Udimensionless_type@units@boost@@U?$heterogeneous_system@U?$heterogeneous_system_impl@Udimensionless_type@units@boost@@U123@U?$list@U?$scale_list_dim@U?$scale@$09V?$static_rational@$02$00@units@boost@@@units@boost@@@units@boost@@Udimensionless_type@23@@23@@units@boost@@@23@X@units@boost@@H@01@AEBV?$unit@Udimensionless_type@units@boost@@U?$heterogeneous_system@U?$heterogeneous_system_impl@Udimensionless_type@units@boost@@U123@U?$list@U?$scale_list_dim@U?$scale@$09V?$static_rational@$02$00@units@boost@@@units@boost@@@units@boost@@Udimensionless_type@23@@23@@units@boost@@@23@X@01@@Z
	??$?DV?$unit@Udimensionless_type@units@boost@@U?$heterogeneous_system@U?$heterogeneous_system_impl@Udimensionless_type@units@boost@@U123@U?$list@U?$scale_list_dim@U?$scale@$09V?$static_rational@$05$00@units@boost@@@units@boost@@@units@boost@@Udimensionless_type@23@@23@@units@boost@@@23@X@units@boost@@U?$homogeneous_system@U?$list@Umeter_base_unit@si@units@boost@@U?$list@U?$scaled_base_unit@Ugram_base_unit@cgs@units@boost@@U?$scale@$09V?$static_rational@$02$00@units@boost@@@34@@units@boost@@U?$list@Usecond_base_unit@si@units@boost@@U?$list@Uampere_base_unit@si@units@boost@@U?$list@Ukelvin_base_unit@si@units@boost@@U?$list@Umole_base_unit@si@units@boost@@U?$list@Ucandela_base_unit@si@units@boost@@U?$list@Uradian_base_unit@angle@units@boost@@U?$list@Usteradian_base_unit@angle@units@boost@@Udimensionless_type@34@@34@@34@@34@@34@@34@@34@@23@@34@@units@boost@@@12@U?$list@U?$dim@Ulength_base_dimension@units@boost@@V?$static_rational@$01$00@23@@units@boost@@Udimensionless_type@23@@12@H@units@boost@@YA?AV?$quantity@V?$unit@U?$list@U?$dim@Ulength_base_dimension@units@boost@@V?$static_rational@$01$00@23@@units@boost@@Udimensionless_type@23@@units@boost@@U?$heterogeneous_system@U?$heterogeneous_system_impl@U?$list@U?$heterogeneous_system_dim@Umeter_base_unit@si@units@boost@@V?$static_rational@$01$00@34@@units@boost@@Udimensionless_type@23@@units@boost@@U?$list@U?$dim@Ulength_base_dimension@units@boost@@V?$static_rational@$01$00@23@@units@boost@@Udimensionless_type@23@@23@U?$list@U?$scale_list_dim@U?$scale@$09V?$static_rational@$05$00@units@boost@@@units@boost@@@units@boost@@Udimensionless_type@23@@23@@units@boost@@@23@X@units@boost@@H@01@AEBV?$quantity@V?$unit@Udimensionless_type@units@boost@@U?$heterogeneous_system@U?$heterogeneous_system_impl@Udimensionless_type@units@boost@@U123@U?$list@U?$scale_list_dim@U?$scale@$09V?$static_rational@$05$00@units@boost@@@units@boost@@@units@boost@@Udimensionless_type@23@@23@@units@boost@@@23@X@units@boost@@H@01@AEBV?$unit@U?$list@U?$dim@Ulength_base_dimension@units@boost@@V?$static_rational@$01$00@23@@units@boost@@Udimensionless_type@23@@units@boost@@U?$homogeneous_system@U?$list@Umeter_base_unit@si@units@boost@@U?$list@U?$scaled_base_unit@Ugram_base_unit@cgs@units@boost@@U?$scale@$09V?$static_rational@$02$00@units@boost@@@34@@units@boost@@U?$list@Usecond_base_unit@si@units@boost@@U?$list@Uampere_base_unit@si@units@boost@@U?$list@Ukelvin_base_unit@si@units@boost@@U?$list@Umole_base_unit@si@units@boost@@U?$list@Ucandela_base_unit@si@units@boost@@U?$list@Uradian_base_unit@angle@units@boost@@U?$list@Usteradian_base_unit@angle@units@boost@@Udimensionless_type@34@@34@@34@@34@@34@@34@@34@@23@@34@@units@boost@@@23@X@01@@Z
	??$?GV?$absolute@V?$unit@U?$list@U?$dim@Uplane_angle_base_dimension@units@boost@@V?$static_rational@$00$00@23@@units@boost@@Udimensionless_type@23@@units@boost@@U?$homogeneous_system@U?$list@Udegree_base_unit@angle@units@boost@@Udimensionless_type@34@@units@boost@@@23@X@units@boost@@@units@boost@@V012@NN@units@boost@@YA?AV?$quantity@V?$unit@U?$list@U?$dim@Uplane_angle_base_dimension@units@boost@@V?$static_rational@$00$00@23@@units@boost@@Udimensionless_type@23@@units@boost@@U?$homogeneous_system@U?$list@Udegree_base_unit@angle@units@boost@@Udimensionless_type@34@@units@boost@@@23@X@units@boost@@N@01@AEBV?$quantity@V?$absolute@V?$unit@U?$list@U?$dim@Uplane_angle_base_dimension@units@boost@@V?$static_rational@$00$00@23@@units@boost@@Udimensionless_type@23@@units@boost@@U?$homogeneous_system@U?$list@Udegree_base_unit@angle@units@boost@@Udimensionless_type@34@@units@boost@@@23@X@units@boost@@@units@boost@@N@01@0@Z
	??$?GV?$absolute@V?$unit@U?$list@U?$dim@Utime_base_dimension@units@boost@@V?$static_rational@$00$00@23@@units@boost@@Udimensionless_type@23@@units@boost@@U?$heterogeneous_system@U?$heterogeneous_system_impl@U?$list@U?$heterogeneous_system_dim@Usecond_base_unit@si@units@boost@@V?$static_rational@$00$00@34@@units@boost@@Udimensionless_type@23@@units@boost@@U?$list@U?$dim@Utime_base_dimension@units@boost@@V?$static_rational@$00$00@23@@units@boost@@Udimensionless_type@23@@23@U?$list@U?$scale_list_dim@U?$scale@$09V?$static_rational@$0?2$00@units@boost@@@units@boost@@@units@boost@@Udimensionless_type@23@@23@@units@boost@@@23@X@units@boost@@@units@boost@@V012@II@units@boost@@YA?AV?$quantity@V?$unit@U?$list@U?$dim@Utime_base_dimension@units@boost@@V?$static_rational@$00$00@23@@units@boost@@Udimensionless_type@23@@units@boost@@U?$heterogeneous_system@U?$heterogeneous_system_impl@U?$list@U?$heterogeneous_system_dim@Usecond_base_unit@si@units@boost@@V?$static_rational@$00$00@34@@units@boost@@Udimensionless_type@23@@units@boost@@U?$list@U?$dim@Utime_base_dimension@units@boost@@V?$static_rational@$00$00@23@@units@boost@@Udimensionless_type@23@@23@U?$list@U?$scale_list_dim@U?$scale@$09V?$static_rational@$0?2$00@units@boost@@@units@boost@@@units@boost@@Udimensionless_type@23@@23@@units@boost@@@23@X@units@boost@@I@01@AEBV?$quantity@V?$absolute@V?$unit@U?$list@U?$dim@Utime_base_dimension@units@boost@@V?$static_rational@$00$00@23@@units@boost@@Udimensionless_type@23@@units@boost@@U?$heterogeneous_system@U?$heterogeneous_system_impl@U?$list@U?$heterogeneous_system_dim@Usecond_base_unit@si@units@boost@@V?$static_rational@$00$00@34@@units@boost@@Udimensionless_type@23@@units@boost@@U?$list@U?$dim@Utime_base_dimension@units@boost@@V?$static_rational@$00$00@23@@units@boost@@Udimensionless_type@23@@23@U?$list@U?$scale_list_dim@U?$scale@$09V?$static_rational@$0?2$00@units@boost@@@units@boost@@@units@boost@@Udimensionless_type@23@@23@@units@boost@@@23@X@units@boost@@@units@boost@@I@01@0@Z
	??$?GV?$unit@U?$list@U?$dim@Ulength_base_dimension@units@boost@@V?$static_rational@$00$00@23@@units@boost@@Udimensionless_type@23@@units@boost@@U?$homogeneous_system@U?$list@Umeter_base_unit@si@units@boost@@U?$list@U?$scaled_base_unit@Ugram_base_unit@cgs@units@boost@@U?$scale@$09V?$static_rational@$02$00@units@boost@@@34@@units@boost@@U?$list@Usecond_base_unit@si@units@boost@@U?$list@Uampere_base_unit@si@units@boost@@U?$list@Ukelvin_base_unit@si@units@boost@@U?$list@Umole_base_unit@si@units@boost@@U?$list@Ucandela_base_unit@si@units@boost@@U?$list@Uradian_base_unit@angle@units@boost@@U?$list@Usteradian_base_unit@angle@units@boost@@Udimensionless_type@34@@34@@34@@34@@34@@34@@34@@23@@34@@units@boost@@@23@X@units@boost@@V012@NN@units@boost@@YA?AV?$quantity@V?$unit@U?$list@U?$dim@Ulength_base_dimension@units@boost@@V?$static_rational@$00$00@23@@units@boost@@Udimensionless_type@23@@units@boost@@U?$homogeneous_system@U?$list@Umeter_base_unit@si@units@boost@@U?$list@U?$scaled_base_unit@Ugram_base_unit@cgs@units@boost@@U?$scale@$09V?$static_rational@$02$00@units@boost@@@34@@units@boost@@U?$list@Usecond_base_unit@si@units@boost@@U?$list@Uampere_base_unit@si@units@boost@@U?$list@Ukelvin_base_unit@si@units@boost@@U?$list@Umole_base_unit@si@units@boost@@U?$list@Ucandela_base_unit@si@units@boost@@U?$list@Uradian_base_unit@angle@units@boost@@U?$list@Usteradian_base_unit@angle@units@boost@@Udimensionless_type@34@@34@@34@@34@@34@@34@@34@@23@@34@@units@boost@@@23@X@units@boost@@N@01@AEBV201@0@Z
	??$?GV?$unit@U?$list@U?$dim@Ulength_base_dimension@units@boost@@V?$static_rational@$01$00@23@@units@boost@@Udimensionless_type@23@@units@boost@@U?$homogeneous_system@U?$list@Umeter_base_unit@si@units@boost@@U?$list@U?$scaled_base_unit@Ugram_base_unit@cgs@units@boost@@U?$scale@$09V?$static_rational@$02$00@units@boost@@@34@@units@boost@@U?$list@Usecond_base_unit@si@units@boost@@U?$list@Uampere_base_unit@si@units@boost@@U?$list@Ukelvin_base_unit@si@units@boost@@U?$list@Umole_base_unit@si@units@boost@@U?$list@Ucandela_base_unit@si@units@boost@@U?$list@Uradian_base_unit@angle@units@boost@@U?$list@Usteradian_base_unit@angle@units@boost@@Udimensionless_type@34@@34@@34@@34@@34@@34@@34@@23@@34@@units@boost@@@23@X@units@boost@@V012@NN@units@boost@@YA?AV?$quantity@V?$unit@U?$list@U?$dim@Ulength_base_dimension@units@boost@@V?$static_rational@$01$00@23@@units@boost@@Udimensionless_type@23@@units@boost@@U?$homogeneous_system@U?$list@Umeter_base_unit@si@units@boost@@U?$list@U?$scaled_base_unit@Ugram_base_unit@cgs@units@boost@@U?$scale@$09V?$static_rational@$02$00@units@boost@@@34@@units@boost@@U?$list@Usecond_base_unit@si@units@boost@@U?$list@Uampere_base_unit@si@units@boost@@U?$list@Ukelvin_base_unit@si@units@boost@@U?$list@Umole_base_unit@si@units@boost@@U?$list@Ucandela_base_unit@si@units@boost@@U?$list@Uradian_base_unit@angle@units@boost@@U?$list@Usteradian_base_unit@angle@units@boost@@Udimensionless_type@34@@34@@34@@34@@34@@34@@34@@23@@34@@units@boost@@@23@X@units@boost@@N@01@AEBV201@0@Z
	??$?GV?$unit@U?$list@U?$dim@Uplane_angle_base_dimension@units@boost@@V?$static_rational@$00$00@23@@units@boost@@Udimensionless_type@23@@units@boost@@U?$heterogeneous_system@U?$heterogeneous_system_impl@U?$list@U?$heterogeneous_system_dim@Udegree_base_unit@angle@units@boost@@V?$static_rational@$00$00@34@@units@boost@@Udimensionless_type@23@@units@boost@@U?$list@U?$dim@Uplane_angle_base_dimension@units@boost@@V?$static_rational@$00$00@23@@units@boost@@Udimensionless_type@23@@23@U?$list@U?$scale_list_dim@U?$scale@$09V?$static_rational@$0?6$00@units@boost@@@units@boost@@@units@boost@@Udimensionless_type@23@@23@@units@boost@@@23@X@units@boost@@H@units@boost@@YA?AV?$quantity@V?$unit@U?$list@U?$dim@Uplane_angle_base_dimension@units@boost@@V?$static_rational@$00$00@23@@units@boost@@Udimensionless_type@23@@units@boost@@U?$heterogeneous_system@U?$heterogeneous_system_impl@U?$list@U?$heterogeneous_system_dim@Udegree_base_unit@angle@units@boost@@V?$static_rational@$00$00@34@@units@boost@@Udimensionless_type@23@@units@boost@@U?$list@U?$dim@Uplane_angle_base_dimension@units@boost@@V?$static_rational@$00$00@23@@units@boost@@Udimensionless_type@23@@23@U?$list@U?$scale_list_dim@U?$scale@$09V?$static_rational@$0?6$00@units@boost@@@units@boost@@@units@boost@@Udimensionless_type@23@@23@@units@boost@@@23@X@units@boost@@H@01@AEBV201@@Z
	??$?GV?$unit@U?$list@U?$dim@Uplane_angle_base_dimension@units@boost@@V?$static_rational@$00$00@23@@units@boost@@Udimensionless_type@23@@units@boost@@U?$homogeneous_system@U?$list@Umeter_base_unit@si@units@boost@@U?$list@U?$scaled_base_unit@Ugram_base_unit@cgs@units@boost@@U?$scale@$09V?$static_rational@$02$00@units@boost@@@34@@units@boost@@U?$list@Usecond_base_unit@si@units@boost@@U?$list@Uampere_base_unit@si@units@boost@@U?$list@Ukelvin_base_unit@si@units@boost@@U?$list@Umole_base_unit@si@units@boost@@U?$list@Ucandela_base_unit@si@units@boost@@U?$list@Uradian_base_unit@angle@units@boost@@U?$list@Usteradian_base_unit@angle@units@boost@@Udimensionless_type@34@@34@@34@@34@@34@@34@@34@@23@@34@@units@boost@@@23@X@units@boost@@V012@NN@units@boost@@YA?AV?$quantity@V?$unit@U?$list@U?$dim@Uplane_angle_base_dimension@units@boost@@V?$static_rational@$00$00@23@@units@boost@@Udimensionless_type@23@@units@boost@@U?$homogeneous_system@U?$list@Umeter_base_unit@si@units@boost@@U?$list@U?$scaled_base_unit@Ugram_base_unit@cgs@units@boost@@U?$scale@$09V?$static_rational@$02$00@units@boost@@@34@@units@boost@@U?$list@Usecond_base_unit@si@units@boost@@U?$list@Uampere_base_unit@si@units@boost@@U?$list@Ukelvin_base_unit@si@units@boost@@U?$list@Umole_base_unit@si@units@boost@@U?$list@Ucandela_base_unit@si@units@boost@@U?$list@Uradian_base_unit@angle@units@boost@@U?$list@Usteradian_base_unit@angle@units@boost@@Udimensionless_type@34@@34@@34@@34@@34@@34@@34@@23@@34@@units@boost@@@23@X@units@boost@@N@01@AEBV201@0@Z
	??$?GV?$unit@U?$list@U?$dim@Utime_base_dimension@units@boost@@V?$static_rational@$00$00@23@@units@boost@@Udimensionless_type@23@@units@boost@@U?$homogeneous_system@U?$list@Umeter_base_unit@si@units@boost@@U?$list@U?$scaled_base_unit@Ugram_base_unit@cgs@units@boost@@U?$scale@$09V?$static_rational@$02$00@units@boost@@@34@@units@boost@@U?$list@Usecond_base_unit@si@units@boost@@U?$list@Uampere_base_unit@si@units@boost@@U?$list@Ukelvin_base_unit@si@units@boost@@U?$list@Umole_base_unit@si@units@boost@@U?$list@Ucandela_base_unit@si@units@boost@@U?$list@Uradian_base_unit@angle@units@boost@@U?$list@Usteradian_base_unit@angle@units@boost@@Udimensionless_type@34@@34@@34@@34@@34@@34@@34@@23@@34@@units@boost@@@23@X@units@boost@@V012@NN@units@boost@@YA?AV?$quantity@V?$unit@U?$list@U?$dim@Utime_base_dimension@units@boost@@V?$static_rational@$00$00@23@@units@boost@@Udimensionless_type@23@@units@boost@@U?$homogeneous_system@U?$list@Umeter_base_unit@si@units@boost@@U?$list@U?$scaled_base_unit@Ugram_base_unit@cgs@units@boost@@U?$scale@$09V?$static_rational@$02$00@units@boost@@@34@@units@boost@@U?$list@Usecond_base_unit@si@units@boost@@U?$list@Uampere_base_unit@si@units@boost@@U?$list@Ukelvin_base_unit@si@units@boost@@U?$list@Umole_base_unit@si@units@boost@@U?$list@Ucandela_base_unit@si@units@boost@@U?$list@Uradian_base_unit@angle@units@boost@@U?$list@Usteradian_base_unit@angle@units@boost@@Udimensionless_type@34@@34@@34@@34@@34@@34@@34@@23@@34@@units@boost@@@23@X@units@boost@@N@01@AEBV201@0@Z
	??$?GVClock@vanetza@@V?$duration@_JU?$ratio@$00$0PECEA@@std@@@chrono@std@@V234@@chrono@std@@YA?AV?$duration@_JU?$ratio@$00$0PECEA@@std@@@01@AEBV?$time_point@VClock@vanetza@@V?$duration@_JU?$ratio@$00$0PECEA@@std@@@chrono@std@@@01@0@Z
	??$?G_J@?$int_adapter@_J@date_time@boost@@QEBA?AV012@AEBV012@@Z
	??$?G_JU?$ratio@$00$0PECEA@@std@@_JU01@@chrono@std@@YA?AV?$duration@_JU?$ratio@$00$0PECEA@@std@@@01@AEBV201@0@Z
	??$?HV?$unit@U?$list@U?$dim@Ulength_base_dimension@units@boost@@V?$static_rational@$00$00@23@@units@boost@@Udimensionless_type@23@@units@boost@@U?$homogeneous_system@U?$list@Umeter_base_unit@si@units@boost@@U?$list@U?$scaled_base_unit@Ugram_base_unit@cgs@units@boost@@U?$scale@$09V?$static_rational@$02$00@units@boost@@@34@@units@boost@@U?$list@Usecond_base_unit@si@units@boost@@U?$list@Uampere_base_unit@si@units@boost@@U?$list@Ukelvin_base_unit@si@units@boost@@U?$list@Umole_base_unit@si@units@boost@@U?$list@Ucandela_base_unit@si@units@boost@@U?$list@Uradian_base_unit@angle@units@boost@@U?$list@Usteradian_base_unit@angle@units@boost@@Udimensionless_type@34@@34@@34@@34@@34@@34@@34@@23@@34@@units@boost@@@23@X@units@boost@@V012@NN@units@boost@@YA?AV?$quantity@V?$unit@U?$list@U?$dim@Ulength_base_dimension@units@boost@@V?$static_rational@$00$00@23@@units@boost@@Udimensionless_type@23@@units@boost@@U?$homogeneous_system@U?$list@Umeter_base_unit@si@units@boost@@U?$list@U?$scaled_base_unit@Ugram_base_unit@cgs@units@boost@@U?$scale@$09V?$static_rational@$02$00@units@boost@@@34@@units@boost@@U?$list@Usecond_base_unit@si@units@boost@@U?$list@Uampere_base_unit@si@units@boost@@U?$list@Ukelvin_base_unit@si@units@boost@@U?$list@Umole_base_unit@si@units@boost@@U?$list@Ucandela_base_unit@si@units@boost@@U?$list@Uradian_base_unit@angle@units@boost@@U?$list@Usteradian_base_unit@angle@units@boost@@Udimensionless_type@34@@34@@34@@34@@34@@34@@34@@23@@34@@units@boost@@@23@X@units@boost@@N@01@AEBV201@0@Z
	??$?HV?$unit@U?$list@U?$dim@Utime_base_dimension@units@boost@@V?$static_rational@$00$00@23@@units@boost@@Udimensionless_type@23@@units@boost@@U?$homogeneous_system@U?$list@Umeter_base_unit@si@units@boost@@U?$list@U?$scaled_base_unit@Ugram_base_unit@cgs@units@boost@@U?$scale@$09V?$static_rational@$02$00@units@boost@@@34@@units@boost@@U?$list@Usecond_base_unit@si@units@boost@@U?$list@Uampere_base_unit@si@units@boost@@U?$list@Ukelvin_base_unit@si@units@boost@@U?$list@Umole_base_unit@si@units@boost@@U?$list@Ucandela_base_unit@si@units@boost@@U?$list@Uradian_base_unit@angle@units@boost@@U?$list@Usteradian_base_unit@angle@units@boost@@Udimensionless_type@34@@34@@34@@34@@34@@34@@34@@23@@34@@units@boost@@@23@X@units@boost@@V012@NN@units@boost@@YA?AV?$quantity@V?$unit@U?$list@U?$dim@Utime_base_dimension@units@boost@@V?$static_rational@$00$00@23@@units@boost@@Udimensionless_type@23@@units@boost@@U?$homogeneous_system@U?$list@Umeter_base_unit@si@units@boost@@U?$list@U?$scaled_base_unit@Ugram_base_unit@cgs@units@boost@@U?$scale@$09V?$static_rational@$02$00@units@boost@@@34@@units@boost@@U?$list@Usecond_base_unit@si@units@boost@@U?$list@Uampere_base_unit@si@units@boost@@U?$list@Ukelvin_base_unit@si@units@boost@@U?$list@Umole_base_unit@si@units@boost@@U?$list@Ucandela_base_unit@si@units@boost@@U?$list@Uradian_base_unit@angle@units@boost@@U?$list@Usteradian_base_unit@angle@units@boost@@Udimensionless_type@34@@34@@34@@34@@34@@34@@34@@23@@34@@units@boost@@@23@X@units@boost@@N@01@AEBV201@0@Z
	??$?HVClock@vanetza@@V?$duration@_JU?$ratio@$00$0PECEA@@std@@@chrono@std@@_JU?$ratio@$00$0PECEA@@4@@chrono@std@@YA?AV?$time_point@VClock@vanetza@@V?$duration@_JU?$ratio@$00$0PECEA@@std@@@chrono@std@@@01@AEBV201@AEBV?$duration@_JU?$ratio@$00$0PECEA@@std@@@01@@Z
	??$?H_JU?$ratio@$00$0PECEA@@std@@_JU01@@chrono@std@@YA?AV?$duration@_JU?$ratio@$00$0PECEA@@std@@@01@AEBV201@0@Z
	??$?KN@units@boost@@YANAEBNAEBUone@01@@Z
	??$?KN@units@boost@@YANAEBUone@01@AEBN@Z
	??$?KV?$unit@U?$list@U?$dim@Ulength_base_dimension@units@boost@@V?$static_rational@$00$00@23@@units@boost@@Udimensionless_type@23@@units@boost@@U?$homogeneous_system@U?$list@Umeter_base_unit@si@units@boost@@U?$list@U?$scaled_base_unit@Ugram_base_unit@cgs@units@boost@@U?$scale@$09V?$static_rational@$02$00@units@boost@@@34@@units@boost@@U?$list@Usecond_base_unit@si@units@boost@@U?$list@Uampere_base_unit@si@units@boost@@U?$list@Ukelvin_base_unit@si@units@boost@@U?$list@Umole_base_unit@si@units@boost@@U?$list@Ucandela_base_unit@si@units@boost@@U?$list@Uradian_base_unit@angle@units@boost@@U?$list@Usteradian_base_unit@angle@units@boost@@Udimensionless_type@34@@34@@34@@34@@34@@34@@34@@23@@34@@units@boost@@@23@X@units@boost@@V012@NN@units@boost@@YA?AV?$quantity@V?$unit@Udimensionless_type@units@boost@@U?$homogeneous_system@U?$list@Umeter_base_unit@si@units@boost@@U?$list@U?$scaled_base_unit@Ugram_base_unit@cgs@units@boost@@U?$scale@$09V?$static_rational@$02$00@units@boost@@@34@@units@boost@@U?$list@Usecond_base_unit@si@units@boost@@U?$list@Uampere_base_unit@si@units@boost@@U?$list@Ukelvin_base_unit@si@units@boost@@U?$list@Umole_base_unit@si@units@boost@@U?$list@Ucandela_base_unit@si@units@boost@@U?$list@Uradian_base_unit@angle@units@boost@@U?$list@Usteradian_base_unit@angle@units@boost@@Udimensionless_type@34@@34@@34@@34@@34@@34@@34@@23@@34@@units@boost@@@23@X@units@boost@@N@01@AEBV?$quantity@V?$unit@U?$list@U?$dim@Ulength_base_dimension@units@boost@@V?$static_rational@$00$00@23@@units@boost@@Udimensionless_type@23@@units@boost@@U?$homogeneous_system@U?$list@Umeter_base_unit@si@units@boost@@U?$list@U?$scaled_base_unit@Ugram_base_unit@cgs@units@boost@@U?$scale@$09V?$static_rational@$02$00@units@boost@@@34@@units@boost@@U?$list@Usecond_base_unit@si@units@boost@@U?$list@Uampere_base_unit@si@units@boost@@U?$list@Ukelvin_base_unit@si@units@boost@@U?$list@Umole_base_unit@si@units@boost@@U?$list@Ucandela_base_unit@si@units@boost@@U?$list@Uradian_base_unit@angle@units@boost@@U?$list@Usteradian_base_unit@angle@units@boost@@Udimensionless_type@34@@34@@34@@34@@34@@34@@34@@23@@34@@units@boost@@@23@X@units@boost@@N@01@0@Z
	??$?KV?$unit@U?$list@U?$dim@Ulength_base_dimension@units@boost@@V?$static_rational@$01$00@23@@units@boost@@Udimensionless_type@23@@units@boost@@U?$homogeneous_system@U?$list@Umeter_base_unit@si@units@boost@@U?$list@U?$scaled_base_unit@Ugram_base_unit@cgs@units@boost@@U?$scale@$09V?$static_rational@$02$00@units@boost@@@34@@units@boost@@U?$list@Usecond_base_unit@si@units@boost@@U?$list@Uampere_base_unit@si@units@boost@@U?$list@Ukelvin_base_unit@si@units@boost@@U?$list@Umole_base_unit@si@units@boost@@U?$list@Ucandela_base_unit@si@units@boost@@U?$list@Uradian_base_unit@angle@units@boost@@U?$list@Usteradian_base_unit@angle@units@boost@@Udimensionless_type@34@@34@@34@@34@@34@@34@@34@@23@@34@@units@boost@@@23@X@units@boost@@V012@NN@units@boost@@YA?AV?$quantity@V?$unit@Udimensionless_type@units@boost@@U?$homogeneous_system@U?$list@Umeter_base_unit@si@units@boost@@U?$list@U?$scaled_base_unit@Ugram_base_unit@cgs@units@boost@@U?$scale@$09V?$static_rational@$02$00@units@boost@@@34@@units@boost@@U?$list@Usecond_base_unit@si@units@boost@@U?$list@Uampere_base_unit@si@units@boost@@U?$list@Ukelvin_base_unit@si@units@boost@@U?$list@Umole_base_unit@si@units@boost@@U?$list@Ucandela_base_unit@si@units@boost@@U?$list@Uradian_base_unit@angle@units@boost@@U?$list@Usteradian_base_unit@angle@units@boost@@Udimensionless_type@34@@34@@34@@34@@34@@34@@34@@23@@34@@units@boost@@@23@X@units@boost@@N@01@AEBV?$quantity@V?$unit@U?$list@U?$dim@Ulength_base_dimension@units@boost@@V?$static_rational@$01$00@23@@units@boost@@Udimensionless_type@23@@units@boost@@U?$homogeneous_system@U?$list@Umeter_base_unit@si@units@boost@@U?$list@U?$scaled_base_unit@Ugram_base_unit@cgs@units@boost@@U?$scale@$09V?$static_rational@$02$00@units@boost@@@34@@units@boost@@U?$list@Usecond_base_unit@si@units@boost@@U?$list@Uampere_base_unit@si@units@boost@@U?$list@Ukelvin_base_unit@si@units@boost@@U?$list@Umole_base_unit@si@units@boost@@U?$list@Ucandela_base_unit@si@units@boost@@U?$list@Uradian_base_unit@angle@units@boost@@U?$list@Usteradian_base_unit@angle@units@boost@@Udimensionless_type@34@@34@@34@@34@@34@@34@@34@@23@@34@@units@boost@@@23@X@units@boost@@N@01@0@Z
	??$?KV?$unit@U?$list@U?$dim@Uplane_angle_base_dimension@units@boost@@V?$static_rational@$00$00@23@@units@boost@@Udimensionless_type@23@@units@boost@@U?$homogeneous_system@U?$list@Udegree_base_unit@angle@units@boost@@Udimensionless_type@34@@units@boost@@@23@X@units@boost@@U?$homogeneous_system@U?$list@Udegree_base_unit@angle@units@boost@@Udimensionless_type@34@@units@boost@@@12@U?$list@U?$dim@Uplane_angle_base_dimension@units@boost@@V?$static_rational@$00$00@23@@units@boost@@Udimensionless_type@23@@12@N@units@boost@@YA?AV?$quantity@V?$unit@Udimensionless_type@units@boost@@U?$homogeneous_system@U?$list@Udegree_base_unit@angle@units@boost@@Udimensionless_type@34@@units@boost@@@23@X@units@boost@@N@01@AEBV?$quantity@V?$unit@U?$list@U?$dim@Uplane_angle_base_dimension@units@boost@@V?$static_rational@$00$00@23@@units@boost@@Udimensionless_type@23@@units@boost@@U?$homogeneous_system@U?$list@Udegree_base_unit@angle@units@boost@@Udimensionless_type@34@@units@boost@@@23@X@units@boost@@N@01@AEBV?$unit@U?$list@U?$dim@Uplane_angle_base_dimension@units@boost@@V?$static_rational@$00$00@23@@units@boost@@Udimensionless_type@23@@units@boost@@U?$homogeneous_system@U?$list@Udegree_base_unit@angle@units@boost@@Udimensionless_type@34@@units@boost@@@23@X@01@@Z
	??$?KV?$unit@U?$list@U?$dim@Utime_base_dimension@units@boost@@V?$static_rational@$00$00@23@@units@boost@@Udimensionless_type@23@@units@boost@@U?$heterogeneous_system@U?$heterogeneous_system_impl@U?$list@U?$heterogeneous_system_dim@Usecond_base_unit@si@units@boost@@V?$static_rational@$00$00@34@@units@boost@@Udimensionless_type@23@@units@boost@@U?$list@U?$dim@Utime_base_dimension@units@boost@@V?$static_rational@$00$00@23@@units@boost@@Udimensionless_type@23@@23@U?$list@U?$scale_list_dim@U?$scale@$09V?$static_rational@$0?2$00@units@boost@@@units@boost@@@units@boost@@Udimensionless_type@23@@23@@units@boost@@@23@X@units@boost@@N@units@boost@@YA?AV?$quantity@V?$unit@U?$list@U?$dim@Utime_base_dimension@units@boost@@V?$static_rational@$0?0$00@23@@units@boost@@Udimensionless_type@23@@units@boost@@U?$heterogeneous_system@U?$heterogeneous_system_impl@U?$list@U?$heterogeneous_system_dim@Usecond_base_unit@si@units@boost@@V?$static_rational@$0?0$00@34@@units@boost@@Udimensionless_type@23@@units@boost@@U?$list@U?$dim@Utime_base_dimension@units@boost@@V?$static_rational@$0?0$00@23@@units@boost@@Udimensionless_type@23@@23@U?$list@U?$scale_list_dim@U?$scale@$09V?$static_rational@$02$00@units@boost@@@units@boost@@@units@boost@@Udimensionless_type@23@@23@@units@boost@@@23@X@units@boost@@N@01@AEBNAEBV?$quantity@V?$unit@U?$list@U?$dim@Utime_base_dimension@units@boost@@V?$static_rational@$00$00@23@@units@boost@@Udimensionless_type@23@@units@boost@@U?$heterogeneous_system@U?$heterogeneous_system_impl@U?$list@U?$heterogeneous_system_dim@Usecond_base_unit@si@units@boost@@V?$static_rational@$00$00@34@@units@boost@@Udimensionless_type@23@@units@boost@@U?$list@U?$dim@Utime_base_dimension@units@boost@@V?$static_rational@$00$00@23@@units@boost@@Udimensionless_type@23@@23@U?$list@U?$scale_list_dim@U?$scale@$09V?$static_rational@$0?2$00@units@boost@@@units@boost@@@units@boost@@Udimensionless_type@23@@23@@units@boost@@@23@X@units@boost@@N@01@@Z
	??$?KV?$unit@U?$list@U?$dim@Utime_base_dimension@units@boost@@V?$static_rational@$00$00@23@@units@boost@@Udimensionless_type@23@@units@boost@@U?$homogeneous_system@U?$list@Umeter_base_unit@si@units@boost@@U?$list@U?$scaled_base_unit@Ugram_base_unit@cgs@units@boost@@U?$scale@$09V?$static_rational@$02$00@units@boost@@@34@@units@boost@@U?$list@Usecond_base_unit@si@units@boost@@U?$list@Uampere_base_unit@si@units@boost@@U?$list@Ukelvin_base_unit@si@units@boost@@U?$list@Umole_base_unit@si@units@boost@@U?$list@Ucandela_base_unit@si@units@boost@@U?$list@Uradian_base_unit@angle@units@boost@@U?$list@Usteradian_base_unit@angle@units@boost@@Udimensionless_type@34@@34@@34@@34@@34@@34@@34@@23@@34@@units@boost@@@23@X@units@boost@@N@units@boost@@YA?AV?$quantity@V?$unit@U?$list@U?$dim@Utime_base_dimension@units@boost@@V?$static_rational@$00$00@23@@units@boost@@Udimensionless_type@23@@units@boost@@U?$homogeneous_system@U?$list@Umeter_base_unit@si@units@boost@@U?$list@U?$scaled_base_unit@Ugram_base_unit@cgs@units@boost@@U?$scale@$09V?$static_rational@$02$00@units@boost@@@34@@units@boost@@U?$list@Usecond_base_unit@si@units@boost@@U?$list@Uampere_base_unit@si@units@boost@@U?$list@Ukelvin_base_unit@si@units@boost@@U?$list@Umole_base_unit@si@units@boost@@U?$list@Ucandela_base_unit@si@units@boost@@U?$list@Uradian_base_unit@angle@units@boost@@U?$list@Usteradian_base_unit@angle@units@boost@@Udimensionless_type@34@@34@@34@@34@@34@@34@@34@@23@@34@@units@boost@@@23@X@units@boost@@N@01@AEBV201@AEBN@Z
	??$?KV?$unit@U?$list@U?$dim@Utime_base_dimension@units@boost@@V?$static_rational@$00$00@23@@units@boost@@Udimensionless_type@23@@units@boost@@U?$homogeneous_system@U?$list@Umeter_base_unit@si@units@boost@@U?$list@U?$scaled_base_unit@Ugram_base_unit@cgs@units@boost@@U?$scale@$09V?$static_rational@$02$00@units@boost@@@34@@units@boost@@U?$list@Usecond_base_unit@si@units@boost@@U?$list@Uampere_base_unit@si@units@boost@@U?$list@Ukelvin_base_unit@si@units@boost@@U?$list@Umole_base_unit@si@units@boost@@U?$list@Ucandela_base_unit@si@units@boost@@U?$list@Uradian_base_unit@angle@units@boost@@U?$list@Usteradian_base_unit@angle@units@boost@@Udimensionless_type@34@@34@@34@@34@@34@@34@@34@@23@@34@@units@boost@@@23@X@units@boost@@U?$homogeneous_system@U?$list@Umeter_base_unit@si@units@boost@@U?$list@U?$scaled_base_unit@Ugram_base_unit@cgs@units@boost@@U?$scale@$09V?$static_rational@$02$00@units@boost@@@34@@units@boost@@U?$list@Usecond_base_unit@si@units@boost@@U?$list@Uampere_base_unit@si@units@boost@@U?$list@Ukelvin_base_unit@si@units@boost@@U?$list@Umole_base_unit@si@units@boost@@U?$list@Ucandela_base_unit@si@units@boost@@U?$list@Uradian_base_unit@angle@units@boost@@U?$list@Usteradian_base_unit@angle@units@boost@@Udimensionless_type@34@@34@@34@@34@@34@@34@@34@@23@@34@@units@boost@@@12@U?$list@U?$dim@Utime_base_dimension@units@boost@@V?$static_rational@$00$00@23@@units@boost@@Udimensionless_type@23@@12@N@units@boost@@YA?AV?$quantity@V?$unit@Udimensionless_type@units@boost@@U?$homogeneous_system@U?$list@Umeter_base_unit@si@units@boost@@U?$list@U?$scaled_base_unit@Ugram_base_unit@cgs@units@boost@@U?$scale@$09V?$static_rational@$02$00@units@boost@@@34@@units@boost@@U?$list@Usecond_base_unit@si@units@boost@@U?$list@Uampere_base_unit@si@units@boost@@U?$list@Ukelvin_base_unit@si@units@boost@@U?$list@Umole_base_unit@si@units@boost@@U?$list@Ucandela_base_unit@si@units@boost@@U?$list@Uradian_base_unit@angle@units@boost@@U?$list@Usteradian_base_unit@angle@units@boost@@Udimensionless_type@34@@34@@34@@34@@34@@34@@34@@23@@34@@units@boost@@@23@X@units@boost@@N@01@AEBV?$quantity@V?$unit@U?$list@U?$dim@Utime_base_dimension@units@boost@@V?$static_rational@$00$00@23@@units@boost@@Udimensionless_type@23@@units@boost@@U?$homogeneous_system@U?$list@Umeter_base_unit@si@units@boost@@U?$list@U?$scaled_base_unit@Ugram_base_unit@cgs@units@boost@@U?$scale@$09V?$static_rational@$02$00@units@boost@@@34@@units@boost@@U?$list@Usecond_base_unit@si@units@boost@@U?$list@Uampere_base_unit@si@units@boost@@U?$list@Ukelvin_base_unit@si@units@boost@@U?$list@Umole_base_unit@si@units@boost@@U?$list@Ucandela_base_unit@si@units@boost@@U?$list@Uradian_base_unit@angle@units@boost@@U?$list@Usteradian_base_unit@angle@units@boost@@Udimensionless_type@34@@34@@34@@34@@34@@34@@34@@23@@34@@units@boost@@@23@X@units@boost@@N@01@AEBV?$unit@U?$list@U?$dim@Utime_base_dimension@units@boost@@V?$static_rational@$00$00@23@@units@boost@@Udimensionless_type@23@@units@boost@@U?$homogeneous_system@U?$list@Umeter_base_unit@si@units@boost@@U?$list@U?$scaled_base_unit@Ugram_base_unit@cgs@units@boost@@U?$scale@$09V?$static_rational@$02$00@units@boost@@@34@@units@boost@@U?$list@Usecond_base_unit@si@units@boost@@U?$list@Uampere_base_unit@si@units@boost@@U?$list@Ukelvin_base_unit@si@units@boost@@U?$list@Umole_base_unit@si@units@boost@@U?$list@Ucandela_base_unit@si@units@boost@@U?$list@Uradian_base_unit@angle@units@boost@@U?$list@Usteradian_base_unit@angle@units@boost@@Udimensionless_type@34@@34@@34@@34@@34@@34@@34@@23@@34@@units@boost@@@23@X@01@@Z
	??$?KV?$unit@U?$list@U?$dim@Utime_base_dimension@units@boost@@V?$static_rational@$00$00@23@@units@boost@@Udimensionless_type@23@@units@boost@@U?$homogeneous_system@U?$list@Umeter_base_unit@si@units@boost@@U?$list@U?$scaled_base_unit@Ugram_base_unit@cgs@units@boost@@U?$scale@$09V?$static_rational@$02$00@units@boost@@@34@@units@boost@@U?$list@Usecond_base_unit@si@units@boost@@U?$list@Uampere_base_unit@si@units@boost@@U?$list@Ukelvin_base_unit@si@units@boost@@U?$list@Umole_base_unit@si@units@boost@@U?$list@Ucandela_base_unit@si@units@boost@@U?$list@Uradian_base_unit@angle@units@boost@@U?$list@Usteradian_base_unit@angle@units@boost@@Udimensionless_type@34@@34@@34@@34@@34@@34@@34@@23@@34@@units@boost@@@23@X@units@boost@@V?$unit@U?$list@U?$dim@Ulength_base_dimension@units@boost@@V?$static_rational@$00$00@23@@units@boost@@Udimensionless_type@23@@units@boost@@U?$homogeneous_system@U?$list@Umeter_base_unit@si@units@boost@@U?$list@U?$scaled_base_unit@Ugram_base_unit@cgs@units@boost@@U?$scale@$09V?$static_rational@$02$00@units@boost@@@34@@units@boost@@U?$list@Usecond_base_unit@si@units@boost@@U?$list@Uampere_base_unit@si@units@boost@@U?$list@Ukelvin_base_unit@si@units@boost@@U?$list@Umole_base_unit@si@units@boost@@U?$list@Ucandela_base_unit@si@units@boost@@U?$list@Uradian_base_unit@angle@units@boost@@U?$list@Usteradian_base_unit@angle@units@boost@@Udimensionless_type@34@@34@@34@@34@@34@@34@@34@@23@@34@@units@boost@@@23@X@12@NN@units@boost@@YA?AV?$quantity@V?$unit@U?$list@U?$dim@Ulength_base_dimension@units@boost@@V?$static_rational@$0?0$00@23@@units@boost@@U?$list@U?$dim@Utime_base_dimension@units@boost@@V?$static_rational@$00$00@23@@units@boost@@Udimensionless_type@23@@23@@units@boost@@U?$homogeneous_system@U?$list@Umeter_base_unit@si@units@boost@@U?$list@U?$scaled_base_unit@Ugram_base_unit@cgs@units@boost@@U?$scale@$09V?$static_rational@$02$00@units@boost@@@34@@units@boost@@U?$list@Usecond_base_unit@si@units@boost@@U?$list@Uampere_base_unit@si@units@boost@@U?$list@Ukelvin_base_unit@si@units@boost@@U?$list@Umole_base_unit@si@units@boost@@U?$list@Ucandela_base_unit@si@units@boost@@U?$list@Uradian_base_unit@angle@units@boost@@U?$list@Usteradian_base_unit@angle@units@boost@@Udimensionless_type@34@@34@@34@@34@@34@@34@@34@@23@@34@@units@boost@@@23@X@units@boost@@N@01@AEBV?$quantity@V?$unit@U?$list@U?$dim@Utime_base_dimension@units@boost@@V?$static_rational@$00$00@23@@units@boost@@Udimensionless_type@23@@units@boost@@U?$homogeneous_system@U?$list@Umeter_base_unit@si@units@boost@@U?$list@U?$scaled_base_unit@Ugram_base_unit@cgs@units@boost@@U?$scale@$09V?$static_rational@$02$00@units@boost@@@34@@units@boost@@U?$list@Usecond_base_unit@si@units@boost@@U?$list@Uampere_base_unit@si@units@boost@@U?$list@Ukelvin_base_unit@si@units@boost@@U?$list@Umole_base_unit@si@units@boost@@U?$list@Ucandela_base_unit@si@units@boost@@U?$list@Uradian_base_unit@angle@units@boost@@U?$list@Usteradian_base_unit@angle@units@boost@@Udimensionless_type@34@@34@@34@@34@@34@@34@@34@@23@@34@@units@boost@@@23@X@units@boost@@N@01@AEBV?$quantity@V?$unit@U?$list@U?$dim@Ulength_base_dimension@units@boost@@V?$static_rational@$00$00@23@@units@boost@@Udimensionless_type@23@@units@boost@@U?$homogeneous_system@U?$list@Umeter_base_unit@si@units@boost@@U?$list@U?$scaled_base_unit@Ugram_base_unit@cgs@units@boost@@U?$scale@$09V?$static_rational@$02$00@units@boost@@@34@@units@boost@@U?$list@Usecond_base_unit@si@units@boost@@U?$list@Uampere_base_unit@si@units@boost@@U?$list@Ukelvin_base_unit@si@units@boost@@U?$list@Umole_base_unit@si@units@boost@@U?$list@Ucandela_base_unit@si@units@boost@@U?$list@Uradian_base_unit@angle@units@boost@@U?$list@Usteradian_base_unit@angle@units@boost@@Udimensionless_type@34@@34@@34@@34@@34@@34@@34@@23@@34@@units@boost@@@23@X@units@boost@@N@01@@Z
	??$?KV?$unit@U?$list@U?$dim@Utime_base_dimension@units@boost@@V?$static_rational@$0?0$00@23@@units@boost@@Udimensionless_type@23@@units@boost@@U?$homogeneous_system@U?$list@Umeter_base_unit@si@units@boost@@U?$list@U?$scaled_base_unit@Ugram_base_unit@cgs@units@boost@@U?$scale@$09V?$static_rational@$02$00@units@boost@@@34@@units@boost@@U?$list@Usecond_base_unit@si@units@boost@@U?$list@Uampere_base_unit@si@units@boost@@U?$list@Ukelvin_base_unit@si@units@boost@@U?$list@Umole_base_unit@si@units@boost@@U?$list@Ucandela_base_unit@si@units@boost@@U?$list@Uradian_base_unit@angle@units@boost@@U?$list@Usteradian_base_unit@angle@units@boost@@Udimensionless_type@34@@34@@34@@34@@34@@34@@34@@23@@34@@units@boost@@@23@X@units@boost@@N@units@boost@@YA?AV?$quantity@V?$unit@U?$list@U?$dim@Utime_base_dimension@units@boost@@V?$static_rational@$00$00@23@@units@boost@@Udimensionless_type@23@@units@boost@@U?$homogeneous_system@U?$list@Umeter_base_unit@si@units@boost@@U?$list@U?$scaled_base_unit@Ugram_base_unit@cgs@units@boost@@U?$scale@$09V?$static_rational@$02$00@units@boost@@@34@@units@boost@@U?$list@Usecond_base_unit@si@units@boost@@U?$list@Uampere_base_unit@si@units@boost@@U?$list@Ukelvin_base_unit@si@units@boost@@U?$list@Umole_base_unit@si@units@boost@@U?$list@Ucandela_base_unit@si@units@boost@@U?$list@Uradian_base_unit@angle@units@boost@@U?$list@Usteradian_base_unit@angle@units@boost@@Udimensionless_type@34@@34@@34@@34@@34@@34@@34@@23@@34@@units@boost@@@23@X@units@boost@@N@01@AEBNAEBV?$quantity@V?$unit@U?$list@U?$dim@Utime_base_dimension@units@boost@@V?$static_rational@$0?0$00@23@@units@boost@@Udimensionless_type@23@@units@boost@@U?$homogeneous_system@U?$list@Umeter_base_unit@si@units@boost@@U?$list@U?$scaled_base_unit@Ugram_base_unit@cgs@units@boost@@U?$scale@$09V?$static_rational@$02$00@units@boost@@@34@@units@boost@@U?$list@Usecond_base_unit@si@units@boost@@U?$list@Uampere_base_unit@si@units@boost@@U?$list@Ukelvin_base_unit@si@units@boost@@U?$list@Umole_base_unit@si@units@boost@@U?$list@Ucandela_base_unit@si@units@boost@@U?$list@Uradian_base_unit@angle@units@boost@@U?$list@Usteradian_base_unit@angle@units@boost@@Udimensionless_type@34@@34@@34@@34@@34@@34@@34@@23@@34@@units@boost@@@23@X@units@boost@@N@01@@Z
	??$?MV?$unit@U?$list@U?$dim@Ulength_base_dimension@units@boost@@V?$static_rational@$00$00@23@@units@boost@@Udimensionless_type@23@@units@boost@@U?$homogeneous_system@U?$list@Umeter_base_unit@si@units@boost@@U?$list@U?$scaled_base_unit@Ugram_base_unit@cgs@units@boost@@U?$scale@$09V?$static_rational@$02$00@units@boost@@@34@@units@boost@@U?$list@Usecond_base_unit@si@units@boost@@U?$list@Uampere_base_unit@si@units@boost@@U?$list@Ukelvin_base_unit@si@units@boost@@U?$list@Umole_base_unit@si@units@boost@@U?$list@Ucandela_base_unit@si@units@boost@@U?$list@Uradian_base_unit@angle@units@boost@@U?$list@Usteradian_base_unit@angle@units@boost@@Udimensionless_type@34@@34@@34@@34@@34@@34@@34@@23@@34@@units@boost@@@23@X@units@boost@@NN@units@boost@@YA_NAEBV?$quantity@V?$unit@U?$list@U?$dim@Ulength_base_dimension@units@boost@@V?$static_rational@$00$00@23@@units@boost@@Udimensionless_type@23@@units@boost@@U?$homogeneous_system@U?$list@Umeter_base_unit@si@units@boost@@U?$list@U?$scaled_base_unit@Ugram_base_unit@cgs@units@boost@@U?$scale@$09V?$static_rational@$02$00@units@boost@@@34@@units@boost@@U?$list@Usecond_base_unit@si@units@boost@@U?$list@Uampere_base_unit@si@units@boost@@U?$list@Ukelvin_base_unit@si@units@boost@@U?$list@Umole_base_unit@si@units@boost@@U?$list@Ucandela_base_unit@si@units@boost@@U?$list@Uradian_base_unit@angle@units@boost@@U?$list@Usteradian_base_unit@angle@units@boost@@Udimensionless_type@34@@34@@34@@34@@34@@34@@34@@23@@34@@units@boost@@@23@X@units@boost@@N@01@0@Z
	??$?MV?$unit@U?$list@U?$dim@Uplane_angle_base_dimension@units@boost@@V?$static_rational@$00$00@23@@units@boost@@Udimensionless_type@23@@units@boost@@U?$heterogeneous_system@U?$heterogeneous_system_impl@U?$list@U?$heterogeneous_system_dim@Udegree_base_unit@angle@units@boost@@V?$static_rational@$00$00@34@@units@boost@@Udimensionless_type@23@@units@boost@@U?$list@U?$dim@Uplane_angle_base_dimension@units@boost@@V?$static_rational@$00$00@23@@units@boost@@Udimensionless_type@23@@23@U?$list@U?$scale_list_dim@U?$scale@$09V?$static_rational@$0?6$00@units@boost@@@units@boost@@@units@boost@@Udimensionless_type@23@@23@@units@boost@@@23@X@units@boost@@HH@units@boost@@YA_NAEBV?$quantity@V?$unit@U?$list@U?$dim@Uplane_angle_base_dimension@units@boost@@V?$static_rational@$00$00@23@@units@boost@@Udimensionless_type@23@@units@boost@@U?$heterogeneous_system@U?$heterogeneous_system_impl@U?$list@U?$heterogeneous_system_dim@Udegree_base_unit@angle@units@boost@@V?$static_rational@$00$00@34@@units@boost@@Udimensionless_type@23@@units@boost@@U?$list@U?$dim@Uplane_angle_base_dimension@units@boost@@V?$static_rational@$00$00@23@@units@boost@@Udimensionless_type@23@@23@U?$list@U?$scale_list_dim@U?$scale@$09V?$static_rational@$0?6$00@units@boost@@@units@boost@@@units@boost@@Udimensionless_type@23@@23@@units@boost@@@23@X@units@boost@@H@01@0@Z
	??$?MV?$unit@U?$list@U?$dim@Uplane_angle_base_dimension@units@boost@@V?$static_rational@$00$00@23@@units@boost@@Udimensionless_type@23@@units@boost@@U?$homogeneous_system@U?$list@Umeter_base_unit@si@units@boost@@U?$list@U?$scaled_base_unit@Ugram_base_unit@cgs@units@boost@@U?$scale@$09V?$static_rational@$02$00@units@boost@@@34@@units@boost@@U?$list@Usecond_base_unit@si@units@boost@@U?$list@Uampere_base_unit@si@units@boost@@U?$list@Ukelvin_base_unit@si@units@boost@@U?$list@Umole_base_unit@si@units@boost@@U?$list@Ucandela_base_unit@si@units@boost@@U?$list@Uradian_base_unit@angle@units@boost@@U?$list@Usteradian_base_unit@angle@units@boost@@Udimensionless_type@34@@34@@34@@34@@34@@34@@34@@23@@34@@units@boost@@@23@X@units@boost@@NN@units@boost@@YA_NAEBV?$quantity@V?$unit@U?$list@U?$dim@Uplane_angle_base_dimension@units@boost@@V?$static_rational@$00$00@23@@units@boost@@Udimensionless_type@23@@units@boost@@U?$homogeneous_system@U?$list@Umeter_base_unit@si@units@boost@@U?$list@U?$scaled_base_unit@Ugram_base_unit@cgs@units@boost@@U?$scale@$09V?$static_rational@$02$00@units@boost@@@34@@units@boost@@U?$list@Usecond_base_unit@si@units@boost@@U?$list@Uampere_base_unit@si@units@boost@@U?$list@Ukelvin_base_unit@si@units@boost@@U?$list@Umole_base_unit@si@units@boost@@U?$list@Ucandela_base_unit@si@units@boost@@U?$list@Uradian_base_unit@angle@units@boost@@U?$list@Usteradian_base_unit@angle@units@boost@@Udimensionless_type@34@@34@@34@@34@@34@@34@@34@@23@@34@@units@boost@@@23@X@units@boost@@N@01@0@Z
	??$?MV?$unit@U?$list@U?$dim@Utime_base_dimension@units@boost@@V?$static_rational@$00$00@23@@units@boost@@Udimensionless_type@23@@units@boost@@U?$homogeneous_system@U?$list@Umeter_base_unit@si@units@boost@@U?$list@U?$scaled_base_unit@Ugram_base_unit@cgs@units@boost@@U?$scale@$09V?$static_rational@$02$00@units@boost@@@34@@units@boost@@U?$list@Usecond_base_unit@si@units@boost@@U?$list@Uampere_base_unit@si@units@boost@@U?$list@Ukelvin_base_unit@si@units@boost@@U?$list@Umole_base_unit@si@units@boost@@U?$list@Ucandela_base_unit@si@units@boost@@U?$list@Uradian_base_unit@angle@units@boost@@U?$list@Usteradian_base_unit@angle@units@boost@@Udimensionless_type@34@@34@@34@@34@@34@@34@@34@@23@@34@@units@boost@@@23@X@units@boost@@NN@units@boost@@YA_NAEBV?$quantity@V?$unit@U?$list@U?$dim@Utime_base_dimension@units@boost@@V?$static_rational@$00$00@23@@units@boost@@Udimensionless_type@23@@units@boost@@U?$homogeneous_system@U?$list@Umeter_base_unit@si@units@boost@@U?$list@U?$scaled_base_unit@Ugram_base_unit@cgs@units@boost@@U?$scale@$09V?$static_rational@$02$00@units@boost@@@34@@units@boost@@U?$list@Usecond_base_unit@si@units@boost@@U?$list@Uampere_base_unit@si@units@boost@@U?$list@Ukelvin_base_unit@si@units@boost@@U?$list@Umole_base_unit@si@units@boost@@U?$list@Ucandela_base_unit@si@units@boost@@U?$list@Uradian_base_unit@angle@units@boost@@U?$list@Usteradian_base_unit@angle@units@boost@@Udimensionless_type@34@@34@@34@@34@@34@@34@@34@@23@@34@@units@boost@@@23@X@units@boost@@N@01@0@Z
	??$?MVClock@vanetza@@V?$duration@_JU?$ratio@$00$0PECEA@@std@@@chrono@std@@V234@@chrono@std@@YA_NAEBV?$time_point@VClock@vanetza@@V?$duration@_JU?$ratio@$00$0PECEA@@std@@@chrono@std@@@01@0@Z
	??$?M_JU?$ratio@$00$0PECEA@@std@@_JU01@@chrono@std@@YA_NAEBV?$duration@_JU?$ratio@$00$0PECEA@@std@@@01@0@Z
	??$?N_JU?$ratio@$00$0PECEA@@std@@_JU01@@chrono@std@@YA_NAEBV?$duration@_JU?$ratio@$00$0PECEA@@std@@@01@0@Z
	??$?OV?$unit@U?$list@U?$dim@Ulength_base_dimension@units@boost@@V?$static_rational@$00$00@23@@units@boost@@Udimensionless_type@23@@units@boost@@U?$homogeneous_system@U?$list@Umeter_base_unit@si@units@boost@@U?$list@U?$scaled_base_unit@Ugram_base_unit@cgs@units@boost@@U?$scale@$09V?$static_rational@$02$00@units@boost@@@34@@units@boost@@U?$list@Usecond_base_unit@si@units@boost@@U?$list@Uampere_base_unit@si@units@boost@@U?$list@Ukelvin_base_unit@si@units@boost@@U?$list@Umole_base_unit@si@units@boost@@U?$list@Ucandela_base_unit@si@units@boost@@U?$list@Uradian_base_unit@angle@units@boost@@U?$list@Usteradian_base_unit@angle@units@boost@@Udimensionless_type@34@@34@@34@@34@@34@@34@@34@@23@@34@@units@boost@@@23@X@units@boost@@NN@units@boost@@YA_NAEBV?$quantity@V?$unit@U?$list@U?$dim@Ulength_base_dimension@units@boost@@V?$static_rational@$00$00@23@@units@boost@@Udimensionless_type@23@@units@boost@@U?$homogeneous_system@U?$list@Umeter_base_unit@si@units@boost@@U?$list@U?$scaled_base_unit@Ugram_base_unit@cgs@units@boost@@U?$scale@$09V?$static_rational@$02$00@units@boost@@@34@@units@boost@@U?$list@Usecond_base_unit@si@units@boost@@U?$list@Uampere_base_unit@si@units@boost@@U?$list@Ukelvin_base_unit@si@units@boost@@U?$list@Umole_base_unit@si@units@boost@@U?$list@Ucandela_base_unit@si@units@boost@@U?$list@Uradian_base_unit@angle@units@boost@@U?$list@Usteradian_base_unit@angle@units@boost@@Udimensionless_type@34@@34@@34@@34@@34@@34@@34@@23@@34@@units@boost@@@23@X@units@boost@@N@01@0@Z
	??$?OV?$unit@U?$list@U?$dim@Ulength_base_dimension@units@boost@@V?$static_rational@$01$00@23@@units@boost@@Udimensionless_type@23@@units@boost@@U?$homogeneous_system@U?$list@Umeter_base_unit@si@units@boost@@U?$list@U?$scaled_base_unit@Ugram_base_unit@cgs@units@boost@@U?$scale@$09V?$static_rational@$02$00@units@boost@@@34@@units@boost@@U?$list@Usecond_base_unit@si@units@boost@@U?$list@Uampere_base_unit@si@units@boost@@U?$list@Ukelvin_base_unit@si@units@boost@@U?$list@Umole_base_unit@si@units@boost@@U?$list@Ucandela_base_unit@si@units@boost@@U?$list@Uradian_base_unit@angle@units@boost@@U?$list@Usteradian_base_unit@angle@units@boost@@Udimensionless_type@34@@34@@34@@34@@34@@34@@34@@23@@34@@units@boost@@@23@X@units@boost@@NN@units@boost@@YA_NAEBV?$quantity@V?$unit@U?$list@U?$dim@Ulength_base_dimension@units@boost@@V?$static_rational@$01$00@23@@units@boost@@Udimensionless_type@23@@units@boost@@U?$homogeneous_system@U?$list@Umeter_base_unit@si@units@boost@@U?$list@U?$scaled_base_unit@Ugram_base_unit@cgs@units@boost@@U?$scale@$09V?$static_rational@$02$00@units@boost@@@34@@units@boost@@U?$list@Usecond_base_unit@si@units@boost@@U?$list@Uampere_base_unit@si@units@boost@@U?$list@Ukelvin_base_unit@si@units@boost@@U?$list@Umole_base_unit@si@units@boost@@U?$list@Ucandela_base_unit@si@units@boost@@U?$list@Uradian_base_unit@angle@units@boost@@U?$list@Usteradian_base_unit@angle@units@boost@@Udimensionless_type@34@@34@@34@@34@@34@@34@@34@@23@@34@@units@boost@@@23@X@units@boost@@N@01@0@Z
	??$?OV?$unit@U?$list@U?$dim@Uplane_angle_base_dimension@units@boost@@V?$static_rational@$00$00@23@@units@boost@@Udimensionless_type@23@@units@boost@@U?$heterogeneous_system@U?$heterogeneous_system_impl@U?$list@U?$heterogeneous_system_dim@Udegree_base_unit@angle@units@boost@@V?$static_rational@$00$00@34@@units@boost@@Udimensionless_type@23@@units@boost@@U?$list@U?$dim@Uplane_angle_base_dimension@units@boost@@V?$static_rational@$00$00@23@@units@boost@@Udimensionless_type@23@@23@U?$list@U?$scale_list_dim@U?$scale@$09V?$static_rational@$0?0$00@units@boost@@@units@boost@@@units@boost@@Udimensionless_type@23@@23@@units@boost@@@23@X@units@boost@@GG@units@boost@@YA_NAEBV?$quantity@V?$unit@U?$list@U?$dim@Uplane_angle_base_dimension@units@boost@@V?$static_rational@$00$00@23@@units@boost@@Udimensionless_type@23@@units@boost@@U?$heterogeneous_system@U?$heterogeneous_system_impl@U?$list@U?$heterogeneous_system_dim@Udegree_base_unit@angle@units@boost@@V?$static_rational@$00$00@34@@units@boost@@Udimensionless_type@23@@units@boost@@U?$list@U?$dim@Uplane_angle_base_dimension@units@boost@@V?$static_rational@$00$00@23@@units@boost@@Udimensionless_type@23@@23@U?$list@U?$scale_list_dim@U?$scale@$09V?$static_rational@$0?0$00@units@boost@@@units@boost@@@units@boost@@Udimensionless_type@23@@23@@units@boost@@@23@X@units@boost@@G@01@0@Z
	??$?OV?$unit@U?$list@U?$dim@Uplane_angle_base_dimension@units@boost@@V?$static_rational@$00$00@23@@units@boost@@Udimensionless_type@23@@units@boost@@U?$heterogeneous_system@U?$heterogeneous_system_impl@U?$list@U?$heterogeneous_system_dim@Udegree_base_unit@angle@units@boost@@V?$static_rational@$00$00@34@@units@boost@@Udimensionless_type@23@@units@boost@@U?$list@U?$dim@Uplane_angle_base_dimension@units@boost@@V?$static_rational@$00$00@23@@units@boost@@Udimensionless_type@23@@23@U?$list@U?$scale_list_dim@U?$scale@$09V?$static_rational@$0?6$00@units@boost@@@units@boost@@@units@boost@@Udimensionless_type@23@@23@@units@boost@@@23@X@units@boost@@HH@units@boost@@YA_NAEBV?$quantity@V?$unit@U?$list@U?$dim@Uplane_angle_base_dimension@units@boost@@V?$static_rational@$00$00@23@@units@boost@@Udimensionless_type@23@@units@boost@@U?$heterogeneous_system@U?$heterogeneous_system_impl@U?$list@U?$heterogeneous_system_dim@Udegree_base_unit@angle@units@boost@@V?$static_rational@$00$00@34@@units@boost@@Udimensionless_type@23@@units@boost@@U?$list@U?$dim@Uplane_angle_base_dimension@units@boost@@V?$static_rational@$00$00@23@@units@boost@@Udimensionless_type@23@@23@U?$list@U?$scale_list_dim@U?$scale@$09V?$static_rational@$0?6$00@units@boost@@@units@boost@@@units@boost@@Udimensionless_type@23@@23@@units@boost@@@23@X@units@boost@@H@01@0@Z
	??$?OV?$unit@U?$list@U?$dim@Utime_base_dimension@units@boost@@V?$static_rational@$00$00@23@@units@boost@@Udimensionless_type@23@@units@boost@@U?$homogeneous_system@U?$list@Umeter_base_unit@si@units@boost@@U?$list@U?$scaled_base_unit@Ugram_base_unit@cgs@units@boost@@U?$scale@$09V?$static_rational@$02$00@units@boost@@@34@@units@boost@@U?$list@Usecond_base_unit@si@units@boost@@U?$list@Uampere_base_unit@si@units@boost@@U?$list@Ukelvin_base_unit@si@units@boost@@U?$list@Umole_base_unit@si@units@boost@@U?$list@Ucandela_base_unit@si@units@boost@@U?$list@Uradian_base_unit@angle@units@boost@@U?$list@Usteradian_base_unit@angle@units@boost@@Udimensionless_type@34@@34@@34@@34@@34@@34@@34@@23@@34@@units@boost@@@23@X@units@boost@@NN@units@boost@@YA_NAEBV?$quantity@V?$unit@U?$list@U?$dim@Utime_base_dimension@units@boost@@V?$static_rational@$00$00@23@@units@boost@@Udimensionless_type@23@@units@boost@@U?$homogeneous_system@U?$list@Umeter_base_unit@si@units@boost@@U?$list@U?$scaled_base_unit@Ugram_base_unit@cgs@units@boost@@U?$scale@$09V?$static_rational@$02$00@units@boost@@@34@@units@boost@@U?$list@Usecond_base_unit@si@units@boost@@U?$list@Uampere_base_unit@si@units@boost@@U?$list@Ukelvin_base_unit@si@units@boost@@U?$list@Umole_base_unit@si@units@boost@@U?$list@Ucandela_base_unit@si@units@boost@@U?$list@Uradian_base_unit@angle@units@boost@@U?$list@Usteradian_base_unit@angle@units@boost@@Udimensionless_type@34@@34@@34@@34@@34@@34@@34@@23@@34@@units@boost@@@23@X@units@boost@@N@01@0@Z
	??$?OV?$unit@U?$list@U?$dim@Utime_base_dimension@units@boost@@V?$static_rational@$0?0$00@23@@units@boost@@Udimensionless_type@23@@units@boost@@U?$homogeneous_system@U?$list@Umeter_base_unit@si@units@boost@@U?$list@U?$scaled_base_unit@Ugram_base_unit@cgs@units@boost@@U?$scale@$09V?$static_rational@$02$00@units@boost@@@34@@units@boost@@U?$list@Usecond_base_unit@si@units@boost@@U?$list@Uampere_base_unit@si@units@boost@@U?$list@Ukelvin_base_unit@si@units@boost@@U?$list@Umole_base_unit@si@units@boost@@U?$list@Ucandela_base_unit@si@units@boost@@U?$list@Uradian_base_unit@angle@units@boost@@U?$list@Usteradian_base_unit@angle@units@boost@@Udimensionless_type@34@@34@@34@@34@@34@@34@@34@@23@@34@@units@boost@@@23@X@units@boost@@NN@units@boost@@YA_NAEBV?$quantity@V?$unit@U?$list@U?$dim@Utime_base_dimension@units@boost@@V?$static_rational@$0?0$00@23@@units@boost@@Udimensionless_type@23@@units@boost@@U?$homogeneous_system@U?$list@Umeter_base_unit@si@units@boost@@U?$list@U?$scaled_base_unit@Ugram_base_unit@cgs@units@boost@@U?$scale@$09V?$static_rational@$02$00@units@boost@@@34@@units@boost@@U?$list@Usecond_base_unit@si@units@boost@@U?$list@Uampere_base_unit@si@units@boost@@U?$list@Ukelvin_base_unit@si@units@boost@@U?$list@Umole_base_unit@si@units@boost@@U?$list@Ucandela_base_unit@si@units@boost@@U?$list@Uradian_base_unit@angle@units@boost@@U?$list@Usteradian_base_unit@angle@units@boost@@Udimensionless_type@34@@34@@34@@34@@34@@34@@34@@23@@34@@units@boost@@@23@X@units@boost@@N@01@0@Z
	??$?OVClock@vanetza@@V?$duration@_JU?$ratio@$00$0PECEA@@std@@@chrono@std@@V234@@chrono@std@@YA_NAEBV?$time_point@VClock@vanetza@@V?$duration@_JU?$ratio@$00$0PECEA@@std@@@chrono@std@@@01@0@Z
	??$?O_JU?$ratio@$00$0PECEA@@std@@_JU01@@chrono@std@@YA_NAEBV?$duration@_JU?$ratio@$00$0PECEA@@std@@@01@0@Z
	??$?PV?$unit@U?$list@U?$dim@Utime_base_dimension@units@boost@@V?$static_rational@$00$00@23@@units@boost@@Udimensionless_type@23@@units@boost@@U?$homogeneous_system@U?$list@Umeter_base_unit@si@units@boost@@U?$list@U?$scaled_base_unit@Ugram_base_unit@cgs@units@boost@@U?$scale@$09V?$static_rational@$02$00@units@boost@@@34@@units@boost@@U?$list@Usecond_base_unit@si@units@boost@@U?$list@Uampere_base_unit@si@units@boost@@U?$list@Ukelvin_base_unit@si@units@boost@@U?$list@Umole_base_unit@si@units@boost@@U?$list@Ucandela_base_unit@si@units@boost@@U?$list@Uradian_base_unit@angle@units@boost@@U?$list@Usteradian_base_unit@angle@units@boost@@Udimensionless_type@34@@34@@34@@34@@34@@34@@34@@23@@34@@units@boost@@@23@X@units@boost@@NN@units@boost@@YA_NAEBV?$quantity@V?$unit@U?$list@U?$dim@Utime_base_dimension@units@boost@@V?$static_rational@$00$00@23@@units@boost@@Udimensionless_type@23@@units@boost@@U?$homogeneous_system@U?$list@Umeter_base_unit@si@units@boost@@U?$list@U?$scaled_base_unit@Ugram_base_unit@cgs@units@boost@@U?$scale@$09V?$static_rational@$02$00@units@boost@@@34@@units@boost@@U?$list@Usecond_base_unit@si@units@boost@@U?$list@Uampere_base_unit@si@units@boost@@U?$list@Ukelvin_base_unit@si@units@boost@@U?$list@Umole_base_unit@si@units@boost@@U?$list@Ucandela_base_unit@si@units@boost@@U?$list@Uradian_base_unit@angle@units@boost@@U?$list@Usteradian_base_unit@angle@units@boost@@Udimensionless_type@34@@34@@34@@34@@34@@34@@34@@23@@34@@units@boost@@@23@X@units@boost@@N@01@0@Z
	??$?R$$T@?$direct_mover@UArea@geonet@vanetza@@@variant@detail@boost@@QEAA_NAEA$$T@Z
	??$?R$$T@?$get_visitor@$$CBUArea@geonet@vanetza@@@variant@detail@boost@@QEBAPEBUArea@geonet@vanetza@@AEB$$T@Z
	??$?R$$T@?$get_visitor@$$CBVAddress@geonet@vanetza@@@variant@detail@boost@@QEBAPEBVAddress@geonet@vanetza@@AEB$$T@Z
	??$?RAEBV?$variant@UGucDataRequest@geonet@vanetza@@UGbcDataRequest@23@UGacDataRequest@23@UShbDataRequest@23@UTsbDataRequest@23@@boost@@V?$unique_ptr@VChunkPacket@vanetza@@U?$default_delete@VChunkPacket@vanetza@@@std@@@std@@@?$_Binder@U_Unforced@std@@P8Router@geonet@vanetza@@EAAXAEBV?$variant@UGucDataRequest@geonet@vanetza@@UGbcDataRequest@23@UGacDataRequest@23@UShbDataRequest@23@UTsbDataRequest@23@@boost@@V?$unique_ptr@VChunkPacket@vanetza@@U?$default_delete@VChunkPacket@vanetza@@@std@@@2@@ZPEAV345@AEBU?$_Ph@$00@2@AEBU?$_Ph@$01@2@@std@@QEAAXAEBV?$variant@UGucDataRequest@geonet@vanetza@@UGbcDataRequest@23@UGacDataRequest@23@UShbDataRequest@23@UTsbDataRequest@23@@boost@@$$QEAV?$unique_ptr@VChunkPacket@vanetza@@U?$default_delete@VChunkPacket@vanetza@@@std@@@1@@Z
	??$?RAEBVChannelLoad@dcc@vanetza@@AEBV012@@?$less@X@std@@QEBA_NAEBVChannelLoad@dcc@vanetza@@0@Z
	??$?RAEB_KAEB_K@?$less@X@std@@QEBA_NAEB_K0@Z
	??$?RPEAU?$hashed_index_base_node_impl@V?$allocator@D@std@@@detail@multi_index@boost@@@default_assigner@detail@multi_index@boost@@QEAAXAEAPEAU?$hashed_index_base_node_impl@V?$allocator@D@std@@@123@AEBQEAU4123@@Z
	??$?RPEAU?$hashed_index_node_impl@V?$allocator@D@std@@@detail@multi_index@boost@@@default_assigner@detail@multi_index@boost@@QEAAXAEAPEAU?$hashed_index_node_impl@V?$allocator@D@std@@@123@AEBQEAU4123@@Z
	??$?RPEAU?$heap_node_base@$0A@@detail@heap@boost@@@null_disposer@detail@intrusive@boost@@QEAAXPEAU?$heap_node_base@$0A@@1heap@3@@Z
	??$?RU?$heap_node_base@$0A@@detail@heap@boost@@@?$cmp_by_degree@U?$parent_pointing_heap_node@VExpiryWithKey@?$SoftStateMap@V?$tuple@VAddress@geonet@vanetza@@VSequenceNumber@23@@std@@_KU?$SoftStateDefaultCreator@_K@geonet@vanetza@@@geonet@vanetza@@@detail@heap@boost@@@detail@heap@boost@@QEAA_NAEBU?$heap_node_base@$0A@@123@0@Z
	??$?RU?$heap_node_base@$0A@@detail@heap@boost@@@?$cmp_by_degree@U?$parent_pointing_heap_node@VExpiryWithKey@?$SoftStateMap@VMacAddress@vanetza@@VLocationTableEntry@geonet@2@VLocationTableEntryCreator@42@@geonet@vanetza@@@detail@heap@boost@@@detail@heap@boost@@QEAA_NAEBU?$heap_node_base@$0A@@123@0@Z
	??$?RU?$pair@$$CBVMacAddress@vanetza@@UValueWithHandle@?$SoftStateMap@VMacAddress@vanetza@@VLocationTableEntry@geonet@2@VLocationTableEntryCreator@42@@geonet@2@@std@@@?$default_constructible_unary_fn_wrapper@V?$function@$$A6A?AU?$pair@AEBVMacAddress@vanetza@@AEAVLocationTableEntry@geonet@2@@std@@AEAU?$pair@$$CBVMacAddress@vanetza@@UValueWithHandle@?$SoftStateMap@VMacAddress@vanetza@@VLocationTableEntry@geonet@2@VLocationTableEntryCreator@42@@geonet@2@@2@@Z@std@@U?$pair@AEBVMacAddress@vanetza@@AEAVLocationTableEntry@geonet@2@@2@@range_detail@boost@@QEBA?AU?$pair@AEBVMacAddress@vanetza@@AEAVLocationTableEntry@geonet@2@@std@@AEAU?$pair@$$CBVMacAddress@vanetza@@UValueWithHandle@?$SoftStateMap@VMacAddress@vanetza@@VLocationTableEntry@geonet@2@VLocationTableEntryCreator@42@@geonet@2@@4@@Z
	??$?RU?$pair@$$CBVMacAddress@vanetza@@UValueWithHandle@?$SoftStateMap@VMacAddress@vanetza@@VLocationTableEntry@geonet@2@VLocationTableEntryCreator@42@@geonet@2@@std@@@?$default_constructible_unary_fn_wrapper@V?$function@$$A6A_NAEBU?$pair@$$CBVMacAddress@vanetza@@UValueWithHandle@?$SoftStateMap@VMacAddress@vanetza@@VLocationTableEntry@geonet@2@VLocationTableEntryCreator@42@@geonet@2@@std@@@Z@std@@_N@range_detail@boost@@QEBA_NAEAU?$pair@$$CBVMacAddress@vanetza@@UValueWithHandle@?$SoftStateMap@VMacAddress@vanetza@@VLocationTableEntry@geonet@2@VLocationTableEntryCreator@42@@geonet@2@@std@@@Z
	??$?RU?$pair@AEBVMacAddress@vanetza@@AEAVLocationTableEntry@geonet@2@@std@@@?$default_constructible_unary_fn_wrapper@V?$function@$$A6A_NAEBU?$pair@AEBVMacAddress@vanetza@@AEAVLocationTableEntry@geonet@2@@std@@@Z@std@@_N@range_detail@boost@@QEBA_NAEBU?$pair@AEBVMacAddress@vanetza@@AEAVLocationTableEntry@geonet@2@@std@@@Z
	??$?RU?$select_second_const@U?$filtered_range@V?$function@$$A6A_NAEBU?$pair@AEBVMacAddress@vanetza@@AEAVLocationTableEntry@geonet@2@@std@@@Z@std@@$$CBU?$transformed_range@V?$function@$$A6A?AU?$pair@AEBVMacAddress@vanetza@@AEAVLocationTableEntry@geonet@2@@std@@AEAU?$pair@$$CBVMacAddress@vanetza@@UValueWithHandle@?$SoftStateMap@VMacAddress@vanetza@@VLocationTableEntry@geonet@2@VLocationTableEntryCreator@42@@geonet@2@@2@@Z@std@@$$CBU?$filtered_range@V?$function@$$A6A_NAEBU?$pair@$$CBVMacAddress@vanetza@@UValueWithHandle@?$SoftStateMap@VMacAddress@vanetza@@VLocationTableEntry@geonet@2@VLocationTableEntryCreator@42@@geonet@2@@std@@@Z@std@@V?$iterator_range@V?$_List_iterator@V?$_List_val@U?$_List_simple_types@U?$pair@$$CBVMacAddress@vanetza@@UValueWithHandle@?$SoftStateMap@VMacAddress@vanetza@@VLocationTableEntry@geonet@2@VLocationTableEntryCreator@42@@geonet@2@@std@@@std@@@std@@@std@@@boost@@@range_detail@boost@@@range_detail@boost@@@range_detail@boost@@@range_detail@boost@@@?$forwarder@Utransform_holder@range_detail@boost@@@range_detail@boost@@QEBA?AU?$transform_holder@U?$select_second_const@U?$filtered_range@V?$function@$$A6A_NAEBU?$pair@AEBVMacAddress@vanetza@@AEAVLocationTableEntry@geonet@2@@std@@@Z@std@@$$CBU?$transformed_range@V?$function@$$A6A?AU?$pair@AEBVMacAddress@vanetza@@AEAVLocationTableEntry@geonet@2@@std@@AEAU?$pair@$$CBVMacAddress@vanetza@@UValueWithHandle@?$SoftStateMap@VMacAddress@vanetza@@VLocationTableEntry@geonet@2@VLocationTableEntryCreator@42@@geonet@2@@2@@Z@std@@$$CBU?$filtered_range@V?$function@$$A6A_NAEBU?$pair@$$CBVMacAddress@vanetza@@UValueWithHandle@?$SoftStateMap@VMacAddress@vanetza@@VLocationTableEntry@geonet@2@VLocationTableEntryCreator@42@@geonet@2@@std@@@Z@std@@V?$iterator_range@V?$_List_iterator@V?$_List_val@U?$_List_simple_types@U?$pair@$$CBVMacAddress@vanetza@@UValueWithHandle@?$SoftStateMap@VMacAddress@vanetza@@VLocationTableEntry@geonet@2@VLocationTableEntryCreator@42@@geonet@2@@std@@@std@@@std@@@std@@@boost@@@range_detail@boost@@@range_detail@boost@@@range_detail@boost@@@range_detail@boost@@@12@U?$select_second_const@U?$filtered_range@V?$function@$$A6A_NAEBU?$pair@AEBVMacAddress@vanetza@@AEAVLocationTableEntry@geonet@2@@std@@@Z@std@@$$CBU?$transformed_range@V?$function@$$A6A?AU?$pair@AEBVMacAddress@vanetza@@AEAVLocationTableEntry@geonet@2@@std@@AEAU?$pair@$$CBVMacAddress@vanetza@@UValueWithHandle@?$SoftStateMap@VMacAddress@vanetza@@VLocationTableEntry@geonet@2@VLocationTableEntryCreator@42@@geonet@2@@2@@Z@std@@$$CBU?$filtered_range@V?$function@$$A6A_NAEBU?$pair@$$CBVMacAddress@vanetza@@UValueWithHandle@?$SoftStateMap@VMacAddress@vanetza@@VLocationTableEntry@geonet@2@VLocationTableEntryCreator@42@@geonet@2@@std@@@Z@std@@V?$iterator_range@V?$_List_iterator@V?$_List_val@U?$_List_simple_types@U?$pair@$$CBVMacAddress@vanetza@@UValueWithHandle@?$SoftStateMap@VMacAddress@vanetza@@VLocationTableEntry@geonet@2@VLocationTableEntryCreator@42@@geonet@2@@std@@@std@@@std@@@std@@@boost@@@range_detail@boost@@@range_detail@boost@@@range_detail@boost@@@12@@Z
	??$?RUArea@geonet@vanetza@@@?$get_visitor@$$CBVAddress@geonet@vanetza@@@variant@detail@boost@@QEBAPEBVAddress@geonet@vanetza@@AEBUArea@56@@Z
	??$?RUBeaconHeader@geonet@vanetza@@@?$direct_mover@UGeoBroadcastHeader@geonet@vanetza@@@variant@detail@boost@@QEAA_NAEAUBeaconHeader@geonet@vanetza@@@Z
	??$?RUBeaconHeader@geonet@vanetza@@@?$direct_mover@UShbHeader@geonet@vanetza@@@variant@detail@boost@@QEAA_NAEAUBeaconHeader@geonet@vanetza@@@Z
	??$?RUBeaconHeader@geonet@vanetza@@@?$direct_mover@UTsbHeader@geonet@vanetza@@@variant@detail@boost@@QEAA_NAEAUBeaconHeader@geonet@vanetza@@@Z
	??$?RUBeaconHeader@geonet@vanetza@@@?$direct_mover@V?$variant@AEBUBeaconHeader@geonet@vanetza@@AEBUGeoBroadcastHeader@23@AEBUShbHeader@23@AEBUTsbHeader@23@@boost@@@variant@detail@boost@@QEAA_NAEAUBeaconHeader@geonet@vanetza@@@Z
	??$?RUBeaconHeader@geonet@vanetza@@@HeaderVariantLengthVisitor@geonet@vanetza@@QEAA_KAEBUBeaconHeader@12@@Z
	??$?RUBeaconHeader@geonet@vanetza@@@HeaderVariantVisitor@boost@@QEAAXAEBUBeaconHeader@geonet@vanetza@@@Z
	??$?RUCircle@geonet@vanetza@@@?$direct_mover@UEllipse@geonet@vanetza@@@variant@detail@boost@@QEAA_NAEAUCircle@geonet@vanetza@@@Z
	??$?RUCircle@geonet@vanetza@@@?$direct_mover@URectangle@geonet@vanetza@@@variant@detail@boost@@QEAA_NAEAUCircle@geonet@vanetza@@@Z
	??$?RUCircle@geonet@vanetza@@@geometric_function_visitor@geonet@vanetza@@QEBANAEBUCircle@12@@Z
	??$?RUEllipse@geonet@vanetza@@@?$direct_mover@UCircle@geonet@vanetza@@@variant@detail@boost@@QEAA_NAEAUEllipse@geonet@vanetza@@@Z
	??$?RUEllipse@geonet@vanetza@@@?$direct_mover@URectangle@geonet@vanetza@@@variant@detail@boost@@QEAA_NAEAUEllipse@geonet@vanetza@@@Z
	??$?RUEllipse@geonet@vanetza@@@geometric_function_visitor@geonet@vanetza@@QEBANAEBUEllipse@12@@Z
	??$?RUGacDataRequest@geonet@vanetza@@@RepetitionDispatcher@geonet@vanetza@@QEAAXAEBUGacDataRequest@12@@Z
	??$?RUGacDataRequest@geonet@vanetza@@@access_request_visitor@geonet@vanetza@@QEAAAEAUDataRequest@12@AEAUGacDataRequest@12@@Z
	??$?RUGbcDataRequest@geonet@vanetza@@@RepetitionDispatcher@geonet@vanetza@@QEAAXAEBUGbcDataRequest@12@@Z
	??$?RUGbcDataRequest@geonet@vanetza@@@access_request_visitor@geonet@vanetza@@QEAAAEAUDataRequest@12@AEAUGbcDataRequest@12@@Z
	??$?RUGeoBroadcastHeader@geonet@vanetza@@@?$direct_mover@UBeaconHeader@geonet@vanetza@@@variant@detail@boost@@QEAA_NAEAUGeoBroadcastHeader@geonet@vanetza@@@Z
	??$?RUGeoBroadcastHeader@geonet@vanetza@@@?$direct_mover@UShbHeader@geonet@vanetza@@@variant@detail@boost@@QEAA_NAEAUGeoBroadcastHeader@geonet@vanetza@@@Z
	??$?RUGeoBroadcastHeader@geonet@vanetza@@@?$direct_mover@UTsbHeader@geonet@vanetza@@@variant@detail@boost@@QEAA_NAEAUGeoBroadcastHeader@geonet@vanetza@@@Z
	??$?RUGeoBroadcastHeader@geonet@vanetza@@@?$direct_mover@V?$variant@AEBUBeaconHeader@geonet@vanetza@@AEBUGeoBroadcastHeader@23@AEBUShbHeader@23@AEBUTsbHeader@23@@boost@@@variant@detail@boost@@QEAA_NAEAUGeoBroadcastHeader@geonet@vanetza@@@Z
	??$?RUGeoBroadcastHeader@geonet@vanetza@@@HeaderVariantLengthVisitor@geonet@vanetza@@QEAA_KAEBUGeoBroadcastHeader@12@@Z
	??$?RUGeoBroadcastHeader@geonet@vanetza@@@HeaderVariantVisitor@boost@@QEAAXAEBUGeoBroadcastHeader@geonet@vanetza@@@Z
	??$?RUGucDataRequest@geonet@vanetza@@@RepetitionDispatcher@geonet@vanetza@@QEAAXAEBUGucDataRequest@12@@Z
	??$?RUGucDataRequest@geonet@vanetza@@@access_request_visitor@geonet@vanetza@@QEAAAEAUDataRequest@12@AEAUGucDataRequest@12@@Z
	??$?RURectangle@geonet@vanetza@@@?$direct_mover@UCircle@geonet@vanetza@@@variant@detail@boost@@QEAA_NAEAURectangle@geonet@vanetza@@@Z
	??$?RURectangle@geonet@vanetza@@@?$direct_mover@UEllipse@geonet@vanetza@@@variant@detail@boost@@QEAA_NAEAURectangle@geonet@vanetza@@@Z
	??$?RURectangle@geonet@vanetza@@@geometric_function_visitor@geonet@vanetza@@QEBANAEBURectangle@12@@Z
	??$?RUSecuredMessage@v2@security@vanetza@@@?$direct_mover@USecuredMessage@v3@security@vanetza@@@variant@detail@boost@@QEAA_NAEAUSecuredMessage@v2@security@vanetza@@@Z
	??$?RUSecuredMessage@v3@security@vanetza@@@?$direct_mover@USecuredMessage@v2@security@vanetza@@@variant@detail@boost@@QEAA_NAEAUSecuredMessage@v3@security@vanetza@@@Z
	??$?RUShbDataRequest@geonet@vanetza@@@RepetitionDispatcher@geonet@vanetza@@QEAAXAEBUShbDataRequest@12@@Z
	??$?RUShbDataRequest@geonet@vanetza@@@access_request_visitor@geonet@vanetza@@QEAAAEAUDataRequest@12@AEAUShbDataRequest@12@@Z
	??$?RUShbHeader@geonet@vanetza@@@?$direct_mover@UBeaconHeader@geonet@vanetza@@@variant@detail@boost@@QEAA_NAEAUShbHeader@geonet@vanetza@@@Z
	??$?RUShbHeader@geonet@vanetza@@@?$direct_mover@UGeoBroadcastHeader@geonet@vanetza@@@variant@detail@boost@@QEAA_NAEAUShbHeader@geonet@vanetza@@@Z
	??$?RUShbHeader@geonet@vanetza@@@?$direct_mover@UTsbHeader@geonet@vanetza@@@variant@detail@boost@@QEAA_NAEAUShbHeader@geonet@vanetza@@@Z
	??$?RUShbHeader@geonet@vanetza@@@?$direct_mover@V?$variant@AEBUBeaconHeader@geonet@vanetza@@AEBUGeoBroadcastHeader@23@AEBUShbHeader@23@AEBUTsbHeader@23@@boost@@@variant@detail@boost@@QEAA_NAEAUShbHeader@geonet@vanetza@@@Z
	??$?RUShbHeader@geonet@vanetza@@@HeaderVariantLengthVisitor@geonet@vanetza@@QEAA_KAEBUShbHeader@12@@Z
	??$?RUShbHeader@geonet@vanetza@@@HeaderVariantVisitor@boost@@QEAAXAEBUShbHeader@geonet@vanetza@@@Z
	??$?RUTsbDataRequest@geonet@vanetza@@@RepetitionDispatcher@geonet@vanetza@@QEAAXAEBUTsbDataRequest@12@@Z
	??$?RUTsbDataRequest@geonet@vanetza@@@access_request_visitor@geonet@vanetza@@QEAAAEAUDataRequest@12@AEAUTsbDataRequest@12@@Z
	??$?RUTsbHeader@geonet@vanetza@@@?$direct_mover@UBeaconHeader@geonet@vanetza@@@variant@detail@boost@@QEAA_NAEAUTsbHeader@geonet@vanetza@@@Z
	??$?RUTsbHeader@geonet@vanetza@@@?$direct_mover@UGeoBroadcastHeader@geonet@vanetza@@@variant@detail@boost@@QEAA_NAEAUTsbHeader@geonet@vanetza@@@Z
	??$?RUTsbHeader@geonet@vanetza@@@?$direct_mover@UShbHeader@geonet@vanetza@@@variant@detail@boost@@QEAA_NAEAUTsbHeader@geonet@vanetza@@@Z
	??$?RUTsbHeader@geonet@vanetza@@@?$direct_mover@V?$variant@AEBUBeaconHeader@geonet@vanetza@@AEBUGeoBroadcastHeader@23@AEBUShbHeader@23@AEBUTsbHeader@23@@boost@@@variant@detail@boost@@QEAA_NAEAUTsbHeader@geonet@vanetza@@@Z
	??$?RUTsbHeader@geonet@vanetza@@@HeaderVariantLengthVisitor@geonet@vanetza@@QEAA_KAEBUTsbHeader@12@@Z
	??$?RUTsbHeader@geonet@vanetza@@@HeaderVariantVisitor@boost@@QEAAXAEBUTsbHeader@geonet@vanetza@@@Z
	??$?RV?$function@$$A6A?AU?$pair@AEBVMacAddress@vanetza@@AEAVLocationTableEntry@geonet@2@@std@@AEAU?$pair@$$CBVMacAddress@vanetza@@UValueWithHandle@?$SoftStateMap@VMacAddress@vanetza@@VLocationTableEntry@geonet@2@VLocationTableEntryCreator@42@@geonet@2@@2@@Z@std@@@?$forwarder@Utransform_holder@range_detail@boost@@@range_detail@boost@@QEBA?AU?$transform_holder@V?$function@$$A6A?AU?$pair@AEBVMacAddress@vanetza@@AEAVLocationTableEntry@geonet@2@@std@@AEAU?$pair@$$CBVMacAddress@vanetza@@UValueWithHandle@?$SoftStateMap@VMacAddress@vanetza@@VLocationTableEntry@geonet@2@VLocationTableEntryCreator@42@@geonet@2@@2@@Z@std@@@12@V?$function@$$A6A?AU?$pair@AEBVMacAddress@vanetza@@AEAVLocationTableEntry@geonet@2@@std@@AEAU?$pair@$$CBVMacAddress@vanetza@@UValueWithHandle@?$SoftStateMap@VMacAddress@vanetza@@VLocationTableEntry@geonet@2@VLocationTableEntryCreator@42@@geonet@2@@2@@Z@std@@@Z
	??$?RV?$function@$$A6A_NAEBU?$pair@$$CBVMacAddress@vanetza@@UValueWithHandle@?$SoftStateMap@VMacAddress@vanetza@@VLocationTableEntry@geonet@2@VLocationTableEntryCreator@42@@geonet@2@@std@@@Z@std@@@?$forwarder@Ufilter_holder@range_detail@boost@@@range_detail@boost@@QEBA?AU?$filter_holder@V?$function@$$A6A_NAEBU?$pair@$$CBVMacAddress@vanetza@@UValueWithHandle@?$SoftStateMap@VMacAddress@vanetza@@VLocationTableEntry@geonet@2@VLocationTableEntryCreator@42@@geonet@2@@std@@@Z@std@@@12@V?$function@$$A6A_NAEBU?$pair@$$CBVMacAddress@vanetza@@UValueWithHandle@?$SoftStateMap@VMacAddress@vanetza@@VLocationTableEntry@geonet@2@VLocationTableEntryCreator@42@@geonet@2@@std@@@Z@std@@@Z
	??$?RV?$function@$$A6A_NAEBU?$pair@AEBVMacAddress@vanetza@@AEAVLocationTableEntry@geonet@2@@std@@@Z@std@@@?$forwarder@Ufilter_holder@range_detail@boost@@@range_detail@boost@@QEBA?AU?$filter_holder@V?$function@$$A6A_NAEBU?$pair@AEBVMacAddress@vanetza@@AEAVLocationTableEntry@geonet@2@@std@@@Z@std@@@12@V?$function@$$A6A_NAEBU?$pair@AEBVMacAddress@vanetza@@AEAVLocationTableEntry@geonet@2@@std@@@Z@std@@@Z
	??$?RV?$mersenne_twister_engine@I$0CA@$0CHA@$0BIN@$0BP@$0JJAILANP@$0L@$0PPPPPPPP@$06$0JNCMFGIA@$0P@$0OPMGAAAA@$0BC@$0GMAHIJGF@@std@@@?$uniform_int@I@std@@QEAAIAEAV?$mersenne_twister_engine@I$0CA@$0CHA@$0BIN@$0BP@$0JJAILANP@$0L@$0PPPPPPPP@$06$0JNCMFGIA@$0P@$0OPMGAAAA@$0BC@$0GMAHIJGF@@1@@Z
	??$?RV?$mersenne_twister_engine@I$0CA@$0CHA@$0BIN@$0BP@$0JJAILANP@$0L@$0PPPPPPPP@$06$0JNCMFGIA@$0P@$0OPMGAAAA@$0BC@$0GMAHIJGF@@std@@@?$uniform_real@N@std@@QEAANAEAV?$mersenne_twister_engine@I$0CA@$0CHA@$0BIN@$0BP@$0JJAILANP@$0L@$0PPPPPPPP@$06$0JNCMFGIA@$0P@$0OPMGAAAA@$0BC@$0GMAHIJGF@@1@@Z
	??$?RV?$time_point@VClock@vanetza@@V?$duration@_JU?$ratio@$00$0PECEA@@std@@@chrono@std@@@chrono@std@@@?$_Binder@XP8Repeater@geonet@vanetza@@EAAXV?$_List_iterator@V?$_List_val@U?$_List_simple_types@URepetition@Repeater@geonet@vanetza@@@std@@@std@@@std@@V?$time_point@VClock@vanetza@@V?$duration@_JU?$ratio@$00$0PECEA@@std@@@chrono@std@@@chrono@5@@ZPEAV123@AEAV45@AEAU?$_Ph@$00@5@@std@@QEAAX$$QEAV?$time_point@VClock@vanetza@@V?$duration@_JU?$ratio@$00$0PECEA@@std@@@chrono@std@@@chrono@1@@Z
	??$?RV?$tuple@V?$unique_ptr@V?$ExtendedPdu@UGeoBroadcastHeader@geonet@vanetza@@@geonet@vanetza@@U?$default_delete@V?$ExtendedPdu@UGeoBroadcastHeader@geonet@vanetza@@@geonet@vanetza@@@std@@@std@@V?$unique_ptr@VChunkPacket@vanetza@@U?$default_delete@VChunkPacket@vanetza@@@std@@@2@@std@@@?$_Binder@U_Unforced@std@@AEAV?$function@$$A6AX$$QEAV?$tuple@V?$unique_ptr@V?$ExtendedPdu@UGeoBroadcastHeader@geonet@vanetza@@@geonet@vanetza@@U?$default_delete@V?$ExtendedPdu@UGeoBroadcastHeader@geonet@vanetza@@@geonet@vanetza@@@std@@@std@@V?$unique_ptr@VChunkPacket@vanetza@@U?$default_delete@VChunkPacket@vanetza@@@std@@@2@@std@@AEBVMacAddress@vanetza@@@Z@2@AEBU?$_Ph@$00@2@AEAVMacAddress@vanetza@@@std@@QEAAX$$QEAV?$tuple@V?$unique_ptr@V?$ExtendedPdu@UGeoBroadcastHeader@geonet@vanetza@@@geonet@vanetza@@U?$default_delete@V?$ExtendedPdu@UGeoBroadcastHeader@geonet@vanetza@@@geonet@vanetza@@@std@@@std@@V?$unique_ptr@VChunkPacket@vanetza@@U?$default_delete@VChunkPacket@vanetza@@@std@@@2@@1@@Z
	??$?RV?$tuple@V?$unique_ptr@V?$ExtendedPdu@UGeoBroadcastHeader@geonet@vanetza@@@geonet@vanetza@@U?$default_delete@V?$ExtendedPdu@UGeoBroadcastHeader@geonet@vanetza@@@geonet@vanetza@@@std@@@std@@V?$unique_ptr@VChunkPacket@vanetza@@U?$default_delete@VChunkPacket@vanetza@@@std@@@2@@std@@@?$_Binder@U_Unforced@std@@AEAV?$function@$$A6AX$$QEAV?$tuple@V?$unique_ptr@V?$ExtendedPdu@UGeoBroadcastHeader@geonet@vanetza@@@geonet@vanetza@@U?$default_delete@V?$ExtendedPdu@UGeoBroadcastHeader@geonet@vanetza@@@geonet@vanetza@@@std@@@std@@V?$unique_ptr@VChunkPacket@vanetza@@U?$default_delete@VChunkPacket@vanetza@@@std@@@2@@std@@AEBVMacAddress@vanetza@@@Z@2@AEBU?$_Ph@$00@2@AEBVMacAddress@vanetza@@@std@@QEAAX$$QEAV?$tuple@V?$unique_ptr@V?$ExtendedPdu@UGeoBroadcastHeader@geonet@vanetza@@@geonet@vanetza@@U?$default_delete@V?$ExtendedPdu@UGeoBroadcastHeader@geonet@vanetza@@@geonet@vanetza@@@std@@@std@@V?$unique_ptr@VChunkPacket@vanetza@@U?$default_delete@VChunkPacket@vanetza@@@std@@@2@@1@@Z
	??$?RV?$tuple@VAddress@geonet@vanetza@@VSequenceNumber@23@@std@@@?$_Uhash_compare@V?$tuple@VAddress@geonet@vanetza@@VSequenceNumber@23@@std@@U?$hash@V?$tuple@VAddress@geonet@vanetza@@VSequenceNumber@23@@std@@@2@U?$equal_to@V?$tuple@VAddress@geonet@vanetza@@VSequenceNumber@23@@std@@@2@@std@@QEBA_KAEBV?$tuple@VAddress@geonet@vanetza@@VSequenceNumber@23@@1@@Z
	??$?RV?$tuple@VAddress@geonet@vanetza@@VSequenceNumber@23@@std@@V01@@?$_Uhash_compare@V?$tuple@VAddress@geonet@vanetza@@VSequenceNumber@23@@std@@U?$hash@V?$tuple@VAddress@geonet@vanetza@@VSequenceNumber@23@@std@@@2@U?$equal_to@V?$tuple@VAddress@geonet@vanetza@@VSequenceNumber@23@@std@@@2@@std@@QEBA_NAEBV?$tuple@VAddress@geonet@vanetza@@VSequenceNumber@23@@1@0@Z
	??$?RVAddress@geonet@vanetza@@@?$direct_mover@UArea@geonet@vanetza@@@variant@detail@boost@@QEAA_NAEAVAddress@geonet@vanetza@@@Z
	??$?RVAddress@geonet@vanetza@@@?$get_visitor@$$CBUArea@geonet@vanetza@@@variant@detail@boost@@QEBAPEBUArea@geonet@vanetza@@AEBVAddress@56@@Z
	??$?RVChunkPacket@vanetza@@@?$direct_assigner@VCohesivePacket@vanetza@@@variant@detail@boost@@QEAA_NAEAVChunkPacket@vanetza@@@Z
	??$?RVChunkPacket@vanetza@@@?$get_visitor@VCohesivePacket@vanetza@@@variant@detail@boost@@QEBAPEAVCohesivePacket@vanetza@@AEBVChunkPacket@5@@Z
	??$?RVCohesivePacket@vanetza@@@?$get_visitor@VChunkPacket@vanetza@@@variant@detail@boost@@QEBAPEAVChunkPacket@vanetza@@AEBVCohesivePacket@5@@Z
	??$?RVDccMcoField@geonet@vanetza@@@?$direct_assigner@I@variant@detail@boost@@QEAA_NAEAVDccMcoField@geonet@vanetza@@@Z
	??$?RVMacAddress@vanetza@@@?$_Uhash_compare@VMacAddress@vanetza@@U?$hash@VMacAddress@vanetza@@@std@@U?$equal_to@VMacAddress@vanetza@@@4@@std@@QEBA_KAEBVMacAddress@vanetza@@@Z
	??$?RVMacAddress@vanetza@@V01@@?$_Uhash_compare@VMacAddress@vanetza@@U?$hash@VMacAddress@vanetza@@@std@@U?$equal_to@VMacAddress@vanetza@@@4@@std@@QEBA_NAEBVMacAddress@vanetza@@0@Z
	??$?RW4VerificationReport@security@vanetza@@@?$direct_mover@Ublank@boost@@@variant@detail@boost@@QEAA_NAEAW4VerificationReport@security@vanetza@@@Z
	??$?UU?$filtered_range@V?$function@$$A6A_NAEBU?$pair@$$CBVMacAddress@vanetza@@UValueWithHandle@?$SoftStateMap@VMacAddress@vanetza@@VLocationTableEntry@geonet@2@VLocationTableEntryCreator@42@@geonet@2@@std@@@Z@std@@V?$iterator_range@V?$_List_iterator@V?$_List_val@U?$_List_simple_types@U?$pair@$$CBVMacAddress@vanetza@@UValueWithHandle@?$SoftStateMap@VMacAddress@vanetza@@VLocationTableEntry@geonet@2@VLocationTableEntryCreator@42@@geonet@2@@std@@@std@@@std@@@std@@@boost@@@range_detail@boost@@V?$function@$$A6A?AU?$pair@AEBVMacAddress@vanetza@@AEAVLocationTableEntry@geonet@2@@std@@AEAU?$pair@$$CBVMacAddress@vanetza@@UValueWithHandle@?$SoftStateMap@VMacAddress@vanetza@@VLocationTableEntry@geonet@2@VLocationTableEntryCreator@42@@geonet@2@@2@@Z@std@@@range_detail@boost@@YA?AU?$transformed_range@V?$function@$$A6A?AU?$pair@AEBVMacAddress@vanetza@@AEAVLocationTableEntry@geonet@2@@std@@AEAU?$pair@$$CBVMacAddress@vanetza@@UValueWithHandle@?$SoftStateMap@VMacAddress@vanetza@@VLocationTableEntry@geonet@2@VLocationTableEntryCreator@42@@geonet@2@@2@@Z@std@@$$CBU?$filtered_range@V?$function@$$A6A_NAEBU?$pair@$$CBVMacAddress@vanetza@@UValueWithHandle@?$SoftStateMap@VMacAddress@vanetza@@VLocationTableEntry@geonet@2@VLocationTableEntryCreator@42@@geonet@2@@std@@@Z@std@@V?$iterator_range@V?$_List_iterator@V?$_List_val@U?$_List_simple_types@U?$pair@$$CBVMacAddress@vanetza@@UValueWithHandle@?$SoftStateMap@VMacAddress@vanetza@@VLocationTableEntry@geonet@2@VLocationTableEntryCreator@42@@geonet@2@@std@@@std@@@std@@@std@@@boost@@@range_detail@boost@@@01@AEBU?$filtered_range@V?$function@$$A6A_NAEBU?$pair@$$CBVMacAddress@vanetza@@UValueWithHandle@?$SoftStateMap@VMacAddress@vanetza@@VLocationTableEntry@geonet@2@VLocationTableEntryCreator@42@@geonet@2@@std@@@Z@std@@V?$iterator_range@V?$_List_iterator@V?$_List_val@U?$_List_simple_types@U?$pair@$$CBVMacAddress@vanetza@@UValueWithHandle@?$SoftStateMap@VMacAddress@vanetza@@VLocationTableEntry@geonet@2@VLocationTableEntryCreator@42@@geonet@2@@std@@@std@@@std@@@std@@@boost@@@01@AEBU?$transform_holder@V?$function@$$A6A?AU?$pair@AEBVMacAddress@vanetza@@AEAVLocationTableEntry@geonet@2@@std@@AEAU?$pair@$$CBVMacAddress@vanetza@@UValueWithHandle@?$SoftStateMap@VMacAddress@vanetza@@VLocationTableEntry@geonet@2@VLocationTableEntryCreator@42@@geonet@2@@2@@Z@std@@@01@@Z
	??$?UU?$filtered_range@V?$function@$$A6A_NAEBU?$pair@AEBVMacAddress@vanetza@@AEAVLocationTableEntry@geonet@2@@std@@@Z@std@@$$CBU?$transformed_range@V?$function@$$A6A?AU?$pair@AEBVMacAddress@vanetza@@AEAVLocationTableEntry@geonet@2@@std@@AEAU?$pair@$$CBVMacAddress@vanetza@@UValueWithHandle@?$SoftStateMap@VMacAddress@vanetza@@VLocationTableEntry@geonet@2@VLocationTableEntryCreator@42@@geonet@2@@2@@Z@std@@$$CBU?$filtered_range@V?$function@$$A6A_NAEBU?$pair@$$CBVMacAddress@vanetza@@UValueWithHandle@?$SoftStateMap@VMacAddress@vanetza@@VLocationTableEntry@geonet@2@VLocationTableEntryCreator@42@@geonet@2@@std@@@Z@std@@V?$iterator_range@V?$_List_iterator@V?$_List_val@U?$_List_simple_types@U?$pair@$$CBVMacAddress@vanetza@@UValueWithHandle@?$SoftStateMap@VMacAddress@vanetza@@VLocationTableEntry@geonet@2@VLocationTableEntryCreator@42@@geonet@2@@std@@@std@@@std@@@std@@@boost@@@range_detail@boost@@@range_detail@boost@@@range_detail@boost@@@range_detail@boost@@YA?AV?$select_second_const_range@U?$filtered_range@V?$function@$$A6A_NAEBU?$pair@AEBVMacAddress@vanetza@@AEAVLocationTableEntry@geonet@2@@std@@@Z@std@@$$CBU?$transformed_range@V?$function@$$A6A?AU?$pair@AEBVMacAddress@vanetza@@AEAVLocationTableEntry@geonet@2@@std@@AEAU?$pair@$$CBVMacAddress@vanetza@@UValueWithHandle@?$SoftStateMap@VMacAddress@vanetza@@VLocationTableEntry@geonet@2@VLocationTableEntryCreator@42@@geonet@2@@2@@Z@std@@$$CBU?$filtered_range@V?$function@$$A6A_NAEBU?$pair@$$CBVMacAddress@vanetza@@UValueWithHandle@?$SoftStateMap@VMacAddress@vanetza@@VLocationTableEntry@geonet@2@VLocationTableEntryCreator@42@@geonet@2@@std@@@Z@std@@V?$iterator_range@V?$_List_iterator@V?$_List_val@U?$_List_simple_types@U?$pair@$$CBVMacAddress@vanetza@@UValueWithHandle@?$SoftStateMap@VMacAddress@vanetza@@VLocationTableEntry@geonet@2@VLocationTableEntryCreator@42@@geonet@2@@std@@@std@@@std@@@std@@@boost@@@range_detail@boost@@@range_detail@boost@@@range_detail@boost@@@01@AEBU?$filtered_range@V?$function@$$A6A_NAEBU?$pair@AEBVMacAddress@vanetza@@AEAVLocationTableEntry@geonet@2@@std@@@Z@std@@$$CBU?$transformed_range@V?$function@$$A6A?AU?$pair@AEBVMacAddress@vanetza@@AEAVLocationTableEntry@geonet@2@@std@@AEAU?$pair@$$CBVMacAddress@vanetza@@UValueWithHandle@?$SoftStateMap@VMacAddress@vanetza@@VLocationTableEntry@geonet@2@VLocationTableEntryCreator@42@@geonet@2@@2@@Z@std@@$$CBU?$filtered_range@V?$function@$$A6A_NAEBU?$pair@$$CBVMacAddress@vanetza@@UValueWithHandle@?$SoftStateMap@VMacAddress@vanetza@@VLocationTableEntry@geonet@2@VLocationTableEntryCreator@42@@geonet@2@@std@@@Z@std@@V?$iterator_range@V?$_List_iterator@V?$_List_val@U?$_List_simple_types@U?$pair@$$CBVMacAddress@vanetza@@UValueWithHandle@?$SoftStateMap@VMacAddress@vanetza@@VLocationTableEntry@geonet@2@VLocationTableEntryCreator@42@@geonet@2@@std@@@std@@@std@@@std@@@boost@@@range_detail@boost@@@range_detail@boost@@@01@Umap_values_forwarder@01@@Z
	??$?UU?$transformed_range@V?$function@$$A6A?AU?$pair@AEBVMacAddress@vanetza@@AEAVLocationTableEntry@geonet@2@@std@@AEAU?$pair@$$CBVMacAddress@vanetza@@UValueWithHandle@?$SoftStateMap@VMacAddress@vanetza@@VLocationTableEntry@geonet@2@VLocationTableEntryCreator@42@@geonet@2@@2@@Z@std@@$$CBU?$filtered_range@V?$function@$$A6A_NAEBU?$pair@$$CBVMacAddress@vanetza@@UValueWithHandle@?$SoftStateMap@VMacAddress@vanetza@@VLocationTableEntry@geonet@2@VLocationTableEntryCreator@42@@geonet@2@@std@@@Z@std@@V?$iterator_range@V?$_List_iterator@V?$_List_val@U?$_List_simple_types@U?$pair@$$CBVMacAddress@vanetza@@UValueWithHandle@?$SoftStateMap@VMacAddress@vanetza@@VLocationTableEntry@geonet@2@VLocationTableEntryCreator@42@@geonet@2@@std@@@std@@@std@@@std@@@boost@@@range_detail@boost@@@range_detail@boost@@V?$function@$$A6A_NAEBU?$pair@AEBVMacAddress@vanetza@@AEAVLocationTableEntry@geonet@2@@std@@@Z@std@@@range_detail@boost@@YA?AU?$filtered_range@V?$function@$$A6A_NAEBU?$pair@AEBVMacAddress@vanetza@@AEAVLocationTableEntry@geonet@2@@std@@@Z@std@@$$CBU?$transformed_range@V?$function@$$A6A?AU?$pair@AEBVMacAddress@vanetza@@AEAVLocationTableEntry@geonet@2@@std@@AEAU?$pair@$$CBVMacAddress@vanetza@@UValueWithHandle@?$SoftStateMap@VMacAddress@vanetza@@VLocationTableEntry@geonet@2@VLocationTableEntryCreator@42@@geonet@2@@2@@Z@std@@$$CBU?$filtered_range@V?$function@$$A6A_NAEBU?$pair@$$CBVMacAddress@vanetza@@UValueWithHandle@?$SoftStateMap@VMacAddress@vanetza@@VLocationTableEntry@geonet@2@VLocationTableEntryCreator@42@@geonet@2@@std@@@Z@std@@V?$iterator_range@V?$_List_iterator@V?$_List_val@U?$_List_simple_types@U?$pair@$$CBVMacAddress@vanetza@@UValueWithHandle@?$SoftStateMap@VMacAddress@vanetza@@VLocationTableEntry@geonet@2@VLocationTableEntryCreator@42@@geonet@2@@std@@@std@@@std@@@std@@@boost@@@range_detail@boost@@@range_detail@boost@@@01@AEBU?$transformed_range@V?$function@$$A6A?AU?$pair@AEBVMacAddress@vanetza@@AEAVLocationTableEntry@geonet@2@@std@@AEAU?$pair@$$CBVMacAddress@vanetza@@UValueWithHandle@?$SoftStateMap@VMacAddress@vanetza@@VLocationTableEntry@geonet@2@VLocationTableEntryCreator@42@@geonet@2@@2@@Z@std@@$$CBU?$filtered_range@V?$function@$$A6A_NAEBU?$pair@$$CBVMacAddress@vanetza@@UValueWithHandle@?$SoftStateMap@VMacAddress@vanetza@@VLocationTableEntry@geonet@2@VLocationTableEntryCreator@42@@geonet@2@@std@@@Z@std@@V?$iterator_range@V?$_List_iterator@V?$_List_val@U?$_List_simple_types@U?$pair@$$CBVMacAddress@vanetza@@UValueWithHandle@?$SoftStateMap@VMacAddress@vanetza@@VLocationTableEntry@geonet@2@VLocationTableEntryCreator@42@@geonet@2@@std@@@std@@@std@@@std@@@boost@@@range_detail@boost@@@01@AEBU?$filter_holder@V?$function@$$A6A_NAEBU?$pair@AEBVMacAddress@vanetza@@AEAVLocationTableEntry@geonet@2@@std@@@Z@std@@@01@@Z
	??$?UV?$iterator_range@V?$_List_iterator@V?$_List_val@U?$_List_simple_types@U?$pair@$$CBVMacAddress@vanetza@@UValueWithHandle@?$SoftStateMap@VMacAddress@vanetza@@VLocationTableEntry@geonet@2@VLocationTableEntryCreator@42@@geonet@2@@std@@@std@@@std@@@std@@@boost@@V?$function@$$A6A_NAEBU?$pair@$$CBVMacAddress@vanetza@@UValueWithHandle@?$SoftStateMap@VMacAddress@vanetza@@VLocationTableEntry@geonet@2@VLocationTableEntryCreator@42@@geonet@2@@std@@@Z@std@@@range_detail@boost@@YA?AU?$filtered_range@V?$function@$$A6A_NAEBU?$pair@$$CBVMacAddress@vanetza@@UValueWithHandle@?$SoftStateMap@VMacAddress@vanetza@@VLocationTableEntry@geonet@2@VLocationTableEntryCreator@42@@geonet@2@@std@@@Z@std@@V?$iterator_range@V?$_List_iterator@V?$_List_val@U?$_List_simple_types@U?$pair@$$CBVMacAddress@vanetza@@UValueWithHandle@?$SoftStateMap@VMacAddress@vanetza@@VLocationTableEntry@geonet@2@VLocationTableEntryCreator@42@@geonet@2@@std@@@std@@@std@@@std@@@boost@@@01@AEAV?$iterator_range@V?$_List_iterator@V?$_List_val@U?$_List_simple_types@U?$pair@$$CBVMacAddress@vanetza@@UValueWithHandle@?$SoftStateMap@VMacAddress@vanetza@@VLocationTableEntry@geonet@2@VLocationTableEntryCreator@42@@geonet@2@@std@@@std@@@std@@@std@@@1@AEBU?$filter_holder@V?$function@$$A6A_NAEBU?$pair@$$CBVMacAddress@vanetza@@UValueWithHandle@?$SoftStateMap@VMacAddress@vanetza@@VLocationTableEntry@geonet@2@VLocationTableEntryCreator@42@@geonet@2@@std@@@Z@std@@@01@@Z
	??$?YV?$unit@U?$list@U?$dim@Utime_base_dimension@units@boost@@V?$static_rational@$00$00@23@@units@boost@@Udimensionless_type@23@@units@boost@@U?$heterogeneous_system@U?$heterogeneous_system_impl@U?$list@U?$heterogeneous_system_dim@Usecond_base_unit@si@units@boost@@V?$static_rational@$00$00@34@@units@boost@@Udimensionless_type@23@@units@boost@@U?$list@U?$dim@Utime_base_dimension@units@boost@@V?$static_rational@$00$00@23@@units@boost@@Udimensionless_type@23@@23@U?$list@U?$scale_list_dim@U?$scale@$09V?$static_rational@$0?2$00@units@boost@@@units@boost@@@units@boost@@Udimensionless_type@23@@23@@units@boost@@@23@X@units@boost@@I@?$quantity@V?$absolute@V?$unit@U?$list@U?$dim@Utime_base_dimension@units@boost@@V?$static_rational@$00$00@23@@units@boost@@Udimensionless_type@23@@units@boost@@U?$heterogeneous_system@U?$heterogeneous_system_impl@U?$list@U?$heterogeneous_system_dim@Usecond_base_unit@si@units@boost@@V?$static_rational@$00$00@34@@units@boost@@Udimensionless_type@23@@units@boost@@U?$list@U?$dim@Utime_base_dimension@units@boost@@V?$static_rational@$00$00@23@@units@boost@@Udimensionless_type@23@@23@U?$list@U?$scale_list_dim@U?$scale@$09V?$static_rational@$0?2$00@units@boost@@@units@boost@@@units@boost@@Udimensionless_type@23@@23@@units@boost@@@23@X@units@boost@@@units@boost@@I@units@boost@@QEAAAEAV012@AEBV?$quantity@V?$unit@U?$list@U?$dim@Utime_base_dimension@units@boost@@V?$static_rational@$00$00@23@@units@boost@@Udimensionless_type@23@@units@boost@@U?$heterogeneous_system@U?$heterogeneous_system_impl@U?$list@U?$heterogeneous_system_dim@Usecond_base_unit@si@units@boost@@V?$static_rational@$00$00@34@@units@boost@@Udimensionless_type@23@@units@boost@@U?$list@U?$dim@Utime_base_dimension@units@boost@@V?$static_rational@$00$00@23@@units@boost@@Udimensionless_type@23@@23@U?$list@U?$scale_list_dim@U?$scale@$09V?$static_rational@$0?2$00@units@boost@@@units@boost@@@units@boost@@Udimensionless_type@23@@23@@units@boost@@@23@X@units@boost@@I@12@@Z
	??$?ZV?$unit@U?$list@U?$dim@Utime_base_dimension@units@boost@@V?$static_rational@$00$00@23@@units@boost@@Udimensionless_type@23@@units@boost@@U?$heterogeneous_system@U?$heterogeneous_system_impl@U?$list@U?$heterogeneous_system_dim@Usecond_base_unit@si@units@boost@@V?$static_rational@$00$00@34@@units@boost@@Udimensionless_type@23@@units@boost@@U?$list@U?$dim@Utime_base_dimension@units@boost@@V?$static_rational@$00$00@23@@units@boost@@Udimensionless_type@23@@23@U?$list@U?$scale_list_dim@U?$scale@$09V?$static_rational@$0?2$00@units@boost@@@units@boost@@@units@boost@@Udimensionless_type@23@@23@@units@boost@@@23@X@units@boost@@I@?$quantity@V?$absolute@V?$unit@U?$list@U?$dim@Utime_base_dimension@units@boost@@V?$static_rational@$00$00@23@@units@boost@@Udimensionless_type@23@@units@boost@@U?$heterogeneous_system@U?$heterogeneous_system_impl@U?$list@U?$heterogeneous_system_dim@Usecond_base_unit@si@units@boost@@V?$static_rational@$00$00@34@@units@boost@@Udimensionless_type@23@@units@boost@@U?$list@U?$dim@Utime_base_dimension@units@boost@@V?$static_rational@$00$00@23@@units@boost@@Udimensionless_type@23@@23@U?$list@U?$scale_list_dim@U?$scale@$09V?$static_rational@$0?2$00@units@boost@@@units@boost@@@units@boost@@Udimensionless_type@23@@23@@units@boost@@@23@X@units@boost@@@units@boost@@I@units@boost@@QEAAAEAV012@AEBV?$quantity@V?$unit@U?$list@U?$dim@Utime_base_dimension@units@boost@@V?$static_rational@$00$00@23@@units@boost@@Udimensionless_type@23@@units@boost@@U?$heterogeneous_system@U?$heterogeneous_system_impl@U?$list@U?$heterogeneous_system_dim@Usecond_base_unit@si@units@boost@@V?$static_rational@$00$00@34@@units@boost@@Udimensionless_type@23@@units@boost@@U?$list@U?$dim@Utime_base_dimension@units@boost@@V?$static_rational@$00$00@23@@units@boost@@Udimensionless_type@23@@23@U?$list@U?$scale_list_dim@U?$scale@$09V?$static_rational@$0?2$00@units@boost@@@units@boost@@@units@boost@@Udimensionless_type@23@@23@@units@boost@@@23@X@units@boost@@I@12@@Z
	??$?ZV?$unit@U?$list@U?$dim@Utime_base_dimension@units@boost@@V?$static_rational@$00$00@23@@units@boost@@Udimensionless_type@23@@units@boost@@U?$homogeneous_system@U?$list@Umeter_base_unit@si@units@boost@@U?$list@U?$scaled_base_unit@Ugram_base_unit@cgs@units@boost@@U?$scale@$09V?$static_rational@$02$00@units@boost@@@34@@units@boost@@U?$list@Usecond_base_unit@si@units@boost@@U?$list@Uampere_base_unit@si@units@boost@@U?$list@Ukelvin_base_unit@si@units@boost@@U?$list@Umole_base_unit@si@units@boost@@U?$list@Ucandela_base_unit@si@units@boost@@U?$list@Uradian_base_unit@angle@units@boost@@U?$list@Usteradian_base_unit@angle@units@boost@@Udimensionless_type@34@@34@@34@@34@@34@@34@@34@@23@@34@@units@boost@@@23@X@units@boost@@N@?$quantity@V?$unit@U?$list@U?$dim@Utime_base_dimension@units@boost@@V?$static_rational@$00$00@23@@units@boost@@Udimensionless_type@23@@units@boost@@U?$homogeneous_system@U?$list@Umeter_base_unit@si@units@boost@@U?$list@U?$scaled_base_unit@Ugram_base_unit@cgs@units@boost@@U?$scale@$09V?$static_rational@$02$00@units@boost@@@34@@units@boost@@U?$list@Usecond_base_unit@si@units@boost@@U?$list@Uampere_base_unit@si@units@boost@@U?$list@Ukelvin_base_unit@si@units@boost@@U?$list@Umole_base_unit@si@units@boost@@U?$list@Ucandela_base_unit@si@units@boost@@U?$list@Uradian_base_unit@angle@units@boost@@U?$list@Usteradian_base_unit@angle@units@boost@@Udimensionless_type@34@@34@@34@@34@@34@@34@@34@@23@@34@@units@boost@@@23@X@units@boost@@N@units@boost@@QEAAAEAV012@AEBV012@@Z
	??$_Adl_verify_range@PEAEPEAE@std@@YAXAEBQEAE0@Z
	??$_Adl_verify_range@PEAV?$_List_unchecked_iterator@V?$_List_val@U?$_List_simple_types@U?$pair@$$CBV?$tuple@VAddress@geonet@vanetza@@VSequenceNumber@23@@std@@UValueWithHandle@?$SoftStateMap@V?$tuple@VAddress@geonet@vanetza@@VSequenceNumber@23@@std@@_KU?$SoftStateDefaultCreator@_K@geonet@vanetza@@@geonet@vanetza@@@std@@@std@@@std@@@std@@PEAV12@@std@@YAXAEBQEAV?$_List_unchecked_iterator@V?$_List_val@U?$_List_simple_types@U?$pair@$$CBV?$tuple@VAddress@geonet@vanetza@@VSequenceNumber@23@@std@@UValueWithHandle@?$SoftStateMap@V?$tuple@VAddress@geonet@vanetza@@VSequenceNumber@23@@std@@_KU?$SoftStateDefaultCreator@_K@geonet@vanetza@@@geonet@vanetza@@@std@@@std@@@std@@@0@0@Z
	??$_Adl_verify_range@PEAV?$_List_unchecked_iterator@V?$_List_val@U?$_List_simple_types@U?$pair@$$CBV?$tuple@VAddress@geonet@vanetza@@VSequenceNumber@23@@std@@_K@std@@@std@@@std@@@std@@PEAV12@@std@@YAXAEBQEAV?$_List_unchecked_iterator@V?$_List_val@U?$_List_simple_types@U?$pair@$$CBV?$tuple@VAddress@geonet@vanetza@@VSequenceNumber@23@@std@@_K@std@@@std@@@std@@@0@0@Z
	??$_Adl_verify_range@PEAV?$_List_unchecked_iterator@V?$_List_val@U?$_List_simple_types@U?$pair@$$CBVMacAddress@vanetza@@UValueWithHandle@?$SoftStateMap@VMacAddress@vanetza@@VLocationTableEntry@geonet@2@VLocationTableEntryCreator@42@@geonet@2@@std@@@std@@@std@@@std@@PEAV12@@std@@YAXAEBQEAV?$_List_unchecked_iterator@V?$_List_val@U?$_List_simple_types@U?$pair@$$CBVMacAddress@vanetza@@UValueWithHandle@?$SoftStateMap@VMacAddress@vanetza@@VLocationTableEntry@geonet@2@VLocationTableEntryCreator@42@@geonet@2@@std@@@std@@@std@@@0@0@Z
	??$_Adl_verify_range@PEB_KPEB_K@std@@YAXAEBQEB_K0@Z
	??$_Adl_verify_range@V?$_Vector_iterator@V?$_Vector_val@U?$_Simple_types@E@std@@@std@@@std@@V12@@std@@YAXAEBV?$_Vector_iterator@V?$_Vector_val@U?$_Simple_types@E@std@@@std@@@0@0@Z
	??$_Alloc_proxy@V?$allocator@U_Container_proxy@std@@@std@@@_Container_base12@std@@QEAAX$$QEAV?$allocator@U_Container_proxy@std@@@1@@Z
	??$_Allocate@$0BA@U_Default_allocate_traits@std@@$0A@@std@@YAPEAX_K@Z
	??$_Allocate_manually_vector_aligned@U_Default_allocate_traits@std@@@std@@YAPEAX_K@Z
	??$_Append_range_unchecked@V?$_List_unchecked_const_iterator@V?$_List_val@U?$_List_simple_types@UCertificate@v2@security@vanetza@@@std@@@std@@U_Iterator_base0@2@@std@@V12@@?$_List_node_insert_op2@V?$allocator@U?$_List_node@UCertificate@v2@security@vanetza@@PEAX@std@@@std@@@std@@QEAAXV?$_List_unchecked_const_iterator@V?$_List_val@U?$_List_simple_types@UCertificate@v2@security@vanetza@@@std@@@std@@U_Iterator_base0@2@@1@V21@@Z
	??$_Append_range_unchecked@V?$_List_unchecked_const_iterator@V?$_List_val@U?$_List_simple_types@UItsAidSsp@v2@security@vanetza@@@std@@@std@@U_Iterator_base0@2@@std@@V12@@?$_List_node_insert_op2@V?$allocator@U?$_List_node@UItsAidSsp@v2@security@vanetza@@PEAX@std@@@std@@@std@@QEAAXV?$_List_unchecked_const_iterator@V?$_List_val@U?$_List_simple_types@UItsAidSsp@v2@security@vanetza@@@std@@@std@@U_Iterator_base0@2@@1@V21@@Z
	??$_Append_range_unchecked@V?$_List_unchecked_const_iterator@V?$_List_val@U?$_List_simple_types@URecipientInfo@v2@security@vanetza@@@std@@@std@@U_Iterator_base0@2@@std@@V12@@?$_List_node_insert_op2@V?$allocator@U?$_List_node@URecipientInfo@v2@security@vanetza@@PEAX@std@@@std@@@std@@QEAAXV?$_List_unchecked_const_iterator@V?$_List_val@U?$_List_simple_types@URecipientInfo@v2@security@vanetza@@@std@@@std@@U_Iterator_base0@2@@1@V21@@Z
	??$_Append_range_unchecked@V?$_List_unchecked_const_iterator@V?$_List_val@U?$_List_simple_types@URectangularRegion@v2@security@vanetza@@@std@@@std@@U_Iterator_base0@2@@std@@V12@@?$_List_node_insert_op2@V?$allocator@U?$_List_node@URectangularRegion@v2@security@vanetza@@PEAX@std@@@std@@@std@@QEAAXV?$_List_unchecked_const_iterator@V?$_List_val@U?$_List_simple_types@URectangularRegion@v2@security@vanetza@@@std@@@std@@U_Iterator_base0@2@@1@V21@@Z
	??$_Append_range_unchecked@V?$_List_unchecked_const_iterator@V?$_List_val@U?$_List_simple_types@UTwoDLocation@v2@security@vanetza@@@std@@@std@@U_Iterator_base0@2@@std@@V12@@?$_List_node_insert_op2@V?$allocator@U?$_List_node@UTwoDLocation@v2@security@vanetza@@PEAX@std@@@std@@@std@@QEAAXV?$_List_unchecked_const_iterator@V?$_List_val@U?$_List_simple_types@UTwoDLocation@v2@security@vanetza@@@std@@@std@@U_Iterator_base0@2@@1@V21@@Z
	??$_Append_range_unchecked@V?$_List_unchecked_const_iterator@V?$_List_val@U?$_List_simple_types@V?$array@E$02@std@@@std@@@std@@U_Iterator_base0@2@@std@@V12@@?$_List_node_insert_op2@V?$allocator@U?$_List_node@V?$array@E$02@std@@PEAX@std@@@std@@@std@@QEAAXV?$_List_unchecked_const_iterator@V?$_List_val@U?$_List_simple_types@V?$array@E$02@std@@@std@@@std@@U_Iterator_base0@2@@1@V21@@Z
	??$_Append_range_unchecked@V?$_List_unchecked_const_iterator@V?$_List_val@U?$_List_simple_types@V?$variant@IUStartAndEndValidity@v2@security@vanetza@@UStartAndDurationValidity@234@V?$variant@UNoneRegion@v2@security@vanetza@@UCircularRegion@234@V?$list@URectangularRegion@v2@security@vanetza@@V?$allocator@URectangularRegion@v2@security@vanetza@@@std@@@std@@V?$list@UTwoDLocation@v2@security@vanetza@@V?$allocator@UTwoDLocation@v2@security@vanetza@@@std@@@7@UIdentifiedRegion@234@@boost@@@boost@@@std@@@std@@U_Iterator_base0@2@@std@@V12@@?$_List_node_insert_op2@V?$allocator@U?$_List_node@V?$variant@IUStartAndEndValidity@v2@security@vanetza@@UStartAndDurationValidity@234@V?$variant@UNoneRegion@v2@security@vanetza@@UCircularRegion@234@V?$list@URectangularRegion@v2@security@vanetza@@V?$allocator@URectangularRegion@v2@security@vanetza@@@std@@@std@@V?$list@UTwoDLocation@v2@security@vanetza@@V?$allocator@UTwoDLocation@v2@security@vanetza@@@std@@@7@UIdentifiedRegion@234@@boost@@@boost@@PEAX@std@@@std@@@std@@QEAAXV?$_List_unchecked_const_iterator@V?$_List_val@U?$_List_simple_types@V?$variant@IUStartAndEndValidity@v2@security@vanetza@@UStartAndDurationValidity@234@V?$variant@UNoneRegion@v2@security@vanetza@@UCircularRegion@234@V?$list@URectangularRegion@v2@security@vanetza@@V?$allocator@URectangularRegion@v2@security@vanetza@@@std@@@std@@V?$list@UTwoDLocation@v2@security@vanetza@@V?$allocator@UTwoDLocation@v2@security@vanetza@@@std@@@7@UIdentifiedRegion@234@@boost@@@boost@@@std@@@std@@U_Iterator_base0@2@@1@V21@@Z
	??$_Append_range_unchecked@V?$_List_unchecked_const_iterator@V?$_List_val@U?$_List_simple_types@V?$variant@USignature@v2@security@vanetza@@$$V@boost@@@std@@@std@@U_Iterator_base0@2@@std@@V12@@?$_List_node_insert_op2@V?$allocator@U?$_List_node@V?$variant@USignature@v2@security@vanetza@@$$V@boost@@PEAX@std@@@std@@@std@@QEAAXV?$_List_unchecked_const_iterator@V?$_List_val@U?$_List_simple_types@V?$variant@USignature@v2@security@vanetza@@$$V@boost@@@std@@@std@@U_Iterator_base0@2@@1@V21@@Z
	??$_Append_range_unchecked@V?$_List_unchecked_const_iterator@V?$_List_val@U?$_List_simple_types@V?$variant@UVerificationKey@v2@security@vanetza@@UEncryptionKey@234@USubjectAssurance@234@V?$variant@UX_Coordinate_Only@security@vanetza@@UCompressed_Lsb_Y_0@23@UCompressed_Lsb_Y_1@23@UUncompressed@23@@boost@@V?$list@VIntX@v2@security@vanetza@@V?$allocator@VIntX@v2@security@vanetza@@@std@@@std@@V?$list@UItsAidSsp@v2@security@vanetza@@V?$allocator@UItsAidSsp@v2@security@vanetza@@@std@@@std@@@boost@@@std@@@std@@U_Iterator_base0@2@@std@@V12@@?$_List_node_insert_op2@V?$allocator@U?$_List_node@V?$variant@UVerificationKey@v2@security@vanetza@@UEncryptionKey@234@USubjectAssurance@234@V?$variant@UX_Coordinate_Only@security@vanetza@@UCompressed_Lsb_Y_0@23@UCompressed_Lsb_Y_1@23@UUncompressed@23@@boost@@V?$list@VIntX@v2@security@vanetza@@V?$allocator@VIntX@v2@security@vanetza@@@std@@@std@@V?$list@UItsAidSsp@v2@security@vanetza@@V?$allocator@UItsAidSsp@v2@security@vanetza@@@std@@@std@@@boost@@PEAX@std@@@std@@@std@@QEAAXV?$_List_unchecked_const_iterator@V?$_List_val@U?$_List_simple_types@V?$variant@UVerificationKey@v2@security@vanetza@@UEncryptionKey@234@USubjectAssurance@234@V?$variant@UX_Coordinate_Only@security@vanetza@@UCompressed_Lsb_Y_0@23@UCompressed_Lsb_Y_1@23@UUncompressed@23@@boost@@V?$list@VIntX@v2@security@vanetza@@V?$allocator@VIntX@v2@security@vanetza@@@std@@@std@@V?$list@UItsAidSsp@v2@security@vanetza@@V?$allocator@UItsAidSsp@v2@security@vanetza@@@std@@@std@@@boost@@@std@@@std@@U_Iterator_base0@2@@1@V21@@Z
	??$_Append_range_unchecked@V?$_List_unchecked_const_iterator@V?$_List_val@U?$_List_simple_types@V?$variant@_KUTime64WithStandardDeviation@v2@security@vanetza@@IUThreeDLocation@234@V?$list@V?$array@E$02@std@@V?$allocator@V?$array@E$02@std@@@2@@std@@VIntX@234@V?$variant@$$TV?$array@E$07@std@@V?$recursive_wrapper@UCertificate@v2@security@vanetza@@@boost@@V?$list@UCertificate@v2@security@vanetza@@V?$allocator@UCertificate@v2@security@vanetza@@@std@@@2@UCertificateDigestWithOtherAlgorithm@v2@security@vanetza@@@boost@@V?$variant@V?$array@E$0M@@std@@$$V@boost@@V?$list@URecipientInfo@v2@security@vanetza@@V?$allocator@URecipientInfo@v2@security@vanetza@@@std@@@7@@boost@@@std@@@std@@U_Iterator_base0@2@@std@@V12@@?$_List_node_insert_op2@V?$allocator@U?$_List_node@V?$variant@_KUTime64WithStandardDeviation@v2@security@vanetza@@IUThreeDLocation@234@V?$list@V?$array@E$02@std@@V?$allocator@V?$array@E$02@std@@@2@@std@@VIntX@234@V?$variant@$$TV?$array@E$07@std@@V?$recursive_wrapper@UCertificate@v2@security@vanetza@@@boost@@V?$list@UCertificate@v2@security@vanetza@@V?$allocator@UCertificate@v2@security@vanetza@@@std@@@2@UCertificateDigestWithOtherAlgorithm@v2@security@vanetza@@@boost@@V?$variant@V?$array@E$0M@@std@@$$V@boost@@V?$list@URecipientInfo@v2@security@vanetza@@V?$allocator@URecipientInfo@v2@security@vanetza@@@std@@@7@@boost@@PEAX@std@@@std@@@std@@QEAAXV?$_List_unchecked_const_iterator@V?$_List_val@U?$_List_simple_types@V?$variant@_KUTime64WithStandardDeviation@v2@security@vanetza@@IUThreeDLocation@234@V?$list@V?$array@E$02@std@@V?$allocator@V?$array@E$02@std@@@2@@std@@VIntX@234@V?$variant@$$TV?$array@E$07@std@@V?$recursive_wrapper@UCertificate@v2@security@vanetza@@@boost@@V?$list@UCertificate@v2@security@vanetza@@V?$allocator@UCertificate@v2@security@vanetza@@@std@@@2@UCertificateDigestWithOtherAlgorithm@v2@security@vanetza@@@boost@@V?$variant@V?$array@E$0M@@std@@$$V@boost@@V?$list@URecipientInfo@v2@security@vanetza@@V?$allocator@URecipientInfo@v2@security@vanetza@@@std@@@7@@boost@@@std@@@std@@U_Iterator_base0@2@@1@V21@@Z
	??$_Append_range_unchecked@V?$_List_unchecked_const_iterator@V?$_List_val@U?$_List_simple_types@VIntX@v2@security@vanetza@@@std@@@std@@U_Iterator_base0@2@@std@@V12@@?$_List_node_insert_op2@V?$allocator@U?$_List_node@VIntX@v2@security@vanetza@@PEAX@std@@@std@@@std@@QEAAXV?$_List_unchecked_const_iterator@V?$_List_val@U?$_List_simple_types@VIntX@v2@security@vanetza@@@std@@@std@@U_Iterator_base0@2@@1@V21@@Z
	??$_Assign_cast@AEAUCertificate@v2@security@vanetza@@V?$_List_unchecked_const_iterator@V?$_List_val@U?$_List_simple_types@UCertificate@v2@security@vanetza@@@std@@@std@@U_Iterator_base0@2@@std@@@?$list@UCertificate@v2@security@vanetza@@V?$allocator@UCertificate@v2@security@vanetza@@@std@@@std@@AEAAXV?$_List_unchecked_const_iterator@V?$_List_val@U?$_List_simple_types@UCertificate@v2@security@vanetza@@@std@@@std@@U_Iterator_base0@2@@1@V21@@Z
	??$_Assign_cast@AEAUItsAidSsp@v2@security@vanetza@@V?$_List_unchecked_const_iterator@V?$_List_val@U?$_List_simple_types@UItsAidSsp@v2@security@vanetza@@@std@@@std@@U_Iterator_base0@2@@std@@@?$list@UItsAidSsp@v2@security@vanetza@@V?$allocator@UItsAidSsp@v2@security@vanetza@@@std@@@std@@AEAAXV?$_List_unchecked_const_iterator@V?$_List_val@U?$_List_simple_types@UItsAidSsp@v2@security@vanetza@@@std@@@std@@U_Iterator_base0@2@@1@V21@@Z
	??$_Assign_cast@AEAURecipientInfo@v2@security@vanetza@@V?$_List_unchecked_const_iterator@V?$_List_val@U?$_List_simple_types@URecipientInfo@v2@security@vanetza@@@std@@@std@@U_Iterator_base0@2@@std@@@?$list@URecipientInfo@v2@security@vanetza@@V?$allocator@URecipientInfo@v2@security@vanetza@@@std@@@std@@AEAAXV?$_List_unchecked_const_iterator@V?$_List_val@U?$_List_simple_types@URecipientInfo@v2@security@vanetza@@@std@@@std@@U_Iterator_base0@2@@1@V21@@Z
	??$_Assign_cast@AEAURectangularRegion@v2@security@vanetza@@V?$_List_unchecked_const_iterator@V?$_List_val@U?$_List_simple_types@URectangularRegion@v2@security@vanetza@@@std@@@std@@U_Iterator_base0@2@@std@@@?$list@URectangularRegion@v2@security@vanetza@@V?$allocator@URectangularRegion@v2@security@vanetza@@@std@@@std@@AEAAXV?$_List_unchecked_const_iterator@V?$_List_val@U?$_List_simple_types@URectangularRegion@v2@security@vanetza@@@std@@@std@@U_Iterator_base0@2@@1@V21@@Z
	??$_Assign_cast@AEAUTwoDLocation@v2@security@vanetza@@V?$_List_unchecked_const_iterator@V?$_List_val@U?$_List_simple_types@UTwoDLocation@v2@security@vanetza@@@std@@@std@@U_Iterator_base0@2@@std@@@?$list@UTwoDLocation@v2@security@vanetza@@V?$allocator@UTwoDLocation@v2@security@vanetza@@@std@@@std@@AEAAXV?$_List_unchecked_const_iterator@V?$_List_val@U?$_List_simple_types@UTwoDLocation@v2@security@vanetza@@@std@@@std@@U_Iterator_base0@2@@1@V21@@Z
	??$_Assign_cast@AEAV?$array@E$02@std@@V?$_List_unchecked_const_iterator@V?$_List_val@U?$_List_simple_types@V?$array@E$02@std@@@std@@@std@@U_Iterator_base0@2@@2@@?$list@V?$array@E$02@std@@V?$allocator@V?$array@E$02@std@@@2@@std@@AEAAXV?$_List_unchecked_const_iterator@V?$_List_val@U?$_List_simple_types@V?$array@E$02@std@@@std@@@std@@U_Iterator_base0@2@@1@V21@@Z
	??$_Assign_cast@AEAV?$variant@IUStartAndEndValidity@v2@security@vanetza@@UStartAndDurationValidity@234@V?$variant@UNoneRegion@v2@security@vanetza@@UCircularRegion@234@V?$list@URectangularRegion@v2@security@vanetza@@V?$allocator@URectangularRegion@v2@security@vanetza@@@std@@@std@@V?$list@UTwoDLocation@v2@security@vanetza@@V?$allocator@UTwoDLocation@v2@security@vanetza@@@std@@@7@UIdentifiedRegion@234@@boost@@@boost@@V?$_List_unchecked_const_iterator@V?$_List_val@U?$_List_simple_types@V?$variant@IUStartAndEndValidity@v2@security@vanetza@@UStartAndDurationValidity@234@V?$variant@UNoneRegion@v2@security@vanetza@@UCircularRegion@234@V?$list@URectangularRegion@v2@security@vanetza@@V?$allocator@URectangularRegion@v2@security@vanetza@@@std@@@std@@V?$list@UTwoDLocation@v2@security@vanetza@@V?$allocator@UTwoDLocation@v2@security@vanetza@@@std@@@7@UIdentifiedRegion@234@@boost@@@boost@@@std@@@std@@U_Iterator_base0@2@@std@@@?$list@V?$variant@IUStartAndEndValidity@v2@security@vanetza@@UStartAndDurationValidity@234@V?$variant@UNoneRegion@v2@security@vanetza@@UCircularRegion@234@V?$list@URectangularRegion@v2@security@vanetza@@V?$allocator@URectangularRegion@v2@security@vanetza@@@std@@@std@@V?$list@UTwoDLocation@v2@security@vanetza@@V?$allocator@UTwoDLocation@v2@security@vanetza@@@std@@@7@UIdentifiedRegion@234@@boost@@@boost@@V?$allocator@V?$variant@IUStartAndEndValidity@v2@security@vanetza@@UStartAndDurationValidity@234@V?$variant@UNoneRegion@v2@security@vanetza@@UCircularRegion@234@V?$list@URectangularRegion@v2@security@vanetza@@V?$allocator@URectangularRegion@v2@security@vanetza@@@std@@@std@@V?$list@UTwoDLocation@v2@security@vanetza@@V?$allocator@UTwoDLocation@v2@security@vanetza@@@std@@@7@UIdentifiedRegion@234@@boost@@@boost@@@std@@@std@@AEAAXV?$_List_unchecked_const_iterator@V?$_List_val@U?$_List_simple_types@V?$variant@IUStartAndEndValidity@v2@security@vanetza@@UStartAndDurationValidity@234@V?$variant@UNoneRegion@v2@security@vanetza@@UCircularRegion@234@V?$list@URectangularRegion@v2@security@vanetza@@V?$allocator@URectangularRegion@v2@security@vanetza@@@std@@@std@@V?$list@UTwoDLocation@v2@security@vanetza@@V?$allocator@UTwoDLocation@v2@security@vanetza@@@std@@@7@UIdentifiedRegion@234@@boost@@@boost@@@std@@@std@@U_Iterator_base0@2@@1@V21@@Z
	??$_Assign_cast@AEAV?$variant@USignature@v2@security@vanetza@@$$V@boost@@V?$_List_unchecked_const_iterator@V?$_List_val@U?$_List_simple_types@V?$variant@USignature@v2@security@vanetza@@$$V@boost@@@std@@@std@@U_Iterator_base0@2@@std@@@?$list@V?$variant@USignature@v2@security@vanetza@@$$V@boost@@V?$allocator@V?$variant@USignature@v2@security@vanetza@@$$V@boost@@@std@@@std@@AEAAXV?$_List_unchecked_const_iterator@V?$_List_val@U?$_List_simple_types@V?$variant@USignature@v2@security@vanetza@@$$V@boost@@@std@@@std@@U_Iterator_base0@2@@1@V21@@Z
	??$_Assign_cast@AEAV?$variant@UVerificationKey@v2@security@vanetza@@UEncryptionKey@234@USubjectAssurance@234@V?$variant@UX_Coordinate_Only@security@vanetza@@UCompressed_Lsb_Y_0@23@UCompressed_Lsb_Y_1@23@UUncompressed@23@@boost@@V?$list@VIntX@v2@security@vanetza@@V?$allocator@VIntX@v2@security@vanetza@@@std@@@std@@V?$list@UItsAidSsp@v2@security@vanetza@@V?$allocator@UItsAidSsp@v2@security@vanetza@@@std@@@std@@@boost@@V?$_List_unchecked_const_iterator@V?$_List_val@U?$_List_simple_types@V?$variant@UVerificationKey@v2@security@vanetza@@UEncryptionKey@234@USubjectAssurance@234@V?$variant@UX_Coordinate_Only@security@vanetza@@UCompressed_Lsb_Y_0@23@UCompressed_Lsb_Y_1@23@UUncompressed@23@@boost@@V?$list@VIntX@v2@security@vanetza@@V?$allocator@VIntX@v2@security@vanetza@@@std@@@std@@V?$list@UItsAidSsp@v2@security@vanetza@@V?$allocator@UItsAidSsp@v2@security@vanetza@@@std@@@std@@@boost@@@std@@@std@@U_Iterator_base0@2@@std@@@?$list@V?$variant@UVerificationKey@v2@security@vanetza@@UEncryptionKey@234@USubjectAssurance@234@V?$variant@UX_Coordinate_Only@security@vanetza@@UCompressed_Lsb_Y_0@23@UCompressed_Lsb_Y_1@23@UUncompressed@23@@boost@@V?$list@VIntX@v2@security@vanetza@@V?$allocator@VIntX@v2@security@vanetza@@@std@@@std@@V?$list@UItsAidSsp@v2@security@vanetza@@V?$allocator@UItsAidSsp@v2@security@vanetza@@@std@@@std@@@boost@@V?$allocator@V?$variant@UVerificationKey@v2@security@vanetza@@UEncryptionKey@234@USubjectAssurance@234@V?$variant@UX_Coordinate_Only@security@vanetza@@UCompressed_Lsb_Y_0@23@UCompressed_Lsb_Y_1@23@UUncompressed@23@@boost@@V?$list@VIntX@v2@security@vanetza@@V?$allocator@VIntX@v2@security@vanetza@@@std@@@std@@V?$list@UItsAidSsp@v2@security@vanetza@@V?$allocator@UItsAidSsp@v2@security@vanetza@@@std@@@std@@@boost@@@std@@@std@@AEAAXV?$_List_unchecked_const_iterator@V?$_List_val@U?$_List_simple_types@V?$variant@UVerificationKey@v2@security@vanetza@@UEncryptionKey@234@USubjectAssurance@234@V?$variant@UX_Coordinate_Only@security@vanetza@@UCompressed_Lsb_Y_0@23@UCompressed_Lsb_Y_1@23@UUncompressed@23@@boost@@V?$list@VIntX@v2@security@vanetza@@V?$allocator@VIntX@v2@security@vanetza@@@std@@@std@@V?$list@UItsAidSsp@v2@security@vanetza@@V?$allocator@UItsAidSsp@v2@security@vanetza@@@std@@@std@@@boost@@@std@@@std@@U_Iterator_base0@2@@1@V21@@Z
	??$_Assign_cast@AEAV?$variant@_KUTime64WithStandardDeviation@v2@security@vanetza@@IUThreeDLocation@234@V?$list@V?$array@E$02@std@@V?$allocator@V?$array@E$02@std@@@2@@std@@VIntX@234@V?$variant@$$TV?$array@E$07@std@@V?$recursive_wrapper@UCertificate@v2@security@vanetza@@@boost@@V?$list@UCertificate@v2@security@vanetza@@V?$allocator@UCertificate@v2@security@vanetza@@@std@@@2@UCertificateDigestWithOtherAlgorithm@v2@security@vanetza@@@boost@@V?$variant@V?$array@E$0M@@std@@$$V@boost@@V?$list@URecipientInfo@v2@security@vanetza@@V?$allocator@URecipientInfo@v2@security@vanetza@@@std@@@7@@boost@@V?$_List_unchecked_const_iterator@V?$_List_val@U?$_List_simple_types@V?$variant@_KUTime64WithStandardDeviation@v2@security@vanetza@@IUThreeDLocation@234@V?$list@V?$array@E$02@std@@V?$allocator@V?$array@E$02@std@@@2@@std@@VIntX@234@V?$variant@$$TV?$array@E$07@std@@V?$recursive_wrapper@UCertificate@v2@security@vanetza@@@boost@@V?$list@UCertificate@v2@security@vanetza@@V?$allocator@UCertificate@v2@security@vanetza@@@std@@@2@UCertificateDigestWithOtherAlgorithm@v2@security@vanetza@@@boost@@V?$variant@V?$array@E$0M@@std@@$$V@boost@@V?$list@URecipientInfo@v2@security@vanetza@@V?$allocator@URecipientInfo@v2@security@vanetza@@@std@@@7@@boost@@@std@@@std@@U_Iterator_base0@2@@std@@@?$list@V?$variant@_KUTime64WithStandardDeviation@v2@security@vanetza@@IUThreeDLocation@234@V?$list@V?$array@E$02@std@@V?$allocator@V?$array@E$02@std@@@2@@std@@VIntX@234@V?$variant@$$TV?$array@E$07@std@@V?$recursive_wrapper@UCertificate@v2@security@vanetza@@@boost@@V?$list@UCertificate@v2@security@vanetza@@V?$allocator@UCertificate@v2@security@vanetza@@@std@@@2@UCertificateDigestWithOtherAlgorithm@v2@security@vanetza@@@boost@@V?$variant@V?$array@E$0M@@std@@$$V@boost@@V?$list@URecipientInfo@v2@security@vanetza@@V?$allocator@URecipientInfo@v2@security@vanetza@@@std@@@7@@boost@@V?$allocator@V?$variant@_KUTime64WithStandardDeviation@v2@security@vanetza@@IUThreeDLocation@234@V?$list@V?$array@E$02@std@@V?$allocator@V?$array@E$02@std@@@2@@std@@VIntX@234@V?$variant@$$TV?$array@E$07@std@@V?$recursive_wrapper@UCertificate@v2@security@vanetza@@@boost@@V?$list@UCertificate@v2@security@vanetza@@V?$allocator@UCertificate@v2@security@vanetza@@@std@@@2@UCertificateDigestWithOtherAlgorithm@v2@security@vanetza@@@boost@@V?$variant@V?$array@E$0M@@std@@$$V@boost@@V?$list@URecipientInfo@v2@security@vanetza@@V?$allocator@URecipientInfo@v2@security@vanetza@@@std@@@7@@boost@@@std@@@std@@AEAAXV?$_List_unchecked_const_iterator@V?$_List_val@U?$_List_simple_types@V?$variant@_KUTime64WithStandardDeviation@v2@security@vanetza@@IUThreeDLocation@234@V?$list@V?$array@E$02@std@@V?$allocator@V?$array@E$02@std@@@2@@std@@VIntX@234@V?$variant@$$TV?$array@E$07@std@@V?$recursive_wrapper@UCertificate@v2@security@vanetza@@@boost@@V?$list@UCertificate@v2@security@vanetza@@V?$allocator@UCertificate@v2@security@vanetza@@@std@@@2@UCertificateDigestWithOtherAlgorithm@v2@security@vanetza@@@boost@@V?$variant@V?$array@E$0M@@std@@$$V@boost@@V?$list@URecipientInfo@v2@security@vanetza@@V?$allocator@URecipientInfo@v2@security@vanetza@@@std@@@7@@boost@@@std@@@std@@U_Iterator_base0@2@@1@V21@@Z
	??$_Assign_cast@AEAVIntX@v2@security@vanetza@@V?$_List_unchecked_const_iterator@V?$_List_val@U?$_List_simple_types@VIntX@v2@security@vanetza@@@std@@@std@@U_Iterator_base0@2@@std@@@?$list@VIntX@v2@security@vanetza@@V?$allocator@VIntX@v2@security@vanetza@@@std@@@std@@AEAAXV?$_List_unchecked_const_iterator@V?$_List_val@U?$_List_simple_types@VIntX@v2@security@vanetza@@@std@@@std@@U_Iterator_base0@2@@1@V21@@Z
	??$_Assign_range@PEAE@?$vector@EV?$allocator@E@std@@@std@@AEAAXPEAE0Uforward_iterator_tag@1@@Z
	??$_Attach_at_end@U?$_List_simple_types@UCertificate@v2@security@vanetza@@@std@@@?$_List_node_insert_op2@V?$allocator@U?$_List_node@UCertificate@v2@security@vanetza@@PEAX@std@@@std@@@std@@QEAAXAEAV?$_List_val@U?$_List_simple_types@UCertificate@v2@security@vanetza@@@std@@@1@@Z
	??$_Attach_at_end@U?$_List_simple_types@UItsAidSsp@v2@security@vanetza@@@std@@@?$_List_node_insert_op2@V?$allocator@U?$_List_node@UItsAidSsp@v2@security@vanetza@@PEAX@std@@@std@@@std@@QEAAXAEAV?$_List_val@U?$_List_simple_types@UItsAidSsp@v2@security@vanetza@@@std@@@1@@Z
	??$_Attach_at_end@U?$_List_simple_types@URecipientInfo@v2@security@vanetza@@@std@@@?$_List_node_insert_op2@V?$allocator@U?$_List_node@URecipientInfo@v2@security@vanetza@@PEAX@std@@@std@@@std@@QEAAXAEAV?$_List_val@U?$_List_simple_types@URecipientInfo@v2@security@vanetza@@@std@@@1@@Z
	??$_Attach_at_end@U?$_List_simple_types@URectangularRegion@v2@security@vanetza@@@std@@@?$_List_node_insert_op2@V?$allocator@U?$_List_node@URectangularRegion@v2@security@vanetza@@PEAX@std@@@std@@@std@@QEAAXAEAV?$_List_val@U?$_List_simple_types@URectangularRegion@v2@security@vanetza@@@std@@@1@@Z
	??$_Attach_at_end@U?$_List_simple_types@UTwoDLocation@v2@security@vanetza@@@std@@@?$_List_node_insert_op2@V?$allocator@U?$_List_node@UTwoDLocation@v2@security@vanetza@@PEAX@std@@@std@@@std@@QEAAXAEAV?$_List_val@U?$_List_simple_types@UTwoDLocation@v2@security@vanetza@@@std@@@1@@Z
	??$_Attach_at_end@U?$_List_simple_types@V?$array@E$02@std@@@std@@@?$_List_node_insert_op2@V?$allocator@U?$_List_node@V?$array@E$02@std@@PEAX@std@@@std@@@std@@QEAAXAEAV?$_List_val@U?$_List_simple_types@V?$array@E$02@std@@@std@@@1@@Z
	??$_Attach_at_end@U?$_List_simple_types@V?$variant@IUStartAndEndValidity@v2@security@vanetza@@UStartAndDurationValidity@234@V?$variant@UNoneRegion@v2@security@vanetza@@UCircularRegion@234@V?$list@URectangularRegion@v2@security@vanetza@@V?$allocator@URectangularRegion@v2@security@vanetza@@@std@@@std@@V?$list@UTwoDLocation@v2@security@vanetza@@V?$allocator@UTwoDLocation@v2@security@vanetza@@@std@@@7@UIdentifiedRegion@234@@boost@@@boost@@@std@@@?$_List_node_insert_op2@V?$allocator@U?$_List_node@V?$variant@IUStartAndEndValidity@v2@security@vanetza@@UStartAndDurationValidity@234@V?$variant@UNoneRegion@v2@security@vanetza@@UCircularRegion@234@V?$list@URectangularRegion@v2@security@vanetza@@V?$allocator@URectangularRegion@v2@security@vanetza@@@std@@@std@@V?$list@UTwoDLocation@v2@security@vanetza@@V?$allocator@UTwoDLocation@v2@security@vanetza@@@std@@@7@UIdentifiedRegion@234@@boost@@@boost@@PEAX@std@@@std@@@std@@QEAAXAEAV?$_List_val@U?$_List_simple_types@V?$variant@IUStartAndEndValidity@v2@security@vanetza@@UStartAndDurationValidity@234@V?$variant@UNoneRegion@v2@security@vanetza@@UCircularRegion@234@V?$list@URectangularRegion@v2@security@vanetza@@V?$allocator@URectangularRegion@v2@security@vanetza@@@std@@@std@@V?$list@UTwoDLocation@v2@security@vanetza@@V?$allocator@UTwoDLocation@v2@security@vanetza@@@std@@@7@UIdentifiedRegion@234@@boost@@@boost@@@std@@@1@@Z
	??$_Attach_at_end@U?$_List_simple_types@V?$variant@USignature@v2@security@vanetza@@$$V@boost@@@std@@@?$_List_node_insert_op2@V?$allocator@U?$_List_node@V?$variant@USignature@v2@security@vanetza@@$$V@boost@@PEAX@std@@@std@@@std@@QEAAXAEAV?$_List_val@U?$_List_simple_types@V?$variant@USignature@v2@security@vanetza@@$$V@boost@@@std@@@1@@Z
	??$_Attach_at_end@U?$_List_simple_types@V?$variant@UVerificationKey@v2@security@vanetza@@UEncryptionKey@234@USubjectAssurance@234@V?$variant@UX_Coordinate_Only@security@vanetza@@UCompressed_Lsb_Y_0@23@UCompressed_Lsb_Y_1@23@UUncompressed@23@@boost@@V?$list@VIntX@v2@security@vanetza@@V?$allocator@VIntX@v2@security@vanetza@@@std@@@std@@V?$list@UItsAidSsp@v2@security@vanetza@@V?$allocator@UItsAidSsp@v2@security@vanetza@@@std@@@std@@@boost@@@std@@@?$_List_node_insert_op2@V?$allocator@U?$_List_node@V?$variant@UVerificationKey@v2@security@vanetza@@UEncryptionKey@234@USubjectAssurance@234@V?$variant@UX_Coordinate_Only@security@vanetza@@UCompressed_Lsb_Y_0@23@UCompressed_Lsb_Y_1@23@UUncompressed@23@@boost@@V?$list@VIntX@v2@security@vanetza@@V?$allocator@VIntX@v2@security@vanetza@@@std@@@std@@V?$list@UItsAidSsp@v2@security@vanetza@@V?$allocator@UItsAidSsp@v2@security@vanetza@@@std@@@std@@@boost@@PEAX@std@@@std@@@std@@QEAAXAEAV?$_List_val@U?$_List_simple_types@V?$variant@UVerificationKey@v2@security@vanetza@@UEncryptionKey@234@USubjectAssurance@234@V?$variant@UX_Coordinate_Only@security@vanetza@@UCompressed_Lsb_Y_0@23@UCompressed_Lsb_Y_1@23@UUncompressed@23@@boost@@V?$list@VIntX@v2@security@vanetza@@V?$allocator@VIntX@v2@security@vanetza@@@std@@@std@@V?$list@UItsAidSsp@v2@security@vanetza@@V?$allocator@UItsAidSsp@v2@security@vanetza@@@std@@@std@@@boost@@@std@@@1@@Z
	??$_Attach_at_end@U?$_List_simple_types@V?$variant@_KUTime64WithStandardDeviation@v2@security@vanetza@@IUThreeDLocation@234@V?$list@V?$array@E$02@std@@V?$allocator@V?$array@E$02@std@@@2@@std@@VIntX@234@V?$variant@$$TV?$array@E$07@std@@V?$recursive_wrapper@UCertificate@v2@security@vanetza@@@boost@@V?$list@UCertificate@v2@security@vanetza@@V?$allocator@UCertificate@v2@security@vanetza@@@std@@@2@UCertificateDigestWithOtherAlgorithm@v2@security@vanetza@@@boost@@V?$variant@V?$array@E$0M@@std@@$$V@boost@@V?$list@URecipientInfo@v2@security@vanetza@@V?$allocator@URecipientInfo@v2@security@vanetza@@@std@@@7@@boost@@@std@@@?$_List_node_insert_op2@V?$allocator@U?$_List_node@V?$variant@_KUTime64WithStandardDeviation@v2@security@vanetza@@IUThreeDLocation@234@V?$list@V?$array@E$02@std@@V?$allocator@V?$array@E$02@std@@@2@@std@@VIntX@234@V?$variant@$$TV?$array@E$07@std@@V?$recursive_wrapper@UCertificate@v2@security@vanetza@@@boost@@V?$list@UCertificate@v2@security@vanetza@@V?$allocator@UCertificate@v2@security@vanetza@@@std@@@2@UCertificateDigestWithOtherAlgorithm@v2@security@vanetza@@@boost@@V?$variant@V?$array@E$0M@@std@@$$V@boost@@V?$list@URecipientInfo@v2@security@vanetza@@V?$allocator@URecipientInfo@v2@security@vanetza@@@std@@@7@@boost@@PEAX@std@@@std@@@std@@QEAAXAEAV?$_List_val@U?$_List_simple_types@V?$variant@_KUTime64WithStandardDeviation@v2@security@vanetza@@IUThreeDLocation@234@V?$list@V?$array@E$02@std@@V?$allocator@V?$array@E$02@std@@@2@@std@@VIntX@234@V?$variant@$$TV?$array@E$07@std@@V?$recursive_wrapper@UCertificate@v2@security@vanetza@@@boost@@V?$list@UCertificate@v2@security@vanetza@@V?$allocator@UCertificate@v2@security@vanetza@@@std@@@2@UCertificateDigestWithOtherAlgorithm@v2@security@vanetza@@@boost@@V?$variant@V?$array@E$0M@@std@@$$V@boost@@V?$list@URecipientInfo@v2@security@vanetza@@V?$allocator@URecipientInfo@v2@security@vanetza@@@std@@@7@@boost@@@std@@@1@@Z
	??$_Attach_at_end@U?$_List_simple_types@VIntX@v2@security@vanetza@@@std@@@?$_List_node_insert_op2@V?$allocator@U?$_List_node@VIntX@v2@security@vanetza@@PEAX@std@@@std@@@std@@QEAAXAEAV?$_List_val@U?$_List_simple_types@VIntX@v2@security@vanetza@@@std@@@1@@Z
	??$_Attach_before@U?$_List_simple_types@UCertificate@v2@security@vanetza@@@std@@@?$_List_node_insert_op2@V?$allocator@U?$_List_node@UCertificate@v2@security@vanetza@@PEAX@std@@@std@@@std@@QEAAPEAU?$_List_node@UCertificate@v2@security@vanetza@@PEAX@1@AEAV?$_List_val@U?$_List_simple_types@UCertificate@v2@security@vanetza@@@std@@@1@QEAU21@@Z
	??$_Attach_before@U?$_List_simple_types@UItsAidSsp@v2@security@vanetza@@@std@@@?$_List_node_insert_op2@V?$allocator@U?$_List_node@UItsAidSsp@v2@security@vanetza@@PEAX@std@@@std@@@std@@QEAAPEAU?$_List_node@UItsAidSsp@v2@security@vanetza@@PEAX@1@AEAV?$_List_val@U?$_List_simple_types@UItsAidSsp@v2@security@vanetza@@@std@@@1@QEAU21@@Z
	??$_Attach_before@U?$_List_simple_types@URecipientInfo@v2@security@vanetza@@@std@@@?$_List_node_insert_op2@V?$allocator@U?$_List_node@URecipientInfo@v2@security@vanetza@@PEAX@std@@@std@@@std@@QEAAPEAU?$_List_node@URecipientInfo@v2@security@vanetza@@PEAX@1@AEAV?$_List_val@U?$_List_simple_types@URecipientInfo@v2@security@vanetza@@@std@@@1@QEAU21@@Z
	??$_Attach_before@U?$_List_simple_types@URectangularRegion@v2@security@vanetza@@@std@@@?$_List_node_insert_op2@V?$allocator@U?$_List_node@URectangularRegion@v2@security@vanetza@@PEAX@std@@@std@@@std@@QEAAPEAU?$_List_node@URectangularRegion@v2@security@vanetza@@PEAX@1@AEAV?$_List_val@U?$_List_simple_types@URectangularRegion@v2@security@vanetza@@@std@@@1@QEAU21@@Z
	??$_Attach_before@U?$_List_simple_types@UTwoDLocation@v2@security@vanetza@@@std@@@?$_List_node_insert_op2@V?$allocator@U?$_List_node@UTwoDLocation@v2@security@vanetza@@PEAX@std@@@std@@@std@@QEAAPEAU?$_List_node@UTwoDLocation@v2@security@vanetza@@PEAX@1@AEAV?$_List_val@U?$_List_simple_types@UTwoDLocation@v2@security@vanetza@@@std@@@1@QEAU21@@Z
	??$_Attach_before@U?$_List_simple_types@V?$array@E$02@std@@@std@@@?$_List_node_insert_op2@V?$allocator@U?$_List_node@V?$array@E$02@std@@PEAX@std@@@std@@@std@@QEAAPEAU?$_List_node@V?$array@E$02@std@@PEAX@1@AEAV?$_List_val@U?$_List_simple_types@V?$array@E$02@std@@@std@@@1@QEAU21@@Z
	??$_Attach_before@U?$_List_simple_types@V?$variant@IUStartAndEndValidity@v2@security@vanetza@@UStartAndDurationValidity@234@V?$variant@UNoneRegion@v2@security@vanetza@@UCircularRegion@234@V?$list@URectangularRegion@v2@security@vanetza@@V?$allocator@URectangularRegion@v2@security@vanetza@@@std@@@std@@V?$list@UTwoDLocation@v2@security@vanetza@@V?$allocator@UTwoDLocation@v2@security@vanetza@@@std@@@7@UIdentifiedRegion@234@@boost@@@boost@@@std@@@?$_List_node_insert_op2@V?$allocator@U?$_List_node@V?$variant@IUStartAndEndValidity@v2@security@vanetza@@UStartAndDurationValidity@234@V?$variant@UNoneRegion@v2@security@vanetza@@UCircularRegion@234@V?$list@URectangularRegion@v2@security@vanetza@@V?$allocator@URectangularRegion@v2@security@vanetza@@@std@@@std@@V?$list@UTwoDLocation@v2@security@vanetza@@V?$allocator@UTwoDLocation@v2@security@vanetza@@@std@@@7@UIdentifiedRegion@234@@boost@@@boost@@PEAX@std@@@std@@@std@@QEAAPEAU?$_List_node@V?$variant@IUStartAndEndValidity@v2@security@vanetza@@UStartAndDurationValidity@234@V?$variant@UNoneRegion@v2@security@vanetza@@UCircularRegion@234@V?$list@URectangularRegion@v2@security@vanetza@@V?$allocator@URectangularRegion@v2@security@vanetza@@@std@@@std@@V?$list@UTwoDLocation@v2@security@vanetza@@V?$allocator@UTwoDLocation@v2@security@vanetza@@@std@@@7@UIdentifiedRegion@234@@boost@@@boost@@PEAX@1@AEAV?$_List_val@U?$_List_simple_types@V?$variant@IUStartAndEndValidity@v2@security@vanetza@@UStartAndDurationValidity@234@V?$variant@UNoneRegion@v2@security@vanetza@@UCircularRegion@234@V?$list@URectangularRegion@v2@security@vanetza@@V?$allocator@URectangularRegion@v2@security@vanetza@@@std@@@std@@V?$list@UTwoDLocation@v2@security@vanetza@@V?$allocator@UTwoDLocation@v2@security@vanetza@@@std@@@7@UIdentifiedRegion@234@@boost@@@boost@@@std@@@1@QEAU21@@Z
	??$_Attach_before@U?$_List_simple_types@V?$variant@USignature@v2@security@vanetza@@$$V@boost@@@std@@@?$_List_node_insert_op2@V?$allocator@U?$_List_node@V?$variant@USignature@v2@security@vanetza@@$$V@boost@@PEAX@std@@@std@@@std@@QEAAPEAU?$_List_node@V?$variant@USignature@v2@security@vanetza@@$$V@boost@@PEAX@1@AEAV?$_List_val@U?$_List_simple_types@V?$variant@USignature@v2@security@vanetza@@$$V@boost@@@std@@@1@QEAU21@@Z
	??$_Attach_before@U?$_List_simple_types@V?$variant@UVerificationKey@v2@security@vanetza@@UEncryptionKey@234@USubjectAssurance@234@V?$variant@UX_Coordinate_Only@security@vanetza@@UCompressed_Lsb_Y_0@23@UCompressed_Lsb_Y_1@23@UUncompressed@23@@boost@@V?$list@VIntX@v2@security@vanetza@@V?$allocator@VIntX@v2@security@vanetza@@@std@@@std@@V?$list@UItsAidSsp@v2@security@vanetza@@V?$allocator@UItsAidSsp@v2@security@vanetza@@@std@@@std@@@boost@@@std@@@?$_List_node_insert_op2@V?$allocator@U?$_List_node@V?$variant@UVerificationKey@v2@security@vanetza@@UEncryptionKey@234@USubjectAssurance@234@V?$variant@UX_Coordinate_Only@security@vanetza@@UCompressed_Lsb_Y_0@23@UCompressed_Lsb_Y_1@23@UUncompressed@23@@boost@@V?$list@VIntX@v2@security@vanetza@@V?$allocator@VIntX@v2@security@vanetza@@@std@@@std@@V?$list@UItsAidSsp@v2@security@vanetza@@V?$allocator@UItsAidSsp@v2@security@vanetza@@@std@@@std@@@boost@@PEAX@std@@@std@@@std@@QEAAPEAU?$_List_node@V?$variant@UVerificationKey@v2@security@vanetza@@UEncryptionKey@234@USubjectAssurance@234@V?$variant@UX_Coordinate_Only@security@vanetza@@UCompressed_Lsb_Y_0@23@UCompressed_Lsb_Y_1@23@UUncompressed@23@@boost@@V?$list@VIntX@v2@security@vanetza@@V?$allocator@VIntX@v2@security@vanetza@@@std@@@std@@V?$list@UItsAidSsp@v2@security@vanetza@@V?$allocator@UItsAidSsp@v2@security@vanetza@@@std@@@std@@@boost@@PEAX@1@AEAV?$_List_val@U?$_List_simple_types@V?$variant@UVerificationKey@v2@security@vanetza@@UEncryptionKey@234@USubjectAssurance@234@V?$variant@UX_Coordinate_Only@security@vanetza@@UCompressed_Lsb_Y_0@23@UCompressed_Lsb_Y_1@23@UUncompressed@23@@boost@@V?$list@VIntX@v2@security@vanetza@@V?$allocator@VIntX@v2@security@vanetza@@@std@@@std@@V?$list@UItsAidSsp@v2@security@vanetza@@V?$allocator@UItsAidSsp@v2@security@vanetza@@@std@@@std@@@boost@@@std@@@1@QEAU21@@Z
	??$_Attach_before@U?$_List_simple_types@V?$variant@_KUTime64WithStandardDeviation@v2@security@vanetza@@IUThreeDLocation@234@V?$list@V?$array@E$02@std@@V?$allocator@V?$array@E$02@std@@@2@@std@@VIntX@234@V?$variant@$$TV?$array@E$07@std@@V?$recursive_wrapper@UCertificate@v2@security@vanetza@@@boost@@V?$list@UCertificate@v2@security@vanetza@@V?$allocator@UCertificate@v2@security@vanetza@@@std@@@2@UCertificateDigestWithOtherAlgorithm@v2@security@vanetza@@@boost@@V?$variant@V?$array@E$0M@@std@@$$V@boost@@V?$list@URecipientInfo@v2@security@vanetza@@V?$allocator@URecipientInfo@v2@security@vanetza@@@std@@@7@@boost@@@std@@@?$_List_node_insert_op2@V?$allocator@U?$_List_node@V?$variant@_KUTime64WithStandardDeviation@v2@security@vanetza@@IUThreeDLocation@234@V?$list@V?$array@E$02@std@@V?$allocator@V?$array@E$02@std@@@2@@std@@VIntX@234@V?$variant@$$TV?$array@E$07@std@@V?$recursive_wrapper@UCertificate@v2@security@vanetza@@@boost@@V?$list@UCertificate@v2@security@vanetza@@V?$allocator@UCertificate@v2@security@vanetza@@@std@@@2@UCertificateDigestWithOtherAlgorithm@v2@security@vanetza@@@boost@@V?$variant@V?$array@E$0M@@std@@$$V@boost@@V?$list@URecipientInfo@v2@security@vanetza@@V?$allocator@URecipientInfo@v2@security@vanetza@@@std@@@7@@boost@@PEAX@std@@@std@@@std@@QEAAPEAU?$_List_node@V?$variant@_KUTime64WithStandardDeviation@v2@security@vanetza@@IUThreeDLocation@234@V?$list@V?$array@E$02@std@@V?$allocator@V?$array@E$02@std@@@2@@std@@VIntX@234@V?$variant@$$TV?$array@E$07@std@@V?$recursive_wrapper@UCertificate@v2@security@vanetza@@@boost@@V?$list@UCertificate@v2@security@vanetza@@V?$allocator@UCertificate@v2@security@vanetza@@@std@@@2@UCertificateDigestWithOtherAlgorithm@v2@security@vanetza@@@boost@@V?$variant@V?$array@E$0M@@std@@$$V@boost@@V?$list@URecipientInfo@v2@security@vanetza@@V?$allocator@URecipientInfo@v2@security@vanetza@@@std@@@7@@boost@@PEAX@1@AEAV?$_List_val@U?$_List_simple_types@V?$variant@_KUTime64WithStandardDeviation@v2@security@vanetza@@IUThreeDLocation@234@V?$list@V?$array@E$02@std@@V?$allocator@V?$array@E$02@std@@@2@@std@@VIntX@234@V?$variant@$$TV?$array@E$07@std@@V?$recursive_wrapper@UCertificate@v2@security@vanetza@@@boost@@V?$list@UCertificate@v2@security@vanetza@@V?$allocator@UCertificate@v2@security@vanetza@@@std@@@2@UCertificateDigestWithOtherAlgorithm@v2@security@vanetza@@@boost@@V?$variant@V?$array@E$0M@@std@@$$V@boost@@V?$list@URecipientInfo@v2@security@vanetza@@V?$allocator@URecipientInfo@v2@security@vanetza@@@std@@@7@@boost@@@std@@@1@QEAU21@@Z
	??$_Attach_before@U?$_List_simple_types@VIntX@v2@security@vanetza@@@std@@@?$_List_node_insert_op2@V?$allocator@U?$_List_node@VIntX@v2@security@vanetza@@PEAX@std@@@std@@@std@@QEAAPEAU?$_List_node@VIntX@v2@security@vanetza@@PEAX@1@AEAV?$_List_val@U?$_List_simple_types@VIntX@v2@security@vanetza@@@std@@@1@QEAU21@@Z
	??$_Attach_head@U?$_List_simple_types@UCertificate@v2@security@vanetza@@@std@@@?$_List_node_insert_op2@V?$allocator@U?$_List_node@UCertificate@v2@security@vanetza@@PEAX@std@@@std@@@std@@QEAAXAEAV?$_List_val@U?$_List_simple_types@UCertificate@v2@security@vanetza@@@std@@@1@@Z
	??$_Attach_head@U?$_List_simple_types@UItsAidSsp@v2@security@vanetza@@@std@@@?$_List_node_insert_op2@V?$allocator@U?$_List_node@UItsAidSsp@v2@security@vanetza@@PEAX@std@@@std@@@std@@QEAAXAEAV?$_List_val@U?$_List_simple_types@UItsAidSsp@v2@security@vanetza@@@std@@@1@@Z
	??$_Attach_head@U?$_List_simple_types@URecipientInfo@v2@security@vanetza@@@std@@@?$_List_node_insert_op2@V?$allocator@U?$_List_node@URecipientInfo@v2@security@vanetza@@PEAX@std@@@std@@@std@@QEAAXAEAV?$_List_val@U?$_List_simple_types@URecipientInfo@v2@security@vanetza@@@std@@@1@@Z
	??$_Attach_head@U?$_List_simple_types@URectangularRegion@v2@security@vanetza@@@std@@@?$_List_node_insert_op2@V?$allocator@U?$_List_node@URectangularRegion@v2@security@vanetza@@PEAX@std@@@std@@@std@@QEAAXAEAV?$_List_val@U?$_List_simple_types@URectangularRegion@v2@security@vanetza@@@std@@@1@@Z
	??$_Attach_head@U?$_List_simple_types@UTwoDLocation@v2@security@vanetza@@@std@@@?$_List_node_insert_op2@V?$allocator@U?$_List_node@UTwoDLocation@v2@security@vanetza@@PEAX@std@@@std@@@std@@QEAAXAEAV?$_List_val@U?$_List_simple_types@UTwoDLocation@v2@security@vanetza@@@std@@@1@@Z
	??$_Attach_head@U?$_List_simple_types@V?$array@E$02@std@@@std@@@?$_List_node_insert_op2@V?$allocator@U?$_List_node@V?$array@E$02@std@@PEAX@std@@@std@@@std@@QEAAXAEAV?$_List_val@U?$_List_simple_types@V?$array@E$02@std@@@std@@@1@@Z
	??$_Attach_head@U?$_List_simple_types@V?$variant@IUStartAndEndValidity@v2@security@vanetza@@UStartAndDurationValidity@234@V?$variant@UNoneRegion@v2@security@vanetza@@UCircularRegion@234@V?$list@URectangularRegion@v2@security@vanetza@@V?$allocator@URectangularRegion@v2@security@vanetza@@@std@@@std@@V?$list@UTwoDLocation@v2@security@vanetza@@V?$allocator@UTwoDLocation@v2@security@vanetza@@@std@@@7@UIdentifiedRegion@234@@boost@@@boost@@@std@@@?$_List_node_insert_op2@V?$allocator@U?$_List_node@V?$variant@IUStartAndEndValidity@v2@security@vanetza@@UStartAndDurationValidity@234@V?$variant@UNoneRegion@v2@security@vanetza@@UCircularRegion@234@V?$list@URectangularRegion@v2@security@vanetza@@V?$allocator@URectangularRegion@v2@security@vanetza@@@std@@@std@@V?$list@UTwoDLocation@v2@security@vanetza@@V?$allocator@UTwoDLocation@v2@security@vanetza@@@std@@@7@UIdentifiedRegion@234@@boost@@@boost@@PEAX@std@@@std@@@std@@QEAAXAEAV?$_List_val@U?$_List_simple_types@V?$variant@IUStartAndEndValidity@v2@security@vanetza@@UStartAndDurationValidity@234@V?$variant@UNoneRegion@v2@security@vanetza@@UCircularRegion@234@V?$list@URectangularRegion@v2@security@vanetza@@V?$allocator@URectangularRegion@v2@security@vanetza@@@std@@@std@@V?$list@UTwoDLocation@v2@security@vanetza@@V?$allocator@UTwoDLocation@v2@security@vanetza@@@std@@@7@UIdentifiedRegion@234@@boost@@@boost@@@std@@@1@@Z
	??$_Attach_head@U?$_List_simple_types@V?$variant@USignature@v2@security@vanetza@@$$V@boost@@@std@@@?$_List_node_insert_op2@V?$allocator@U?$_List_node@V?$variant@USignature@v2@security@vanetza@@$$V@boost@@PEAX@std@@@std@@@std@@QEAAXAEAV?$_List_val@U?$_List_simple_types@V?$variant@USignature@v2@security@vanetza@@$$V@boost@@@std@@@1@@Z
	??$_Attach_head@U?$_List_simple_types@V?$variant@UVerificationKey@v2@security@vanetza@@UEncryptionKey@234@USubjectAssurance@234@V?$variant@UX_Coordinate_Only@security@vanetza@@UCompressed_Lsb_Y_0@23@UCompressed_Lsb_Y_1@23@UUncompressed@23@@boost@@V?$list@VIntX@v2@security@vanetza@@V?$allocator@VIntX@v2@security@vanetza@@@std@@@std@@V?$list@UItsAidSsp@v2@security@vanetza@@V?$allocator@UItsAidSsp@v2@security@vanetza@@@std@@@std@@@boost@@@std@@@?$_List_node_insert_op2@V?$allocator@U?$_List_node@V?$variant@UVerificationKey@v2@security@vanetza@@UEncryptionKey@234@USubjectAssurance@234@V?$variant@UX_Coordinate_Only@security@vanetza@@UCompressed_Lsb_Y_0@23@UCompressed_Lsb_Y_1@23@UUncompressed@23@@boost@@V?$list@VIntX@v2@security@vanetza@@V?$allocator@VIntX@v2@security@vanetza@@@std@@@std@@V?$list@UItsAidSsp@v2@security@vanetza@@V?$allocator@UItsAidSsp@v2@security@vanetza@@@std@@@std@@@boost@@PEAX@std@@@std@@@std@@QEAAXAEAV?$_List_val@U?$_List_simple_types@V?$variant@UVerificationKey@v2@security@vanetza@@UEncryptionKey@234@USubjectAssurance@234@V?$variant@UX_Coordinate_Only@security@vanetza@@UCompressed_Lsb_Y_0@23@UCompressed_Lsb_Y_1@23@UUncompressed@23@@boost@@V?$list@VIntX@v2@security@vanetza@@V?$allocator@VIntX@v2@security@vanetza@@@std@@@std@@V?$list@UItsAidSsp@v2@security@vanetza@@V?$allocator@UItsAidSsp@v2@security@vanetza@@@std@@@std@@@boost@@@std@@@1@@Z
	??$_Attach_head@U?$_List_simple_types@V?$variant@_KUTime64WithStandardDeviation@v2@security@vanetza@@IUThreeDLocation@234@V?$list@V?$array@E$02@std@@V?$allocator@V?$array@E$02@std@@@2@@std@@VIntX@234@V?$variant@$$TV?$array@E$07@std@@V?$recursive_wrapper@UCertificate@v2@security@vanetza@@@boost@@V?$list@UCertificate@v2@security@vanetza@@V?$allocator@UCertificate@v2@security@vanetza@@@std@@@2@UCertificateDigestWithOtherAlgorithm@v2@security@vanetza@@@boost@@V?$variant@V?$array@E$0M@@std@@$$V@boost@@V?$list@URecipientInfo@v2@security@vanetza@@V?$allocator@URecipientInfo@v2@security@vanetza@@@std@@@7@@boost@@@std@@@?$_List_node_insert_op2@V?$allocator@U?$_List_node@V?$variant@_KUTime64WithStandardDeviation@v2@security@vanetza@@IUThreeDLocation@234@V?$list@V?$array@E$02@std@@V?$allocator@V?$array@E$02@std@@@2@@std@@VIntX@234@V?$variant@$$TV?$array@E$07@std@@V?$recursive_wrapper@UCertificate@v2@security@vanetza@@@boost@@V?$list@UCertificate@v2@security@vanetza@@V?$allocator@UCertificate@v2@security@vanetza@@@std@@@2@UCertificateDigestWithOtherAlgorithm@v2@security@vanetza@@@boost@@V?$variant@V?$array@E$0M@@std@@$$V@boost@@V?$list@URecipientInfo@v2@security@vanetza@@V?$allocator@URecipientInfo@v2@security@vanetza@@@std@@@7@@boost@@PEAX@std@@@std@@@std@@QEAAXAEAV?$_List_val@U?$_List_simple_types@V?$variant@_KUTime64WithStandardDeviation@v2@security@vanetza@@IUThreeDLocation@234@V?$list@V?$array@E$02@std@@V?$allocator@V?$array@E$02@std@@@2@@std@@VIntX@234@V?$variant@$$TV?$array@E$07@std@@V?$recursive_wrapper@UCertificate@v2@security@vanetza@@@boost@@V?$list@UCertificate@v2@security@vanetza@@V?$allocator@UCertificate@v2@security@vanetza@@@std@@@2@UCertificateDigestWithOtherAlgorithm@v2@security@vanetza@@@boost@@V?$variant@V?$array@E$0M@@std@@$$V@boost@@V?$list@URecipientInfo@v2@security@vanetza@@V?$allocator@URecipientInfo@v2@security@vanetza@@@std@@@7@@boost@@@std@@@1@@Z
	??$_Attach_head@U?$_List_simple_types@VIntX@v2@security@vanetza@@@std@@@?$_List_node_insert_op2@V?$allocator@U?$_List_node@VIntX@v2@security@vanetza@@PEAX@std@@@std@@@std@@QEAAXAEAV?$_List_val@U?$_List_simple_types@VIntX@v2@security@vanetza@@@std@@@1@@Z
	??$_Buyheadnode@V?$allocator@U?$_Tree_node@U?$pair@$$CBVtype_index@std@@Uobject_handle@ObjectContainer@vanetza@@@std@@PEAX@std@@@std@@@?$_Tree_node@U?$pair@$$CBVtype_index@std@@Uobject_handle@ObjectContainer@vanetza@@@std@@PEAX@std@@SAPEAU01@AEAV?$allocator@U?$_Tree_node@U?$pair@$$CBVtype_index@std@@Uobject_handle@ObjectContainer@vanetza@@@std@@PEAX@std@@@1@@Z
	??$_Buyheadnode@V?$allocator@U?$_Tree_node@U?$pair@$$CBW4OsiLayer@vanetza@@VByteBufferConvertible@2@@std@@PEAX@std@@@std@@@?$_Tree_node@U?$pair@$$CBW4OsiLayer@vanetza@@VByteBufferConvertible@2@@std@@PEAX@std@@SAPEAU01@AEAV?$allocator@U?$_Tree_node@U?$pair@$$CBW4OsiLayer@vanetza@@VByteBufferConvertible@2@@std@@PEAX@std@@@1@@Z
	??$_Buyheadnode@V?$allocator@U?$_Tree_node@U?$pair@$$CBW4UpperProtocol@geonet@vanetza@@PEAVTransportInterface@23@@std@@PEAX@std@@@std@@@?$_Tree_node@U?$pair@$$CBW4UpperProtocol@geonet@vanetza@@PEAVTransportInterface@23@@std@@PEAX@std@@SAPEAU01@AEAV?$allocator@U?$_Tree_node@U?$pair@$$CBW4UpperProtocol@geonet@vanetza@@PEAVTransportInterface@23@@std@@PEAX@std@@@1@@Z
	??$_Call@AEAP8Repeater@geonet@vanetza@@EAAXV?$_List_iterator@V?$_List_val@U?$_List_simple_types@URepetition@Repeater@geonet@vanetza@@@std@@@std@@@std@@V?$time_point@VClock@vanetza@@V?$duration@_JU?$ratio@$00$0PECEA@@std@@@chrono@std@@@chrono@5@@ZAEAPEAV123@AEAV45@V675@@?$_Invoker_ret@X@std@@SAXAEAP8Repeater@geonet@vanetza@@EAAXV?$_List_iterator@V?$_List_val@U?$_List_simple_types@URepetition@Repeater@geonet@vanetza@@@std@@@std@@@1@V?$time_point@VClock@vanetza@@V?$duration@_JU?$ratio@$00$0PECEA@@std@@@chrono@std@@@chrono@1@@ZAEAPEAV234@AEAV51@$$QEAV671@@Z
	??$_Call@AEAP8Router@geonet@vanetza@@EAAXAEBV?$variant@UGucDataRequest@geonet@vanetza@@UGbcDataRequest@23@UGacDataRequest@23@UShbDataRequest@23@UTsbDataRequest@23@@boost@@V?$unique_ptr@VChunkPacket@vanetza@@U?$default_delete@VChunkPacket@vanetza@@@std@@@std@@@ZAEAPEAV123@AEBV45@V67@@?$_Invoker_ret@U_Unforced@std@@@std@@SAXAEAP8Router@geonet@vanetza@@EAAXAEBV?$variant@UGucDataRequest@geonet@vanetza@@UGbcDataRequest@23@UGacDataRequest@23@UShbDataRequest@23@UTsbDataRequest@23@@boost@@V?$unique_ptr@VChunkPacket@vanetza@@U?$default_delete@VChunkPacket@vanetza@@@std@@@1@@ZAEAPEAV234@0$$QEAV71@@Z
	??$_Call@AEAV<lambda_5e0a116e2d6524a72cb9a27344976bf6>@@V?$tuple@V?$unique_ptr@V?$ExtendedPdu@UGeoBroadcastHeader@geonet@vanetza@@@geonet@vanetza@@U?$default_delete@V?$ExtendedPdu@UGeoBroadcastHeader@geonet@vanetza@@@geonet@vanetza@@@std@@@std@@V?$unique_ptr@VChunkPacket@vanetza@@U?$default_delete@VChunkPacket@vanetza@@@std@@@2@@std@@@?$_Invoker_ret@X@std@@SAXAEAV<lambda_5e0a116e2d6524a72cb9a27344976bf6>@@$$QEAV?$tuple@V?$unique_ptr@V?$ExtendedPdu@UGeoBroadcastHeader@geonet@vanetza@@@geonet@vanetza@@U?$default_delete@V?$ExtendedPdu@UGeoBroadcastHeader@geonet@vanetza@@@geonet@vanetza@@@std@@@std@@V?$unique_ptr@VChunkPacket@vanetza@@U?$default_delete@VChunkPacket@vanetza@@@std@@@2@@1@@Z
	??$_Call@AEAV<lambda_6e14cc19a7b7a66feb8d443e6224547e>@@PEAX@?$_Invoker_ret@X@std@@SAXAEAV<lambda_6e14cc19a7b7a66feb8d443e6224547e>@@$$QEAPEAX@Z
	??$_Call@AEAV<lambda_94eaf4af09dce1d91512f71f7e68e4f7>@@AEAU?$pair@$$CBVMacAddress@vanetza@@UValueWithHandle@?$SoftStateMap@VMacAddress@vanetza@@VLocationTableEntry@geonet@2@VLocationTableEntryCreator@42@@geonet@2@@std@@@?$_Invoker_ret@U?$pair@AEBVMacAddress@vanetza@@AEAVLocationTableEntry@geonet@2@@std@@@std@@SA?AU?$pair@AEBVMacAddress@vanetza@@AEAVLocationTableEntry@geonet@2@@1@AEAV<lambda_94eaf4af09dce1d91512f71f7e68e4f7>@@AEAU?$pair@$$CBVMacAddress@vanetza@@UValueWithHandle@?$SoftStateMap@VMacAddress@vanetza@@VLocationTableEntry@geonet@2@VLocationTableEntryCreator@42@@geonet@2@@1@@Z
	??$_Call@AEAV<lambda_998660ec7709c5781b48f2460704a28d>@@AEBU?$pair@$$CBVMacAddress@vanetza@@UValueWithHandle@?$SoftStateMap@VMacAddress@vanetza@@VLocationTableEntry@geonet@2@VLocationTableEntryCreator@42@@geonet@2@@std@@@?$_Invoker_ret@_N@std@@SA_NAEAV<lambda_998660ec7709c5781b48f2460704a28d>@@AEBU?$pair@$$CBVMacAddress@vanetza@@UValueWithHandle@?$SoftStateMap@VMacAddress@vanetza@@VLocationTableEntry@geonet@2@VLocationTableEntryCreator@42@@geonet@2@@1@@Z
	??$_Call@AEAV<lambda_ace2e5351e8d6488b54e5d993b6d0f7c>@@PEAX@?$_Invoker_ret@X@std@@SAXAEAV<lambda_ace2e5351e8d6488b54e5d993b6d0f7c>@@$$QEAPEAX@Z
	??$_Call@AEAV<lambda_cdd8ce8507032cbf359a6017b9b5d9c9>@@V?$tuple@V?$unique_ptr@V?$ExtendedPdu@UGeoBroadcastHeader@geonet@vanetza@@@geonet@vanetza@@U?$default_delete@V?$ExtendedPdu@UGeoBroadcastHeader@geonet@vanetza@@@geonet@vanetza@@@std@@@std@@V?$unique_ptr@VChunkPacket@vanetza@@U?$default_delete@VChunkPacket@vanetza@@@std@@@2@@std@@@?$_Invoker_ret@X@std@@SAXAEAV<lambda_cdd8ce8507032cbf359a6017b9b5d9c9>@@$$QEAV?$tuple@V?$unique_ptr@V?$ExtendedPdu@UGeoBroadcastHeader@geonet@vanetza@@@geonet@vanetza@@U?$default_delete@V?$ExtendedPdu@UGeoBroadcastHeader@geonet@vanetza@@@geonet@vanetza@@@std@@@std@@V?$unique_ptr@VChunkPacket@vanetza@@U?$default_delete@VChunkPacket@vanetza@@@std@@@2@@1@@Z
	??$_Call@AEAV<lambda_e9a74d497f7f428606c5ca5ca6eca7a6>@@V?$tuple@V?$unique_ptr@V?$ExtendedPdu@UGeoBroadcastHeader@geonet@vanetza@@@geonet@vanetza@@U?$default_delete@V?$ExtendedPdu@UGeoBroadcastHeader@geonet@vanetza@@@geonet@vanetza@@@std@@@std@@V?$unique_ptr@VChunkPacket@vanetza@@U?$default_delete@VChunkPacket@vanetza@@@std@@@2@@std@@@?$_Invoker_ret@X@std@@SAXAEAV<lambda_e9a74d497f7f428606c5ca5ca6eca7a6>@@$$QEAV?$tuple@V?$unique_ptr@V?$ExtendedPdu@UGeoBroadcastHeader@geonet@vanetza@@@geonet@vanetza@@U?$default_delete@V?$ExtendedPdu@UGeoBroadcastHeader@geonet@vanetza@@@geonet@vanetza@@@std@@@std@@V?$unique_ptr@VChunkPacket@vanetza@@U?$default_delete@VChunkPacket@vanetza@@@std@@@2@@1@@Z
	??$_Call@AEAV?$_Binder@U_Unforced@std@@AEAV?$function@$$A6AX$$QEAV?$tuple@V?$unique_ptr@V?$ExtendedPdu@UGeoBroadcastHeader@geonet@vanetza@@@geonet@vanetza@@U?$default_delete@V?$ExtendedPdu@UGeoBroadcastHeader@geonet@vanetza@@@geonet@vanetza@@@std@@@std@@V?$unique_ptr@VChunkPacket@vanetza@@U?$default_delete@VChunkPacket@vanetza@@@std@@@2@@std@@AEBVMacAddress@vanetza@@@Z@2@AEBU?$_Ph@$00@2@AEAVMacAddress@vanetza@@@std@@V?$tuple@V?$unique_ptr@V?$ExtendedPdu@UGeoBroadcastHeader@geonet@vanetza@@@geonet@vanetza@@U?$default_delete@V?$ExtendedPdu@UGeoBroadcastHeader@geonet@vanetza@@@geonet@vanetza@@@std@@@std@@V?$unique_ptr@VChunkPacket@vanetza@@U?$default_delete@VChunkPacket@vanetza@@@std@@@2@@2@@?$_Invoker_ret@X@std@@SAXAEAV?$_Binder@U_Unforced@std@@AEAV?$function@$$A6AX$$QEAV?$tuple@V?$unique_ptr@V?$ExtendedPdu@UGeoBroadcastHeader@geonet@vanetza@@@geonet@vanetza@@U?$default_delete@V?$ExtendedPdu@UGeoBroadcastHeader@geonet@vanetza@@@geonet@vanetza@@@std@@@std@@V?$unique_ptr@VChunkPacket@vanetza@@U?$default_delete@VChunkPacket@vanetza@@@std@@@2@@std@@AEBVMacAddress@vanetza@@@Z@2@AEBU?$_Ph@$00@2@AEAVMacAddress@vanetza@@@1@$$QEAV?$tuple@V?$unique_ptr@V?$ExtendedPdu@UGeoBroadcastHeader@geonet@vanetza@@@geonet@vanetza@@U?$default_delete@V?$ExtendedPdu@UGeoBroadcastHeader@geonet@vanetza@@@geonet@vanetza@@@std@@@std@@V?$unique_ptr@VChunkPacket@vanetza@@U?$default_delete@VChunkPacket@vanetza@@@std@@@2@@1@@Z
	??$_Call@AEAV?$_Binder@U_Unforced@std@@AEAV?$function@$$A6AX$$QEAV?$tuple@V?$unique_ptr@V?$ExtendedPdu@UGeoBroadcastHeader@geonet@vanetza@@@geonet@vanetza@@U?$default_delete@V?$ExtendedPdu@UGeoBroadcastHeader@geonet@vanetza@@@geonet@vanetza@@@std@@@std@@V?$unique_ptr@VChunkPacket@vanetza@@U?$default_delete@VChunkPacket@vanetza@@@std@@@2@@std@@AEBVMacAddress@vanetza@@@Z@2@AEBU?$_Ph@$00@2@AEBVMacAddress@vanetza@@@std@@V?$tuple@V?$unique_ptr@V?$ExtendedPdu@UGeoBroadcastHeader@geonet@vanetza@@@geonet@vanetza@@U?$default_delete@V?$ExtendedPdu@UGeoBroadcastHeader@geonet@vanetza@@@geonet@vanetza@@@std@@@std@@V?$unique_ptr@VChunkPacket@vanetza@@U?$default_delete@VChunkPacket@vanetza@@@std@@@2@@2@@?$_Invoker_ret@X@std@@SAXAEAV?$_Binder@U_Unforced@std@@AEAV?$function@$$A6AX$$QEAV?$tuple@V?$unique_ptr@V?$ExtendedPdu@UGeoBroadcastHeader@geonet@vanetza@@@geonet@vanetza@@U?$default_delete@V?$ExtendedPdu@UGeoBroadcastHeader@geonet@vanetza@@@geonet@vanetza@@@std@@@std@@V?$unique_ptr@VChunkPacket@vanetza@@U?$default_delete@VChunkPacket@vanetza@@@std@@@2@@std@@AEBVMacAddress@vanetza@@@Z@2@AEBU?$_Ph@$00@2@AEBVMacAddress@vanetza@@@1@$$QEAV?$tuple@V?$unique_ptr@V?$ExtendedPdu@UGeoBroadcastHeader@geonet@vanetza@@@geonet@vanetza@@U?$default_delete@V?$ExtendedPdu@UGeoBroadcastHeader@geonet@vanetza@@@geonet@vanetza@@@std@@@std@@V?$unique_ptr@VChunkPacket@vanetza@@U?$default_delete@VChunkPacket@vanetza@@@std@@@2@@1@@Z
	??$_Call@AEAV?$_Binder@U_Unforced@std@@P8Router@geonet@vanetza@@EAAXAEBV?$variant@UGucDataRequest@geonet@vanetza@@UGbcDataRequest@23@UGacDataRequest@23@UShbDataRequest@23@UTsbDataRequest@23@@boost@@V?$unique_ptr@VChunkPacket@vanetza@@U?$default_delete@VChunkPacket@vanetza@@@std@@@2@@ZPEAV345@AEBU?$_Ph@$00@2@AEBU?$_Ph@$01@2@@std@@AEBV?$variant@UGucDataRequest@geonet@vanetza@@UGbcDataRequest@23@UGacDataRequest@23@UShbDataRequest@23@UTsbDataRequest@23@@boost@@V?$unique_ptr@VChunkPacket@vanetza@@U?$default_delete@VChunkPacket@vanetza@@@std@@@2@@?$_Invoker_ret@X@std@@SAXAEAV?$_Binder@U_Unforced@std@@P8Router@geonet@vanetza@@EAAXAEBV?$variant@UGucDataRequest@geonet@vanetza@@UGbcDataRequest@23@UGacDataRequest@23@UShbDataRequest@23@UTsbDataRequest@23@@boost@@V?$unique_ptr@VChunkPacket@vanetza@@U?$default_delete@VChunkPacket@vanetza@@@std@@@2@@ZPEAV345@AEBU?$_Ph@$00@2@AEBU?$_Ph@$01@2@@1@AEBV?$variant@UGucDataRequest@geonet@vanetza@@UGbcDataRequest@23@UGacDataRequest@23@UShbDataRequest@23@UTsbDataRequest@23@@boost@@$$QEAV?$unique_ptr@VChunkPacket@vanetza@@U?$default_delete@VChunkPacket@vanetza@@@std@@@1@@Z
	??$_Call@AEAV?$_Binder@XP8Repeater@geonet@vanetza@@EAAXV?$_List_iterator@V?$_List_val@U?$_List_simple_types@URepetition@Repeater@geonet@vanetza@@@std@@@std@@@std@@V?$time_point@VClock@vanetza@@V?$duration@_JU?$ratio@$00$0PECEA@@std@@@chrono@std@@@chrono@5@@ZPEAV123@AEAV45@AEAU?$_Ph@$00@5@@std@@V?$time_point@VClock@vanetza@@V?$duration@_JU?$ratio@$00$0PECEA@@std@@@chrono@std@@@chrono@2@@?$_Invoker_ret@X@std@@SAXAEAV?$_Binder@XP8Repeater@geonet@vanetza@@EAAXV?$_List_iterator@V?$_List_val@U?$_List_simple_types@URepetition@Repeater@geonet@vanetza@@@std@@@std@@@std@@V?$time_point@VClock@vanetza@@V?$duration@_JU?$ratio@$00$0PECEA@@std@@@chrono@std@@@chrono@5@@ZPEAV123@AEAV45@AEAU?$_Ph@$00@5@@1@$$QEAV?$time_point@VClock@vanetza@@V?$duration@_JU?$ratio@$00$0PECEA@@std@@@chrono@std@@@chrono@1@@Z
	??$_Call@AEAV?$function@$$A6AX$$QEAV?$tuple@V?$unique_ptr@V?$ExtendedPdu@UGeoBroadcastHeader@geonet@vanetza@@@geonet@vanetza@@U?$default_delete@V?$ExtendedPdu@UGeoBroadcastHeader@geonet@vanetza@@@geonet@vanetza@@@std@@@std@@V?$unique_ptr@VChunkPacket@vanetza@@U?$default_delete@VChunkPacket@vanetza@@@std@@@2@@std@@AEBVMacAddress@vanetza@@@Z@std@@V?$tuple@V?$unique_ptr@V?$ExtendedPdu@UGeoBroadcastHeader@geonet@vanetza@@@geonet@vanetza@@U?$default_delete@V?$ExtendedPdu@UGeoBroadcastHeader@geonet@vanetza@@@geonet@vanetza@@@std@@@std@@V?$unique_ptr@VChunkPacket@vanetza@@U?$default_delete@VChunkPacket@vanetza@@@std@@@2@@2@AEAVMacAddress@vanetza@@@?$_Invoker_ret@U_Unforced@std@@@std@@SAXAEAV?$function@$$A6AX$$QEAV?$tuple@V?$unique_ptr@V?$ExtendedPdu@UGeoBroadcastHeader@geonet@vanetza@@@geonet@vanetza@@U?$default_delete@V?$ExtendedPdu@UGeoBroadcastHeader@geonet@vanetza@@@geonet@vanetza@@@std@@@std@@V?$unique_ptr@VChunkPacket@vanetza@@U?$default_delete@VChunkPacket@vanetza@@@std@@@2@@std@@AEBVMacAddress@vanetza@@@Z@1@$$QEAV?$tuple@V?$unique_ptr@V?$ExtendedPdu@UGeoBroadcastHeader@geonet@vanetza@@@geonet@vanetza@@U?$default_delete@V?$ExtendedPdu@UGeoBroadcastHeader@geonet@vanetza@@@geonet@vanetza@@@std@@@std@@V?$unique_ptr@VChunkPacket@vanetza@@U?$default_delete@VChunkPacket@vanetza@@@std@@@2@@1@AEAVMacAddress@vanetza@@@Z
	??$_Call_binder@U_Unforced@std@@$0A@$00$01P8Router@geonet@vanetza@@EAAXAEBV?$variant@UGucDataRequest@geonet@vanetza@@UGbcDataRequest@23@UGacDataRequest@23@UShbDataRequest@23@UTsbDataRequest@23@@boost@@V?$unique_ptr@VChunkPacket@vanetza@@U?$default_delete@VChunkPacket@vanetza@@@std@@@2@@ZV?$tuple@PEAVRouter@geonet@vanetza@@U?$_Ph@$00@std@@U?$_Ph@$01@5@@2@V?$tuple@AEBV?$variant@UGucDataRequest@geonet@vanetza@@UGbcDataRequest@23@UGacDataRequest@23@UShbDataRequest@23@UTsbDataRequest@23@@boost@@$$QEAV?$unique_ptr@VChunkPacket@vanetza@@U?$default_delete@VChunkPacket@vanetza@@@std@@@std@@@2@@std@@YAXU?$_Invoker_ret@U_Unforced@std@@@0@U?$integer_sequence@_K$0A@$00$01@0@AEAP8Router@geonet@vanetza@@EAAXAEBV?$variant@UGucDataRequest@geonet@vanetza@@UGbcDataRequest@23@UGacDataRequest@23@UShbDataRequest@23@UTsbDataRequest@23@@boost@@V?$unique_ptr@VChunkPacket@vanetza@@U?$default_delete@VChunkPacket@vanetza@@@std@@@0@@ZAEAV?$tuple@PEAVRouter@geonet@vanetza@@U?$_Ph@$00@std@@U?$_Ph@$01@5@@0@$$QEAV?$tuple@AEBV?$variant@UGucDataRequest@geonet@vanetza@@UGbcDataRequest@23@UGacDataRequest@23@UShbDataRequest@23@UTsbDataRequest@23@@boost@@$$QEAV?$unique_ptr@VChunkPacket@vanetza@@U?$default_delete@VChunkPacket@vanetza@@@std@@@std@@@0@@Z
	??$_Call_binder@U_Unforced@std@@$0A@$00V?$function@$$A6AX$$QEAV?$tuple@V?$unique_ptr@V?$ExtendedPdu@UGeoBroadcastHeader@geonet@vanetza@@@geonet@vanetza@@U?$default_delete@V?$ExtendedPdu@UGeoBroadcastHeader@geonet@vanetza@@@geonet@vanetza@@@std@@@std@@V?$unique_ptr@VChunkPacket@vanetza@@U?$default_delete@VChunkPacket@vanetza@@@std@@@2@@std@@AEBVMacAddress@vanetza@@@Z@2@V?$tuple@U?$_Ph@$00@std@@VMacAddress@vanetza@@@2@V?$tuple@$$QEAV?$tuple@V?$unique_ptr@V?$ExtendedPdu@UGeoBroadcastHeader@geonet@vanetza@@@geonet@vanetza@@U?$default_delete@V?$ExtendedPdu@UGeoBroadcastHeader@geonet@vanetza@@@geonet@vanetza@@@std@@@std@@V?$unique_ptr@VChunkPacket@vanetza@@U?$default_delete@VChunkPacket@vanetza@@@std@@@2@@std@@@2@@std@@YAXU?$_Invoker_ret@U_Unforced@std@@@0@U?$integer_sequence@_K$0A@$00@0@AEAV?$function@$$A6AX$$QEAV?$tuple@V?$unique_ptr@V?$ExtendedPdu@UGeoBroadcastHeader@geonet@vanetza@@@geonet@vanetza@@U?$default_delete@V?$ExtendedPdu@UGeoBroadcastHeader@geonet@vanetza@@@geonet@vanetza@@@std@@@std@@V?$unique_ptr@VChunkPacket@vanetza@@U?$default_delete@VChunkPacket@vanetza@@@std@@@2@@std@@AEBVMacAddress@vanetza@@@Z@0@AEAV?$tuple@U?$_Ph@$00@std@@VMacAddress@vanetza@@@0@$$QEAV?$tuple@$$QEAV?$tuple@V?$unique_ptr@V?$ExtendedPdu@UGeoBroadcastHeader@geonet@vanetza@@@geonet@vanetza@@U?$default_delete@V?$ExtendedPdu@UGeoBroadcastHeader@geonet@vanetza@@@geonet@vanetza@@@std@@@std@@V?$unique_ptr@VChunkPacket@vanetza@@U?$default_delete@VChunkPacket@vanetza@@@std@@@2@@std@@@0@@Z
	??$_Call_binder@X$0A@$00$01P8Repeater@geonet@vanetza@@EAAXV?$_List_iterator@V?$_List_val@U?$_List_simple_types@URepetition@Repeater@geonet@vanetza@@@std@@@std@@@std@@V?$time_point@VClock@vanetza@@V?$duration@_JU?$ratio@$00$0PECEA@@std@@@chrono@std@@@chrono@5@@ZV?$tuple@PEAVRepeater@geonet@vanetza@@V?$_List_iterator@V?$_List_val@U?$_List_simple_types@URepetition@Repeater@geonet@vanetza@@@std@@@std@@@std@@U?$_Ph@$00@5@@5@V?$tuple@$$QEAV?$time_point@VClock@vanetza@@V?$duration@_JU?$ratio@$00$0PECEA@@std@@@chrono@std@@@chrono@std@@@5@@std@@YAXU?$_Invoker_ret@X@0@U?$integer_sequence@_K$0A@$00$01@0@AEAP8Repeater@geonet@vanetza@@EAAXV?$_List_iterator@V?$_List_val@U?$_List_simple_types@URepetition@Repeater@geonet@vanetza@@@std@@@std@@@0@V?$time_point@VClock@vanetza@@V?$duration@_JU?$ratio@$00$0PECEA@@std@@@chrono@std@@@chrono@0@@ZAEAV?$tuple@PEAVRepeater@geonet@vanetza@@V?$_List_iterator@V?$_List_val@U?$_List_simple_types@URepetition@Repeater@geonet@vanetza@@@std@@@std@@@std@@U?$_Ph@$00@5@@0@$$QEAV?$tuple@$$QEAV?$time_point@VClock@vanetza@@V?$duration@_JU?$ratio@$00$0PECEA@@std@@@chrono@std@@@chrono@std@@@0@@Z
	??$_Construct@$00PEBD@?$basic_string@DU?$char_traits@D@std@@V?$allocator@D@2@@std@@AEAAXQEBD_K@Z
	??$_Construct@$01PEBD@?$basic_string@DU?$char_traits@D@std@@V?$allocator@D@2@@std@@AEAAXQEBD_K@Z
	??$_Construct_in_place@PEADAEAPEAD@std@@YAXAEAPEAD0@Z
	??$_Construct_in_place@PEADAEBQEAD@std@@YAXAEAPEADAEBQEAD@Z
	??$_Construct_in_place@PEAU?$_List_node@U?$pair@$$CBV?$tuple@VAddress@geonet@vanetza@@VSequenceNumber@23@@std@@UValueWithHandle@?$SoftStateMap@V?$tuple@VAddress@geonet@vanetza@@VSequenceNumber@23@@std@@_KU?$SoftStateDefaultCreator@_K@geonet@vanetza@@@geonet@vanetza@@@std@@PEAX@std@@AEAPEAU12@@std@@YAXAEAPEAU?$_List_node@U?$pair@$$CBV?$tuple@VAddress@geonet@vanetza@@VSequenceNumber@23@@std@@UValueWithHandle@?$SoftStateMap@V?$tuple@VAddress@geonet@vanetza@@VSequenceNumber@23@@std@@_KU?$SoftStateDefaultCreator@_K@geonet@vanetza@@@geonet@vanetza@@@std@@PEAX@0@0@Z
	??$_Construct_in_place@PEAU?$_List_node@U?$pair@$$CBV?$tuple@VAddress@geonet@vanetza@@VSequenceNumber@23@@std@@UValueWithHandle@?$SoftStateMap@V?$tuple@VAddress@geonet@vanetza@@VSequenceNumber@23@@std@@_KU?$SoftStateDefaultCreator@_K@geonet@vanetza@@@geonet@vanetza@@@std@@PEAX@std@@AEBQEAU12@@std@@YAXAEAPEAU?$_List_node@U?$pair@$$CBV?$tuple@VAddress@geonet@vanetza@@VSequenceNumber@23@@std@@UValueWithHandle@?$SoftStateMap@V?$tuple@VAddress@geonet@vanetza@@VSequenceNumber@23@@std@@_KU?$SoftStateDefaultCreator@_K@geonet@vanetza@@@geonet@vanetza@@@std@@PEAX@0@AEBQEAU10@@Z
	??$_Construct_in_place@PEAU?$_List_node@U?$pair@$$CBV?$tuple@VAddress@geonet@vanetza@@VSequenceNumber@23@@std@@_K@std@@PEAX@std@@AEAPEAU12@@std@@YAXAEAPEAU?$_List_node@U?$pair@$$CBV?$tuple@VAddress@geonet@vanetza@@VSequenceNumber@23@@std@@_K@std@@PEAX@0@0@Z
	??$_Construct_in_place@PEAU?$_List_node@U?$pair@$$CBV?$tuple@VAddress@geonet@vanetza@@VSequenceNumber@23@@std@@_K@std@@PEAX@std@@AEBQEAU12@@std@@YAXAEAPEAU?$_List_node@U?$pair@$$CBV?$tuple@VAddress@geonet@vanetza@@VSequenceNumber@23@@std@@_K@std@@PEAX@0@AEBQEAU10@@Z
	??$_Construct_in_place@PEAU?$_List_node@U?$pair@$$CBVMacAddress@vanetza@@UValueWithHandle@?$SoftStateMap@VMacAddress@vanetza@@VLocationTableEntry@geonet@2@VLocationTableEntryCreator@42@@geonet@2@@std@@PEAX@std@@AEAPEAU12@@std@@YAXAEAPEAU?$_List_node@U?$pair@$$CBVMacAddress@vanetza@@UValueWithHandle@?$SoftStateMap@VMacAddress@vanetza@@VLocationTableEntry@geonet@2@VLocationTableEntryCreator@42@@geonet@2@@std@@PEAX@0@0@Z
	??$_Construct_in_place@PEAU?$_List_node@U?$pair@$$CBVMacAddress@vanetza@@UValueWithHandle@?$SoftStateMap@VMacAddress@vanetza@@VLocationTableEntry@geonet@2@VLocationTableEntryCreator@42@@geonet@2@@std@@PEAX@std@@AEBQEAU12@@std@@YAXAEAPEAU?$_List_node@U?$pair@$$CBVMacAddress@vanetza@@UValueWithHandle@?$SoftStateMap@VMacAddress@vanetza@@VLocationTableEntry@geonet@2@VLocationTableEntryCreator@42@@geonet@2@@std@@PEAX@0@AEBQEAU10@@Z
	??$_Construct_in_place@PEAU?$_List_node@UCertificate@v2@security@vanetza@@PEAX@std@@AEAPEAU12@@std@@YAXAEAPEAU?$_List_node@UCertificate@v2@security@vanetza@@PEAX@0@0@Z
	??$_Construct_in_place@PEAU?$_List_node@UCertificate@v2@security@vanetza@@PEAX@std@@AEBQEAU12@@std@@YAXAEAPEAU?$_List_node@UCertificate@v2@security@vanetza@@PEAX@0@AEBQEAU10@@Z
	??$_Construct_in_place@PEAU?$_List_node@UCertificate@v2@security@vanetza@@PEAX@std@@PEAU12@@std@@YAXAEAPEAU?$_List_node@UCertificate@v2@security@vanetza@@PEAX@0@$$QEAPEAU10@@Z
	??$_Construct_in_place@PEAU?$_List_node@UItsAidSsp@v2@security@vanetza@@PEAX@std@@AEAPEAU12@@std@@YAXAEAPEAU?$_List_node@UItsAidSsp@v2@security@vanetza@@PEAX@0@0@Z
	??$_Construct_in_place@PEAU?$_List_node@UItsAidSsp@v2@security@vanetza@@PEAX@std@@AEBQEAU12@@std@@YAXAEAPEAU?$_List_node@UItsAidSsp@v2@security@vanetza@@PEAX@0@AEBQEAU10@@Z
	??$_Construct_in_place@PEAU?$_List_node@UItsAidSsp@v2@security@vanetza@@PEAX@std@@PEAU12@@std@@YAXAEAPEAU?$_List_node@UItsAidSsp@v2@security@vanetza@@PEAX@0@$$QEAPEAU10@@Z
	??$_Construct_in_place@PEAU?$_List_node@URecipientInfo@v2@security@vanetza@@PEAX@std@@AEAPEAU12@@std@@YAXAEAPEAU?$_List_node@URecipientInfo@v2@security@vanetza@@PEAX@0@0@Z
	??$_Construct_in_place@PEAU?$_List_node@URecipientInfo@v2@security@vanetza@@PEAX@std@@AEBQEAU12@@std@@YAXAEAPEAU?$_List_node@URecipientInfo@v2@security@vanetza@@PEAX@0@AEBQEAU10@@Z
	??$_Construct_in_place@PEAU?$_List_node@URecipientInfo@v2@security@vanetza@@PEAX@std@@PEAU12@@std@@YAXAEAPEAU?$_List_node@URecipientInfo@v2@security@vanetza@@PEAX@0@$$QEAPEAU10@@Z
	??$_Construct_in_place@PEAU?$_List_node@URectangularRegion@v2@security@vanetza@@PEAX@std@@AEAPEAU12@@std@@YAXAEAPEAU?$_List_node@URectangularRegion@v2@security@vanetza@@PEAX@0@0@Z
	??$_Construct_in_place@PEAU?$_List_node@URectangularRegion@v2@security@vanetza@@PEAX@std@@AEBQEAU12@@std@@YAXAEAPEAU?$_List_node@URectangularRegion@v2@security@vanetza@@PEAX@0@AEBQEAU10@@Z
	??$_Construct_in_place@PEAU?$_List_node@URectangularRegion@v2@security@vanetza@@PEAX@std@@PEAU12@@std@@YAXAEAPEAU?$_List_node@URectangularRegion@v2@security@vanetza@@PEAX@0@$$QEAPEAU10@@Z
	??$_Construct_in_place@PEAU?$_List_node@URepetition@Repeater@geonet@vanetza@@PEAX@std@@AEAPEAU12@@std@@YAXAEAPEAU?$_List_node@URepetition@Repeater@geonet@vanetza@@PEAX@0@0@Z
	??$_Construct_in_place@PEAU?$_List_node@URepetition@Repeater@geonet@vanetza@@PEAX@std@@AEBQEAU12@@std@@YAXAEAPEAU?$_List_node@URepetition@Repeater@geonet@vanetza@@PEAX@0@AEBQEAU10@@Z
	??$_Construct_in_place@PEAU?$_List_node@UTwoDLocation@v2@security@vanetza@@PEAX@std@@AEAPEAU12@@std@@YAXAEAPEAU?$_List_node@UTwoDLocation@v2@security@vanetza@@PEAX@0@0@Z
	??$_Construct_in_place@PEAU?$_List_node@UTwoDLocation@v2@security@vanetza@@PEAX@std@@AEBQEAU12@@std@@YAXAEAPEAU?$_List_node@UTwoDLocation@v2@security@vanetza@@PEAX@0@AEBQEAU10@@Z
	??$_Construct_in_place@PEAU?$_List_node@UTwoDLocation@v2@security@vanetza@@PEAX@std@@PEAU12@@std@@YAXAEAPEAU?$_List_node@UTwoDLocation@v2@security@vanetza@@PEAX@0@$$QEAPEAU10@@Z
	??$_Construct_in_place@PEAU?$_List_node@V?$_List_iterator@V?$_List_val@U?$_List_simple_types@V?$tuple@VExpiry@packet_buffer@geonet@vanetza@@V?$unique_ptr@VData@packet_buffer@geonet@vanetza@@U?$default_delete@VData@packet_buffer@geonet@vanetza@@@std@@@std@@@std@@@std@@@std@@@std@@PEAX@std@@AEAPEAU12@@std@@YAXAEAPEAU?$_List_node@V?$_List_iterator@V?$_List_val@U?$_List_simple_types@V?$tuple@VExpiry@packet_buffer@geonet@vanetza@@V?$unique_ptr@VData@packet_buffer@geonet@vanetza@@U?$default_delete@VData@packet_buffer@geonet@vanetza@@@std@@@std@@@std@@@std@@@std@@@std@@PEAX@0@0@Z
	??$_Construct_in_place@PEAU?$_List_node@V?$array@E$02@std@@PEAX@std@@AEAPEAU12@@std@@YAXAEAPEAU?$_List_node@V?$array@E$02@std@@PEAX@0@0@Z
	??$_Construct_in_place@PEAU?$_List_node@V?$array@E$02@std@@PEAX@std@@AEBQEAU12@@std@@YAXAEAPEAU?$_List_node@V?$array@E$02@std@@PEAX@0@AEBQEAU10@@Z
	??$_Construct_in_place@PEAU?$_List_node@V?$array@E$02@std@@PEAX@std@@PEAU12@@std@@YAXAEAPEAU?$_List_node@V?$array@E$02@std@@PEAX@0@$$QEAPEAU10@@Z
	??$_Construct_in_place@PEAU?$_List_node@V?$tuple@VExpiry@packet_buffer@geonet@vanetza@@V?$unique_ptr@VData@packet_buffer@geonet@vanetza@@U?$default_delete@VData@packet_buffer@geonet@vanetza@@@std@@@std@@@std@@PEAX@std@@AEAPEAU12@@std@@YAXAEAPEAU?$_List_node@V?$tuple@VExpiry@packet_buffer@geonet@vanetza@@V?$unique_ptr@VData@packet_buffer@geonet@vanetza@@U?$default_delete@VData@packet_buffer@geonet@vanetza@@@std@@@std@@@std@@PEAX@0@0@Z
	??$_Construct_in_place@PEAU?$_List_node@V?$tuple@VExpiry@packet_buffer@geonet@vanetza@@V?$unique_ptr@VData@packet_buffer@geonet@vanetza@@U?$default_delete@VData@packet_buffer@geonet@vanetza@@@std@@@std@@@std@@PEAX@std@@AEBQEAU12@@std@@YAXAEAPEAU?$_List_node@V?$tuple@VExpiry@packet_buffer@geonet@vanetza@@V?$unique_ptr@VData@packet_buffer@geonet@vanetza@@U?$default_delete@VData@packet_buffer@geonet@vanetza@@@std@@@std@@@std@@PEAX@0@AEBQEAU10@@Z
	??$_Construct_in_place@PEAU?$_List_node@V?$variant@IUStartAndEndValidity@v2@security@vanetza@@UStartAndDurationValidity@234@V?$variant@UNoneRegion@v2@security@vanetza@@UCircularRegion@234@V?$list@URectangularRegion@v2@security@vanetza@@V?$allocator@URectangularRegion@v2@security@vanetza@@@std@@@std@@V?$list@UTwoDLocation@v2@security@vanetza@@V?$allocator@UTwoDLocation@v2@security@vanetza@@@std@@@7@UIdentifiedRegion@234@@boost@@@boost@@PEAX@std@@AEAPEAU12@@std@@YAXAEAPEAU?$_List_node@V?$variant@IUStartAndEndValidity@v2@security@vanetza@@UStartAndDurationValidity@234@V?$variant@UNoneRegion@v2@security@vanetza@@UCircularRegion@234@V?$list@URectangularRegion@v2@security@vanetza@@V?$allocator@URectangularRegion@v2@security@vanetza@@@std@@@std@@V?$list@UTwoDLocation@v2@security@vanetza@@V?$allocator@UTwoDLocation@v2@security@vanetza@@@std@@@7@UIdentifiedRegion@234@@boost@@@boost@@PEAX@0@0@Z
	??$_Construct_in_place@PEAU?$_List_node@V?$variant@IUStartAndEndValidity@v2@security@vanetza@@UStartAndDurationValidity@234@V?$variant@UNoneRegion@v2@security@vanetza@@UCircularRegion@234@V?$list@URectangularRegion@v2@security@vanetza@@V?$allocator@URectangularRegion@v2@security@vanetza@@@std@@@std@@V?$list@UTwoDLocation@v2@security@vanetza@@V?$allocator@UTwoDLocation@v2@security@vanetza@@@std@@@7@UIdentifiedRegion@234@@boost@@@boost@@PEAX@std@@AEBQEAU12@@std@@YAXAEAPEAU?$_List_node@V?$variant@IUStartAndEndValidity@v2@security@vanetza@@UStartAndDurationValidity@234@V?$variant@UNoneRegion@v2@security@vanetza@@UCircularRegion@234@V?$list@URectangularRegion@v2@security@vanetza@@V?$allocator@URectangularRegion@v2@security@vanetza@@@std@@@std@@V?$list@UTwoDLocation@v2@security@vanetza@@V?$allocator@UTwoDLocation@v2@security@vanetza@@@std@@@7@UIdentifiedRegion@234@@boost@@@boost@@PEAX@0@AEBQEAU10@@Z
	??$_Construct_in_place@PEAU?$_List_node@V?$variant@IUStartAndEndValidity@v2@security@vanetza@@UStartAndDurationValidity@234@V?$variant@UNoneRegion@v2@security@vanetza@@UCircularRegion@234@V?$list@URectangularRegion@v2@security@vanetza@@V?$allocator@URectangularRegion@v2@security@vanetza@@@std@@@std@@V?$list@UTwoDLocation@v2@security@vanetza@@V?$allocator@UTwoDLocation@v2@security@vanetza@@@std@@@7@UIdentifiedRegion@234@@boost@@@boost@@PEAX@std@@PEAU12@@std@@YAXAEAPEAU?$_List_node@V?$variant@IUStartAndEndValidity@v2@security@vanetza@@UStartAndDurationValidity@234@V?$variant@UNoneRegion@v2@security@vanetza@@UCircularRegion@234@V?$list@URectangularRegion@v2@security@vanetza@@V?$allocator@URectangularRegion@v2@security@vanetza@@@std@@@std@@V?$list@UTwoDLocation@v2@security@vanetza@@V?$allocator@UTwoDLocation@v2@security@vanetza@@@std@@@7@UIdentifiedRegion@234@@boost@@@boost@@PEAX@0@$$QEAPEAU10@@Z
	??$_Construct_in_place@PEAU?$_List_node@V?$variant@USignature@v2@security@vanetza@@$$V@boost@@PEAX@std@@AEAPEAU12@@std@@YAXAEAPEAU?$_List_node@V?$variant@USignature@v2@security@vanetza@@$$V@boost@@PEAX@0@0@Z
	??$_Construct_in_place@PEAU?$_List_node@V?$variant@USignature@v2@security@vanetza@@$$V@boost@@PEAX@std@@AEBQEAU12@@std@@YAXAEAPEAU?$_List_node@V?$variant@USignature@v2@security@vanetza@@$$V@boost@@PEAX@0@AEBQEAU10@@Z
	??$_Construct_in_place@PEAU?$_List_node@V?$variant@USignature@v2@security@vanetza@@$$V@boost@@PEAX@std@@PEAU12@@std@@YAXAEAPEAU?$_List_node@V?$variant@USignature@v2@security@vanetza@@$$V@boost@@PEAX@0@$$QEAPEAU10@@Z
	??$_Construct_in_place@PEAU?$_List_node@V?$variant@UVerificationKey@v2@security@vanetza@@UEncryptionKey@234@USubjectAssurance@234@V?$variant@UX_Coordinate_Only@security@vanetza@@UCompressed_Lsb_Y_0@23@UCompressed_Lsb_Y_1@23@UUncompressed@23@@boost@@V?$list@VIntX@v2@security@vanetza@@V?$allocator@VIntX@v2@security@vanetza@@@std@@@std@@V?$list@UItsAidSsp@v2@security@vanetza@@V?$allocator@UItsAidSsp@v2@security@vanetza@@@std@@@std@@@boost@@PEAX@std@@AEAPEAU12@@std@@YAXAEAPEAU?$_List_node@V?$variant@UVerificationKey@v2@security@vanetza@@UEncryptionKey@234@USubjectAssurance@234@V?$variant@UX_Coordinate_Only@security@vanetza@@UCompressed_Lsb_Y_0@23@UCompressed_Lsb_Y_1@23@UUncompressed@23@@boost@@V?$list@VIntX@v2@security@vanetza@@V?$allocator@VIntX@v2@security@vanetza@@@std@@@std@@V?$list@UItsAidSsp@v2@security@vanetza@@V?$allocator@UItsAidSsp@v2@security@vanetza@@@std@@@std@@@boost@@PEAX@0@0@Z
	??$_Construct_in_place@PEAU?$_List_node@V?$variant@UVerificationKey@v2@security@vanetza@@UEncryptionKey@234@USubjectAssurance@234@V?$variant@UX_Coordinate_Only@security@vanetza@@UCompressed_Lsb_Y_0@23@UCompressed_Lsb_Y_1@23@UUncompressed@23@@boost@@V?$list@VIntX@v2@security@vanetza@@V?$allocator@VIntX@v2@security@vanetza@@@std@@@std@@V?$list@UItsAidSsp@v2@security@vanetza@@V?$allocator@UItsAidSsp@v2@security@vanetza@@@std@@@std@@@boost@@PEAX@std@@AEBQEAU12@@std@@YAXAEAPEAU?$_List_node@V?$variant@UVerificationKey@v2@security@vanetza@@UEncryptionKey@234@USubjectAssurance@234@V?$variant@UX_Coordinate_Only@security@vanetza@@UCompressed_Lsb_Y_0@23@UCompressed_Lsb_Y_1@23@UUncompressed@23@@boost@@V?$list@VIntX@v2@security@vanetza@@V?$allocator@VIntX@v2@security@vanetza@@@std@@@std@@V?$list@UItsAidSsp@v2@security@vanetza@@V?$allocator@UItsAidSsp@v2@security@vanetza@@@std@@@std@@@boost@@PEAX@0@AEBQEAU10@@Z
	??$_Construct_in_place@PEAU?$_List_node@V?$variant@UVerificationKey@v2@security@vanetza@@UEncryptionKey@234@USubjectAssurance@234@V?$variant@UX_Coordinate_Only@security@vanetza@@UCompressed_Lsb_Y_0@23@UCompressed_Lsb_Y_1@23@UUncompressed@23@@boost@@V?$list@VIntX@v2@security@vanetza@@V?$allocator@VIntX@v2@security@vanetza@@@std@@@std@@V?$list@UItsAidSsp@v2@security@vanetza@@V?$allocator@UItsAidSsp@v2@security@vanetza@@@std@@@std@@@boost@@PEAX@std@@PEAU12@@std@@YAXAEAPEAU?$_List_node@V?$variant@UVerificationKey@v2@security@vanetza@@UEncryptionKey@234@USubjectAssurance@234@V?$variant@UX_Coordinate_Only@security@vanetza@@UCompressed_Lsb_Y_0@23@UCompressed_Lsb_Y_1@23@UUncompressed@23@@boost@@V?$list@VIntX@v2@security@vanetza@@V?$allocator@VIntX@v2@security@vanetza@@@std@@@std@@V?$list@UItsAidSsp@v2@security@vanetza@@V?$allocator@UItsAidSsp@v2@security@vanetza@@@std@@@std@@@boost@@PEAX@0@$$QEAPEAU10@@Z
	??$_Construct_in_place@PEAU?$_List_node@V?$variant@_KUTime64WithStandardDeviation@v2@security@vanetza@@IUThreeDLocation@234@V?$list@V?$array@E$02@std@@V?$allocator@V?$array@E$02@std@@@2@@std@@VIntX@234@V?$variant@$$TV?$array@E$07@std@@V?$recursive_wrapper@UCertificate@v2@security@vanetza@@@boost@@V?$list@UCertificate@v2@security@vanetza@@V?$allocator@UCertificate@v2@security@vanetza@@@std@@@2@UCertificateDigestWithOtherAlgorithm@v2@security@vanetza@@@boost@@V?$variant@V?$array@E$0M@@std@@$$V@boost@@V?$list@URecipientInfo@v2@security@vanetza@@V?$allocator@URecipientInfo@v2@security@vanetza@@@std@@@7@@boost@@PEAX@std@@AEAPEAU12@@std@@YAXAEAPEAU?$_List_node@V?$variant@_KUTime64WithStandardDeviation@v2@security@vanetza@@IUThreeDLocation@234@V?$list@V?$array@E$02@std@@V?$allocator@V?$array@E$02@std@@@2@@std@@VIntX@234@V?$variant@$$TV?$array@E$07@std@@V?$recursive_wrapper@UCertificate@v2@security@vanetza@@@boost@@V?$list@UCertificate@v2@security@vanetza@@V?$allocator@UCertificate@v2@security@vanetza@@@std@@@2@UCertificateDigestWithOtherAlgorithm@v2@security@vanetza@@@boost@@V?$variant@V?$array@E$0M@@std@@$$V@boost@@V?$list@URecipientInfo@v2@security@vanetza@@V?$allocator@URecipientInfo@v2@security@vanetza@@@std@@@7@@boost@@PEAX@0@0@Z
	??$_Construct_in_place@PEAU?$_List_node@V?$variant@_KUTime64WithStandardDeviation@v2@security@vanetza@@IUThreeDLocation@234@V?$list@V?$array@E$02@std@@V?$allocator@V?$array@E$02@std@@@2@@std@@VIntX@234@V?$variant@$$TV?$array@E$07@std@@V?$recursive_wrapper@UCertificate@v2@security@vanetza@@@boost@@V?$list@UCertificate@v2@security@vanetza@@V?$allocator@UCertificate@v2@security@vanetza@@@std@@@2@UCertificateDigestWithOtherAlgorithm@v2@security@vanetza@@@boost@@V?$variant@V?$array@E$0M@@std@@$$V@boost@@V?$list@URecipientInfo@v2@security@vanetza@@V?$allocator@URecipientInfo@v2@security@vanetza@@@std@@@7@@boost@@PEAX@std@@AEBQEAU12@@std@@YAXAEAPEAU?$_List_node@V?$variant@_KUTime64WithStandardDeviation@v2@security@vanetza@@IUThreeDLocation@234@V?$list@V?$array@E$02@std@@V?$allocator@V?$array@E$02@std@@@2@@std@@VIntX@234@V?$variant@$$TV?$array@E$07@std@@V?$recursive_wrapper@UCertificate@v2@security@vanetza@@@boost@@V?$list@UCertificate@v2@security@vanetza@@V?$allocator@UCertificate@v2@security@vanetza@@@std@@@2@UCertificateDigestWithOtherAlgorithm@v2@security@vanetza@@@boost@@V?$variant@V?$array@E$0M@@std@@$$V@boost@@V?$list@URecipientInfo@v2@security@vanetza@@V?$allocator@URecipientInfo@v2@security@vanetza@@@std@@@7@@boost@@PEAX@0@AEBQEAU10@@Z
	??$_Construct_in_place@PEAU?$_List_node@V?$variant@_KUTime64WithStandardDeviation@v2@security@vanetza@@IUThreeDLocation@234@V?$list@V?$array@E$02@std@@V?$allocator@V?$array@E$02@std@@@2@@std@@VIntX@234@V?$variant@$$TV?$array@E$07@std@@V?$recursive_wrapper@UCertificate@v2@security@vanetza@@@boost@@V?$list@UCertificate@v2@security@vanetza@@V?$allocator@UCertificate@v2@security@vanetza@@@std@@@2@UCertificateDigestWithOtherAlgorithm@v2@security@vanetza@@@boost@@V?$variant@V?$array@E$0M@@std@@$$V@boost@@V?$list@URecipientInfo@v2@security@vanetza@@V?$allocator@URecipientInfo@v2@security@vanetza@@@std@@@7@@boost@@PEAX@std@@PEAU12@@std@@YAXAEAPEAU?$_List_node@V?$variant@_KUTime64WithStandardDeviation@v2@security@vanetza@@IUThreeDLocation@234@V?$list@V?$array@E$02@std@@V?$allocator@V?$array@E$02@std@@@2@@std@@VIntX@234@V?$variant@$$TV?$array@E$07@std@@V?$recursive_wrapper@UCertificate@v2@security@vanetza@@@boost@@V?$list@UCertificate@v2@security@vanetza@@V?$allocator@UCertificate@v2@security@vanetza@@@std@@@2@UCertificateDigestWithOtherAlgorithm@v2@security@vanetza@@@boost@@V?$variant@V?$array@E$0M@@std@@$$V@boost@@V?$list@URecipientInfo@v2@security@vanetza@@V?$allocator@URecipientInfo@v2@security@vanetza@@@std@@@7@@boost@@PEAX@0@$$QEAPEAU10@@Z
	??$_Construct_in_place@PEAU?$_List_node@VCbfPacket@geonet@vanetza@@PEAX@std@@AEAPEAU12@@std@@YAXAEAPEAU?$_List_node@VCbfPacket@geonet@vanetza@@PEAX@0@0@Z
	??$_Construct_in_place@PEAU?$_List_node@VCbfPacket@geonet@vanetza@@PEAX@std@@AEBQEAU12@@std@@YAXAEAPEAU?$_List_node@VCbfPacket@geonet@vanetza@@PEAX@0@AEBQEAU10@@Z
	??$_Construct_in_place@PEAU?$_List_node@VIntX@v2@security@vanetza@@PEAX@std@@AEAPEAU12@@std@@YAXAEAPEAU?$_List_node@VIntX@v2@security@vanetza@@PEAX@0@0@Z
	??$_Construct_in_place@PEAU?$_List_node@VIntX@v2@security@vanetza@@PEAX@std@@AEBQEAU12@@std@@YAXAEAPEAU?$_List_node@VIntX@v2@security@vanetza@@PEAX@0@AEBQEAU10@@Z
	??$_Construct_in_place@PEAU?$_List_node@VIntX@v2@security@vanetza@@PEAX@std@@PEAU12@@std@@YAXAEAPEAU?$_List_node@VIntX@v2@security@vanetza@@PEAX@0@$$QEAPEAU10@@Z
	??$_Construct_in_place@PEAU?$_Tree_node@U?$pair@$$CBVtype_index@std@@Uobject_handle@ObjectContainer@vanetza@@@std@@PEAX@std@@AEAPEAU12@@std@@YAXAEAPEAU?$_Tree_node@U?$pair@$$CBVtype_index@std@@Uobject_handle@ObjectContainer@vanetza@@@std@@PEAX@0@0@Z
	??$_Construct_in_place@PEAU?$_Tree_node@U?$pair@$$CBVtype_index@std@@Uobject_handle@ObjectContainer@vanetza@@@std@@PEAX@std@@AEBQEAU12@@std@@YAXAEAPEAU?$_Tree_node@U?$pair@$$CBVtype_index@std@@Uobject_handle@ObjectContainer@vanetza@@@std@@PEAX@0@AEBQEAU10@@Z
	??$_Construct_in_place@PEAU?$_Tree_node@U?$pair@$$CBW4OsiLayer@vanetza@@VByteBufferConvertible@2@@std@@PEAX@std@@AEBQEAU12@@std@@YAXAEAPEAU?$_Tree_node@U?$pair@$$CBW4OsiLayer@vanetza@@VByteBufferConvertible@2@@std@@PEAX@0@AEBQEAU10@@Z
	??$_Construct_in_place@PEAU?$_Tree_node@U?$pair@$$CBW4UpperProtocol@geonet@vanetza@@PEAVTransportInterface@23@@std@@PEAX@std@@AEAPEAU12@@std@@YAXAEAPEAU?$_Tree_node@U?$pair@$$CBW4UpperProtocol@geonet@vanetza@@PEAVTransportInterface@23@@std@@PEAX@0@0@Z
	??$_Construct_in_place@PEAU?$_Tree_node@U?$pair@$$CBW4UpperProtocol@geonet@vanetza@@PEAVTransportInterface@23@@std@@PEAX@std@@AEBQEAU12@@std@@YAXAEAPEAU?$_Tree_node@U?$pair@$$CBW4UpperProtocol@geonet@vanetza@@PEAVTransportInterface@23@@std@@PEAX@0@AEBQEAU10@@Z
	??$_Construct_in_place@U_Container_proxy@std@@PEAU_Container_base12@2@@std@@YAXAEAU_Container_proxy@0@$$QEAPEAU_Container_base12@0@@Z
	??$_Construct_in_place@V?$_List_unchecked_iterator@V?$_List_val@U?$_List_simple_types@U?$pair@$$CBV?$tuple@VAddress@geonet@vanetza@@VSequenceNumber@23@@std@@UValueWithHandle@?$SoftStateMap@V?$tuple@VAddress@geonet@vanetza@@VSequenceNumber@23@@std@@_KU?$SoftStateDefaultCreator@_K@geonet@vanetza@@@geonet@vanetza@@@std@@@std@@@std@@@std@@AEBV12@@std@@YAXAEAV?$_List_unchecked_iterator@V?$_List_val@U?$_List_simple_types@U?$pair@$$CBV?$tuple@VAddress@geonet@vanetza@@VSequenceNumber@23@@std@@UValueWithHandle@?$SoftStateMap@V?$tuple@VAddress@geonet@vanetza@@VSequenceNumber@23@@std@@_KU?$SoftStateDefaultCreator@_K@geonet@vanetza@@@geonet@vanetza@@@std@@@std@@@std@@@0@AEBV10@@Z
	??$_Construct_in_place@V?$_List_unchecked_iterator@V?$_List_val@U?$_List_simple_types@U?$pair@$$CBV?$tuple@VAddress@geonet@vanetza@@VSequenceNumber@23@@std@@_K@std@@@std@@@std@@@std@@AEBV12@@std@@YAXAEAV?$_List_unchecked_iterator@V?$_List_val@U?$_List_simple_types@U?$pair@$$CBV?$tuple@VAddress@geonet@vanetza@@VSequenceNumber@23@@std@@_K@std@@@std@@@std@@@0@AEBV10@@Z
	??$_Construct_in_place@V?$_List_unchecked_iterator@V?$_List_val@U?$_List_simple_types@U?$pair@$$CBVMacAddress@vanetza@@UValueWithHandle@?$SoftStateMap@VMacAddress@vanetza@@VLocationTableEntry@geonet@2@VLocationTableEntryCreator@42@@geonet@2@@std@@@std@@@std@@@std@@AEBV12@@std@@YAXAEAV?$_List_unchecked_iterator@V?$_List_val@U?$_List_simple_types@U?$pair@$$CBVMacAddress@vanetza@@UValueWithHandle@?$SoftStateMap@VMacAddress@vanetza@@VLocationTableEntry@geonet@2@VLocationTableEntryCreator@42@@geonet@2@@std@@@std@@@std@@@0@AEBV10@@Z
	??$_Construct_n@$$V@?$vector@EV?$allocator@E@std@@@std@@AEAAX_K@Z
	??$_Construct_n@AEBQEAEAEBQEAE@?$vector@EV?$allocator@E@std@@@std@@AEAAX_KAEBQEAE1@Z
	??$_Construct_range_unchecked@V?$_List_unchecked_const_iterator@V?$_List_val@U?$_List_simple_types@UCertificate@v2@security@vanetza@@@std@@@std@@U_Iterator_base0@2@@std@@@?$list@UCertificate@v2@security@vanetza@@V?$allocator@UCertificate@v2@security@vanetza@@@std@@@std@@AEAAXV?$_List_unchecked_const_iterator@V?$_List_val@U?$_List_simple_types@UCertificate@v2@security@vanetza@@@std@@@std@@U_Iterator_base0@2@@1@0@Z
	??$_Construct_range_unchecked@V?$_List_unchecked_const_iterator@V?$_List_val@U?$_List_simple_types@UItsAidSsp@v2@security@vanetza@@@std@@@std@@U_Iterator_base0@2@@std@@@?$list@UItsAidSsp@v2@security@vanetza@@V?$allocator@UItsAidSsp@v2@security@vanetza@@@std@@@std@@AEAAXV?$_List_unchecked_const_iterator@V?$_List_val@U?$_List_simple_types@UItsAidSsp@v2@security@vanetza@@@std@@@std@@U_Iterator_base0@2@@1@0@Z
	??$_Construct_range_unchecked@V?$_List_unchecked_const_iterator@V?$_List_val@U?$_List_simple_types@URecipientInfo@v2@security@vanetza@@@std@@@std@@U_Iterator_base0@2@@std@@@?$list@URecipientInfo@v2@security@vanetza@@V?$allocator@URecipientInfo@v2@security@vanetza@@@std@@@std@@AEAAXV?$_List_unchecked_const_iterator@V?$_List_val@U?$_List_simple_types@URecipientInfo@v2@security@vanetza@@@std@@@std@@U_Iterator_base0@2@@1@0@Z
	??$_Construct_range_unchecked@V?$_List_unchecked_const_iterator@V?$_List_val@U?$_List_simple_types@URectangularRegion@v2@security@vanetza@@@std@@@std@@U_Iterator_base0@2@@std@@@?$list@URectangularRegion@v2@security@vanetza@@V?$allocator@URectangularRegion@v2@security@vanetza@@@std@@@std@@AEAAXV?$_List_unchecked_const_iterator@V?$_List_val@U?$_List_simple_types@URectangularRegion@v2@security@vanetza@@@std@@@std@@U_Iterator_base0@2@@1@0@Z
	??$_Construct_range_unchecked@V?$_List_unchecked_const_iterator@V?$_List_val@U?$_List_simple_types@UTwoDLocation@v2@security@vanetza@@@std@@@std@@U_Iterator_base0@2@@std@@@?$list@UTwoDLocation@v2@security@vanetza@@V?$allocator@UTwoDLocation@v2@security@vanetza@@@std@@@std@@AEAAXV?$_List_unchecked_const_iterator@V?$_List_val@U?$_List_simple_types@UTwoDLocation@v2@security@vanetza@@@std@@@std@@U_Iterator_base0@2@@1@0@Z
	??$_Construct_range_unchecked@V?$_List_unchecked_const_iterator@V?$_List_val@U?$_List_simple_types@V?$array@E$02@std@@@std@@@std@@U_Iterator_base0@2@@std@@@?$list@V?$array@E$02@std@@V?$allocator@V?$array@E$02@std@@@2@@std@@AEAAXV?$_List_unchecked_const_iterator@V?$_List_val@U?$_List_simple_types@V?$array@E$02@std@@@std@@@std@@U_Iterator_base0@2@@1@0@Z
	??$_Construct_range_unchecked@V?$_List_unchecked_const_iterator@V?$_List_val@U?$_List_simple_types@V?$variant@IUStartAndEndValidity@v2@security@vanetza@@UStartAndDurationValidity@234@V?$variant@UNoneRegion@v2@security@vanetza@@UCircularRegion@234@V?$list@URectangularRegion@v2@security@vanetza@@V?$allocator@URectangularRegion@v2@security@vanetza@@@std@@@std@@V?$list@UTwoDLocation@v2@security@vanetza@@V?$allocator@UTwoDLocation@v2@security@vanetza@@@std@@@7@UIdentifiedRegion@234@@boost@@@boost@@@std@@@std@@U_Iterator_base0@2@@std@@@?$list@V?$variant@IUStartAndEndValidity@v2@security@vanetza@@UStartAndDurationValidity@234@V?$variant@UNoneRegion@v2@security@vanetza@@UCircularRegion@234@V?$list@URectangularRegion@v2@security@vanetza@@V?$allocator@URectangularRegion@v2@security@vanetza@@@std@@@std@@V?$list@UTwoDLocation@v2@security@vanetza@@V?$allocator@UTwoDLocation@v2@security@vanetza@@@std@@@7@UIdentifiedRegion@234@@boost@@@boost@@V?$allocator@V?$variant@IUStartAndEndValidity@v2@security@vanetza@@UStartAndDurationValidity@234@V?$variant@UNoneRegion@v2@security@vanetza@@UCircularRegion@234@V?$list@URectangularRegion@v2@security@vanetza@@V?$allocator@URectangularRegion@v2@security@vanetza@@@std@@@std@@V?$list@UTwoDLocation@v2@security@vanetza@@V?$allocator@UTwoDLocation@v2@security@vanetza@@@std@@@7@UIdentifiedRegion@234@@boost@@@boost@@@std@@@std@@AEAAXV?$_List_unchecked_const_iterator@V?$_List_val@U?$_List_simple_types@V?$variant@IUStartAndEndValidity@v2@security@vanetza@@UStartAndDurationValidity@234@V?$variant@UNoneRegion@v2@security@vanetza@@UCircularRegion@234@V?$list@URectangularRegion@v2@security@vanetza@@V?$allocator@URectangularRegion@v2@security@vanetza@@@std@@@std@@V?$list@UTwoDLocation@v2@security@vanetza@@V?$allocator@UTwoDLocation@v2@security@vanetza@@@std@@@7@UIdentifiedRegion@234@@boost@@@boost@@@std@@@std@@U_Iterator_base0@2@@1@0@Z
	??$_Construct_range_unchecked@V?$_List_unchecked_const_iterator@V?$_List_val@U?$_List_simple_types@V?$variant@USignature@v2@security@vanetza@@$$V@boost@@@std@@@std@@U_Iterator_base0@2@@std@@@?$list@V?$variant@USignature@v2@security@vanetza@@$$V@boost@@V?$allocator@V?$variant@USignature@v2@security@vanetza@@$$V@boost@@@std@@@std@@AEAAXV?$_List_unchecked_const_iterator@V?$_List_val@U?$_List_simple_types@V?$variant@USignature@v2@security@vanetza@@$$V@boost@@@std@@@std@@U_Iterator_base0@2@@1@0@Z
	??$_Construct_range_unchecked@V?$_List_unchecked_const_iterator@V?$_List_val@U?$_List_simple_types@V?$variant@UVerificationKey@v2@security@vanetza@@UEncryptionKey@234@USubjectAssurance@234@V?$variant@UX_Coordinate_Only@security@vanetza@@UCompressed_Lsb_Y_0@23@UCompressed_Lsb_Y_1@23@UUncompressed@23@@boost@@V?$list@VIntX@v2@security@vanetza@@V?$allocator@VIntX@v2@security@vanetza@@@std@@@std@@V?$list@UItsAidSsp@v2@security@vanetza@@V?$allocator@UItsAidSsp@v2@security@vanetza@@@std@@@std@@@boost@@@std@@@std@@U_Iterator_base0@2@@std@@@?$list@V?$variant@UVerificationKey@v2@security@vanetza@@UEncryptionKey@234@USubjectAssurance@234@V?$variant@UX_Coordinate_Only@security@vanetza@@UCompressed_Lsb_Y_0@23@UCompressed_Lsb_Y_1@23@UUncompressed@23@@boost@@V?$list@VIntX@v2@security@vanetza@@V?$allocator@VIntX@v2@security@vanetza@@@std@@@std@@V?$list@UItsAidSsp@v2@security@vanetza@@V?$allocator@UItsAidSsp@v2@security@vanetza@@@std@@@std@@@boost@@V?$allocator@V?$variant@UVerificationKey@v2@security@vanetza@@UEncryptionKey@234@USubjectAssurance@234@V?$variant@UX_Coordinate_Only@security@vanetza@@UCompressed_Lsb_Y_0@23@UCompressed_Lsb_Y_1@23@UUncompressed@23@@boost@@V?$list@VIntX@v2@security@vanetza@@V?$allocator@VIntX@v2@security@vanetza@@@std@@@std@@V?$list@UItsAidSsp@v2@security@vanetza@@V?$allocator@UItsAidSsp@v2@security@vanetza@@@std@@@std@@@boost@@@std@@@std@@AEAAXV?$_List_unchecked_const_iterator@V?$_List_val@U?$_List_simple_types@V?$variant@UVerificationKey@v2@security@vanetza@@UEncryptionKey@234@USubjectAssurance@234@V?$variant@UX_Coordinate_Only@security@vanetza@@UCompressed_Lsb_Y_0@23@UCompressed_Lsb_Y_1@23@UUncompressed@23@@boost@@V?$list@VIntX@v2@security@vanetza@@V?$allocator@VIntX@v2@security@vanetza@@@std@@@std@@V?$list@UItsAidSsp@v2@security@vanetza@@V?$allocator@UItsAidSsp@v2@security@vanetza@@@std@@@std@@@boost@@@std@@@std@@U_Iterator_base0@2@@1@0@Z
	??$_Construct_range_unchecked@V?$_List_unchecked_const_iterator@V?$_List_val@U?$_List_simple_types@V?$variant@_KUTime64WithStandardDeviation@v2@security@vanetza@@IUThreeDLocation@234@V?$list@V?$array@E$02@std@@V?$allocator@V?$array@E$02@std@@@2@@std@@VIntX@234@V?$variant@$$TV?$array@E$07@std@@V?$recursive_wrapper@UCertificate@v2@security@vanetza@@@boost@@V?$list@UCertificate@v2@security@vanetza@@V?$allocator@UCertificate@v2@security@vanetza@@@std@@@2@UCertificateDigestWithOtherAlgorithm@v2@security@vanetza@@@boost@@V?$variant@V?$array@E$0M@@std@@$$V@boost@@V?$list@URecipientInfo@v2@security@vanetza@@V?$allocator@URecipientInfo@v2@security@vanetza@@@std@@@7@@boost@@@std@@@std@@U_Iterator_base0@2@@std@@@?$list@V?$variant@_KUTime64WithStandardDeviation@v2@security@vanetza@@IUThreeDLocation@234@V?$list@V?$array@E$02@std@@V?$allocator@V?$array@E$02@std@@@2@@std@@VIntX@234@V?$variant@$$TV?$array@E$07@std@@V?$recursive_wrapper@UCertificate@v2@security@vanetza@@@boost@@V?$list@UCertificate@v2@security@vanetza@@V?$allocator@UCertificate@v2@security@vanetza@@@std@@@2@UCertificateDigestWithOtherAlgorithm@v2@security@vanetza@@@boost@@V?$variant@V?$array@E$0M@@std@@$$V@boost@@V?$list@URecipientInfo@v2@security@vanetza@@V?$allocator@URecipientInfo@v2@security@vanetza@@@std@@@7@@boost@@V?$allocator@V?$variant@_KUTime64WithStandardDeviation@v2@security@vanetza@@IUThreeDLocation@234@V?$list@V?$array@E$02@std@@V?$allocator@V?$array@E$02@std@@@2@@std@@VIntX@234@V?$variant@$$TV?$array@E$07@std@@V?$recursive_wrapper@UCertificate@v2@security@vanetza@@@boost@@V?$list@UCertificate@v2@security@vanetza@@V?$allocator@UCertificate@v2@security@vanetza@@@std@@@2@UCertificateDigestWithOtherAlgorithm@v2@security@vanetza@@@boost@@V?$variant@V?$array@E$0M@@std@@$$V@boost@@V?$list@URecipientInfo@v2@security@vanetza@@V?$allocator@URecipientInfo@v2@security@vanetza@@@std@@@7@@boost@@@std@@@std@@AEAAXV?$_List_unchecked_const_iterator@V?$_List_val@U?$_List_simple_types@V?$variant@_KUTime64WithStandardDeviation@v2@security@vanetza@@IUThreeDLocation@234@V?$list@V?$array@E$02@std@@V?$allocator@V?$array@E$02@std@@@2@@std@@VIntX@234@V?$variant@$$TV?$array@E$07@std@@V?$recursive_wrapper@UCertificate@v2@security@vanetza@@@boost@@V?$list@UCertificate@v2@security@vanetza@@V?$allocator@UCertificate@v2@security@vanetza@@@std@@@2@UCertificateDigestWithOtherAlgorithm@v2@security@vanetza@@@boost@@V?$variant@V?$array@E$0M@@std@@$$V@boost@@V?$list@URecipientInfo@v2@security@vanetza@@V?$allocator@URecipientInfo@v2@security@vanetza@@@std@@@7@@boost@@@std@@@std@@U_Iterator_base0@2@@1@0@Z
	??$_Construct_range_unchecked@V?$_List_unchecked_const_iterator@V?$_List_val@U?$_List_simple_types@VIntX@v2@security@vanetza@@@std@@@std@@U_Iterator_base0@2@@std@@@?$list@VIntX@v2@security@vanetza@@V?$allocator@VIntX@v2@security@vanetza@@@std@@@std@@AEAAXV?$_List_unchecked_const_iterator@V?$_List_val@U?$_List_simple_types@VIntX@v2@security@vanetza@@@std@@@std@@U_Iterator_base0@2@@1@0@Z
	??$_Convert_size@_K@std@@YA_K_K@Z
	??$_Copy_backward_memmove@PEAEPEAE@std@@YAPEAEPEAE00@Z
	??$_Copy_memmove@PEAEPEAE@std@@YAPEAEPEAE00@Z
	??$_Copy_unchecked@PEAEPEAE@std@@YAPEAEPEAE00@Z
	??$_Deallocate@$07$0A@@std@@YAXPEAX_K@Z
	??$_Deallocate@$0BA@$0A@@std@@YAXPEAX_K@Z
	??$_Deallocate_plain@V?$allocator@U_Container_proxy@std@@@std@@@std@@YAXAEAV?$allocator@U_Container_proxy@std@@@0@QEAU_Container_proxy@0@@Z
	??$_Debug_lt_pred@AEAU?$less@X@std@@AEBVChannelLoad@dcc@vanetza@@AEBV345@$0A@@std@@YA_NAEAU?$less@X@0@AEBVChannelLoad@dcc@vanetza@@1@Z
	??$_Debug_lt_pred@AEBU?$less@Vtype_index@std@@@std@@AEBVtype_index@2@AEBV32@$0A@@std@@YA_NAEBU?$less@Vtype_index@std@@@0@AEBVtype_index@0@1@Z
	??$_Debug_lt_pred@AEBU?$less@W4UpperProtocol@geonet@vanetza@@@std@@AEBW4UpperProtocol@geonet@vanetza@@AEBW4345@$0A@@std@@YA_NAEBU?$less@W4UpperProtocol@geonet@vanetza@@@0@AEBW4UpperProtocol@geonet@vanetza@@1@Z
	??$_Delete_plain_internal@V?$allocator@U_Container_proxy@std@@@std@@@std@@YAXAEAV?$allocator@U_Container_proxy@std@@@0@QEAU_Container_proxy@0@@Z
	??$_Destroy_in_place@PEAD@std@@YAXAEAPEAD@Z
	??$_Destroy_in_place@PEAU?$_List_node@U?$pair@$$CBV?$tuple@VAddress@geonet@vanetza@@VSequenceNumber@23@@std@@UValueWithHandle@?$SoftStateMap@V?$tuple@VAddress@geonet@vanetza@@VSequenceNumber@23@@std@@_KU?$SoftStateDefaultCreator@_K@geonet@vanetza@@@geonet@vanetza@@@std@@PEAX@std@@@std@@YAXAEAPEAU?$_List_node@U?$pair@$$CBV?$tuple@VAddress@geonet@vanetza@@VSequenceNumber@23@@std@@UValueWithHandle@?$SoftStateMap@V?$tuple@VAddress@geonet@vanetza@@VSequenceNumber@23@@std@@_KU?$SoftStateDefaultCreator@_K@geonet@vanetza@@@geonet@vanetza@@@std@@PEAX@0@@Z
	??$_Destroy_in_place@PEAU?$_List_node@U?$pair@$$CBV?$tuple@VAddress@geonet@vanetza@@VSequenceNumber@23@@std@@_K@std@@PEAX@std@@@std@@YAXAEAPEAU?$_List_node@U?$pair@$$CBV?$tuple@VAddress@geonet@vanetza@@VSequenceNumber@23@@std@@_K@std@@PEAX@0@@Z
	??$_Destroy_in_place@PEAU?$_List_node@U?$pair@$$CBVMacAddress@vanetza@@UValueWithHandle@?$SoftStateMap@VMacAddress@vanetza@@VLocationTableEntry@geonet@2@VLocationTableEntryCreator@42@@geonet@2@@std@@PEAX@std@@@std@@YAXAEAPEAU?$_List_node@U?$pair@$$CBVMacAddress@vanetza@@UValueWithHandle@?$SoftStateMap@VMacAddress@vanetza@@VLocationTableEntry@geonet@2@VLocationTableEntryCreator@42@@geonet@2@@std@@PEAX@0@@Z
	??$_Destroy_in_place@PEAU?$_List_node@UCertificate@v2@security@vanetza@@PEAX@std@@@std@@YAXAEAPEAU?$_List_node@UCertificate@v2@security@vanetza@@PEAX@0@@Z
	??$_Destroy_in_place@PEAU?$_List_node@UItsAidSsp@v2@security@vanetza@@PEAX@std@@@std@@YAXAEAPEAU?$_List_node@UItsAidSsp@v2@security@vanetza@@PEAX@0@@Z
	??$_Destroy_in_place@PEAU?$_List_node@URecipientInfo@v2@security@vanetza@@PEAX@std@@@std@@YAXAEAPEAU?$_List_node@URecipientInfo@v2@security@vanetza@@PEAX@0@@Z
