EXPORTS 
	?bssid_wildcard@dot11@ieee802@access@vanetza@@3VMacAddress@4@B 	 DATA
	??$?0$00@?$EndianType@G$0A@@vanetza@@QEAA@AEBV?$EndianType@G$00@1@@Z
	??$?4$00@?$EndianType@G$0A@@vanetza@@QEAAAEAV01@AEBV?$EndianType@G$00@1@@Z
	??$?5E@InputArchive@vanetza@@QEAAAEAV01@AEAE@Z
	??$?5G@InputArchive@vanetza@@QEAAAEAV01@AEAG@Z
	??$?6E@OutputArchive@vanetza@@QEAAAEAV01@AEBE@Z
	??$?6G@OutputArchive@vanetza@@QEAAAEAV01@AEBG@Z
	??$?6U?$char_traits@D@std@@@std@@YAAEAV?$basic_ostream@DU?$char_traits@D@std@@@0@AEAV10@PEBD@Z
	??$?8E$02@std@@YA_NAEBV?$array@E$02@0@0@Z
	??$?RAEBEAEBE@?$equal_to@X@std@@QEBA_NAEBE0@Z
	??$_Adl_verify_range@PEBEPEBE@std@@YAXAEBQEBE0@Z
	??$_Get_unwrapped@AEBQEBE@std@@YA?A_TAEBQEBE@Z
	??$_Get_unwrapped_n@AEBQEBE_J@std@@YA?A_TAEBQEBE_J@Z
	??$_Idl_distance@PEBEPEBE@std@@YA?A_PAEBQEBE0@Z
	??$_Memcmp_ranges@PEBEPEBE@std@@YAHPEBE00@Z
	??$_To_address@PEBE@std@@YA?A_PAEBQEBE@Z
	??$_Verify_range@E@std@@YAXQEBE0@Z
	??$big_to_native@E@endian@boost@@YAEE@Z
	??$conditional_reverse@$00$0A@E@endian@boost@@YAEE@Z
	??$conditional_reverse@$0A@$00E@endian@boost@@YAEE@Z
	??$conditional_reverse_impl@E@detail@endian@boost@@YAEEU?$integral_constant@_N$0A@@2@@Z
	??$convert_endian@G$00$0A@@detail@vanetza@@YAGAEBG@Z
	??$deserialize@E@vanetza@@YAXAEAVInputArchive@0@AEAE@Z
	??$deserialize@G$0A@@vanetza@@YAXAEAVInputArchive@0@AEAV?$EndianType@G$0A@@0@@Z
	??$endian_cast@$00G@vanetza@@YA?AV?$EndianType@G$00@0@G@Z
	??$endian_cast@$0A@G@vanetza@@YA?AV?$EndianType@G$0A@@0@G@Z
	??$endian_reverse@E@endian@boost@@YAEE@Z
	??$endian_reverse@G@endian@boost@@YAGG@Z
	??$equal@PEBEPEBE@std@@YA_NQEBE00@Z
	??$equal@PEBEPEBEU?$equal_to@X@std@@@std@@YA_NQEBE00U?$equal_to@X@0@@Z
	??$host_cast@G@vanetza@@YA?AV?$EndianType@G$00@0@G@Z
	??$hton@E@vanetza@@YAEE@Z
	??$native_to_big@E@endian@boost@@YAEE@Z
	??$network_cast@G@vanetza@@YA?AV?$EndianType@G$0A@@0@G@Z
	??$ntoh@E@vanetza@@YAEE@Z
	??$serialize@E@vanetza@@YAXAEAVOutputArchive@0@E@Z
	??$serialize@G$0A@@vanetza@@YAXAEAVOutputArchive@0@V?$EndianType@G$0A@@0@@Z
	??0?$BitNumber@G$03@vanetza@@QEAA@G@Z
	??0?$EndianType@G$00@vanetza@@QEAA@G@Z
	??0?$EndianType@G$0A@@vanetza@@QEAA@G@Z
	??0?$initializer_list@E@std@@QEAA@PEBE0@Z
	??0FrameControl@dot11@ieee802@access@vanetza@@QEAA@XZ
	??0G5LinkLayer@access@vanetza@@QEAA@XZ
	??0LlcSnapHeader@ieee802@access@vanetza@@QEAA@V?$EndianType@G$0A@@3@@Z
	??0QosControl@dot11@ieee802@access@vanetza@@QEAA@XZ
	??0QosDataHeader@dot11@ieee802@access@vanetza@@QEAA@XZ
	??0SequenceControl@dot11@ieee802@access@vanetza@@QEAA@XZ
	??0_Sentry_base@?$basic_ostream@DU?$char_traits@D@std@@@std@@QEAA@AEAV12@@Z
	??0in_place_init_if_t@optional_ns@boost@@QEAA@Uinit_tag@012@@Z
	??0in_place_init_t@optional_ns@boost@@QEAA@Uinit_tag@012@@Z
	??0sentry@?$basic_ostream@DU?$char_traits@D@std@@@std@@QEAA@AEAV12@@Z
	??1_Sentry_base@?$basic_ostream@DU?$char_traits@D@std@@@std@@QEAA@XZ
	??1sentry@?$basic_ostream@DU?$char_traits@D@std@@@std@@QEAA@XZ
	??6access@vanetza@@YAAEAV?$basic_ostream@DU?$char_traits@D@std@@@std@@AEAV23@W4AccessCategory@01@@Z
	??8?$BitNumber@G$03@vanetza@@QEBA_NV01@@Z
	??8?$EndianType@G$0A@@vanetza@@QEBA_NAEBV01@@Z
	??8ieee802@access@vanetza@@YA_NAEBULlcSnapHeader@012@0@Z
	??9ieee802@access@vanetza@@YA_NAEBULlcSnapHeader@012@0@Z
	??Bsentry@?$basic_ostream@DU?$char_traits@D@std@@@std@@QEBA_NXZ
	??R?$EndianConverter@G$00$0A@@detail@vanetza@@QEBAGAEBG@Z
	?_Unchecked_begin@?$array@E$02@std@@QEAAPEAEXZ
	?_Unchecked_begin@?$array@E$02@std@@QEBAPEBEXZ
	?_Unchecked_end@?$array@E$02@std@@QEAAPEAEXZ
	?_Unchecked_end@?$array@E$02@std@@QEBAPEBEXZ
	?__empty_global_delete@@YAXPEAX@Z
	?__empty_global_delete@@YAXPEAXW4align_val_t@std@@@Z
	?__empty_global_delete@@YAXPEAX_K@Z
	?__empty_global_delete@@YAXPEAX_KW4align_val_t@std@@@Z
	?check_fixed_fields@access@vanetza@@YA_NAEBUG5LinkLayer@12@@Z
	?data_length@DataRateG5@access@vanetza@@QEBA_K_K@Z
	?deserialize@access@vanetza@@YAXAEAVInputArchive@2@AEAUG5LinkLayer@12@@Z
	?deserialize@dot11@ieee802@access@vanetza@@YAXAEAVInputArchive@4@AEAUQosDataHeader@1234@@Z
	?deserialize@ieee802@access@vanetza@@YAXAEAVInputArchive@3@AEAULlcSnapHeader@123@@Z
	?endian_reverse_impl@detail@endian@boost@@YAEE@Z
	?endian_reverse_impl@detail@endian@boost@@YAGG@Z
	?eof@?$_Narrow_char_traits@DH@std@@SAHXZ
	?eq_int_type@?$_Narrow_char_traits@DH@std@@SA_NAEBH0@Z
	?fragment_number@SequenceControl@dot11@ieee802@access@vanetza@@QEBA?AV?$BitNumber@G$03@5@XZ
	?get@?$EndianType@G$0A@@vanetza@@QEBAGXZ
	?length@?$_Narrow_char_traits@DH@std@@SA_KQEBD@Z
	?qos_data_frame@FrameControl@dot11@ieee802@access@vanetza@@SA?AU12345@XZ
	?serialize@access@vanetza@@YAXAEAVOutputArchive@2@AEBUG5LinkLayer@12@@Z
	?serialize@dot11@ieee802@access@vanetza@@YAXAEAVOutputArchive@4@AEBUQosDataHeader@1234@@Z
	?serialize@ieee802@access@vanetza@@YAXAEAVOutputArchive@3@AEBULlcSnapHeader@123@@Z
	?user_priority@QosControl@dot11@ieee802@access@vanetza@@QEAAXW4AccessCategory@45@@Z
