EXPORTS 
	?$TSS0@?6???$month_str_to_ushort@Vgreg_month@gregorian@boost@@@date_time@boost@@YAGAEBV?$basic_string@DU?$char_traits@D@std@@V?$allocator@D@2@@std@@@Z@4HA 	 DATA
	??_R0?AU?$byte_buffer_impl@$$T@convertible@vanetza@@@8 	 DATA
	??_R0?AU?$byte_buffer_impl@V?$basic_string@DU?$char_traits@D@std@@V?$allocator@D@2@@std@@@convertible@vanetza@@@8 	 DATA
	??_R0?AU?$byte_buffer_impl@V?$vector@EV?$allocator@E@std@@@std@@@convertible@vanetza@@@8 	 DATA
	??_R0?AU?$wrapexcept@Ubad_day_of_month@gregorian@boost@@@boost@@@8 	 DATA
	??_R0?AU?$wrapexcept@Ubad_month@gregorian@boost@@@boost@@@8 	 DATA
	??_R0?AU?$wrapexcept@Ubad_year@gregorian@boost@@@boost@@@8 	 DATA
	??_R0?AU?$wrapexcept@Vbad_lexical_cast@boost@@@boost@@@8 	 DATA
	??_R0?AU_Crt_new_delete@std@@@8 	 DATA
	??_R0?AUbad_day_of_month@gregorian@boost@@@8 	 DATA
	??_R0?AUbad_month@gregorian@boost@@@8 	 DATA
	??_R0?AUbad_year@gregorian@boost@@@8 	 DATA
	??_R0?AUbyte_buffer@convertible@vanetza@@@8 	 DATA
	??_R0?AV?$_Func_base@E$$V@std@@@8 	 DATA
	??_R0?AV?$basic_string@DU?$char_traits@D@std@@V?$allocator@D@2@@std@@@8 	 DATA
	??_R0?AV?$numpunct@D@std@@@8 	 DATA
	??_R0?AVException@InputArchive@vanetza@@@8 	 DATA
	??_R0?AVException@OutputArchive@vanetza@@@8 	 DATA
	??_R0?AVManualRuntime@vanetza@@@8 	 DATA
	??_R0?AVRuntime@vanetza@@@8 	 DATA
	??_R0?AV_Facet_base@std@@@8 	 DATA
	??_R0?AVbad_alloc@std@@@8 	 DATA
	??_R0?AVbad_array_new_length@std@@@8 	 DATA
	??_R0?AVbad_cast@std@@@8 	 DATA
	??_R0?AVbad_lexical_cast@boost@@@8 	 DATA
	??_R0?AVclone_base@exception_detail@boost@@@8 	 DATA
	??_R0?AVexception@boost@@@8 	 DATA
	??_R0?AVexception@std@@@8 	 DATA
	??_R0?AVfacet@locale@std@@@8 	 DATA
	??_R0?AVlogic_error@std@@@8 	 DATA
	??_R0?AVout_of_range@std@@@8 	 DATA
	??_R0?AVruntime_error@std@@@8 	 DATA
	??_R0G@8 	 DATA
	??_R0H@8 	 DATA
	??_R0_J@8 	 DATA
	?_Psave@?$_Facetptr@V?$ctype@D@std@@@std@@2PEBVfacet@locale@2@EB 	 DATA
	?_Psave@?$_Facetptr@V?$numpunct@D@std@@@std@@2PEBVfacet@locale@2@EB 	 DATA
	?month_map@?6???$month_str_to_ushort@Vgreg_month@gregorian@boost@@@date_time@boost@@YAGAEBV?$basic_string@DU?$char_traits@D@std@@V?$allocator@D@2@@std@@@Z@4V?$map@V?$basic_string@DU?$char_traits@D@std@@V?$allocator@D@2@@std@@GU?$less@V?$basic_string@DU?$char_traits@D@std@@V?$allocator@D@2@@std@@@2@V?$allocator@U?$pair@$$CBV?$basic_string@DU?$char_traits@D@std@@V?$allocator@D@2@@std@@G@std@@@2@@4@A 	 DATA
	??$?8U?$hashed_index_node@U?$index_node_base@UScheduledCallback@ManualRuntime@vanetza@@V?$allocator@UScheduledCallback@ManualRuntime@vanetza@@@std@@@detail@multi_index@boost@@@detail@multi_index@boost@@V?$bucket_array@V?$allocator@UScheduledCallback@ManualRuntime@vanetza@@@std@@@123@Uhashed_non_unique_tag@123@Uhashed_index_global_iterator_tag@123@@detail@multi_index@boost@@YA_NAEBV?$hashed_index_iterator@U?$hashed_index_node@U?$index_node_base@UScheduledCallback@ManualRuntime@vanetza@@V?$allocator@UScheduledCallback@ManualRuntime@vanetza@@@std@@@detail@multi_index@boost@@@detail@multi_index@boost@@V?$bucket_array@V?$allocator@UScheduledCallback@ManualRuntime@vanetza@@@std@@@234@Uhashed_non_unique_tag@234@Uhashed_index_global_iterator_tag@234@@012@0@Z
	??$?8U?$ordered_index_node@Unull_augment_policy@detail@multi_index@boost@@U?$hashed_index_node@U?$index_node_base@UScheduledCallback@ManualRuntime@vanetza@@V?$allocator@UScheduledCallback@ManualRuntime@vanetza@@@std@@@detail@multi_index@boost@@@234@@detail@multi_index@boost@@@detail@multi_index@boost@@YA_NAEBV?$bidir_node_iterator@U?$ordered_index_node@Unull_augment_policy@detail@multi_index@boost@@U?$hashed_index_node@U?$index_node_base@UScheduledCallback@ManualRuntime@vanetza@@V?$allocator@UScheduledCallback@ManualRuntime@vanetza@@@std@@@detail@multi_index@boost@@@234@@detail@multi_index@boost@@@012@0@Z
	??$?MDU?$char_traits@D@std@@V?$allocator@D@1@@std@@YA_NAEBV?$basic_string@DU?$char_traits@D@std@@V?$allocator@D@2@@0@0@Z
	??$?RV?$_String_const_iterator@V?$_String_val@U?$_Simple_types@D@std@@@std@@@std@@V?$basic_string@DU?$char_traits@D@std@@V?$allocator@D@2@@1@@?$char_separator@DU?$char_traits@D@std@@@boost@@QEAA_NAEAV?$_String_const_iterator@V?$_String_val@U?$_Simple_types@D@std@@@std@@@std@@V23@AEAV?$basic_string@DU?$char_traits@D@std@@V?$allocator@D@2@@3@@Z
	??$_Allocate_manually_vector_aligned@U_Default_allocate_traits@std@@@std@@YAPEAX_K@Z
	??$_Assign_range@PEAE@?$vector@EV?$allocator@E@std@@@std@@AEAAXPEAE0Uforward_iterator_tag@1@@Z
	??$_Construct@$00PEBD@?$basic_string@DU?$char_traits@D@std@@V?$allocator@D@2@@std@@AEAAXQEBD_K@Z
	??$_Copy_memmove@PEAEPEAE@std@@YAPEAEPEAE00@Z
	??$_Copy_memmove@PEBEPEAD@std@@YAPEADPEBE0PEAD@Z
	??$_Emplace_reallocate@E@?$vector@EV?$allocator@E@std@@@std@@AEAAPEAEQEAE$$QEAE@Z
	??$_Erase_tree@V?$allocator@U?$_Tree_node@U?$pair@$$CBV?$basic_string@DU?$char_traits@D@std@@V?$allocator@D@2@@std@@G@std@@PEAX@std@@@std@@@?$_Tree_val@U?$_Tree_simple_types@U?$pair@$$CBV?$basic_string@DU?$char_traits@D@std@@V?$allocator@D@2@@std@@G@std@@@std@@@std@@QEAAXAEAV?$allocator@U?$_Tree_node@U?$pair@$$CBV?$basic_string@DU?$char_traits@D@std@@V?$allocator@D@2@@std@@G@std@@PEAX@std@@@1@PEAU?$_Tree_node@U?$pair@$$CBV?$basic_string@DU?$char_traits@D@std@@V?$allocator@D@2@@std@@G@std@@PEAX@1@@Z
	??$_Find_hint@V?$basic_string@DU?$char_traits@D@std@@V?$allocator@D@2@@std@@@?$_Tree@V?$_Tmap_traits@V?$basic_string@DU?$char_traits@D@std@@V?$allocator@D@2@@std@@GU?$less@V?$basic_string@DU?$char_traits@D@std@@V?$allocator@D@2@@std@@@2@V?$allocator@U?$pair@$$CBV?$basic_string@DU?$char_traits@D@std@@V?$allocator@D@2@@std@@G@std@@@2@$0A@@std@@@std@@IEBA?AU?$_Tree_find_hint_result@PEAU?$_Tree_node@U?$pair@$$CBV?$basic_string@DU?$char_traits@D@std@@V?$allocator@D@2@@std@@G@std@@PEAX@std@@@1@QEAU?$_Tree_node@U?$pair@$$CBV?$basic_string@DU?$char_traits@D@std@@V?$allocator@D@2@@std@@G@std@@PEAX@1@AEBV?$basic_string@DU?$char_traits@D@std@@V?$allocator@D@2@@1@@Z
	??$_Getvals@_W@?$time_get@DV?$istreambuf_iterator@DU?$char_traits@D@std@@@std@@@std@@IEAAX_WAEBV_Locinfo@1@@Z
	??$_Getvals@_W@?$time_get@_WV?$istreambuf_iterator@_WU?$char_traits@_W@std@@@std@@@std@@IEAAX_WAEBV_Locinfo@1@@Z
	??$_Maklocchr@D@std@@YADDPEADAEBU_Cvtvec@@@Z
	??$_Maklocstr@D@std@@YAPEADPEBDPEADAEBU_Cvtvec@@@Z
	??$_Zero_range@PEAE@std@@YAPEAEQEAE0@Z
	??$adl_swap@U?$equal_to@PEBX@std@@@detail@multi_index@boost@@YAXAEAU?$equal_to@PEBX@std@@0@Z
	??$adl_swap@U?$hash@PEBX@boost@@@detail@multi_index@boost@@YAXAEAU?$hash@PEBX@2@0@Z
	??$adl_swap@U?$less@V?$time_point@VClock@vanetza@@V?$duration@_JU?$ratio@$00$0PECEA@@std@@@chrono@std@@@chrono@std@@@std@@@detail@multi_index@boost@@YAXAEAU?$less@V?$time_point@VClock@vanetza@@V?$duration@_JU?$ratio@$00$0PECEA@@std@@@chrono@std@@@chrono@std@@@std@@0@Z
	??$adl_swap@U?$member@UScheduledCallback@ManualRuntime@vanetza@@PEBX$0EI@@multi_index@boost@@@detail@multi_index@boost@@YAXAEAU?$member@UScheduledCallback@ManualRuntime@vanetza@@PEBX$0EI@@12@0@Z
	??$adl_swap@U?$member@UScheduledCallback@ManualRuntime@vanetza@@V?$time_point@VClock@vanetza@@V?$duration@_JU?$ratio@$00$0PECEA@@std@@@chrono@std@@@chrono@std@@$0A@@multi_index@boost@@@detail@multi_index@boost@@YAXAEAU?$member@UScheduledCallback@ManualRuntime@vanetza@@V?$time_point@VClock@vanetza@@V?$duration@_JU?$ratio@$00$0PECEA@@std@@@chrono@std@@@chrono@std@@$0A@@12@0@Z
	??$emplace_@UScheduledCallback@ManualRuntime@vanetza@@@?$multi_index_container@UScheduledCallback@ManualRuntime@vanetza@@U?$indexed_by@U?$ordered_non_unique@U?$tag@Uby_deadline@ManualRuntime@vanetza@@Una@mpl@boost@@U456@U456@U456@U456@U456@U456@U456@U456@U456@U456@U456@U456@U456@U456@U456@U456@U456@U456@@multi_index@boost@@U?$member@UScheduledCallback@ManualRuntime@vanetza@@V?$time_point@VClock@vanetza@@V?$duration@_JU?$ratio@$00$0PECEA@@std@@@chrono@std@@@chrono@std@@$0A@@23@Una@mpl@3@@multi_index@boost@@U?$hashed_non_unique@U?$tag@Uby_scope@ManualRuntime@vanetza@@Una@mpl@boost@@U456@U456@U456@U456@U456@U456@U456@U456@U456@U456@U456@U456@U456@U456@U456@U456@U456@U456@@multi_index@boost@@U?$member@UScheduledCallback@ManualRuntime@vanetza@@PEBX$0EI@@23@Una@mpl@3@U563@@23@Una@mpl@3@U563@U563@U563@U563@U563@U563@U563@U563@U563@U563@U563@U563@U563@U563@U563@U563@U563@@multi_index@boost@@V?$allocator@UScheduledCallback@ManualRuntime@vanetza@@@std@@@multi_index@boost@@IEAA?AU?$pair@PEAU?$ordered_index_node@Unull_augment_policy@detail@multi_index@boost@@U?$hashed_index_node@U?$index_node_base@UScheduledCallback@ManualRuntime@vanetza@@V?$allocator@UScheduledCallback@ManualRuntime@vanetza@@@std@@@detail@multi_index@boost@@@234@@detail@multi_index@boost@@_N@std@@$$QEAUScheduledCallback@ManualRuntime@vanetza@@@Z
	??$hash_value@$$CBX@boost@@YA_KAEBQEBX@Z
	??$insert_@Uemplaced_tag@detail@multi_index@boost@@@?$hashed_index@U?$member@UScheduledCallback@ManualRuntime@vanetza@@PEBX$0EI@@multi_index@boost@@U?$hash@PEBX@3@U?$equal_to@PEBX@std@@U?$nth_layer@$01UScheduledCallback@ManualRuntime@vanetza@@U?$indexed_by@U?$ordered_non_unique@U?$tag@Uby_deadline@ManualRuntime@vanetza@@Una@mpl@boost@@U456@U456@U456@U456@U456@U456@U456@U456@U456@U456@U456@U456@U456@U456@U456@U456@U456@U456@@multi_index@boost@@U?$member@UScheduledCallback@ManualRuntime@vanetza@@V?$time_point@VClock@vanetza@@V?$duration@_JU?$ratio@$00$0PECEA@@std@@@chrono@std@@@chrono@std@@$0A@@23@Una@mpl@3@@multi_index@boost@@U?$hashed_non_unique@U?$tag@Uby_scope@ManualRuntime@vanetza@@Una@mpl@boost@@U456@U456@U456@U456@U456@U456@U456@U456@U456@U456@U456@U456@U456@U456@U456@U456@U456@U456@@multi_index@boost@@U?$member@UScheduledCallback@ManualRuntime@vanetza@@PEBX$0EI@@23@Una@mpl@3@U563@@23@Una@mpl@3@U563@U563@U563@U563@U563@U563@U563@U563@U563@U563@U563@U563@U563@U563@U563@U563@U563@@multi_index@boost@@V?$allocator@UScheduledCallback@ManualRuntime@vanetza@@@std@@@detail@23@U?$vector1@Uby_scope@ManualRuntime@vanetza@@@mpl@3@Uhashed_non_unique_tag@823@@detail@multi_index@boost@@IEAAPEAU?$ordered_index_node@Unull_augment_policy@detail@multi_index@boost@@U?$hashed_index_node@U?$index_node_base@UScheduledCallback@ManualRuntime@vanetza@@V?$allocator@UScheduledCallback@ManualRuntime@vanetza@@@std@@@detail@multi_index@boost@@@234@@123@AEBUScheduledCallback@ManualRuntime@vanetza@@AEAPEAU4123@Uemplaced_tag@123@@Z
	??$lexical_cast@GV?$basic_string@DU?$char_traits@D@std@@V?$allocator@D@2@@std@@@boost@@YAGAEBV?$basic_string@DU?$char_traits@D@std@@V?$allocator@D@2@@std@@@Z
	??$lexical_cast@HV?$basic_string@DU?$char_traits@D@std@@V?$allocator@D@2@@std@@@boost@@YAHAEBV?$basic_string@DU?$char_traits@D@std@@V?$allocator@D@2@@std@@@Z
	??$lexical_cast@_JV?$basic_string@DU?$char_traits@D@std@@V?$allocator@D@2@@std@@@boost@@YA_JAEBV?$basic_string@DU?$char_traits@D@std@@V?$allocator@D@2@@std@@@Z
	??$month_str_to_ushort@Vgreg_month@gregorian@boost@@@date_time@boost@@YAGAEBV?$basic_string@DU?$char_traits@D@std@@V?$allocator@D@2@@std@@@Z
	??$parse_date@Vdate@gregorian@boost@@@date_time@boost@@YA?AVdate@gregorian@1@AEBV?$basic_string@DU?$char_traits@D@std@@V?$allocator@D@2@@std@@H@Z
	??$parse_delimited_time@Vptime@posix_time@boost@@@date_time@boost@@YA?AVptime@posix_time@1@AEBV?$basic_string@DU?$char_traits@D@std@@V?$allocator@D@2@@std@@D@Z
	??$swap@UScheduledCallback@ManualRuntime@vanetza@@U?$indexed_by@U?$ordered_non_unique@U?$tag@Uby_deadline@ManualRuntime@vanetza@@Una@mpl@boost@@U456@U456@U456@U456@U456@U456@U456@U456@U456@U456@U456@U456@U456@U456@U456@U456@U456@U456@@multi_index@boost@@U?$member@UScheduledCallback@ManualRuntime@vanetza@@V?$time_point@VClock@vanetza@@V?$duration@_JU?$ratio@$00$0PECEA@@std@@@chrono@std@@@chrono@std@@$0A@@23@Una@mpl@3@@multi_index@boost@@U?$hashed_non_unique@U?$tag@Uby_scope@ManualRuntime@vanetza@@Una@mpl@boost@@U456@U456@U456@U456@U456@U456@U456@U456@U456@U456@U456@U456@U456@U456@U456@U456@U456@U456@@multi_index@boost@@U?$member@UScheduledCallback@ManualRuntime@vanetza@@PEBX$0EI@@23@Una@mpl@3@U563@@23@Una@mpl@3@U563@U563@U563@U563@U563@U563@U563@U563@U563@U563@U563@U563@U563@U563@U563@U563@U563@@multi_index@boost@@V?$allocator@UScheduledCallback@ManualRuntime@vanetza@@@std@@@multi_index@boost@@YAXAEAV?$multi_index_container@UScheduledCallback@ManualRuntime@vanetza@@U?$indexed_by@U?$ordered_non_unique@U?$tag@Uby_deadline@ManualRuntime@vanetza@@Una@mpl@boost@@U456@U456@U456@U456@U456@U456@U456@U456@U456@U456@U456@U456@U456@U456@U456@U456@U456@U456@@multi_index@boost@@U?$member@UScheduledCallback@ManualRuntime@vanetza@@V?$time_point@VClock@vanetza@@V?$duration@_JU?$ratio@$00$0PECEA@@std@@@chrono@std@@@chrono@std@@$0A@@23@Una@mpl@3@@multi_index@boost@@U?$hashed_non_unique@U?$tag@Uby_scope@ManualRuntime@vanetza@@Una@mpl@boost@@U456@U456@U456@U456@U456@U456@U456@U456@U456@U456@U456@U456@U456@U456@U456@U456@U456@U456@@multi_index@boost@@U?$member@UScheduledCallback@ManualRuntime@vanetza@@PEBX$0EI@@23@Una@mpl@3@U563@@23@Una@mpl@3@U563@U563@U563@U563@U563@U563@U563@U563@U563@U563@U563@U563@U563@U563@U563@U563@U563@@multi_index@boost@@V?$allocator@UScheduledCallback@ManualRuntime@vanetza@@@std@@@01@0@Z
	??$throw_bad_cast@V?$basic_string@DU?$char_traits@D@std@@V?$allocator@D@2@@std@@G@detail@conversion@boost@@YAXXZ
	??$throw_bad_cast@V?$basic_string@DU?$char_traits@D@std@@V?$allocator@D@2@@std@@H@detail@conversion@boost@@YAXXZ
	??$throw_bad_cast@V?$basic_string@DU?$char_traits@D@std@@V?$allocator@D@2@@std@@_J@detail@conversion@boost@@YAXXZ
	??$throw_exception@Ubad_day_of_month@gregorian@boost@@@boost@@YAXAEBUbad_day_of_month@gregorian@0@@Z
	??$throw_exception@Ubad_month@gregorian@boost@@@boost@@YAXAEBUbad_month@gregorian@0@@Z
	??$throw_exception@Ubad_year@gregorian@boost@@@boost@@YAXAEBUbad_year@gregorian@0@@Z
	??$throw_exception@Vbad_lexical_cast@boost@@@boost@@YAXAEBVbad_lexical_cast@0@@Z
	??$tolower@D@std@@YADDAEBVlocale@0@@Z
	??$unlink@Udefault_assigner@detail@multi_index@boost@@@?$hashed_index_node_alg@U?$hashed_index_node_impl@V?$allocator@D@std@@@detail@multi_index@boost@@Uhashed_non_unique_tag@234@@detail@multi_index@boost@@SAXPEAU?$hashed_index_node_impl@V?$allocator@D@std@@@123@AEAUdefault_assigner@123@@Z
	??$use_facet@V?$ctype@D@std@@@std@@YAAEBV?$ctype@D@0@AEBVlocale@0@@Z
	??$use_facet@V?$numpunct@D@std@@@std@@YAAEBV?$numpunct@D@0@AEBVlocale@0@@Z
	??0?$basic_string@DU?$char_traits@D@std@@V?$allocator@D@2@@std@@QEAA@AEBV01@@Z
	??0?$basic_string@DU?$char_traits@D@std@@V?$allocator@D@2@@std@@QEAA@QEBD@Z
	??0?$bucket_array@V?$allocator@UScheduledCallback@ManualRuntime@vanetza@@@std@@@detail@multi_index@boost@@QEAA@AEBV?$allocator@UScheduledCallback@ManualRuntime@vanetza@@@std@@PEAU?$hashed_index_node_impl@V?$allocator@D@std@@@123@_K@Z
	??0?$byte_buffer_impl@V?$basic_string@DU?$char_traits@D@std@@V?$allocator@D@2@@std@@@convertible@vanetza@@QEAA@$$QEAV?$basic_string@DU?$char_traits@D@std@@V?$allocator@D@2@@std@@@Z
	??0?$byte_buffer_impl@V?$basic_string@DU?$char_traits@D@std@@V?$allocator@D@2@@std@@@convertible@vanetza@@QEAA@AEBV?$basic_string@DU?$char_traits@D@std@@V?$allocator@D@2@@std@@@Z
	??0?$counted_time_rep@Vmillisec_posix_time_system_config@posix_time@boost@@@date_time@boost@@QEAA@AEBVdate@gregorian@2@AEBVtime_duration@posix_time@2@@Z
	??0?$multi_index_container@UScheduledCallback@ManualRuntime@vanetza@@U?$indexed_by@U?$ordered_non_unique@U?$tag@Uby_deadline@ManualRuntime@vanetza@@Una@mpl@boost@@U456@U456@U456@U456@U456@U456@U456@U456@U456@U456@U456@U456@U456@U456@U456@U456@U456@U456@@multi_index@boost@@U?$member@UScheduledCallback@ManualRuntime@vanetza@@V?$time_point@VClock@vanetza@@V?$duration@_JU?$ratio@$00$0PECEA@@std@@@chrono@std@@@chrono@std@@$0A@@23@Una@mpl@3@@multi_index@boost@@U?$hashed_non_unique@U?$tag@Uby_scope@ManualRuntime@vanetza@@Una@mpl@boost@@U456@U456@U456@U456@U456@U456@U456@U456@U456@U456@U456@U456@U456@U456@U456@U456@U456@U456@@multi_index@boost@@U?$member@UScheduledCallback@ManualRuntime@vanetza@@PEBX$0EI@@23@Una@mpl@3@U563@@23@Una@mpl@3@U563@U563@U563@U563@U563@U563@U563@U563@U563@U563@U563@U563@U563@U563@U563@U563@U563@@multi_index@boost@@V?$allocator@UScheduledCallback@ManualRuntime@vanetza@@@std@@@multi_index@boost@@QEAA@XZ
	??0?$numpunct@D@std@@QEAA@AEBV_Locinfo@1@_K_N@Z
	??0?$token_iterator@V?$char_separator@DU?$char_traits@D@std@@@boost@@V?$_String_const_iterator@V?$_String_val@U?$_Simple_types@D@std@@@std@@@std@@V?$basic_string@DU?$char_traits@D@std@@V?$allocator@D@2@@4@@boost@@QEAA@V?$char_separator@DU?$char_traits@D@std@@@1@V?$_String_const_iterator@V?$_String_val@U?$_Simple_types@D@std@@@std@@@std@@1@Z
	??0?$wrapexcept@Ubad_day_of_month@gregorian@boost@@@boost@@QEAA@AEBU01@@Z
	??0?$wrapexcept@Ubad_day_of_month@gregorian@boost@@@boost@@QEAA@AEBUbad_day_of_month@gregorian@1@@Z
	??0?$wrapexcept@Ubad_month@gregorian@boost@@@boost@@QEAA@AEBU01@@Z
	??0?$wrapexcept@Ubad_month@gregorian@boost@@@boost@@QEAA@AEBUbad_month@gregorian@1@@Z
	??0?$wrapexcept@Ubad_year@gregorian@boost@@@boost@@QEAA@AEBU01@@Z
	??0?$wrapexcept@Ubad_year@gregorian@boost@@@boost@@QEAA@AEBUbad_year@gregorian@1@@Z
	??0?$wrapexcept@Vbad_lexical_cast@boost@@@boost@@QEAA@AEBU01@@Z
	??0?$wrapexcept@Vbad_lexical_cast@boost@@@boost@@QEAA@AEBVbad_lexical_cast@1@@Z
	??0ByteBufferConvertible@vanetza@@QEAA@AEBV01@@Z
	??0Exception@InputArchive@vanetza@@QEAA@AEBV012@@Z
	??0Exception@InputArchive@vanetza@@QEAA@PEBD@Z
	??0Exception@OutputArchive@vanetza@@QEAA@AEBV012@@Z
	??0Exception@OutputArchive@vanetza@@QEAA@PEBD@Z
	??0InputArchive@vanetza@@QEAA@AEAV?$basic_istream@DU?$char_traits@D@std@@@std@@@Z
	??0InputArchive@vanetza@@QEAA@AEAV?$basic_streambuf@DU?$char_traits@D@std@@@std@@@Z
	??0ManualRuntime@vanetza@@QEAA@V?$time_point@VClock@vanetza@@V?$duration@_JU?$ratio@$00$0PECEA@@std@@@chrono@std@@@chrono@std@@@Z
	??0OutputArchive@vanetza@@QEAA@AEAV?$basic_ostream@DU?$char_traits@D@std@@@std@@@Z
	??0OutputArchive@vanetza@@QEAA@AEAV?$basic_streambuf@DU?$char_traits@D@std@@@std@@@Z
	??0bad_alloc@std@@QEAA@AEBV01@@Z
	??0bad_array_new_length@std@@QEAA@AEBV01@@Z
	??0bad_array_new_length@std@@QEAA@XZ
	??0bad_cast@std@@QEAA@AEBV01@@Z
	??0bad_cast@std@@QEAA@XZ
	??0bad_day_of_month@gregorian@boost@@QEAA@AEBU012@@Z
	??0bad_day_of_month@gregorian@boost@@QEAA@AEBV?$basic_string@DU?$char_traits@D@std@@V?$allocator@D@2@@std@@@Z
	??0bad_day_of_month@gregorian@boost@@QEAA@XZ
	??0bad_lexical_cast@boost@@QEAA@AEBV01@@Z
	??0bad_lexical_cast@boost@@QEAA@AEBVtype_info@@0@Z
	??0bad_month@gregorian@boost@@QEAA@AEBU012@@Z
	??0bad_month@gregorian@boost@@QEAA@XZ
	??0bad_year@gregorian@boost@@QEAA@AEBU012@@Z
	??0bad_year@gregorian@boost@@QEAA@XZ
	??0byte_buffer_sink@vanetza@@QEAA@AEAV?$vector@EV?$allocator@E@std@@@std@@@Z
	??0byte_buffer_source@vanetza@@QEAA@AEBV?$vector@EV?$allocator@E@std@@@std@@@Z
	??0byte_buffer_source@vanetza@@QEAA@V?$_Vector_const_iterator@V?$_Vector_val@U?$_Simple_types@E@std@@@std@@@std@@0@Z
	??0byte_buffer_source@vanetza@@QEAA@V?$iterator_range@V?$_Vector_const_iterator@V?$_Vector_val@U?$_Simple_types@E@std@@@std@@@std@@@boost@@@Z
	??0byte_view_range@vanetza@@QEAA@$$QEAV?$vector@EV?$allocator@E@std@@@std@@@Z
	??0byte_view_range@vanetza@@QEAA@AEBV?$_Vector_const_iterator@V?$_Vector_val@U?$_Simple_types@E@std@@@std@@@std@@0@Z
	??0byte_view_range@vanetza@@QEAA@AEBVbyte_view_iterator@1@0@Z
	??0clone_base@exception_detail@boost@@QEAA@AEBV012@@Z
	??0date@gregorian@boost@@QEAA@Vgreg_year@12@Vgreg_month@12@Vgreg_day@12@@Z
	??0exception@boost@@QEAA@AEBV01@@Z
	??0exception@std@@QEAA@AEBV01@@Z
	??0logic_error@std@@QEAA@AEBV01@@Z
	??0out_of_range@std@@QEAA@AEBV01@@Z
	??0runtime_error@std@@QEAA@AEBV01@@Z
	??0time_duration@posix_time@boost@@QEAA@W4special_values@date_time@2@@Z
	??1?$_Alloc_construct_ptr@V?$allocator@U?$_Tree_node@U?$pair@$$CBV?$basic_string@DU?$char_traits@D@std@@V?$allocator@D@2@@std@@G@std@@PEAX@std@@@std@@@std@@QEAA@XZ
	??1?$_Func_class@E$$V@std@@QEAA@XZ
	??1?$_Func_class@XV?$time_point@VClock@vanetza@@V?$duration@_JU?$ratio@$00$0PECEA@@std@@@chrono@std@@@chrono@std@@@std@@QEAA@XZ
	??1?$_Tidy_guard@V?$numpunct@D@std@@@std@@QEAA@XZ
	??1?$_Tree@V?$_Tmap_traits@V?$basic_string@DU?$char_traits@D@std@@V?$allocator@D@2@@std@@GU?$less@V?$basic_string@DU?$char_traits@D@std@@V?$allocator@D@2@@std@@@2@V?$allocator@U?$pair@$$CBV?$basic_string@DU?$char_traits@D@std@@V?$allocator@D@2@@std@@G@std@@@2@$0A@@std@@@std@@QEAA@XZ
	??1?$_Tree_temp_node_alloc@V?$allocator@U?$_Tree_node@U?$pair@$$CBV?$basic_string@DU?$char_traits@D@std@@V?$allocator@D@2@@std@@G@std@@PEAX@std@@@std@@@std@@QEAA@XZ
	??1?$auto_space@PEAU?$hashed_index_node_impl@V?$allocator@D@std@@@detail@multi_index@boost@@V?$allocator@UScheduledCallback@ManualRuntime@vanetza@@@std@@@detail@multi_index@boost@@QEAA@XZ
	??1?$auto_space@_KV?$allocator@UScheduledCallback@ManualRuntime@vanetza@@@std@@@detail@multi_index@boost@@QEAA@XZ
	??1?$basic_string@DU?$char_traits@D@std@@V?$allocator@D@2@@std@@QEAA@XZ
	??1?$bucket_array@V?$allocator@UScheduledCallback@ManualRuntime@vanetza@@@std@@@detail@multi_index@boost@@QEAA@XZ
	??1?$char_separator@DU?$char_traits@D@std@@@boost@@QEAA@XZ
	??1?$function@$$A6AEXZ@std@@QEAA@XZ
	??1?$function@$$A6AXV?$time_point@VClock@vanetza@@V?$duration@_JU?$ratio@$00$0PECEA@@std@@@chrono@std@@@chrono@std@@@Z@std@@QEAA@XZ
	??1?$header_holder@PEAU?$ordered_index_node@Unull_augment_policy@detail@multi_index@boost@@U?$hashed_index_node@U?$index_node_base@UScheduledCallback@ManualRuntime@vanetza@@V?$allocator@UScheduledCallback@ManualRuntime@vanetza@@@std@@@detail@multi_index@boost@@@234@@detail@multi_index@boost@@V?$multi_index_container@UScheduledCallback@ManualRuntime@vanetza@@U?$indexed_by@U?$ordered_non_unique@U?$tag@Uby_deadline@ManualRuntime@vanetza@@Una@mpl@boost@@U456@U456@U456@U456@U456@U456@U456@U456@U456@U456@U456@U456@U456@U456@U456@U456@U456@U456@@multi_index@boost@@U?$member@UScheduledCallback@ManualRuntime@vanetza@@V?$time_point@VClock@vanetza@@V?$duration@_JU?$ratio@$00$0PECEA@@std@@@chrono@std@@@chrono@std@@$0A@@23@Una@mpl@3@@multi_index@boost@@U?$hashed_non_unique@U?$tag@Uby_scope@ManualRuntime@vanetza@@Una@mpl@boost@@U456@U456@U456@U456@U456@U456@U456@U456@U456@U456@U456@U456@U456@U456@U456@U456@U456@U456@@multi_index@boost@@U?$member@UScheduledCallback@ManualRuntime@vanetza@@PEBX$0EI@@23@Una@mpl@3@U563@@23@Una@mpl@3@U563@U563@U563@U563@U563@U563@U563@U563@U563@U563@U563@U563@U563@U563@U563@U563@U563@@multi_index@boost@@V?$allocator@UScheduledCallback@ManualRuntime@vanetza@@@std@@@34@@detail@multi_index@boost@@QEAA@XZ
	??1?$multi_index_container@UScheduledCallback@ManualRuntime@vanetza@@U?$indexed_by@U?$ordered_non_unique@U?$tag@Uby_deadline@ManualRuntime@vanetza@@Una@mpl@boost@@U456@U456@U456@U456@U456@U456@U456@U456@U456@U456@U456@U456@U456@U456@U456@U456@U456@U456@@multi_index@boost@@U?$member@UScheduledCallback@ManualRuntime@vanetza@@V?$time_point@VClock@vanetza@@V?$duration@_JU?$ratio@$00$0PECEA@@std@@@chrono@std@@@chrono@std@@$0A@@23@Una@mpl@3@@multi_index@boost@@U?$hashed_non_unique@U?$tag@Uby_scope@ManualRuntime@vanetza@@Una@mpl@boost@@U456@U456@U456@U456@U456@U456@U456@U456@U456@U456@U456@U456@U456@U456@U456@U456@U456@U456@@multi_index@boost@@U?$member@UScheduledCallback@ManualRuntime@vanetza@@PEBX$0EI@@23@Una@mpl@3@U563@@23@Una@mpl@3@U563@U563@U563@U563@U563@U563@U563@U563@U563@U563@U563@U563@U563@U563@U563@U563@U563@@multi_index@boost@@V?$allocator@UScheduledCallback@ManualRuntime@vanetza@@@std@@@multi_index@boost@@QEAA@XZ
	??1?$numpunct@D@std@@MEAA@XZ
	??1?$pair@$$CBV?$basic_string@DU?$char_traits@D@std@@V?$allocator@D@2@@std@@G@std@@QEAA@XZ
	??1?$refcount_ptr@Uerror_info_container@exception_detail@boost@@@exception_detail@boost@@QEAA@XZ
	??1?$token_iterator@V?$char_separator@DU?$char_traits@D@std@@@boost@@V?$_String_const_iterator@V?$_String_val@U?$_Simple_types@D@std@@@std@@@std@@V?$basic_string@DU?$char_traits@D@std@@V?$allocator@D@2@@4@@boost@@QEAA@XZ
	??1?$tokenizer@V?$char_separator@DU?$char_traits@D@std@@@boost@@V?$_String_const_iterator@V?$_String_val@U?$_Simple_types@D@std@@@std@@@std@@V?$basic_string@DU?$char_traits@D@std@@V?$allocator@D@2@@4@@boost@@QEAA@XZ
	??1?$unique_ptr@V_Facet_base@std@@U?$default_delete@V_Facet_base@std@@@2@@std@@QEAA@XZ
	??1?$vector@EV?$allocator@E@std@@@std@@QEAA@XZ
	??1?$wrapexcept@Ubad_day_of_month@gregorian@boost@@@boost@@UEAA@XZ
	??1?$wrapexcept@Ubad_month@gregorian@boost@@@boost@@UEAA@XZ
	??1?$wrapexcept@Ubad_year@gregorian@boost@@@boost@@UEAA@XZ
	??1?$wrapexcept@Vbad_lexical_cast@boost@@@boost@@UEAA@XZ
	??1Exception@InputArchive@vanetza@@UEAA@XZ
	??1Exception@OutputArchive@vanetza@@UEAA@XZ
	??1Runtime@vanetza@@UEAA@XZ
	??1ScheduledCallback@ManualRuntime@vanetza@@QEAA@XZ
	??1bad_array_new_length@std@@UEAA@XZ
	??1bad_cast@std@@UEAA@XZ
	??1bad_day_of_month@gregorian@boost@@UEAA@XZ
	??1bad_lexical_cast@boost@@UEAA@XZ
	??1bad_month@gregorian@boost@@UEAA@XZ
	??1bad_year@gregorian@boost@@UEAA@XZ
	??1byte_buffer@convertible@vanetza@@UEAA@XZ
	??1clone_base@exception_detail@boost@@UEAA@XZ
	??1deleter@?$wrapexcept@Ubad_day_of_month@gregorian@boost@@@boost@@QEAA@XZ
	??1deleter@?$wrapexcept@Ubad_month@gregorian@boost@@@boost@@QEAA@XZ
	??1deleter@?$wrapexcept@Ubad_year@gregorian@boost@@@boost@@QEAA@XZ
	??1deleter@?$wrapexcept@Vbad_lexical_cast@boost@@@boost@@QEAA@XZ
	??1exception@boost@@MEAA@XZ
	??1exception@std@@UEAA@XZ
	??1locale@std@@QEAA@XZ
	??4?$basic_string@DU?$char_traits@D@std@@V?$allocator@D@2@@std@@QEAAAEAV01@$$QEAV01@@Z
	??4ByteBufferConvertible@vanetza@@QEAAAEAV01@AEBV01@@Z
	??8UnitInterval@vanetza@@QEBA_NAEBV01@@Z
	??8locale@std@@QEBA_NAEBV01@@Z
	??Abyte_view_range@vanetza@@QEBAE_K@Z
	??E?$bidir_node_iterator@U?$ordered_index_node@Unull_augment_policy@detail@multi_index@boost@@U?$hashed_index_node@U?$index_node_base@UScheduledCallback@ManualRuntime@vanetza@@V?$allocator@UScheduledCallback@ManualRuntime@vanetza@@@std@@@detail@multi_index@boost@@@234@@detail@multi_index@boost@@@detail@multi_index@boost@@QEAAAEAV0123@XZ
	??MUnitInterval@vanetza@@QEBA_NAEBV01@@Z
	??R?$less@V?$basic_string@DU?$char_traits@D@std@@V?$allocator@D@2@@std@@@std@@QEBA_NAEBV?$basic_string@DU?$char_traits@D@std@@V?$allocator@D@2@@1@0@Z
	??R?$mersenne_twister@I$0CA@$0CHA@$0BIN@$0BP@$0JJAILANP@$0L@$06$0JNCMFGIA@$0P@$0OPMGAAAA@$0BC@@std@@QEAAIXZ
	??XUnitInterval@vanetza@@QEAAAEAV01@AEBV01@@Z
	??XUnitInterval@vanetza@@QEAAAEAV01@N@Z
	??YUnitInterval@vanetza@@QEAAAEAV01@AEBV01@@Z
	??YUnitInterval@vanetza@@QEAAAEAV01@N@Z
	??ZUnitInterval@vanetza@@QEAAAEAV01@AEBV01@@Z
	??ZUnitInterval@vanetza@@QEAAAEAV01@N@Z
	??_0UnitInterval@vanetza@@QEAAAEAV01@AEBV01@@Z
	??_0UnitInterval@vanetza@@QEAAAEAV01@N@Z
	??__Fmonth_map@?6???$month_str_to_ushort@Vgreg_month@gregorian@boost@@@date_time@boost@@YAGAEBV?$basic_string@DU?$char_traits@D@std@@V?$allocator@D@2@@std@@@Z@YAXXZ
	?_Insert_node@?$_Tree_val@U?$_Tree_simple_types@U?$pair@$$CBV?$basic_string@DU?$char_traits@D@std@@V?$allocator@D@2@@std@@G@std@@@std@@@std@@QEAAPEAU?$_Tree_node@U?$pair@$$CBV?$basic_string@DU?$char_traits@D@std@@V?$allocator@D@2@@std@@G@std@@PEAX@2@U?$_Tree_id@PEAU?$_Tree_node@U?$pair@$$CBV?$basic_string@DU?$char_traits@D@std@@V?$allocator@D@2@@std@@G@std@@PEAX@std@@@2@QEAU32@@Z
	?_Maklocwcs@std@@YAPEA_WPEB_W@Z
	?_Throw_bad_array_new_length@std@@YAXXZ
	?_Throw_bad_cast@std@@YAXXZ
	?_Throw_tree_length_error@std@@YAXXZ
	?_Xlen_string@std@@YAXXZ
	?_Xlength@?$vector@EV?$allocator@E@std@@@std@@CAXXZ
	?_Xran@?$_String_val@U?$_Simple_types@D@std@@@std@@SAXXZ
	?allocate@?$allocator@D@std@@QEAAPEAD_K@Z
	?allocate@?$allocator@U?$_Tree_node@U?$pair@$$CBV?$basic_string@DU?$char_traits@D@std@@V?$allocator@D@2@@std@@G@std@@PEAX@std@@@std@@QEAAPEAU?$_Tree_node@U?$pair@$$CBV?$basic_string@DU?$char_traits@D@std@@V?$allocator@D@2@@std@@G@std@@PEAX@2@_K@Z
	?append_range@?$hashed_index_node_alg@U?$hashed_index_node_impl@V?$allocator@D@std@@@detail@multi_index@boost@@Uhashed_non_unique_tag@234@@detail@multi_index@boost@@SAXPEAU?$hashed_index_node_impl@V?$allocator@D@std@@@234@00@Z
	?assign@?$basic_string@DU?$char_traits@D@std@@V?$allocator@D@2@@std@@QEAAAEAV12@QEBD_K@Z
	?at@?$bucket_array@V?$allocator@UScheduledCallback@ManualRuntime@vanetza@@@std@@@detail@multi_index@boost@@QEBAPEAU?$hashed_index_base_node_impl@V?$allocator@D@std@@@234@_K@Z
	?at@Clock@vanetza@@SA?AV?$time_point@VClock@vanetza@@V?$duration@_JU?$ratio@$00$0PECEA@@std@@@chrono@std@@@chrono@std@@AEBV?$basic_string@DU?$char_traits@D@std@@V?$allocator@D@2@@5@@Z
	?at@Clock@vanetza@@SA?AV?$time_point@VClock@vanetza@@V?$duration@_JU?$ratio@$00$0PECEA@@std@@@chrono@std@@@chrono@std@@AEBVptime@posix_time@boost@@@Z
	?at@Clock@vanetza@@SA?AVptime@posix_time@boost@@AEBV?$time_point@VClock@vanetza@@V?$duration@_JU?$ratio@$00$0PECEA@@std@@@chrono@std@@@chrono@std@@@Z
	?base_pointer_from@?$hashed_index_node_impl@V?$allocator@D@std@@@detail@multi_index@boost@@SAPEAU?$hashed_index_base_node_impl@V?$allocator@D@std@@@234@PEAU1234@@Z
	?calculate_max_load@?$hashed_index@U?$member@UScheduledCallback@ManualRuntime@vanetza@@PEBX$0EI@@multi_index@boost@@U?$hash@PEBX@3@U?$equal_to@PEBX@std@@U?$nth_layer@$01UScheduledCallback@ManualRuntime@vanetza@@U?$indexed_by@U?$ordered_non_unique@U?$tag@Uby_deadline@ManualRuntime@vanetza@@Una@mpl@boost@@U456@U456@U456@U456@U456@U456@U456@U456@U456@U456@U456@U456@U456@U456@U456@U456@U456@U456@@multi_index@boost@@U?$member@UScheduledCallback@ManualRuntime@vanetza@@V?$time_point@VClock@vanetza@@V?$duration@_JU?$ratio@$00$0PECEA@@std@@@chrono@std@@@chrono@std@@$0A@@23@Una@mpl@3@@multi_index@boost@@U?$hashed_non_unique@U?$tag@Uby_scope@ManualRuntime@vanetza@@Una@mpl@boost@@U456@U456@U456@U456@U456@U456@U456@U456@U456@U456@U456@U456@U456@U456@U456@U456@U456@U456@@multi_index@boost@@U?$member@UScheduledCallback@ManualRuntime@vanetza@@PEBX$0EI@@23@Una@mpl@3@U563@@23@Una@mpl@3@U563@U563@U563@U563@U563@U563@U563@U563@U563@U563@U563@U563@U563@U563@U563@U563@U563@@multi_index@boost@@V?$allocator@UScheduledCallback@ManualRuntime@vanetza@@@std@@@detail@23@U?$vector1@Uby_scope@ManualRuntime@vanetza@@@mpl@3@Uhashed_non_unique_tag@823@@detail@multi_index@boost@@AEAAXXZ
	?cancel@ManualRuntime@vanetza@@UEAAXPEBX@Z
	?clamp@UnitInterval@vanetza@@AEAAAEAV12@XZ
	?clone@?$wrapexcept@Ubad_day_of_month@gregorian@boost@@@boost@@UEBAPEBVclone_base@exception_detail@2@XZ
	?clone@?$wrapexcept@Ubad_month@gregorian@boost@@@boost@@UEBAPEBVclone_base@exception_detail@2@XZ
	?clone@?$wrapexcept@Ubad_year@gregorian@boost@@@boost@@UEBAPEBVclone_base@exception_detail@2@XZ
	?clone@?$wrapexcept@Vbad_lexical_cast@boost@@@boost@@UEBAPEBVclone_base@exception_detail@2@XZ
	?compare@?$basic_string@DU?$char_traits@D@std@@V?$allocator@D@2@@std@@QEBAHAEBV12@@Z
	?complement@UnitInterval@vanetza@@QEBA?AV12@XZ
	?convert@?$byte_buffer_impl@$$T@convertible@vanetza@@UEBAXAEAV?$vector@EV?$allocator@E@std@@@std@@@Z
	?convert@?$byte_buffer_impl@V?$basic_string@DU?$char_traits@D@std@@V?$allocator@D@2@@std@@@convertible@vanetza@@UEBAXAEAV?$vector@EV?$allocator@E@std@@@std@@@Z
	?convert@?$byte_buffer_impl@V?$vector@EV?$allocator@E@std@@@std@@@convertible@vanetza@@UEBAXAEAV?$vector@EV?$allocator@E@std@@@std@@@Z
	?convert@?$lcast_ret_unsigned@U?$char_traits@D@std@@GD@detail@boost@@QEAA_NXZ
	?convert@?$lcast_ret_unsigned@U?$char_traits@D@std@@ID@detail@boost@@QEAA_NXZ
	?convert@?$lcast_ret_unsigned@U?$char_traits@D@std@@_KD@detail@boost@@QEAA_NXZ
	?copy_boost_exception@exception_detail@boost@@YAXPEAVexception@2@PEBV32@@Z
	?create_byte_view@vanetza@@YA?AVbyte_view_range@1@$$QEAV?$vector@EV?$allocator@E@std@@@std@@@Z
	?create_byte_view@vanetza@@YA?AVbyte_view_range@1@AEBV?$vector@EV?$allocator@E@std@@@std@@@Z
	?create_byte_view@vanetza@@YA?AVbyte_view_range@1@AEBVByteBufferConvertible@1@@Z
	?data@?$auto_space@PEAU?$hashed_index_node_impl@V?$allocator@D@std@@@detail@multi_index@boost@@V?$allocator@UScheduledCallback@ManualRuntime@vanetza@@@std@@@detail@multi_index@boost@@QEBAPEAPEAU?$hashed_index_node_impl@V?$allocator@D@std@@@234@XZ
	?data@?$auto_space@_KV?$allocator@UScheduledCallback@ManualRuntime@vanetza@@@std@@@detail@multi_index@boost@@QEBAPEA_KXZ
	?data@byte_view_range@vanetza@@QEBAPEBEXZ
	?deallocate@?$allocator@E@std@@QEAAXQEAE_K@Z
	?deallocate_node@?$multi_index_container@UScheduledCallback@ManualRuntime@vanetza@@U?$indexed_by@U?$ordered_non_unique@U?$tag@Uby_deadline@ManualRuntime@vanetza@@Una@mpl@boost@@U456@U456@U456@U456@U456@U456@U456@U456@U456@U456@U456@U456@U456@U456@U456@U456@U456@U456@@multi_index@boost@@U?$member@UScheduledCallback@ManualRuntime@vanetza@@V?$time_point@VClock@vanetza@@V?$duration@_JU?$ratio@$00$0PECEA@@std@@@chrono@std@@@chrono@std@@$0A@@23@Una@mpl@3@@multi_index@boost@@U?$hashed_non_unique@U?$tag@Uby_scope@ManualRuntime@vanetza@@Una@mpl@boost@@U456@U456@U456@U456@U456@U456@U456@U456@U456@U456@U456@U456@U456@U456@U456@U456@U456@U456@@multi_index@boost@@U?$member@UScheduledCallback@ManualRuntime@vanetza@@PEBX$0EI@@23@Una@mpl@3@U563@@23@Una@mpl@3@U563@U563@U563@U563@U563@U563@U563@U563@U563@U563@U563@U563@U563@U563@U563@U563@U563@@multi_index@boost@@V?$allocator@UScheduledCallback@ManualRuntime@vanetza@@@std@@@multi_index@boost@@IEAAXPEAU?$ordered_index_node@Unull_augment_policy@detail@multi_index@boost@@U?$hashed_index_node@U?$index_node_base@UScheduledCallback@ManualRuntime@vanetza@@V?$allocator@UScheduledCallback@ManualRuntime@vanetza@@@std@@@detail@multi_index@boost@@@234@@detail@23@@Z
	?delete_all_nodes@?$ordered_index_impl@U?$member@UScheduledCallback@ManualRuntime@vanetza@@V?$time_point@VClock@vanetza@@V?$duration@_JU?$ratio@$00$0PECEA@@std@@@chrono@std@@@chrono@std@@$0A@@multi_index@boost@@U?$less@V?$time_point@VClock@vanetza@@V?$duration@_JU?$ratio@$00$0PECEA@@std@@@chrono@std@@@chrono@std@@@std@@U?$nth_layer@$00UScheduledCallback@ManualRuntime@vanetza@@U?$indexed_by@U?$ordered_non_unique@U?$tag@Uby_deadline@ManualRuntime@vanetza@@Una@mpl@boost@@U456@U456@U456@U456@U456@U456@U456@U456@U456@U456@U456@U456@U456@U456@U456@U456@U456@U456@@multi_index@boost@@U?$member@UScheduledCallback@ManualRuntime@vanetza@@V?$time_point@VClock@vanetza@@V?$duration@_JU?$ratio@$00$0PECEA@@std@@@chrono@std@@@chrono@std@@$0A@@23@Una@mpl@3@@multi_index@boost@@U?$hashed_non_unique@U?$tag@Uby_scope@ManualRuntime@vanetza@@Una@mpl@boost@@U456@U456@U456@U456@U456@U456@U456@U456@U456@U456@U456@U456@U456@U456@U456@U456@U456@U456@@multi_index@boost@@U?$member@UScheduledCallback@ManualRuntime@vanetza@@PEBX$0EI@@23@Una@mpl@3@U563@@23@Una@mpl@3@U563@U563@U563@U563@U563@U563@U563@U563@U563@U563@U563@U563@U563@U563@U563@U563@U563@@multi_index@boost@@V?$allocator@UScheduledCallback@ManualRuntime@vanetza@@@std@@@detail@23@U?$vector1@Uby_deadline@ManualRuntime@vanetza@@@mpl@3@Uordered_non_unique_tag@723@Unull_augment_policy@723@@detail@multi_index@boost@@AEAAXPEAU?$ordered_index_node@Unull_augment_policy@detail@multi_index@boost@@U?$hashed_index_node@U?$index_node_base@UScheduledCallback@ManualRuntime@vanetza@@V?$allocator@UScheduledCallback@ManualRuntime@vanetza@@@std@@@detail@multi_index@boost@@@234@@234@@Z
	?destroy_value@?$multi_index_container@UScheduledCallback@ManualRuntime@vanetza@@U?$indexed_by@U?$ordered_non_unique@U?$tag@Uby_deadline@ManualRuntime@vanetza@@Una@mpl@boost@@U456@U456@U456@U456@U456@U456@U456@U456@U456@U456@U456@U456@U456@U456@U456@U456@U456@U456@@multi_index@boost@@U?$member@UScheduledCallback@ManualRuntime@vanetza@@V?$time_point@VClock@vanetza@@V?$duration@_JU?$ratio@$00$0PECEA@@std@@@chrono@std@@@chrono@std@@$0A@@23@Una@mpl@3@@multi_index@boost@@U?$hashed_non_unique@U?$tag@Uby_scope@ManualRuntime@vanetza@@Una@mpl@boost@@U456@U456@U456@U456@U456@U456@U456@U456@U456@U456@U456@U456@U456@U456@U456@U456@U456@U456@@multi_index@boost@@U?$member@UScheduledCallback@ManualRuntime@vanetza@@PEBX$0EI@@23@Una@mpl@3@U563@@23@Una@mpl@3@U563@U563@U563@U563@U563@U563@U563@U563@U563@U563@U563@U563@U563@U563@U563@U563@U563@@multi_index@boost@@V?$allocator@UScheduledCallback@ManualRuntime@vanetza@@@std@@@multi_index@boost@@IEAAXPEAU?$ordered_index_node@Unull_augment_policy@detail@multi_index@boost@@U?$hashed_index_node@U?$index_node_base@UScheduledCallback@ManualRuntime@vanetza@@V?$allocator@UScheduledCallback@ManualRuntime@vanetza@@@std@@@detail@multi_index@boost@@@234@@detail@23@@Z
	?do_decimal_point@?$numpunct@D@std@@MEBADXZ
	?do_falsename@?$numpunct@D@std@@MEBA?AV?$basic_string@DU?$char_traits@D@std@@V?$allocator@D@2@@2@XZ
	?do_grouping@?$numpunct@D@std@@MEBA?AV?$basic_string@DU?$char_traits@D@std@@V?$allocator@D@2@@2@XZ
	?do_thousands_sep@?$numpunct@D@std@@MEBADXZ
	?do_truename@?$numpunct@D@std@@MEBA?AV?$basic_string@DU?$char_traits@D@std@@V?$allocator@D@2@@2@XZ
	?duplicate@?$byte_buffer_impl@$$T@convertible@vanetza@@UEBA?AV?$unique_ptr@Ubyte_buffer@convertible@vanetza@@U?$default_delete@Ubyte_buffer@convertible@vanetza@@@std@@@std@@XZ
	?duplicate@byte_buffer@convertible@vanetza@@UEBA?AV?$unique_ptr@Ubyte_buffer@convertible@vanetza@@U?$default_delete@Ubyte_buffer@convertible@vanetza@@@std@@@std@@XZ
	?epoch@Clock@vanetza@@SAAEBVptime@posix_time@boost@@XZ
	?error_code@InputArchive@vanetza@@QEBA?AW4ErrorCode@12@XZ
	?fail@InputArchive@vanetza@@QEAAXW4ErrorCode@12@@Z
	?is_dropped@?$char_separator@DU?$char_traits@D@std@@@boost@@AEBA_ND@Z
	?is_good@InputArchive@vanetza@@QEBA_NXZ
	?is_kept@?$char_separator@DU?$char_traits@D@std@@@boost@@AEBA_ND@Z
	?link_range@?$hashed_index_node_alg@U?$hashed_index_node_impl@V?$allocator@D@std@@@detail@multi_index@boost@@Uhashed_non_unique_tag@234@@detail@multi_index@boost@@SAXPEAU?$hashed_index_node_impl@V?$allocator@D@std@@@234@0PEAU?$hashed_index_base_node_impl@V?$allocator@D@std@@@234@0@Z
	?load_binary@InputArchive@vanetza@@QEAAXPEAD_K@Z
	?load_binary@InputArchive@vanetza@@QEAAXPEAE_K@Z
	?main_convert_iteration@?$lcast_ret_unsigned@U?$char_traits@D@std@@GD@detail@boost@@AEAA_NXZ
	?main_convert_iteration@?$lcast_ret_unsigned@U?$char_traits@D@std@@ID@detail@boost@@AEAA_NXZ
	?main_convert_iteration@?$lcast_ret_unsigned@U?$char_traits@D@std@@_KD@detail@boost@@AEAA_NXZ
	?main_convert_loop@?$lcast_ret_unsigned@U?$char_traits@D@std@@GD@detail@boost@@AEAA_NXZ
	?main_convert_loop@?$lcast_ret_unsigned@U?$char_traits@D@std@@ID@detail@boost@@AEAA_NXZ
	?main_convert_loop@?$lcast_ret_unsigned@U?$char_traits@D@std@@_KD@detail@boost@@AEAA_NXZ
	?mean@vanetza@@YA?AVUnitInterval@1@V21@0@Z
	?name@locale@std@@QEBA?AV?$basic_string@DU?$char_traits@D@std@@V?$allocator@D@2@@2@XZ
	?next@?$hashed_index_node_impl@V?$allocator@D@std@@@detail@multi_index@boost@@QEAAAEAPEAU?$hashed_index_base_node_impl@V?$allocator@D@std@@@234@XZ
	?next@ManualRuntime@vanetza@@QEBA?AV?$time_point@VClock@vanetza@@V?$duration@_JU?$ratio@$00$0PECEA@@std@@@chrono@std@@@chrono@std@@XZ
	?now@ManualRuntime@vanetza@@UEBA?AV?$time_point@VClock@vanetza@@V?$duration@_JU?$ratio@$00$0PECEA@@std@@@chrono@std@@@chrono@std@@XZ
	?on_error@?$simple_exception_policy@G$00$0BP@Ubad_day_of_month@gregorian@boost@@@CV@boost@@SAXGGW4violation_enum@23@@Z
	?on_error@?$simple_exception_policy@G$00$0M@Ubad_month@gregorian@boost@@@CV@boost@@SAXGGW4violation_enum@23@@Z
	?on_error@?$simple_exception_policy@G$0FHI@$0CHAP@Ubad_year@gregorian@boost@@@CV@boost@@SAXGGW4violation_enum@23@@Z
	?peek_byte@InputArchive@vanetza@@QEAADXZ
	?pointer_from@?$hashed_index_node_impl@V?$allocator@D@std@@@detail@multi_index@boost@@SAPEAU1234@PEAU?$hashed_index_base_node_impl@V?$allocator@D@std@@@234@@Z
	?position@?$bucket_array@V?$allocator@UScheduledCallback@ManualRuntime@vanetza@@@std@@@detail@multi_index@boost@@QEBA_K_K@Z
	?position@?$bucket_array_base@$00@detail@multi_index@boost@@KA_K_K0@Z
	?prior@?$hashed_index_base_node_impl@V?$allocator@D@std@@@detail@multi_index@boost@@QEAAAEAPEAU?$hashed_index_node_impl@V?$allocator@D@std@@@234@XZ
	?random_byte_generator@vanetza@@YA?AV?$function@$$A6AEXZ@std@@H@Z
	?random_byte_sequence@vanetza@@YA?AV?$vector@EV?$allocator@E@std@@@std@@_KH@Z
	?read@byte_buffer_source@vanetza@@QEAA_JPEAD_J@Z
	?rebalance@?$ordered_index_node_impl@Unull_augment_policy@detail@multi_index@boost@@V?$allocator@D@std@@@detail@multi_index@boost@@SAXPEAU1234@Uparent_ref@?$ordered_index_node_compressed_base@Unull_augment_policy@detail@multi_index@boost@@V?$allocator@D@std@@@234@@Z
	?rebalance_for_extract@?$ordered_index_node_impl@Unull_augment_policy@detail@multi_index@boost@@V?$allocator@D@std@@@detail@multi_index@boost@@SAPEAU1234@PEAU1234@Uparent_ref@?$ordered_index_node_compressed_base@Unull_augment_policy@detail@multi_index@boost@@V?$allocator@D@std@@@234@AEAPEAU1234@2@Z
	?remaining_bytes@InputArchive@vanetza@@QEAA_KXZ
	?reset@ManualRuntime@vanetza@@QEAAXV?$time_point@VClock@vanetza@@V?$duration@_JU?$ratio@$00$0PECEA@@std@@@chrono@std@@@chrono@std@@@Z
	?rethrow@?$wrapexcept@Ubad_day_of_month@gregorian@boost@@@boost@@UEBAXXZ
	?rethrow@?$wrapexcept@Ubad_month@gregorian@boost@@@boost@@UEBAXXZ
	?rethrow@?$wrapexcept@Ubad_year@gregorian@boost@@@boost@@UEBAXXZ
	?rethrow@?$wrapexcept@Vbad_lexical_cast@boost@@@boost@@UEBAXXZ
	?rotate_left@?$ordered_index_node_impl@Unull_augment_policy@detail@multi_index@boost@@V?$allocator@D@std@@@detail@multi_index@boost@@SAXPEAU1234@Uparent_ref@?$ordered_index_node_compressed_base@Unull_augment_policy@detail@multi_index@boost@@V?$allocator@D@std@@@234@@Z
	?rotate_right@?$ordered_index_node_impl@Unull_augment_policy@detail@multi_index@boost@@V?$allocator@D@std@@@detail@multi_index@boost@@SAXPEAU1234@Uparent_ref@?$ordered_index_node_compressed_base@Unull_augment_policy@detail@multi_index@boost@@V?$allocator@D@std@@@234@@Z
	?save_binary@OutputArchive@vanetza@@QEAAXPEBD_K@Z
	?save_binary@OutputArchive@vanetza@@QEAAXPEBE_K@Z
	?schedule@ManualRuntime@vanetza@@UEAAXV?$duration@_JU?$ratio@$00$0PECEA@@std@@@chrono@std@@AEBV?$function@$$A6AXV?$time_point@VClock@vanetza@@V?$duration@_JU?$ratio@$00$0PECEA@@std@@@chrono@std@@@chrono@std@@@Z@5@PEBX@Z
	?schedule@ManualRuntime@vanetza@@UEAAXV?$time_point@VClock@vanetza@@V?$duration@_JU?$ratio@$00$0PECEA@@std@@@chrono@std@@@chrono@std@@AEBV?$function@$$A6AXV?$time_point@VClock@vanetza@@V?$duration@_JU?$ratio@$00$0PECEA@@std@@@chrono@std@@@chrono@std@@@Z@5@PEBX@Z
	?size@?$byte_buffer_impl@$$T@convertible@vanetza@@UEBA_KXZ
	?size@?$byte_buffer_impl@V?$basic_string@DU?$char_traits@D@std@@V?$allocator@D@2@@std@@@convertible@vanetza@@UEBA_KXZ
	?size@?$byte_buffer_impl@V?$vector@EV?$allocator@E@std@@@std@@@convertible@vanetza@@UEBA_KXZ
	?split@date_time@boost@@YA_NAEBV?$basic_string@DU?$char_traits@D@std@@V?$allocator@D@2@@std@@DAEAV34@1@Z
	?subtract_times@?$counted_time_system@U?$counted_time_rep@Vmillisec_posix_time_system_config@posix_time@boost@@@date_time@boost@@@date_time@boost@@SA?AVtime_duration@posix_time@3@AEBU?$counted_time_rep@Vmillisec_posix_time_system_config@posix_time@boost@@@23@0@Z
	?trigger@ManualRuntime@vanetza@@AEAAXXZ
	?trigger@ManualRuntime@vanetza@@QEAAXV?$duration@_JU?$ratio@$00$0PECEA@@std@@@chrono@std@@@Z
	?trigger@ManualRuntime@vanetza@@QEAAXV?$time_point@VClock@vanetza@@V?$duration@_JU?$ratio@$00$0PECEA@@std@@@chrono@std@@@chrono@std@@@Z
	?unchecked_rehash@?$hashed_index@U?$member@UScheduledCallback@ManualRuntime@vanetza@@PEBX$0EI@@multi_index@boost@@U?$hash@PEBX@3@U?$equal_to@PEBX@std@@U?$nth_layer@$01UScheduledCallback@ManualRuntime@vanetza@@U?$indexed_by@U?$ordered_non_unique@U?$tag@Uby_deadline@ManualRuntime@vanetza@@Una@mpl@boost@@U456@U456@U456@U456@U456@U456@U456@U456@U456@U456@U456@U456@U456@U456@U456@U456@U456@U456@@multi_index@boost@@U?$member@UScheduledCallback@ManualRuntime@vanetza@@V?$time_point@VClock@vanetza@@V?$duration@_JU?$ratio@$00$0PECEA@@std@@@chrono@std@@@chrono@std@@$0A@@23@Una@mpl@3@@multi_index@boost@@U?$hashed_non_unique@U?$tag@Uby_scope@ManualRuntime@vanetza@@Una@mpl@boost@@U456@U456@U456@U456@U456@U456@U456@U456@U456@U456@U456@U456@U456@U456@U456@U456@U456@U456@@multi_index@boost@@U?$member@UScheduledCallback@ManualRuntime@vanetza@@PEBX$0EI@@23@Una@mpl@3@U563@@23@Una@mpl@3@U563@U563@U563@U563@U563@U563@U563@U563@U563@U563@U563@U563@U563@U563@U563@U563@U563@@multi_index@boost@@V?$allocator@UScheduledCallback@ManualRuntime@vanetza@@@std@@@detail@23@U?$vector1@Uby_scope@ManualRuntime@vanetza@@@mpl@3@Uhashed_non_unique_tag@823@@detail@multi_index@boost@@AEAAX_KUhashed_non_unique_tag@234@@Z
	?unlink_range@?$hashed_index_node_alg@U?$hashed_index_node_impl@V?$allocator@D@std@@@detail@multi_index@boost@@Uhashed_non_unique_tag@234@@detail@multi_index@boost@@SAXPEAU?$hashed_index_node_impl@V?$allocator@D@std@@@234@0@Z
	?what@bad_lexical_cast@boost@@UEBAPEBDXZ
	?what@exception@std@@UEBAPEBDXZ
	?write@byte_buffer_sink@vanetza@@QEAA_JPEBD_J@Z
