EXPORTS 
	?$TSS0@?1???$copy@UPathHistory@@UPathPoint@@@facilities@vanetza@@YAXAEBVPathHistory@12@AEAU3@@Z@4HA 	 DATA
	?$TSS0@?1???$copy@UVanetza_ITS2_Path@@UVanetza_ITS2_PathPoint@@@facilities@vanetza@@YAXAEBVPathHistory@12@AEAUVanetza_ITS2_Path@@@Z@4HA 	 DATA
	?$TSS0@?1???$copy@UVanetza_ITS2_PathHistory@@UVanetza_ITS2_PathPoint@@@facilities@vanetza@@YAXAEBVPathHistory@12@AEAUVanetza_ITS2_PathHistory@@@Z@4HA 	 DATA
	??_R0?AU?$wrapexcept@Ubad_day_of_month@gregorian@boost@@@boost@@@8 	 DATA
	??_R0?AU?$wrapexcept@Ubad_month@gregorian@boost@@@boost@@@8 	 DATA
	??_R0?AU?$wrapexcept@Ubad_year@gregorian@boost@@@boost@@@8 	 DATA
	??_R0?AU?$wrapexcept@Vlength_error@std@@@boost@@@8 	 DATA
	??_R0?AUbad_day_of_month@gregorian@boost@@@8 	 DATA
	??_R0?AUbad_month@gregorian@boost@@@8 	 DATA
	??_R0?AUbad_year@gregorian@boost@@@8 	 DATA
	??_R0?AVbad_alloc@std@@@8 	 DATA
	??_R0?AVbad_array_new_length@std@@@8 	 DATA
	??_R0?AVclone_base@exception_detail@boost@@@8 	 DATA
	??_R0?AVexception@boost@@@8 	 DATA
	??_R0?AVexception@std@@@8 	 DATA
	??_R0?AVlength_error@std@@@8 	 DATA
	??_R0?AVlogic_error@std@@@8 	 DATA
	??_R0?AVout_of_range@std@@@8 	 DATA
	?scDeltaTimeStepLength@?1???$copy@UPathHistory@@UPathPoint@@@facilities@vanetza@@YAXAEBVPathHistory@12@AEAU3@@Z@4V?$subsecond_duration@Vtime_duration@posix_time@boost@@$0DOI@@date_time@boost@@B 	 DATA
	?scDeltaTimeStepLength@?1???$copy@UVanetza_ITS2_Path@@UVanetza_ITS2_PathPoint@@@facilities@vanetza@@YAXAEBVPathHistory@12@AEAUVanetza_ITS2_Path@@@Z@4V?$subsecond_duration@Vtime_duration@posix_time@boost@@$0DOI@@date_time@boost@@B 	 DATA
	?scDeltaTimeStepLength@?1???$copy@UVanetza_ITS2_PathHistory@@UVanetza_ITS2_PathPoint@@@facilities@vanetza@@YAXAEBVPathHistory@12@AEAUVanetza_ITS2_PathHistory@@@Z@4V?$subsecond_duration@Vtime_duration@posix_time@boost@@$0DOI@@date_time@boost@@B 	 DATA
	?scMaxDeltaTime@?1???$copy@UPathHistory@@UPathPoint@@@facilities@vanetza@@YAXAEBVPathHistory@12@AEAU3@@Z@4Vtime_duration@posix_time@boost@@B 	 DATA
	?scMaxDeltaTime@?1???$copy@UVanetza_ITS2_Path@@UVanetza_ITS2_PathPoint@@@facilities@vanetza@@YAXAEBVPathHistory@12@AEAUVanetza_ITS2_Path@@@Z@4Vtime_duration@posix_time@boost@@B 	 DATA
	?scMaxDeltaTime@?1???$copy@UVanetza_ITS2_PathHistory@@UVanetza_ITS2_PathPoint@@@facilities@vanetza@@YAXAEBVPathHistory@12@AEAUVanetza_ITS2_PathHistory@@@Z@4Vtime_duration@posix_time@boost@@B 	 DATA
	??$?6DU?$char_traits@D@std@@V?$allocator@D@1@@std@@YAAEAV?$basic_ostream@DU?$char_traits@D@std@@@0@AEAV10@AEBV?$basic_string@DU?$char_traits@D@std@@V?$allocator@D@2@@0@@Z
	??$?6U?$char_traits@D@std@@@std@@YAAEAV?$basic_ostream@DU?$char_traits@D@std@@@0@AEAV10@PEBD@Z
	??$_Allocate_manually_vector_aligned@U_Default_allocate_traits@std@@@std@@YAPEAX_K@Z
	??$_Getvals@_W@?$time_get@DV?$istreambuf_iterator@DU?$char_traits@D@std@@@std@@@std@@IEAAX_WAEBV_Locinfo@1@@Z
	??$_Getvals@_W@?$time_get@_WV?$istreambuf_iterator@_WU?$char_traits@_W@std@@@std@@@std@@IEAAX_WAEBV_Locinfo@1@@Z
	??$_Insert_string@DU?$char_traits@D@std@@_K@std@@YAAEAV?$basic_ostream@DU?$char_traits@D@std@@@0@AEAV10@QEBD_K@Z
	??$_Maklocstr@D@std@@YAPEADPEBDPEADAEBU_Cvtvec@@@Z
	??$allocate@J@asn1@vanetza@@YAPEAJXZ
	??$allocate@UPathPoint@@@asn1@vanetza@@YAPEAUPathPoint@@XZ
	??$allocate@UVanetza_ITS2_PathPoint@@@asn1@vanetza@@YAPEAUVanetza_ITS2_PathPoint@@XZ
	??$copy@UPathHistory@@UPathPoint@@@facilities@vanetza@@YAXAEBVPathHistory@01@AEAU2@@Z
	??$copy@UVanetza_ITS2_Path@@UVanetza_ITS2_PathPoint@@@facilities@vanetza@@YAXAEBVPathHistory@01@AEAUVanetza_ITS2_Path@@@Z
	??$copy@UVanetza_ITS2_PathHistory@@UVanetza_ITS2_PathPoint@@@facilities@vanetza@@YAXAEBVPathHistory@01@AEAUVanetza_ITS2_PathHistory@@@Z
	??$increment@PEAUPathPoint@facilities@vanetza@@@?$circular_buffer@UPathPoint@facilities@vanetza@@V?$allocator@UPathPoint@facilities@vanetza@@@std@@@boost@@AEBAXAEAPEAUPathPoint@facilities@vanetza@@@Z
	??$push_front_impl@AEBUPathPoint@facilities@vanetza@@@?$circular_buffer@UPathPoint@facilities@vanetza@@V?$allocator@UPathPoint@facilities@vanetza@@@std@@@boost@@AEAAXAEBUPathPoint@facilities@vanetza@@@Z
	??$round@V?$unit@U?$list@U?$dim@Ulength_base_dimension@units@boost@@V?$static_rational@$00$00@23@@units@boost@@Udimensionless_type@23@@units@boost@@U?$homogeneous_system@U?$list@Umeter_base_unit@si@units@boost@@U?$list@U?$scaled_base_unit@Ugram_base_unit@cgs@units@boost@@U?$scale@$09V?$static_rational@$02$00@units@boost@@@34@@units@boost@@U?$list@Usecond_base_unit@si@units@boost@@U?$list@Uampere_base_unit@si@units@boost@@U?$list@Ukelvin_base_unit@si@units@boost@@U?$list@Umole_base_unit@si@units@boost@@U?$list@Ucandela_base_unit@si@units@boost@@U?$list@Uradian_base_unit@angle@units@boost@@U?$list@Usteradian_base_unit@angle@units@boost@@Udimensionless_type@34@@34@@34@@34@@34@@34@@34@@23@@34@@units@boost@@@23@X@units@boost@@V?$unit@U?$list@U?$dim@Ulength_base_dimension@units@boost@@V?$static_rational@$00$00@23@@units@boost@@Udimensionless_type@23@@units@boost@@U?$heterogeneous_system@U?$heterogeneous_system_impl@U?$list@U?$heterogeneous_system_dim@Umeter_base_unit@si@units@boost@@V?$static_rational@$00$00@34@@units@boost@@Udimensionless_type@23@@units@boost@@U?$list@U?$dim@Ulength_base_dimension@units@boost@@V?$static_rational@$00$00@23@@units@boost@@Udimensionless_type@23@@23@U?$list@U?$scale_list_dim@U?$scale@$09V?$static_rational@$0?1$00@units@boost@@@units@boost@@@units@boost@@Udimensionless_type@23@@23@@units@boost@@@23@X@23@@facilities@vanetza@@YAJAEBV?$quantity@V?$unit@U?$list@U?$dim@Ulength_base_dimension@units@boost@@V?$static_rational@$00$00@23@@units@boost@@Udimensionless_type@23@@units@boost@@U?$homogeneous_system@U?$list@Umeter_base_unit@si@units@boost@@U?$list@U?$scaled_base_unit@Ugram_base_unit@cgs@units@boost@@U?$scale@$09V?$static_rational@$02$00@units@boost@@@34@@units@boost@@U?$list@Usecond_base_unit@si@units@boost@@U?$list@Uampere_base_unit@si@units@boost@@U?$list@Ukelvin_base_unit@si@units@boost@@U?$list@Umole_base_unit@si@units@boost@@U?$list@Ucandela_base_unit@si@units@boost@@U?$list@Uradian_base_unit@angle@units@boost@@U?$list@Usteradian_base_unit@angle@units@boost@@Udimensionless_type@34@@34@@34@@34@@34@@34@@34@@23@@34@@units@boost@@@23@X@units@boost@@N@units@boost@@AEBV?$unit@U?$list@U?$dim@Ulength_base_dimension@units@boost@@V?$static_rational@$00$00@23@@units@boost@@Udimensionless_type@23@@units@boost@@U?$heterogeneous_system@U?$heterogeneous_system_impl@U?$list@U?$heterogeneous_system_dim@Umeter_base_unit@si@units@boost@@V?$static_rational@$00$00@34@@units@boost@@Udimensionless_type@23@@units@boost@@U?$list@U?$dim@Ulength_base_dimension@units@boost@@V?$static_rational@$00$00@23@@units@boost@@Udimensionless_type@23@@23@U?$list@U?$scale_list_dim@U?$scale@$09V?$static_rational@$0?1$00@units@boost@@@units@boost@@@units@boost@@Udimensionless_type@23@@23@@units@boost@@@23@X@34@@Z
	??$round@V?$unit@U?$list@U?$dim@Uplane_angle_base_dimension@units@boost@@V?$static_rational@$00$00@23@@units@boost@@Udimensionless_type@23@@units@boost@@U?$homogeneous_system@U?$list@Udegree_base_unit@angle@units@boost@@Udimensionless_type@34@@units@boost@@@23@X@units@boost@@V?$unit@U?$list@U?$dim@Uplane_angle_base_dimension@units@boost@@V?$static_rational@$00$00@23@@units@boost@@Udimensionless_type@23@@units@boost@@U?$heterogeneous_system@U?$heterogeneous_system_impl@U?$list@U?$heterogeneous_system_dim@Udegree_base_unit@angle@units@boost@@V?$static_rational@$00$00@34@@units@boost@@Udimensionless_type@23@@units@boost@@U?$list@U?$dim@Uplane_angle_base_dimension@units@boost@@V?$static_rational@$00$00@23@@units@boost@@Udimensionless_type@23@@23@U?$list@U?$scale_list_dim@U?$scale@$09V?$static_rational@$0?6$00@units@boost@@@units@boost@@@units@boost@@Udimensionless_type@23@@23@@units@boost@@@23@X@23@@facilities@vanetza@@YAJAEBV?$quantity@V?$unit@U?$list@U?$dim@Uplane_angle_base_dimension@units@boost@@V?$static_rational@$00$00@23@@units@boost@@Udimensionless_type@23@@units@boost@@U?$homogeneous_system@U?$list@Udegree_base_unit@angle@units@boost@@Udimensionless_type@34@@units@boost@@@23@X@units@boost@@N@units@boost@@AEBV?$unit@U?$list@U?$dim@Uplane_angle_base_dimension@units@boost@@V?$static_rational@$00$00@23@@units@boost@@Udimensionless_type@23@@units@boost@@U?$heterogeneous_system@U?$heterogeneous_system_impl@U?$list@U?$heterogeneous_system_dim@Udegree_base_unit@angle@units@boost@@V?$static_rational@$00$00@34@@units@boost@@Udimensionless_type@23@@units@boost@@U?$list@U?$dim@Uplane_angle_base_dimension@units@boost@@V?$static_rational@$00$00@23@@units@boost@@Udimensionless_type@23@@23@U?$list@U?$scale_list_dim@U?$scale@$09V?$static_rational@$0?6$00@units@boost@@@units@boost@@@units@boost@@Udimensionless_type@23@@23@@units@boost@@@23@X@34@@Z
	??$throw_exception@Ubad_day_of_month@gregorian@boost@@@boost@@YAXAEBUbad_day_of_month@gregorian@0@@Z
	??$throw_exception@Ubad_month@gregorian@boost@@@boost@@YAXAEBUbad_month@gregorian@0@@Z
	??$throw_exception@Ubad_year@gregorian@boost@@@boost@@YAXAEBUbad_year@gregorian@0@@Z
	??$throw_exception@Vlength_error@std@@@boost@@YAXAEBVlength_error@std@@@Z
	??0?$counted_time_rep@Vmillisec_posix_time_system_config@posix_time@boost@@@date_time@boost@@QEAA@AEBVdate@gregorian@2@AEBVtime_duration@posix_time@2@@Z
	??0?$wrapexcept@Ubad_day_of_month@gregorian@boost@@@boost@@QEAA@AEBU01@@Z
	??0?$wrapexcept@Ubad_day_of_month@gregorian@boost@@@boost@@QEAA@AEBUbad_day_of_month@gregorian@1@@Z
	??0?$wrapexcept@Ubad_month@gregorian@boost@@@boost@@QEAA@AEBU01@@Z
	??0?$wrapexcept@Ubad_month@gregorian@boost@@@boost@@QEAA@AEBUbad_month@gregorian@1@@Z
	??0?$wrapexcept@Ubad_year@gregorian@boost@@@boost@@QEAA@AEBU01@@Z
	??0?$wrapexcept@Ubad_year@gregorian@boost@@@boost@@QEAA@AEBUbad_year@gregorian@1@@Z
	??0?$wrapexcept@Vlength_error@std@@@boost@@QEAA@AEBU01@@Z
	??0?$wrapexcept@Vlength_error@std@@@boost@@QEAA@AEBVlength_error@std@@@Z
	??0PathHistory@facilities@vanetza@@QEAA@XZ
	??0PathPoint@facilities@vanetza@@QEAA@XZ
	??0bad_alloc@std@@QEAA@AEBV01@@Z
	??0bad_array_new_length@std@@QEAA@AEBV01@@Z
	??0bad_array_new_length@std@@QEAA@XZ
	??0bad_day_of_month@gregorian@boost@@QEAA@AEBU012@@Z
	??0bad_month@gregorian@boost@@QEAA@AEBU012@@Z
	??0bad_year@gregorian@boost@@QEAA@AEBU012@@Z
	??0clone_base@exception_detail@boost@@QEAA@AEBV012@@Z
	??0exception@boost@@QEAA@AEBV01@@Z
	??0exception@std@@QEAA@AEBV01@@Z
	??0length_error@std@@QEAA@AEBV01@@Z
	??0logic_error@std@@QEAA@AEBV01@@Z
	??0out_of_range@std@@QEAA@AEBV01@@Z
	??0time_duration@posix_time@boost@@QEAA@W4special_values@date_time@2@@Z
	??1?$_Alloc_construct_ptr@V?$allocator@U?$_List_node@UPathPoint@facilities@vanetza@@PEAX@std@@@std@@@std@@QEAA@XZ
	??1?$circular_buffer@UPathPoint@facilities@vanetza@@V?$allocator@UPathPoint@facilities@vanetza@@@std@@@boost@@QEAA@XZ
	??1?$refcount_ptr@Uerror_info_container@exception_detail@boost@@@exception_detail@boost@@QEAA@XZ
	??1?$wrapexcept@Ubad_day_of_month@gregorian@boost@@@boost@@UEAA@XZ
	??1?$wrapexcept@Ubad_month@gregorian@boost@@@boost@@UEAA@XZ
	??1?$wrapexcept@Ubad_year@gregorian@boost@@@boost@@UEAA@XZ
	??1?$wrapexcept@Vlength_error@std@@@boost@@UEAA@XZ
	??1_Sentry_base@?$basic_ostream@DU?$char_traits@D@std@@@std@@QEAA@XZ
	??1bad_array_new_length@std@@UEAA@XZ
	??1bad_day_of_month@gregorian@boost@@UEAA@XZ
	??1bad_month@gregorian@boost@@UEAA@XZ
	??1bad_year@gregorian@boost@@UEAA@XZ
	??1clone_base@exception_detail@boost@@UEAA@XZ
	??1deleter@?$wrapexcept@Ubad_day_of_month@gregorian@boost@@@boost@@QEAA@XZ
	??1deleter@?$wrapexcept@Ubad_month@gregorian@boost@@@boost@@QEAA@XZ
	??1deleter@?$wrapexcept@Ubad_year@gregorian@boost@@@boost@@QEAA@XZ
	??1deleter@?$wrapexcept@Vlength_error@std@@@boost@@QEAA@XZ
	??1exception@boost@@MEAA@XZ
	??1exception@std@@UEAA@XZ
	??1length_error@std@@UEAA@XZ
	??1sentry@?$basic_ostream@DU?$char_traits@D@std@@@std@@QEAA@XZ
	?_Maklocwcs@std@@YAPEA_WPEB_W@Z
	?_Throw_bad_array_new_length@std@@YAXXZ
	?addSample@PathHistory@facilities@vanetza@@QEAAXAEBUPathPoint@23@@Z
	?check_service_specific_permissions@facilities@vanetza@@YA_NAEBUCamParameters@@VCamPermissions@security@2@@Z
	?check_service_specific_permissions@facilities@vanetza@@YA_NAEBUVanetza_ITS2_CamParameters@@VCamPermissions@security@2@@Z
	?check_service_specific_permissions@facilities@vanetza@@YA_NAEBVCam@r1@asn1@2@VCamPermissions@security@2@@Z
	?check_service_specific_permissions@facilities@vanetza@@YA_NAEBVCam@r2@asn1@2@VCamPermissions@security@2@@Z
	?chord_length@facilities@vanetza@@YA?AV?$quantity@V?$unit@U?$list@U?$dim@Ulength_base_dimension@units@boost@@V?$static_rational@$00$00@23@@units@boost@@Udimensionless_type@23@@units@boost@@U?$homogeneous_system@U?$list@Umeter_base_unit@si@units@boost@@U?$list@U?$scaled_base_unit@Ugram_base_unit@cgs@units@boost@@U?$scale@$09V?$static_rational@$02$00@units@boost@@@34@@units@boost@@U?$list@Usecond_base_unit@si@units@boost@@U?$list@Uampere_base_unit@si@units@boost@@U?$list@Ukelvin_base_unit@si@units@boost@@U?$list@Umole_base_unit@si@units@boost@@U?$list@Ucandela_base_unit@si@units@boost@@U?$list@Uradian_base_unit@angle@units@boost@@U?$list@Usteradian_base_unit@angle@units@boost@@Udimensionless_type@34@@34@@34@@34@@34@@34@@34@@23@@34@@units@boost@@@23@X@units@boost@@N@units@boost@@AEBUPathPoint@12@0@Z
	?clone@?$wrapexcept@Ubad_day_of_month@gregorian@boost@@@boost@@UEBAPEBVclone_base@exception_detail@2@XZ
	?clone@?$wrapexcept@Ubad_month@gregorian@boost@@@boost@@UEBAPEBVclone_base@exception_detail@2@XZ
	?clone@?$wrapexcept@Ubad_year@gregorian@boost@@@boost@@UEBAPEBVclone_base@exception_detail@2@XZ
	?clone@?$wrapexcept@Vlength_error@std@@@boost@@UEBAPEBVclone_base@exception_detail@2@XZ
	?compare@?$int_adapter@_J@date_time@boost@@AEBAHAEBV123@@Z
	?copy@facilities@vanetza@@YAXAEBUPositionFix@2@AEAUReferencePosition@@@Z
	?copy@facilities@vanetza@@YAXAEBUPositionFix@2@AEAUVanetza_ITS2_ReferencePosition@@@Z
	?copy@facilities@vanetza@@YAXAEBVPathHistory@12@AEAU3@@Z
	?copy@facilities@vanetza@@YAXAEBVPathHistory@12@AEAUBasicVehicleContainerLowFrequency@@@Z
	?copy@facilities@vanetza@@YAXAEBVPathHistory@12@AEAUVanetza_ITS2_BasicVehicleContainerLowFrequency@@@Z
	?copy@facilities@vanetza@@YAXAEBVPathHistory@12@AEAUVanetza_ITS2_Path@@@Z
	?copy@facilities@vanetza@@YAXAEBVPathHistory@12@AEAUVanetza_ITS2_PathHistory@@@Z
	?copy_boost_exception@exception_detail@boost@@YAXPEAVexception@2@PEBV32@@Z
	?distance@facilities@vanetza@@YA?AV?$quantity@V?$unit@U?$list@U?$dim@Ulength_base_dimension@units@boost@@V?$static_rational@$00$00@23@@units@boost@@Udimensionless_type@23@@units@boost@@U?$homogeneous_system@U?$list@Umeter_base_unit@si@units@boost@@U?$list@U?$scaled_base_unit@Ugram_base_unit@cgs@units@boost@@U?$scale@$09V?$static_rational@$02$00@units@boost@@@34@@units@boost@@U?$list@Usecond_base_unit@si@units@boost@@U?$list@Uampere_base_unit@si@units@boost@@U?$list@Ukelvin_base_unit@si@units@boost@@U?$list@Umole_base_unit@si@units@boost@@U?$list@Ucandela_base_unit@si@units@boost@@U?$list@Uradian_base_unit@angle@units@boost@@U?$list@Usteradian_base_unit@angle@units@boost@@Udimensionless_type@34@@34@@34@@34@@34@@34@@34@@23@@34@@units@boost@@@23@X@units@boost@@N@units@boost@@AEBUReferencePosition@@0@Z
	?distance@facilities@vanetza@@YA?AV?$quantity@V?$unit@U?$list@U?$dim@Ulength_base_dimension@units@boost@@V?$static_rational@$00$00@23@@units@boost@@Udimensionless_type@23@@units@boost@@U?$homogeneous_system@U?$list@Umeter_base_unit@si@units@boost@@U?$list@U?$scaled_base_unit@Ugram_base_unit@cgs@units@boost@@U?$scale@$09V?$static_rational@$02$00@units@boost@@@34@@units@boost@@U?$list@Usecond_base_unit@si@units@boost@@U?$list@Uampere_base_unit@si@units@boost@@U?$list@Ukelvin_base_unit@si@units@boost@@U?$list@Umole_base_unit@si@units@boost@@U?$list@Ucandela_base_unit@si@units@boost@@U?$list@Uradian_base_unit@angle@units@boost@@U?$list@Usteradian_base_unit@angle@units@boost@@Udimensionless_type@34@@34@@34@@34@@34@@34@@34@@23@@34@@units@boost@@@23@X@units@boost@@N@units@boost@@AEBUReferencePosition@@V?$quantity@V?$unit@U?$list@U?$dim@Uplane_angle_base_dimension@units@boost@@V?$static_rational@$00$00@23@@units@boost@@Udimensionless_type@23@@units@boost@@U?$homogeneous_system@U?$list@Udegree_base_unit@angle@units@boost@@Udimensionless_type@34@@units@boost@@@23@X@units@boost@@N@45@1@Z
	?distance@facilities@vanetza@@YA?AV?$quantity@V?$unit@U?$list@U?$dim@Ulength_base_dimension@units@boost@@V?$static_rational@$00$00@23@@units@boost@@Udimensionless_type@23@@units@boost@@U?$homogeneous_system@U?$list@Umeter_base_unit@si@units@boost@@U?$list@U?$scaled_base_unit@Ugram_base_unit@cgs@units@boost@@U?$scale@$09V?$static_rational@$02$00@units@boost@@@34@@units@boost@@U?$list@Usecond_base_unit@si@units@boost@@U?$list@Uampere_base_unit@si@units@boost@@U?$list@Ukelvin_base_unit@si@units@boost@@U?$list@Umole_base_unit@si@units@boost@@U?$list@Ucandela_base_unit@si@units@boost@@U?$list@Uradian_base_unit@angle@units@boost@@U?$list@Usteradian_base_unit@angle@units@boost@@Udimensionless_type@34@@34@@34@@34@@34@@34@@34@@23@@34@@units@boost@@@23@X@units@boost@@N@units@boost@@AEBUVanetza_ITS2_ReferencePosition@@0@Z
	?distance@facilities@vanetza@@YA?AV?$quantity@V?$unit@U?$list@U?$dim@Ulength_base_dimension@units@boost@@V?$static_rational@$00$00@23@@units@boost@@Udimensionless_type@23@@units@boost@@U?$homogeneous_system@U?$list@Umeter_base_unit@si@units@boost@@U?$list@U?$scaled_base_unit@Ugram_base_unit@cgs@units@boost@@U?$scale@$09V?$static_rational@$02$00@units@boost@@@34@@units@boost@@U?$list@Usecond_base_unit@si@units@boost@@U?$list@Uampere_base_unit@si@units@boost@@U?$list@Ukelvin_base_unit@si@units@boost@@U?$list@Umole_base_unit@si@units@boost@@U?$list@Ucandela_base_unit@si@units@boost@@U?$list@Uradian_base_unit@angle@units@boost@@U?$list@Usteradian_base_unit@angle@units@boost@@Udimensionless_type@34@@34@@34@@34@@34@@34@@34@@23@@34@@units@boost@@@23@X@units@boost@@N@units@boost@@AEBUVanetza_ITS2_ReferencePosition@@V?$quantity@V?$unit@U?$list@U?$dim@Uplane_angle_base_dimension@units@boost@@V?$static_rational@$00$00@23@@units@boost@@Udimensionless_type@23@@units@boost@@U?$homogeneous_system@U?$list@Udegree_base_unit@angle@units@boost@@Udimensionless_type@34@@units@boost@@@23@X@units@boost@@N@45@1@Z
	?getReferencePoint@PathHistory@facilities@vanetza@@QEBAAEBUPathPoint@23@XZ
	?is_available@facilities@vanetza@@YA_NAEBUHeading@@@Z
	?is_available@facilities@vanetza@@YA_NAEBUReferencePosition@@@Z
	?is_available@facilities@vanetza@@YA_NAEBUVanetza_ITS2_Heading@@@Z
	?is_available@facilities@vanetza@@YA_NAEBUVanetza_ITS2_ReferencePosition@@@Z
	?next@PathHistory@facilities@vanetza@@AEBAAEBUPathPoint@23@XZ
	?previous@PathHistory@facilities@vanetza@@AEBAAEBUPathPoint@23@XZ
	?print_indented@facilities@vanetza@@YAXAEAV?$basic_ostream@DU?$char_traits@D@std@@@std@@AEBVCam@r1@asn1@2@AEBV?$basic_string@DU?$char_traits@D@std@@V?$allocator@D@2@@4@I@Z
	?print_indented@facilities@vanetza@@YAXAEAV?$basic_ostream@DU?$char_traits@D@std@@@std@@AEBVCam@r2@asn1@2@AEBV?$basic_string@DU?$char_traits@D@std@@V?$allocator@D@2@@4@I@Z
	?print_indented@facilities@vanetza@@YAXAEAV?$basic_ostream@DU?$char_traits@D@std@@@std@@PEBUCAM@@AEBV?$basic_string@DU?$char_traits@D@std@@V?$allocator@D@2@@4@I@Z
	?print_indented@facilities@vanetza@@YAXAEAV?$basic_ostream@DU?$char_traits@D@std@@@std@@PEBUVanetza_ITS2_CAM@@AEBV?$basic_string@DU?$char_traits@D@std@@V?$allocator@D@2@@4@I@Z
	?push_front@?$list@UPathPoint@facilities@vanetza@@V?$allocator@UPathPoint@facilities@vanetza@@@std@@@std@@QEAAXAEBUPathPoint@facilities@vanetza@@@Z
	?rethrow@?$wrapexcept@Ubad_day_of_month@gregorian@boost@@@boost@@UEBAXXZ
	?rethrow@?$wrapexcept@Ubad_month@gregorian@boost@@@boost@@UEBAXXZ
	?rethrow@?$wrapexcept@Ubad_year@gregorian@boost@@@boost@@UEBAXXZ
	?rethrow@?$wrapexcept@Vlength_error@std@@@boost@@UEBAXXZ
	?similar_heading@facilities@vanetza@@YA_NAEBUHeading@@0V?$quantity@V?$unit@U?$list@U?$dim@Uplane_angle_base_dimension@units@boost@@V?$static_rational@$00$00@23@@units@boost@@Udimensionless_type@23@@units@boost@@U?$homogeneous_system@U?$list@Umeter_base_unit@si@units@boost@@U?$list@U?$scaled_base_unit@Ugram_base_unit@cgs@units@boost@@U?$scale@$09V?$static_rational@$02$00@units@boost@@@34@@units@boost@@U?$list@Usecond_base_unit@si@units@boost@@U?$list@Uampere_base_unit@si@units@boost@@U?$list@Ukelvin_base_unit@si@units@boost@@U?$list@Umole_base_unit@si@units@boost@@U?$list@Ucandela_base_unit@si@units@boost@@U?$list@Uradian_base_unit@angle@units@boost@@U?$list@Usteradian_base_unit@angle@units@boost@@Udimensionless_type@34@@34@@34@@34@@34@@34@@34@@23@@34@@units@boost@@@23@X@units@boost@@N@units@boost@@@Z
	?similar_heading@facilities@vanetza@@YA_NAEBUHeading@@V?$quantity@V?$unit@U?$list@U?$dim@Uplane_angle_base_dimension@units@boost@@V?$static_rational@$00$00@23@@units@boost@@Udimensionless_type@23@@units@boost@@U?$homogeneous_system@U?$list@Umeter_base_unit@si@units@boost@@U?$list@U?$scaled_base_unit@Ugram_base_unit@cgs@units@boost@@U?$scale@$09V?$static_rational@$02$00@units@boost@@@34@@units@boost@@U?$list@Usecond_base_unit@si@units@boost@@U?$list@Uampere_base_unit@si@units@boost@@U?$list@Ukelvin_base_unit@si@units@boost@@U?$list@Umole_base_unit@si@units@boost@@U?$list@Ucandela_base_unit@si@units@boost@@U?$list@Uradian_base_unit@angle@units@boost@@U?$list@Usteradian_base_unit@angle@units@boost@@Udimensionless_type@34@@34@@34@@34@@34@@34@@34@@23@@34@@units@boost@@@23@X@units@boost@@N@units@boost@@1@Z
	?similar_heading@facilities@vanetza@@YA_NAEBUVanetza_ITS2_Heading@@0V?$quantity@V?$unit@U?$list@U?$dim@Uplane_angle_base_dimension@units@boost@@V?$static_rational@$00$00@23@@units@boost@@Udimensionless_type@23@@units@boost@@U?$homogeneous_system@U?$list@Umeter_base_unit@si@units@boost@@U?$list@U?$scaled_base_unit@Ugram_base_unit@cgs@units@boost@@U?$scale@$09V?$static_rational@$02$00@units@boost@@@34@@units@boost@@U?$list@Usecond_base_unit@si@units@boost@@U?$list@Uampere_base_unit@si@units@boost@@U?$list@Ukelvin_base_unit@si@units@boost@@U?$list@Umole_base_unit@si@units@boost@@U?$list@Ucandela_base_unit@si@units@boost@@U?$list@Uradian_base_unit@angle@units@boost@@U?$list@Usteradian_base_unit@angle@units@boost@@Udimensionless_type@34@@34@@34@@34@@34@@34@@34@@23@@34@@units@boost@@@23@X@units@boost@@N@units@boost@@@Z
	?similar_heading@facilities@vanetza@@YA_NAEBUVanetza_ITS2_Heading@@V?$quantity@V?$unit@U?$list@U?$dim@Uplane_angle_base_dimension@units@boost@@V?$static_rational@$00$00@23@@units@boost@@Udimensionless_type@23@@units@boost@@U?$homogeneous_system@U?$list@Umeter_base_unit@si@units@boost@@U?$list@U?$scaled_base_unit@Ugram_base_unit@cgs@units@boost@@U?$scale@$09V?$static_rational@$02$00@units@boost@@@34@@units@boost@@U?$list@Usecond_base_unit@si@units@boost@@U?$list@Uampere_base_unit@si@units@boost@@U?$list@Ukelvin_base_unit@si@units@boost@@U?$list@Umole_base_unit@si@units@boost@@U?$list@Ucandela_base_unit@si@units@boost@@U?$list@Uradian_base_unit@angle@units@boost@@U?$list@Usteradian_base_unit@angle@units@boost@@Udimensionless_type@34@@34@@34@@34@@34@@34@@34@@23@@34@@units@boost@@@23@X@units@boost@@N@units@boost@@1@Z
	?similar_heading@facilities@vanetza@@YA_NV?$quantity@V?$unit@U?$list@U?$dim@Uplane_angle_base_dimension@units@boost@@V?$static_rational@$00$00@23@@units@boost@@Udimensionless_type@23@@units@boost@@U?$homogeneous_system@U?$list@Umeter_base_unit@si@units@boost@@U?$list@U?$scaled_base_unit@Ugram_base_unit@cgs@units@boost@@U?$scale@$09V?$static_rational@$02$00@units@boost@@@34@@units@boost@@U?$list@Usecond_base_unit@si@units@boost@@U?$list@Uampere_base_unit@si@units@boost@@U?$list@Ukelvin_base_unit@si@units@boost@@U?$list@Umole_base_unit@si@units@boost@@U?$list@Ucandela_base_unit@si@units@boost@@U?$list@Uradian_base_unit@angle@units@boost@@U?$list@Usteradian_base_unit@angle@units@boost@@Udimensionless_type@34@@34@@34@@34@@34@@34@@34@@23@@34@@units@boost@@@23@X@units@boost@@N@units@boost@@00@Z
	?starting@PathHistory@facilities@vanetza@@AEBAAEBUPathPoint@23@XZ
	?subtract_times@?$counted_time_system@U?$counted_time_rep@Vmillisec_posix_time_system_config@posix_time@boost@@@date_time@boost@@@date_time@boost@@SA?AVtime_duration@posix_time@3@AEBU?$counted_time_rep@Vmillisec_posix_time_system_config@posix_time@boost@@@23@0@Z
	?to_altitude_confidence@facilities@vanetza@@YAJV?$quantity@V?$unit@U?$list@U?$dim@Ulength_base_dimension@units@boost@@V?$static_rational@$00$00@23@@units@boost@@Udimensionless_type@23@@units@boost@@U?$homogeneous_system@U?$list@Umeter_base_unit@si@units@boost@@U?$list@U?$scaled_base_unit@Ugram_base_unit@cgs@units@boost@@U?$scale@$09V?$static_rational@$02$00@units@boost@@@34@@units@boost@@U?$list@Usecond_base_unit@si@units@boost@@U?$list@Uampere_base_unit@si@units@boost@@U?$list@Ukelvin_base_unit@si@units@boost@@U?$list@Umole_base_unit@si@units@boost@@U?$list@Ucandela_base_unit@si@units@boost@@U?$list@Uradian_base_unit@angle@units@boost@@U?$list@Usteradian_base_unit@angle@units@boost@@Udimensionless_type@34@@34@@34@@34@@34@@34@@34@@23@@34@@units@boost@@@23@X@units@boost@@N@units@boost@@@Z
	?to_altitude_value@facilities@vanetza@@YAJV?$quantity@V?$unit@U?$list@U?$dim@Ulength_base_dimension@units@boost@@V?$static_rational@$00$00@23@@units@boost@@Udimensionless_type@23@@units@boost@@U?$homogeneous_system@U?$list@Umeter_base_unit@si@units@boost@@U?$list@U?$scaled_base_unit@Ugram_base_unit@cgs@units@boost@@U?$scale@$09V?$static_rational@$02$00@units@boost@@@34@@units@boost@@U?$list@Usecond_base_unit@si@units@boost@@U?$list@Uampere_base_unit@si@units@boost@@U?$list@Ukelvin_base_unit@si@units@boost@@U?$list@Umole_base_unit@si@units@boost@@U?$list@Ucandela_base_unit@si@units@boost@@U?$list@Uradian_base_unit@angle@units@boost@@U?$list@Usteradian_base_unit@angle@units@boost@@Udimensionless_type@34@@34@@34@@34@@34@@34@@34@@23@@34@@units@boost@@@23@X@units@boost@@N@units@boost@@@Z
	?truncateConcisePoints@PathHistory@facilities@vanetza@@AEAAXXZ
	?updateConcisePoints@PathHistory@facilities@vanetza@@AEAAXXZ
	?what@exception@std@@UEBAPEBDXZ
