EXPORTS 
	??_R0?AU?$wrapexcept@Vfailure@ios_base@std@@@boost@@@8 	 DATA
	??_R0?AV?$basic_streambuf@DU?$char_traits@D@std@@@std@@@8 	 DATA
	??_R0?AV?$indirect_streambuf@Vbyte_buffer_source@vanetza@@U?$char_traits@D@std@@V?$allocator@D@4@Uinput@iostreams@boost@@@detail@iostreams@boost@@@8 	 DATA
	??_R0?AV?$linked_streambuf@DU?$char_traits@D@std@@@detail@iostreams@boost@@@8 	 DATA
	??_R0?AV?$stream_buffer@Vbyte_buffer_source@vanetza@@U?$char_traits@D@std@@V?$allocator@D@4@Uinput@iostreams@boost@@@iostreams@boost@@@8 	 DATA
	??_R0?AV_Iostream_error_category2@std@@@8 	 DATA
	??_R0?AV_System_error@std@@@8 	 DATA
	??_R0?AVbad_alloc@std@@@8 	 DATA
	??_R0?AVbad_array_new_length@std@@@8 	 DATA
	??_R0?AVbyte_buffer_source@vanetza@@@8 	 DATA
	??_R0?AVclone_base@exception_detail@boost@@@8 	 DATA
	??_R0?AVerror_category@std@@@8 	 DATA
	??_R0?AVexception@boost@@@8 	 DATA
	??_R0?AVexception@std@@@8 	 DATA
	??_R0?AVfailure@ios_base@std@@@8 	 DATA
	??_R0?AVruntime_error@std@@@8 	 DATA
	??_R0?AVsystem_error@std@@@8 	 DATA
	?_Static@?1???$_Immortalize_memcpy_image@V_Iostream_error_category2@std@@@std@@YAAEBV_Iostream_error_category2@1@XZ@4U?$_Constexpr_immortalize_impl@V_Iostream_error_category2@std@@@1@A 	 DATA
	?pdata@?1???B?$integral_constant@_N$00@boost@@QEBAAEBU?$bool_@$00@mpl@2@XZ@4PEBXEB 	 DATA
	?pdata@?1???B?$integral_constant@_N$0A@@boost@@QEBAAEBU?$bool_@$0A@@mpl@2@XZ@4PEBXEB 	 DATA
	??$_Allocate_manually_vector_aligned@U_Default_allocate_traits@std@@@std@@YAPEAX_K@Z
	??$_Construct@$00PEBD@?$basic_string@DU?$char_traits@D@std@@V?$allocator@D@2@@std@@AEAAXQEBD_K@Z
	??$_Copy_memmove@PEAEPEAE@std@@YAPEAEPEAE00@Z
	??$_Erase_tree@V?$allocator@U?$_Tree_node@U?$pair@$$CBW4OsiLayer@vanetza@@VByteBufferConvertible@2@@std@@PEAX@std@@@std@@@?$_Tree_val@U?$_Tree_simple_types@U?$pair@$$CBW4OsiLayer@vanetza@@VByteBufferConvertible@2@@std@@@std@@@std@@QEAAXAEAV?$allocator@U?$_Tree_node@U?$pair@$$CBW4OsiLayer@vanetza@@VByteBufferConvertible@2@@std@@PEAX@std@@@1@PEAU?$_Tree_node@U?$pair@$$CBW4OsiLayer@vanetza@@VByteBufferConvertible@2@@std@@PEAX@1@@Z
	??$_Fnv1a_append_value@G@std@@YA_K_KAEBG@Z
	??$_Getvals@_W@?$time_get@DV?$istreambuf_iterator@DU?$char_traits@D@std@@@std@@@std@@IEAAX_WAEBV_Locinfo@1@@Z
	??$_Getvals@_W@?$time_get@_WV?$istreambuf_iterator@_WU?$char_traits@_W@std@@@std@@@std@@IEAAX_WAEBV_Locinfo@1@@Z
	??$_Hash_representation@G@std@@YA_KAEBG@Z
	??$_Immortalize_memcpy_image@V_Iostream_error_category2@std@@@std@@YAAEBV_Iostream_error_category2@0@XZ
	??$_Maklocstr@D@std@@YAPEADPEBDPEADAEBU_Cvtvec@@@Z
	??$_Reallocate_grow_by@V<lambda_65e615be2a453ca0576c979606f46740>@@PEBD_K@?$basic_string@DU?$char_traits@D@std@@V?$allocator@D@2@@std@@AEAAAEAV01@_KV<lambda_65e615be2a453ca0576c979606f46740>@@PEBD_K@Z
	??$_Try_emplace@AEBV?$EndianType@G$0A@@vanetza@@$$V@?$_Hash@V?$_Umap_traits@V?$EndianType@G$0A@@vanetza@@PEAVIndicationInterface@btp@2@V?$_Uhash_compare@V?$EndianType@G$0A@@vanetza@@U?$hash@V?$EndianType@G$0A@@vanetza@@@std@@U?$equal_to@V?$EndianType@G$0A@@vanetza@@@4@@std@@V?$allocator@U?$pair@$$CBV?$EndianType@G$0A@@vanetza@@PEAVIndicationInterface@btp@2@@std@@@6@$0A@@std@@@std@@IEAA?AU?$pair@PEAU?$_List_node@U?$pair@$$CBV?$EndianType@G$0A@@vanetza@@PEAVIndicationInterface@btp@2@@std@@PEAX@std@@_N@1@AEBV?$EndianType@G$0A@@vanetza@@@Z
	??$assign_impl@UArea@geonet@vanetza@@@move_assigner@?$variant@VAddress@geonet@vanetza@@UArea@23@$$T@boost@@AEBAXAEAUArea@geonet@vanetza@@U?$bool_@$0A@@mpl@2@1U?$bool_@$00@72@@Z
	??$assign_impl@UCircle@geonet@vanetza@@@assigner@?$variant@URectangle@geonet@vanetza@@UEllipse@23@UCircle@23@@boost@@IEBAXAEBUCircle@geonet@vanetza@@U?$bool_@$0A@@mpl@2@11@Z
	??$assign_impl@UEllipse@geonet@vanetza@@@assigner@?$variant@URectangle@geonet@vanetza@@UEllipse@23@UCircle@23@@boost@@IEBAXAEBUEllipse@geonet@vanetza@@U?$bool_@$0A@@mpl@2@11@Z
	??$assign_impl@URectangle@geonet@vanetza@@@assigner@?$variant@URectangle@geonet@vanetza@@UEllipse@23@UCircle@23@@boost@@IEBAXAEBURectangle@geonet@vanetza@@U?$bool_@$0A@@mpl@2@11@Z
	??$assign_impl@V?$backup_holder@UCircle@geonet@vanetza@@@variant@detail@boost@@@assigner@?$variant@URectangle@geonet@vanetza@@UEllipse@23@UCircle@23@@boost@@IEBAXAEBV?$backup_holder@UCircle@geonet@vanetza@@@variant@detail@2@U?$bool_@$0A@@mpl@2@11@Z
	??$assign_impl@V?$backup_holder@UEllipse@geonet@vanetza@@@variant@detail@boost@@@assigner@?$variant@URectangle@geonet@vanetza@@UEllipse@23@UCircle@23@@boost@@IEBAXAEBV?$backup_holder@UEllipse@geonet@vanetza@@@variant@detail@2@U?$bool_@$0A@@mpl@2@11@Z
	??$assign_impl@V?$backup_holder@URectangle@geonet@vanetza@@@variant@detail@boost@@@assigner@?$variant@URectangle@geonet@vanetza@@UEllipse@23@UCircle@23@@boost@@IEBAXAEBV?$backup_holder@URectangle@geonet@vanetza@@@variant@detail@2@U?$bool_@$0A@@mpl@2@11@Z
	??$backup_assign_impl@UCircle@geonet@vanetza@@@?$backup_assigner@V?$variant@URectangle@geonet@vanetza@@UEllipse@23@UCircle@23@@boost@@@variant@detail@boost@@AEAAXAEAUCircle@geonet@vanetza@@U?$bool_@$0A@@mpl@3@H@Z
	??$backup_assign_impl@UCircle@geonet@vanetza@@@?$backup_assigner@V?$variant@URectangle@geonet@vanetza@@UEllipse@23@UCircle@23@@boost@@@variant@detail@boost@@AEAAXAEAV?$backup_holder@UCircle@geonet@vanetza@@@123@U?$bool_@$0A@@mpl@3@J@Z
	??$backup_assign_impl@UEllipse@geonet@vanetza@@@?$backup_assigner@V?$variant@URectangle@geonet@vanetza@@UEllipse@23@UCircle@23@@boost@@@variant@detail@boost@@AEAAXAEAUEllipse@geonet@vanetza@@U?$bool_@$0A@@mpl@3@H@Z
	??$backup_assign_impl@UEllipse@geonet@vanetza@@@?$backup_assigner@V?$variant@URectangle@geonet@vanetza@@UEllipse@23@UCircle@23@@boost@@@variant@detail@boost@@AEAAXAEAV?$backup_holder@UEllipse@geonet@vanetza@@@123@U?$bool_@$0A@@mpl@3@J@Z
	??$backup_assign_impl@URectangle@geonet@vanetza@@@?$backup_assigner@V?$variant@URectangle@geonet@vanetza@@UEllipse@23@UCircle@23@@boost@@@variant@detail@boost@@AEAAXAEAURectangle@geonet@vanetza@@U?$bool_@$0A@@mpl@3@H@Z
	??$backup_assign_impl@URectangle@geonet@vanetza@@@?$backup_assigner@V?$variant@URectangle@geonet@vanetza@@UEllipse@23@UCircle@23@@boost@@@variant@detail@boost@@AEAAXAEAV?$backup_holder@URectangle@geonet@vanetza@@@123@U?$bool_@$0A@@mpl@3@J@Z
	??$call_member_close@V?$linked_streambuf@DU?$char_traits@D@std@@@detail@iostreams@boost@@@detail@iostreams@boost@@YA?AV?$member_close_operation@V?$linked_streambuf@DU?$char_traits@D@std@@@detail@iostreams@boost@@@012@AEAV?$linked_streambuf@DU?$char_traits@D@std@@@012@H@Z
	??$call_reset@V?$optional@V?$concept_adapter@Vbyte_buffer_source@vanetza@@@detail@iostreams@boost@@@detail@iostreams@boost@@@detail@iostreams@boost@@YA?AV?$reset_operation@V?$optional@V?$concept_adapter@Vbyte_buffer_source@vanetza@@@detail@iostreams@boost@@@detail@iostreams@boost@@@012@AEAV?$optional@V?$concept_adapter@Vbyte_buffer_source@vanetza@@@detail@iostreams@boost@@@012@@Z
	??$clear_flags@H@detail@iostreams@boost@@YA?AV?$clear_flags_operation@H@012@AEAH@Z
	??$close@Vbyte_buffer_source@vanetza@@@iostreams@boost@@YAXAEAVbyte_buffer_source@vanetza@@H@Z
	??$close_all@Vbyte_buffer_source@vanetza@@@detail@iostreams@boost@@YAXAEAVbyte_buffer_source@vanetza@@@Z
	??$construct_impl@UCircle@geonet@vanetza@@@?$backup_assigner@V?$variant@URectangle@geonet@vanetza@@UEllipse@23@UCircle@23@@boost@@@variant@detail@boost@@CAXPEAXPEBX@Z
	??$construct_impl@UEllipse@geonet@vanetza@@@?$backup_assigner@V?$variant@URectangle@geonet@vanetza@@UEllipse@23@UCircle@23@@boost@@@variant@detail@boost@@CAXPEAXPEBX@Z
	??$construct_impl@URectangle@geonet@vanetza@@@?$backup_assigner@V?$variant@URectangle@geonet@vanetza@@UEllipse@23@UCircle@23@@boost@@@variant@detail@boost@@CAXPEAXPEBX@Z
	??$construct_impl@V?$backup_holder@UCircle@geonet@vanetza@@@variant@detail@boost@@@?$backup_assigner@V?$variant@URectangle@geonet@vanetza@@UEllipse@23@UCircle@23@@boost@@@variant@detail@boost@@CAXPEAXPEBX@Z
	??$construct_impl@V?$backup_holder@UEllipse@geonet@vanetza@@@variant@detail@boost@@@?$backup_assigner@V?$variant@URectangle@geonet@vanetza@@UEllipse@23@UCircle@23@@boost@@@variant@detail@boost@@CAXPEAXPEBX@Z
	??$construct_impl@V?$backup_holder@URectangle@geonet@vanetza@@@variant@detail@boost@@@?$backup_assigner@V?$variant@URectangle@geonet@vanetza@@UEllipse@23@UCircle@23@@boost@@@variant@detail@boost@@CAXPEAXPEBX@Z
	??$deserialize@G$0A@@vanetza@@YAXAEAVInputArchive@0@AEAV?$EndianType@G$0A@@0@@Z
	??$deserialize_from_buffer@UHeaderA@btp@vanetza@@@vanetza@@YAXAEAUHeaderA@btp@0@AEBV?$vector@EV?$allocator@E@std@@@std@@@Z
	??$deserialize_from_buffer@UHeaderB@btp@vanetza@@@vanetza@@YAXAEAUHeaderB@btp@0@AEBV?$vector@EV?$allocator@E@std@@@std@@@Z
	??$deserialize_from_range@UHeaderA@btp@vanetza@@@vanetza@@YAXAEAUHeaderA@btp@0@V?$iterator_range@V?$_Vector_const_iterator@V?$_Vector_val@U?$_Simple_types@E@std@@@std@@@std@@@boost@@@Z
	??$deserialize_from_range@UHeaderB@btp@vanetza@@@vanetza@@YAXAEAUHeaderB@btp@0@V?$iterator_range@V?$_Vector_const_iterator@V?$_Vector_val@U?$_Simple_types@E@std@@@std@@@std@@@boost@@@Z
	??$endian_cast@$0A@G@vanetza@@YA?AV?$EndianType@G$0A@@0@G@Z
	??$execute_all@V?$member_close_operation@V?$linked_streambuf@DU?$char_traits@D@std@@@detail@iostreams@boost@@@detail@iostreams@boost@@@detail@iostreams@boost@@YAHV?$member_close_operation@V?$linked_streambuf@DU?$char_traits@D@std@@@detail@iostreams@boost@@@012@@Z
	??$execute_all@V?$member_close_operation@V?$linked_streambuf@DU?$char_traits@D@std@@@detail@iostreams@boost@@@detail@iostreams@boost@@V1234@@detail@iostreams@boost@@YAHV?$member_close_operation@V?$linked_streambuf@DU?$char_traits@D@std@@@detail@iostreams@boost@@@012@0@Z
	??$execute_all@V?$member_close_operation@V?$linked_streambuf@DU?$char_traits@D@std@@@detail@iostreams@boost@@@detail@iostreams@boost@@V1234@V?$reset_operation@V?$optional@V?$concept_adapter@Vbyte_buffer_source@vanetza@@@detail@iostreams@boost@@@detail@iostreams@boost@@@234@@detail@iostreams@boost@@YAHV?$member_close_operation@V?$linked_streambuf@DU?$char_traits@D@std@@@detail@iostreams@boost@@@012@0V?$reset_operation@V?$optional@V?$concept_adapter@Vbyte_buffer_source@vanetza@@@detail@iostreams@boost@@@detail@iostreams@boost@@@012@@Z
	??$execute_all@V?$member_close_operation@V?$linked_streambuf@DU?$char_traits@D@std@@@detail@iostreams@boost@@@detail@iostreams@boost@@V1234@V?$reset_operation@V?$optional@V?$concept_adapter@Vbyte_buffer_source@vanetza@@@detail@iostreams@boost@@@detail@iostreams@boost@@@234@V?$clear_flags_operation@H@234@@detail@iostreams@boost@@YAHV?$member_close_operation@V?$linked_streambuf@DU?$char_traits@D@std@@@detail@iostreams@boost@@@012@0V?$reset_operation@V?$optional@V?$concept_adapter@Vbyte_buffer_source@vanetza@@@detail@iostreams@boost@@@detail@iostreams@boost@@@012@V?$clear_flags_operation@H@012@@Z
	??$fill@PEAV?$_List_unchecked_iterator@V?$_List_val@U?$_List_simple_types@U?$pair@$$CBV?$EndianType@G$0A@@vanetza@@PEAVIndicationInterface@btp@2@@std@@@std@@@std@@@std@@V12@@std@@YAXQEAV?$_List_unchecked_iterator@V?$_List_val@U?$_List_simple_types@U?$pair@$$CBV?$EndianType@G$0A@@vanetza@@PEAVIndicationInterface@btp@2@@std@@@std@@@std@@@0@0AEBV10@@Z
	??$flush@Vbyte_buffer_source@vanetza@@@iostreams@boost@@YA_NAEAVbyte_buffer_source@vanetza@@@Z
	??$forced_return@UHeaderA@btp@vanetza@@@variant@detail@boost@@YA?AUHeaderA@btp@vanetza@@XZ
	??$forced_return@UHeaderB@btp@vanetza@@@variant@detail@boost@@YA?AUHeaderB@btp@vanetza@@XZ
	??$forced_return@X@variant@detail@boost@@YAXXZ
	??$imbue@Vbyte_buffer_source@vanetza@@Vlocale@std@@@iostreams@boost@@YAXAEAVbyte_buffer_source@vanetza@@AEBVlocale@std@@@Z
	??$network_cast@G@vanetza@@YA?AV?$EndianType@G$0A@@0@G@Z
	??$optimal_buffer_size@Vbyte_buffer_source@vanetza@@@iostreams@boost@@YA_JAEBVbyte_buffer_source@vanetza@@@Z
	??$seek@V?$linked_streambuf@DU?$char_traits@D@std@@@detail@iostreams@boost@@@?$concept_adapter@Vbyte_buffer_source@vanetza@@@detail@iostreams@boost@@QEAA?AV?$fpos@U_Mbstatet@@@std@@_JHHPEAV?$linked_streambuf@DU?$char_traits@D@std@@@123@@Z
	??$seek@Vbyte_buffer_source@vanetza@@@?$device_wrapper_impl@Uany_tag@iostreams@boost@@@detail@iostreams@boost@@SA?AV?$fpos@U_Mbstatet@@@std@@AEAVbyte_buffer_source@vanetza@@_JHHUany_tag@23@@Z
	??$seek@Vbyte_buffer_source@vanetza@@V?$linked_streambuf@DU?$char_traits@D@std@@@detail@iostreams@boost@@@?$device_wrapper_impl@Uany_tag@iostreams@boost@@@detail@iostreams@boost@@SA?AV?$fpos@U_Mbstatet@@@std@@AEAVbyte_buffer_source@vanetza@@PEAV?$linked_streambuf@DU?$char_traits@D@std@@@123@_JHH@Z
	??$serialize@G$0A@@vanetza@@YAXAEAVOutputArchive@0@V?$EndianType@G$0A@@0@@Z
	??$throw_exception@Vfailure@ios_base@std@@@boost@@YAXAEBVfailure@ios_base@std@@@Z
	??$uninitialized_fill@PEAV?$_List_unchecked_iterator@V?$_List_val@U?$_List_simple_types@U?$pair@$$CBV?$EndianType@G$0A@@vanetza@@PEAVIndicationInterface@btp@2@@std@@@std@@@std@@@std@@V12@@std@@YAXQEAV?$_List_unchecked_iterator@V?$_List_val@U?$_List_simple_types@U?$pair@$$CBV?$EndianType@G$0A@@vanetza@@PEAVIndicationInterface@btp@2@@std@@@std@@@std@@@0@0AEBV10@@Z
	??$unwrap@Vbyte_buffer_source@vanetza@@@detail@iostreams@boost@@YAAEAVbyte_buffer_source@vanetza@@AEAV34@@Z
	??$unwrap@Vbyte_buffer_source@vanetza@@@detail@iostreams@boost@@YAAEBVbyte_buffer_source@vanetza@@AEBV34@@Z
	??$visitation_impl@U?$int_@$0BE@@mpl@boost@@U?$visitation_impl_step@U?$l_iter@Ul_end@mpl@boost@@@mpl@boost@@U123@@variant@detail@3@Udestroyer@563@PEAXUhas_fallback_type_@?$variant@URectangle@geonet@vanetza@@UEllipse@23@UCircle@23@@3@@variant@detail@boost@@YAXHHAEAUdestroyer@012@PEAXU?$bool_@$00@mpl@2@Uhas_fallback_type_@?$variant@URectangle@geonet@vanetza@@UEllipse@23@UCircle@23@@2@PEAU?$int_@$0BE@@52@PEAU?$visitation_impl_step@U?$l_iter@Ul_end@mpl@boost@@@mpl@boost@@U123@@012@@Z
	??$visitation_impl@U?$int_@$0BE@@mpl@boost@@U?$visitation_impl_step@U?$l_iter@Ul_end@mpl@boost@@@mpl@boost@@U123@@variant@detail@3@Udestroyer@563@PEAXUhas_fallback_type_@?$variant@VAddress@geonet@vanetza@@UArea@23@$$T@3@@variant@detail@boost@@YAXHHAEAUdestroyer@012@PEAXU?$bool_@$00@mpl@2@Uhas_fallback_type_@?$variant@VAddress@geonet@vanetza@@UArea@23@$$T@2@PEAU?$int_@$0BE@@52@PEAU?$visitation_impl_step@U?$l_iter@Ul_end@mpl@boost@@@mpl@boost@@U123@@012@@Z
	??$visitation_impl@U?$int_@$0BE@@mpl@boost@@U?$visitation_impl_step@U?$l_iter@Ul_end@mpl@boost@@@mpl@boost@@U123@@variant@detail@3@Udestroyer@563@PEAXUhas_fallback_type_@?$variant@VChunkPacket@vanetza@@VCohesivePacket@2@@3@@variant@detail@boost@@YAXHHAEAUdestroyer@012@PEAXU?$bool_@$00@mpl@2@Uhas_fallback_type_@?$variant@VChunkPacket@vanetza@@VCohesivePacket@2@@2@PEAU?$int_@$0BE@@52@PEAU?$visitation_impl_step@U?$l_iter@Ul_end@mpl@boost@@@mpl@boost@@U123@@012@@Z
	??$visitation_impl@U?$int_@$0BE@@mpl@boost@@U?$visitation_impl_step@U?$l_iter@Ul_end@mpl@boost@@@mpl@boost@@U123@@variant@detail@3@Umove_storage@563@PEAXUhas_fallback_type_@?$variant@URectangle@geonet@vanetza@@UEllipse@23@UCircle@23@@3@@variant@detail@boost@@YAXHHAEAUmove_storage@012@PEAXU?$bool_@$00@mpl@2@Uhas_fallback_type_@?$variant@URectangle@geonet@vanetza@@UEllipse@23@UCircle@23@@2@PEAU?$int_@$0BE@@52@PEAU?$visitation_impl_step@U?$l_iter@Ul_end@mpl@boost@@@mpl@boost@@U123@@012@@Z
	??$visitation_impl@U?$int_@$0BE@@mpl@boost@@U?$visitation_impl_step@U?$l_iter@Ul_end@mpl@boost@@@mpl@boost@@U123@@variant@detail@3@Umove_storage@563@PEAXUhas_fallback_type_@?$variant@VAddress@geonet@vanetza@@UArea@23@$$T@3@@variant@detail@boost@@YAXHHAEAUmove_storage@012@PEAXU?$bool_@$00@mpl@2@Uhas_fallback_type_@?$variant@VAddress@geonet@vanetza@@UArea@23@$$T@2@PEAU?$int_@$0BE@@52@PEAU?$visitation_impl_step@U?$l_iter@Ul_end@mpl@boost@@@mpl@boost@@U123@@012@@Z
	??$visitation_impl@U?$int_@$0BE@@mpl@boost@@U?$visitation_impl_step@U?$l_iter@Ul_end@mpl@boost@@@mpl@boost@@U123@@variant@detail@3@V?$backup_assigner@V?$variant@URectangle@geonet@vanetza@@UEllipse@23@UCircle@23@@boost@@@563@PEAXUhas_fallback_type_@?$variant@URectangle@geonet@vanetza@@UEllipse@23@UCircle@23@@3@@variant@detail@boost@@YAXHHAEAV?$backup_assigner@V?$variant@URectangle@geonet@vanetza@@UEllipse@23@UCircle@23@@boost@@@012@PEAXU?$bool_@$00@mpl@2@Uhas_fallback_type_@?$variant@URectangle@geonet@vanetza@@UEllipse@23@UCircle@23@@2@PEAU?$int_@$0BE@@52@PEAU?$visitation_impl_step@U?$l_iter@Ul_end@mpl@boost@@@mpl@boost@@U123@@012@@Z
	??$visitation_impl@U?$int_@$0BE@@mpl@boost@@U?$visitation_impl_step@U?$l_iter@Ul_end@mpl@boost@@@mpl@boost@@U123@@variant@detail@3@Vcopy_into@563@PEBXUhas_fallback_type_@?$variant@URectangle@geonet@vanetza@@UEllipse@23@UCircle@23@@3@@variant@detail@boost@@YAXHHAEAVcopy_into@012@PEBXU?$bool_@$00@mpl@2@Uhas_fallback_type_@?$variant@URectangle@geonet@vanetza@@UEllipse@23@UCircle@23@@2@PEAU?$int_@$0BE@@52@PEAU?$visitation_impl_step@U?$l_iter@Ul_end@mpl@boost@@@mpl@boost@@U123@@012@@Z
	??$visitation_impl@U?$int_@$0BE@@mpl@boost@@U?$visitation_impl_step@U?$l_iter@Ul_end@mpl@boost@@@mpl@boost@@U123@@variant@detail@3@Vcopy_into@563@PEBXUhas_fallback_type_@?$variant@VAddress@geonet@vanetza@@UArea@23@$$T@3@@variant@detail@boost@@YAXHHAEAVcopy_into@012@PEBXU?$bool_@$00@mpl@2@Uhas_fallback_type_@?$variant@VAddress@geonet@vanetza@@UArea@23@$$T@2@PEAU?$int_@$0BE@@52@PEAU?$visitation_impl_step@U?$l_iter@Ul_end@mpl@boost@@@mpl@boost@@U123@@012@@Z
	??$visitation_impl@U?$int_@$0BE@@mpl@boost@@U?$visitation_impl_step@U?$l_iter@Ul_end@mpl@boost@@@mpl@boost@@U123@@variant@detail@3@Vmove_assigner@?$variant@URectangle@geonet@vanetza@@UEllipse@23@UCircle@23@@3@PEAXUhas_fallback_type_@83@@variant@detail@boost@@YAXHHAEAVmove_assigner@?$variant@URectangle@geonet@vanetza@@UEllipse@23@UCircle@23@@2@PEAXU?$bool_@$00@mpl@2@Uhas_fallback_type_@42@PEAU?$int_@$0BE@@62@PEAU?$visitation_impl_step@U?$l_iter@Ul_end@mpl@boost@@@mpl@boost@@U123@@012@@Z
	??$visitation_impl@U?$int_@$0BE@@mpl@boost@@U?$visitation_impl_step@U?$l_iter@Ul_end@mpl@boost@@@mpl@boost@@U123@@variant@detail@3@Vmove_assigner@?$variant@VAddress@geonet@vanetza@@UArea@23@$$T@3@PEAXUhas_fallback_type_@83@@variant@detail@boost@@YAXHHAEAVmove_assigner@?$variant@VAddress@geonet@vanetza@@UArea@23@$$T@2@PEAXU?$bool_@$00@mpl@2@Uhas_fallback_type_@42@PEAU?$int_@$0BE@@62@PEAU?$visitation_impl_step@U?$l_iter@Ul_end@mpl@boost@@@mpl@boost@@U123@@012@@Z
	??$visitation_impl@U?$int_@$0BE@@mpl@boost@@U?$visitation_impl_step@U?$l_iter@Ul_end@mpl@boost@@@mpl@boost@@U123@@variant@detail@3@Vmove_into@563@PEAXUhas_fallback_type_@?$variant@URectangle@geonet@vanetza@@UEllipse@23@UCircle@23@@3@@variant@detail@boost@@YAXHHAEAVmove_into@012@PEAXU?$bool_@$00@mpl@2@Uhas_fallback_type_@?$variant@URectangle@geonet@vanetza@@UEllipse@23@UCircle@23@@2@PEAU?$int_@$0BE@@52@PEAU?$visitation_impl_step@U?$l_iter@Ul_end@mpl@boost@@@mpl@boost@@U123@@012@@Z
	??$visitation_impl@U?$int_@$0BE@@mpl@boost@@U?$visitation_impl_step@U?$l_iter@Ul_end@mpl@boost@@@mpl@boost@@U123@@variant@detail@3@Vmove_into@563@PEAXUhas_fallback_type_@?$variant@VAddress@geonet@vanetza@@UArea@23@$$T@3@@variant@detail@boost@@YAXHHAEAVmove_into@012@PEAXU?$bool_@$00@mpl@2@Uhas_fallback_type_@?$variant@VAddress@geonet@vanetza@@UArea@23@$$T@2@PEAU?$int_@$0BE@@52@PEAU?$visitation_impl_step@U?$l_iter@Ul_end@mpl@boost@@@mpl@boost@@U123@@012@@Z
	??$visitation_impl_invoke@Udestroyer@variant@detail@boost@@PEAXUhas_fallback_type_@?$variant@URectangle@geonet@vanetza@@UEllipse@23@UCircle@23@@4@@variant@detail@boost@@YAXHAEAUdestroyer@012@PEAXPEAUapply_visitor_unrolled@012@Uhas_fallback_type_@?$variant@URectangle@geonet@vanetza@@UEllipse@23@UCircle@23@@2@J@Z
	??$visitation_impl_invoke@Udestroyer@variant@detail@boost@@PEAXUhas_fallback_type_@?$variant@VAddress@geonet@vanetza@@UArea@23@$$T@4@@variant@detail@boost@@YAXHAEAUdestroyer@012@PEAXPEAUapply_visitor_unrolled@012@Uhas_fallback_type_@?$variant@VAddress@geonet@vanetza@@UArea@23@$$T@2@J@Z
	??$visitation_impl_invoke@Udestroyer@variant@detail@boost@@PEAXUhas_fallback_type_@?$variant@VChunkPacket@vanetza@@VCohesivePacket@2@@4@@variant@detail@boost@@YAXHAEAUdestroyer@012@PEAXPEAUapply_visitor_unrolled@012@Uhas_fallback_type_@?$variant@VChunkPacket@vanetza@@VCohesivePacket@2@@2@J@Z
	??$visitation_impl_invoke@Umove_storage@variant@detail@boost@@PEAXUhas_fallback_type_@?$variant@URectangle@geonet@vanetza@@UEllipse@23@UCircle@23@@4@@variant@detail@boost@@YAXHAEAUmove_storage@012@PEAXPEAUapply_visitor_unrolled@012@Uhas_fallback_type_@?$variant@URectangle@geonet@vanetza@@UEllipse@23@UCircle@23@@2@J@Z
	??$visitation_impl_invoke@Umove_storage@variant@detail@boost@@PEAXUhas_fallback_type_@?$variant@VAddress@geonet@vanetza@@UArea@23@$$T@4@@variant@detail@boost@@YAXHAEAUmove_storage@012@PEAXPEAUapply_visitor_unrolled@012@Uhas_fallback_type_@?$variant@VAddress@geonet@vanetza@@UArea@23@$$T@2@J@Z
	??$visitation_impl_invoke@V?$backup_assigner@V?$variant@URectangle@geonet@vanetza@@UEllipse@23@UCircle@23@@boost@@@variant@detail@boost@@PEAXUhas_fallback_type_@?$variant@URectangle@geonet@vanetza@@UEllipse@23@UCircle@23@@4@@variant@detail@boost@@YAXHAEAV?$backup_assigner@V?$variant@URectangle@geonet@vanetza@@UEllipse@23@UCircle@23@@boost@@@012@PEAXPEAUapply_visitor_unrolled@012@Uhas_fallback_type_@?$variant@URectangle@geonet@vanetza@@UEllipse@23@UCircle@23@@2@J@Z
	??$visitation_impl_invoke@Vcopy_into@variant@detail@boost@@PEBXUhas_fallback_type_@?$variant@URectangle@geonet@vanetza@@UEllipse@23@UCircle@23@@4@@variant@detail@boost@@YAXHAEAVcopy_into@012@PEBXPEAUapply_visitor_unrolled@012@Uhas_fallback_type_@?$variant@URectangle@geonet@vanetza@@UEllipse@23@UCircle@23@@2@J@Z
	??$visitation_impl_invoke@Vcopy_into@variant@detail@boost@@PEBXUhas_fallback_type_@?$variant@VAddress@geonet@vanetza@@UArea@23@$$T@4@@variant@detail@boost@@YAXHAEAVcopy_into@012@PEBXPEAUapply_visitor_unrolled@012@Uhas_fallback_type_@?$variant@VAddress@geonet@vanetza@@UArea@23@$$T@2@J@Z
	??$visitation_impl_invoke@Vmove_assigner@?$variant@URectangle@geonet@vanetza@@UEllipse@23@UCircle@23@@boost@@PEAXUhas_fallback_type_@23@@variant@detail@boost@@YAXHAEAVmove_assigner@?$variant@URectangle@geonet@vanetza@@UEllipse@23@UCircle@23@@2@PEAXPEAUapply_visitor_unrolled@012@Uhas_fallback_type_@42@J@Z
	??$visitation_impl_invoke@Vmove_assigner@?$variant@VAddress@geonet@vanetza@@UArea@23@$$T@boost@@PEAXUhas_fallback_type_@23@@variant@detail@boost@@YAXHAEAVmove_assigner@?$variant@VAddress@geonet@vanetza@@UArea@23@$$T@2@PEAXPEAUapply_visitor_unrolled@012@Uhas_fallback_type_@42@J@Z
	??$visitation_impl_invoke@Vmove_into@variant@detail@boost@@PEAXUhas_fallback_type_@?$variant@URectangle@geonet@vanetza@@UEllipse@23@UCircle@23@@4@@variant@detail@boost@@YAXHAEAVmove_into@012@PEAXPEAUapply_visitor_unrolled@012@Uhas_fallback_type_@?$variant@URectangle@geonet@vanetza@@UEllipse@23@UCircle@23@@2@J@Z
	??$visitation_impl_invoke@Vmove_into@variant@detail@boost@@PEAXUhas_fallback_type_@?$variant@VAddress@geonet@vanetza@@UArea@23@$$T@4@@variant@detail@boost@@YAXHAEAVmove_into@012@PEAXPEAUapply_visitor_unrolled@012@Uhas_fallback_type_@?$variant@VAddress@geonet@vanetza@@UArea@23@$$T@2@J@Z
	??$write@V?$linked_streambuf@DU?$char_traits@D@std@@@detail@iostreams@boost@@@?$concept_adapter@Vbyte_buffer_source@vanetza@@@detail@iostreams@boost@@QEAA_JPEBD_JPEAV?$linked_streambuf@DU?$char_traits@D@std@@@123@@Z
	??$write@Vbyte_buffer_source@vanetza@@V?$linked_streambuf@DU?$char_traits@D@std@@@detail@iostreams@boost@@@?$device_wrapper_impl@Uinput@iostreams@boost@@@detail@iostreams@boost@@SA_JAEAVbyte_buffer_source@vanetza@@PEAV?$linked_streambuf@DU?$char_traits@D@std@@@123@PEBD_J@Z
	??0?$backup_holder@UCircle@geonet@vanetza@@@variant@detail@boost@@QEAA@AEBV0123@@Z
	??0?$backup_holder@UCircle@geonet@vanetza@@@variant@detail@boost@@QEAA@PEAUCircle@geonet@vanetza@@@Z
	??0?$backup_holder@UEllipse@geonet@vanetza@@@variant@detail@boost@@QEAA@AEBV0123@@Z
	??0?$backup_holder@UEllipse@geonet@vanetza@@@variant@detail@boost@@QEAA@PEAUEllipse@geonet@vanetza@@@Z
	??0?$backup_holder@URectangle@geonet@vanetza@@@variant@detail@boost@@QEAA@AEBV0123@@Z
	??0?$backup_holder@URectangle@geonet@vanetza@@@variant@detail@boost@@QEAA@PEAURectangle@geonet@vanetza@@@Z
	??0?$basic_buffer@DV?$allocator@D@std@@@detail@iostreams@boost@@QEAA@XZ
	??0?$basic_buffer@DV?$allocator@D@std@@@detail@iostreams@boost@@QEAA@_J@Z
	??0?$basic_string@DU?$char_traits@D@std@@V?$allocator@D@2@@std@@QEAA@AEBV01@@Z
	??0?$indirect_streambuf@Vbyte_buffer_source@vanetza@@U?$char_traits@D@std@@V?$allocator@D@4@Uinput@iostreams@boost@@@detail@iostreams@boost@@QEAA@XZ
	??0?$variant@URectangle@geonet@vanetza@@UEllipse@23@UCircle@23@@boost@@QEAA@$$QEAV01@@Z
	??0?$variant@URectangle@geonet@vanetza@@UEllipse@23@UCircle@23@@boost@@QEAA@AEBV01@@Z
	??0?$variant@VAddress@geonet@vanetza@@UArea@23@$$T@boost@@QEAA@$$QEAV01@@Z
	??0?$variant@VAddress@geonet@vanetza@@UArea@23@$$T@boost@@QEAA@AEBV01@@Z
	??0?$vector@EV?$allocator@E@std@@@std@@QEAA@AEBV01@@Z
	??0?$wrapexcept@Vfailure@ios_base@std@@@boost@@QEAA@AEBU01@@Z
	??0?$wrapexcept@Vfailure@ios_base@std@@@boost@@QEAA@AEBVfailure@ios_base@std@@@Z
	??0DataIndication@btp@vanetza@@QEAA@AEBU0geonet@2@AEBUHeaderA@12@@Z
	??0DataIndication@btp@vanetza@@QEAA@AEBU0geonet@2@AEBUHeaderB@12@@Z
	??0DataIndication@btp@vanetza@@QEAA@XZ
	??0DataRequestA@btp@vanetza@@QEAA@XZ
	??0DataRequestB@btp@vanetza@@QEAA@XZ
	??0_System_error@std@@IEAA@Verror_code@1@AEBV?$basic_string@DU?$char_traits@D@std@@V?$allocator@D@2@@1@@Z
	??0_System_error@std@@QEAA@AEBV01@@Z
	??0bad_alloc@std@@QEAA@AEBV01@@Z
	??0bad_array_new_length@std@@QEAA@AEBV01@@Z
	??0bad_array_new_length@std@@QEAA@XZ
	??0clone_base@exception_detail@boost@@QEAA@AEBV012@@Z
	??0exception@boost@@QEAA@AEBV01@@Z
	??0exception@std@@QEAA@AEBV01@@Z
	??0failure@ios_base@std@@QEAA@AEBV012@@Z
	??0runtime_error@std@@QEAA@AEBV01@@Z
	??0source_tag@iostreams@boost@@QEAA@XZ
	??0system_error@std@@QEAA@AEBV01@@Z
	??1?$_Alloc_construct_ptr@V?$allocator@U?$_List_node@PEAVPromiscuousHook@PortDispatcher@btp@vanetza@@PEAX@std@@@std@@@std@@QEAA@XZ
	??1?$_Alloc_construct_ptr@V?$allocator@U?$_List_node@U?$pair@$$CBV?$EndianType@G$0A@@vanetza@@PEAVIndicationInterface@btp@2@@std@@PEAX@std@@@std@@@std@@QEAA@XZ
	??1?$_List_node_emplace_op2@V?$allocator@U?$_List_node@U?$pair@$$CBV?$EndianType@G$0A@@vanetza@@PEAVIndicationInterface@btp@2@@std@@PEAX@std@@@std@@@std@@QEAA@XZ
	??1?$backup_holder@UCircle@geonet@vanetza@@@variant@detail@boost@@QEAA@XZ
	??1?$backup_holder@UEllipse@geonet@vanetza@@@variant@detail@boost@@QEAA@XZ
	??1?$backup_holder@URectangle@geonet@vanetza@@@variant@detail@boost@@QEAA@XZ
	??1?$basic_string@DU?$char_traits@D@std@@V?$allocator@D@2@@std@@QEAA@XZ
	??1?$indirect_streambuf@Vbyte_buffer_source@vanetza@@U?$char_traits@D@std@@V?$allocator@D@4@Uinput@iostreams@boost@@@detail@iostreams@boost@@UEAA@XZ
	??1?$optional@UDataIndication@btp@vanetza@@@boost@@QEAA@XZ
	??1?$optional@URepetition@DataRequest@geonet@vanetza@@@boost@@QEAA@XZ
	??1?$optional@V?$EndianType@G$0A@@vanetza@@@boost@@QEAA@XZ
	??1?$optional@V?$vector@EV?$allocator@E@std@@@std@@@boost@@QEAA@XZ
	??1?$optional@VLifetime@geonet@vanetza@@@boost@@QEAA@XZ
	??1?$optional_base@V?$vector@EV?$allocator@E@std@@@std@@@optional_detail@boost@@IEAA@XZ
	??1?$refcount_ptr@Uerror_info_container@exception_detail@boost@@@exception_detail@boost@@QEAA@XZ
	??1?$stream_buffer@Vbyte_buffer_source@vanetza@@U?$char_traits@D@std@@V?$allocator@D@4@Uinput@iostreams@boost@@@iostreams@boost@@UEAA@XZ
	??1?$unique_ptr@V?$variant@VChunkPacket@vanetza@@VCohesivePacket@2@@boost@@U?$default_delete@V?$variant@VChunkPacket@vanetza@@VCohesivePacket@2@@boost@@@std@@@std@@QEAA@XZ
	??1?$variant@VAddress@geonet@vanetza@@UArea@23@$$T@boost@@QEAA@XZ
	??1?$vector@EV?$allocator@E@std@@@std@@QEAA@XZ
	??1?$wrapexcept@Vfailure@ios_base@std@@@boost@@UEAA@XZ
	??1DataIndication@btp@vanetza@@QEAA@XZ
	??1bad_array_new_length@std@@UEAA@XZ
	??1clone_base@exception_detail@boost@@UEAA@XZ
	??1deleter@?$wrapexcept@Vfailure@ios_base@std@@@boost@@QEAA@XZ
	??1error_category@std@@UEAA@XZ
	??1exception@boost@@MEAA@XZ
	??1exception@std@@UEAA@XZ
	??1failure@ios_base@std@@UEAA@XZ
	??1system_error@std@@UEAA@XZ
	??2@YAPEAX_KPEAX@Z
	??4?$vector@EV?$allocator@E@std@@@std@@QEAAAEAV01@$$QEAV01@@Z
	??4DataIndication@btp@vanetza@@QEAAAEAU012@$$QEAU012@@Z
	??B?$integral_constant@_N$00@boost@@QEBAAEBU?$bool_@$00@mpl@1@XZ
	??R?$clear_flags_operation@H@detail@iostreams@boost@@QEBAXXZ
	??R?$member_close_operation@V?$linked_streambuf@DU?$char_traits@D@std@@@detail@iostreams@boost@@@detail@iostreams@boost@@QEBAXXZ
	??R?$reset_operation@V?$optional@V?$concept_adapter@Vbyte_buffer_source@vanetza@@@detail@iostreams@boost@@@detail@iostreams@boost@@@detail@iostreams@boost@@QEBAXXZ
	?_Buy_raw@?$vector@EV?$allocator@E@std@@@std@@AEAAX_K@Z
	?_Forced_rehash@?$_Hash@V?$_Umap_traits@V?$EndianType@G$0A@@vanetza@@PEAVIndicationInterface@btp@2@V?$_Uhash_compare@V?$EndianType@G$0A@@vanetza@@U?$hash@V?$EndianType@G$0A@@vanetza@@@std@@U?$equal_to@V?$EndianType@G$0A@@vanetza@@@4@@std@@V?$allocator@U?$pair@$$CBV?$EndianType@G$0A@@vanetza@@PEAVIndicationInterface@btp@2@@std@@@6@$0A@@std@@@std@@IEAAX_K@Z
	?_Maklocwcs@std@@YAPEA_WPEB_W@Z
	?_Throw_bad_array_new_length@std@@YAXXZ
	?_Xlen_string@std@@YAXXZ
	?_Xlength@?$vector@EV?$allocator@E@std@@@std@@CAXXZ
	?add_promiscuous_hook@PortDispatcher@btp@vanetza@@QEAAXPEAVPromiscuousHook@123@@Z
	?address@?$aligned_storage@$0BA@$07@boost@@QEAAPEAXXZ
	?allocate@?$allocator@D@std@@QEAAPEAD_K@Z
	?append@?$basic_string@DU?$char_traits@D@std@@V?$allocator@D@2@@std@@QEAAAEAV12@QEBD_K@Z
	?auto_close@?$indirect_streambuf@Vbyte_buffer_source@vanetza@@U?$char_traits@D@std@@V?$allocator@D@4@Uinput@iostreams@boost@@@detail@iostreams@boost@@UEBA_NXZ
	?bad_putback@detail@iostreams@boost@@YA?AVfailure@ios_base@std@@XZ
	?cant_seek@detail@iostreams@boost@@YA?AVfailure@ios_base@std@@XZ
	?cant_write@detail@iostreams@boost@@YA?AVfailure@ios_base@std@@XZ
	?clone@?$wrapexcept@Vfailure@ios_base@std@@@boost@@UEBAPEBVclone_base@exception_detail@2@XZ
	?close@?$indirect_streambuf@Vbyte_buffer_source@vanetza@@U?$char_traits@D@std@@V?$allocator@D@4@Uinput@iostreams@boost@@@detail@iostreams@boost@@QEAAXXZ
	?close_impl@?$indirect_streambuf@Vbyte_buffer_source@vanetza@@U?$char_traits@D@std@@V?$allocator@D@4@Uinput@iostreams@boost@@@detail@iostreams@boost@@MEAAXH@Z
	?component_impl@?$indirect_streambuf@Vbyte_buffer_source@vanetza@@U?$char_traits@D@std@@V?$allocator@D@4@Uinput@iostreams@boost@@@detail@iostreams@boost@@MEAAPEAXXZ
	?component_type@?$indirect_streambuf@Vbyte_buffer_source@vanetza@@U?$char_traits@D@std@@V?$allocator@D@4@Uinput@iostreams@boost@@@detail@iostreams@boost@@MEBAAEBVtype_info@@XZ
	?construct@?$optional_base@UDataIndication@btp@vanetza@@@optional_detail@boost@@IEAAX$$QEAUDataIndication@btp@vanetza@@@Z
	?construct_fallback@assigner@?$variant@VAddress@geonet@vanetza@@UArea@23@$$T@boost@@IEBAXXZ
	?copy_boost_exception@exception_detail@boost@@YAXPEAVexception@2@PEBV32@@Z
	?default_error_condition@error_category@std@@UEBA?AVerror_condition@2@H@Z
	?deserialize@btp@vanetza@@YAXAEAVInputArchive@2@AEAUHeaderA@12@@Z
	?deserialize@btp@vanetza@@YAXAEAVInputArchive@2@AEAUHeaderB@12@@Z
	?destroy@?$optional_base@V?$vector@EV?$allocator@E@std@@@std@@@optional_detail@boost@@IEAAXXZ
	?destroy_content@?$variant@URectangle@geonet@vanetza@@UEllipse@23@UCircle@23@@boost@@AEAAXXZ
	?destroy_content@?$variant@VAddress@geonet@vanetza@@UArea@23@$$T@boost@@AEAAXXZ
	?destroy_content@?$variant@VChunkPacket@vanetza@@VCohesivePacket@2@@boost@@AEAAXXZ
	?equivalent@error_category@std@@UEBA_NAEBVerror_code@2@H@Z
	?equivalent@error_category@std@@UEBA_NHAEBVerror_condition@2@@Z
	?imbue@?$indirect_streambuf@Vbyte_buffer_source@vanetza@@U?$char_traits@D@std@@V?$allocator@D@4@Uinput@iostreams@boost@@@detail@iostreams@boost@@MEAAXAEBVlocale@std@@@Z
	?indicate@PortDispatcher@btp@vanetza@@UEAAXAEBUDataIndication@geonet@3@V?$unique_ptr@V?$variant@VChunkPacket@vanetza@@VCohesivePacket@2@@boost@@U?$default_delete@V?$variant@VChunkPacket@vanetza@@VCohesivePacket@2@@boost@@@std@@@std@@@Z
	?indicate_backup_which@?$variant@URectangle@geonet@vanetza@@UEllipse@23@UCircle@23@@boost@@AEAAXH@Z
	?init_get_area@?$indirect_streambuf@Vbyte_buffer_source@vanetza@@U?$char_traits@D@std@@V?$allocator@D@4@Uinput@iostreams@boost@@@detail@iostreams@boost@@EEAAXXZ
	?init_put_area@?$indirect_streambuf@Vbyte_buffer_source@vanetza@@U?$char_traits@D@std@@V?$allocator@D@4@Uinput@iostreams@boost@@@detail@iostreams@boost@@EEAAXXZ
	?message@_Iostream_error_category2@std@@UEBA?AV?$basic_string@DU?$char_traits@D@std@@V?$allocator@D@2@@2@H@Z
	?name@_Iostream_error_category2@std@@UEBAPEBDXZ
	?next@?$indirect_streambuf@Vbyte_buffer_source@vanetza@@U?$char_traits@D@std@@V?$allocator@D@4@Uinput@iostreams@boost@@@detail@iostreams@boost@@AEBAPEAV?$linked_streambuf@DU?$char_traits@D@std@@@234@XZ
	?obj@?$indirect_streambuf@Vbyte_buffer_source@vanetza@@U?$char_traits@D@std@@V?$allocator@D@4@Uinput@iostreams@boost@@@detail@iostreams@boost@@AEAAAEAV?$concept_adapter@Vbyte_buffer_source@vanetza@@@234@XZ
	?open@?$indirect_streambuf@Vbyte_buffer_source@vanetza@@U?$char_traits@D@std@@V?$allocator@D@4@Uinput@iostreams@boost@@@detail@iostreams@boost@@QEAAXAEBVbyte_buffer_source@vanetza@@_J1@Z
	?overflow@?$indirect_streambuf@Vbyte_buffer_source@vanetza@@U?$char_traits@D@std@@V?$allocator@D@4@Uinput@iostreams@boost@@@detail@iostreams@boost@@MEAAHH@Z
	?parse_btp_a@btp@vanetza@@YA?AUHeaderA@12@AEAV?$variant@VChunkPacket@vanetza@@VCohesivePacket@2@@boost@@@Z
	?parse_btp_a@btp@vanetza@@YA?AUHeaderA@12@AEAVChunkPacket@2@@Z
	?parse_btp_a@btp@vanetza@@YA?AUHeaderA@12@AEAVCohesivePacket@2@@Z
	?parse_btp_b@btp@vanetza@@YA?AUHeaderB@12@AEAV?$variant@VChunkPacket@vanetza@@VCohesivePacket@2@@boost@@@Z
	?parse_btp_b@btp@vanetza@@YA?AUHeaderB@12@AEAVChunkPacket@2@@Z
	?parse_btp_b@btp@vanetza@@YA?AUHeaderB@12@AEAVCohesivePacket@2@@Z
	?parse_btp_header@btp@vanetza@@YA?AV?$optional@UDataIndication@btp@vanetza@@@boost@@AEBUDataIndication@geonet@2@AEAV?$variant@VChunkPacket@vanetza@@VCohesivePacket@2@@4@@Z
	?pbackfail@?$indirect_streambuf@Vbyte_buffer_source@vanetza@@U?$char_traits@D@std@@V?$allocator@D@4@Uinput@iostreams@boost@@@detail@iostreams@boost@@MEAAHH@Z
	?position_to_offset@iostreams@boost@@YA_JV?$fpos@U_Mbstatet@@@std@@@Z
	?remove_promiscuous_hook@PortDispatcher@btp@vanetza@@QEAAXPEAVPromiscuousHook@123@@Z
	?resize@?$basic_buffer@DV?$allocator@D@std@@@detail@iostreams@boost@@QEAAX_J@Z
	?rethrow@?$wrapexcept@Vfailure@ios_base@std@@@boost@@UEBAXXZ
	?seek_impl@?$indirect_streambuf@Vbyte_buffer_source@vanetza@@U?$char_traits@D@std@@V?$allocator@D@4@Uinput@iostreams@boost@@@detail@iostreams@boost@@AEAA?AV?$fpos@U_Mbstatet@@@std@@_JHH@Z
	?seekoff@?$indirect_streambuf@Vbyte_buffer_source@vanetza@@U?$char_traits@D@std@@V?$allocator@D@4@Uinput@iostreams@boost@@@detail@iostreams@boost@@MEAA?AV?$fpos@U_Mbstatet@@@std@@_JHH@Z
	?seekpos@?$indirect_streambuf@Vbyte_buffer_source@vanetza@@U?$char_traits@D@std@@V?$allocator@D@4@Uinput@iostreams@boost@@@detail@iostreams@boost@@MEAA?AV?$fpos@U_Mbstatet@@@std@@V56@H@Z
	?serialize@btp@vanetza@@YAXAEAVOutputArchive@2@AEBUHeaderA@12@@Z
	?serialize@btp@vanetza@@YAXAEAVOutputArchive@2@AEBUHeaderB@12@@Z
	?set_auto_close@?$indirect_streambuf@Vbyte_buffer_source@vanetza@@U?$char_traits@D@std@@V?$allocator@D@4@Uinput@iostreams@boost@@@detail@iostreams@boost@@UEAAX_N@Z
	?set_interactive_handler@PortDispatcher@btp@vanetza@@QEAAXV?$EndianType@G$0A@@3@PEAVIndicationInterface@23@@Z
	?set_next@?$indirect_streambuf@Vbyte_buffer_source@vanetza@@U?$char_traits@D@std@@V?$allocator@D@4@Uinput@iostreams@boost@@@detail@iostreams@boost@@MEAAXPEAV?$linked_streambuf@DU?$char_traits@D@std@@@234@@Z
	?set_next@?$linked_streambuf@DU?$char_traits@D@std@@@detail@iostreams@boost@@MEAAXPEAV1234@@Z
	?set_non_interactive_handler@PortDispatcher@btp@vanetza@@QEAAXV?$EndianType@G$0A@@3@PEAVIndicationInterface@23@@Z
	?strict_sync@?$indirect_streambuf@Vbyte_buffer_source@vanetza@@U?$char_traits@D@std@@V?$allocator@D@4@Uinput@iostreams@boost@@@detail@iostreams@boost@@UEAA_NXZ
	?swap@?$backup_holder@UCircle@geonet@vanetza@@@variant@detail@boost@@QEAAXAEAV1234@@Z
	?swap@?$backup_holder@UEllipse@geonet@vanetza@@@variant@detail@boost@@QEAAXAEAV1234@@Z
	?swap@?$backup_holder@URectangle@geonet@vanetza@@@variant@detail@boost@@QEAAXAEAV1234@@Z
	?sync@?$indirect_streambuf@Vbyte_buffer_source@vanetza@@U?$char_traits@D@std@@V?$allocator@D@4@Uinput@iostreams@boost@@@detail@iostreams@boost@@MEAAHXZ
	?sync_impl@?$indirect_streambuf@Vbyte_buffer_source@vanetza@@U?$char_traits@D@std@@V?$allocator@D@4@Uinput@iostreams@boost@@@detail@iostreams@boost@@AEAAXXZ
	?underflow@?$indirect_streambuf@Vbyte_buffer_source@vanetza@@U?$char_traits@D@std@@V?$allocator@D@4@Uinput@iostreams@boost@@@detail@iostreams@boost@@MEAAHXZ
	?variant_assign@?$variant@URectangle@geonet@vanetza@@UEllipse@23@UCircle@23@@boost@@AEAAX$$QEAV12@@Z
	?variant_assign@?$variant@VAddress@geonet@vanetza@@UArea@23@$$T@boost@@AEAAX$$QEAV12@@Z
	?what@exception@std@@UEBAPEBDXZ
	?which@?$variant@URectangle@geonet@vanetza@@UEllipse@23@UCircle@23@@boost@@QEBAHXZ
