EXPORTS 
	??_R0?AU?$wrapexcept@Vbad_format_string@io@boost@@@boost@@@8 	 DATA
	??_R0?AU?$wrapexcept@Vlength_error@std@@@boost@@@8 	 DATA
	??_R0?AU?$wrapexcept@Vtoo_few_args@io@boost@@@boost@@@8 	 DATA
	??_R0?AU?$wrapexcept@Vtoo_many_args@io@boost@@@boost@@@8 	 DATA
	??_R0?AUPendingTransmission@FlowControl@dcc@vanetza@@@8 	 DATA
	??_R0?AUTransmissionLite@dcc@vanetza@@@8 	 DATA
	??_R0?AV?$_Binder@U_Unforced@std@@P8FlowControl@dcc@vanetza@@EAAXXZPEAV345@@std@@@8 	 DATA
	??_R0?AV?$_Func_base@XV?$time_point@VClock@vanetza@@V?$duration@_JU?$ratio@$00$0PECEA@@std@@@chrono@std@@@chrono@std@@@std@@@8 	 DATA
	??_R0?AV?$_Func_impl_no_alloc@V?$_Binder@U_Unforced@std@@P8FlowControl@dcc@vanetza@@EAAXXZPEAV345@@std@@XV?$time_point@VClock@vanetza@@V?$duration@_JU?$ratio@$00$0PECEA@@std@@@chrono@std@@@chrono@2@@std@@@8 	 DATA
	??_R0?AV?$_Iosb@H@std@@@8 	 DATA
	??_R0?AV?$base_from_member@V?$shared_ptr@V?$basic_altstringbuf@DU?$char_traits@D@std@@V?$allocator@D@2@@io@boost@@@boost@@$0A@@boost@@@8 	 DATA
	??_R0?AV?$basic_altstringbuf@DU?$char_traits@D@std@@V?$allocator@D@2@@io@boost@@@8 	 DATA
	??_R0?AV?$basic_ios@DU?$char_traits@D@std@@@std@@@8 	 DATA
	??_R0?AV?$basic_oaltstringstream@DU?$char_traits@D@std@@V?$allocator@D@2@@io@boost@@@8 	 DATA
	??_R0?AV?$basic_ostream@DU?$char_traits@D@std@@@std@@@8 	 DATA
	??_R0?AV?$basic_streambuf@DU?$char_traits@D@std@@@std@@@8 	 DATA
	??_R0?AV?$sp_counted_impl_pd@PEAV?$basic_altstringbuf@DU?$char_traits@D@std@@V?$allocator@D@2@@io@boost@@VNo_Op@?$basic_oaltstringstream@DU?$char_traits@D@std@@V?$allocator@D@2@@23@@detail@boost@@@8 	 DATA
	??_R0?AVActive@dcc@vanetza@@@8 	 DATA
	??_R0?AVBurstyTransmitRateControl@dcc@vanetza@@@8 	 DATA
	??_R0?AVChannelProbeProcessor@dcc@vanetza@@@8 	 DATA
	??_R0?AVDutyCyclePermit@dcc@vanetza@@@8 	 DATA
	??_R0?AVFlowControl@dcc@vanetza@@@8 	 DATA
	??_R0?AVFullyMeshedStateMachine@dcc@vanetza@@@8 	 DATA
	??_R0?AVGradualStateMachine@dcc@vanetza@@@8 	 DATA
	??_R0?AVHookedChannelProbeProcessor@dcc@vanetza@@@8 	 DATA
	??_R0?AVLimeric@dcc@vanetza@@@8 	 DATA
	??_R0?AVLimericTransmitRateControl@dcc@vanetza@@@8 	 DATA
	??_R0?AVNo_Op@?$basic_oaltstringstream@DU?$char_traits@D@std@@V?$allocator@D@2@@io@boost@@@8 	 DATA
	??_R0?AVRelaxed@dcc@vanetza@@@8 	 DATA
	??_R0?AVRequestInterface@dcc@vanetza@@@8 	 DATA
	??_R0?AVRestrictive@dcc@vanetza@@@8 	 DATA
	??_R0?AVSingleReactiveTransmitRateControl@dcc@vanetza@@@8 	 DATA
	??_R0?AVSmoothingChannelProbeProcessor@dcc@vanetza@@@8 	 DATA
	??_R0?AVState@dcc@vanetza@@@8 	 DATA
	??_R0?AVStateMachine@dcc@vanetza@@@8 	 DATA
	??_R0?AVTransmission@dcc@vanetza@@@8 	 DATA
	??_R0?AVTransmitRateControl@dcc@vanetza@@@8 	 DATA
	??_R0?AVTransmitRateFeedback@dcc@vanetza@@@8 	 DATA
	??_R0?AVTransmitRateThrottle@dcc@vanetza@@@8 	 DATA
	??_R0?AVbad_alloc@std@@@8 	 DATA
	??_R0?AVbad_array_new_length@std@@@8 	 DATA
	??_R0?AVbad_cast@std@@@8 	 DATA
	??_R0?AVbad_format_string@io@boost@@@8 	 DATA
	??_R0?AVclone_base@exception_detail@boost@@@8 	 DATA
	??_R0?AVexception@boost@@@8 	 DATA
	??_R0?AVexception@std@@@8 	 DATA
	??_R0?AVformat_error@io@boost@@@8 	 DATA
	??_R0?AVinvalid_argument@std@@@8 	 DATA
	??_R0?AVios_base@std@@@8 	 DATA
	??_R0?AVlength_error@std@@@8 	 DATA
	??_R0?AVlogic_error@std@@@8 	 DATA
	??_R0?AVsp_counted_base@detail@boost@@@8 	 DATA
	??_R0?AVtoo_few_args@io@boost@@@8 	 DATA
	??_R0?AVtoo_many_args@io@boost@@@8 	 DATA
	?_Psave@?$_Facetptr@V?$ctype@D@std@@@std@@2PEBVfacet@locale@2@EB 	 DATA
	??$?0PEAV?$basic_altstringbuf@DU?$char_traits@D@std@@V?$allocator@D@2@@io@boost@@VNo_Op@?$basic_oaltstringstream@DU?$char_traits@D@std@@V?$allocator@D@2@@12@@shared_count@detail@boost@@QEAA@PEAV?$basic_altstringbuf@DU?$char_traits@D@std@@V?$allocator@D@2@@io@2@VNo_Op@?$basic_oaltstringstream@DU?$char_traits@D@std@@V?$allocator@D@2@@42@@Z
	??$?6U?$char_traits@D@std@@@std@@YAAEAV?$basic_ostream@DU?$char_traits@D@std@@@0@AEAV10@D@Z
	??$_Allocate_manually_vector_aligned@U_Default_allocate_traits@std@@@std@@YAPEAX_K@Z
	??$_Atomic_address_as@JU?$_Atomic_padded@H@std@@@std@@YAPECJAEAU?$_Atomic_padded@H@0@@Z
	??$_Construct@$00PEBD@?$basic_string@DU?$char_traits@D@std@@V?$allocator@D@2@@std@@AEAAXQEBD_K@Z
	??$_Copy_memmove@PEAIPEAI@std@@YAPEAIPEAI00@Z
	??$_Copy_nodes@$0A@@?$_Tree@V?$_Tset_traits@UState@GradualStateMachine@dcc@vanetza@@U?$less@UState@GradualStateMachine@dcc@vanetza@@@std@@V?$allocator@UState@GradualStateMachine@dcc@vanetza@@@6@$0A@@std@@@std@@IEAAPEAU?$_Tree_node@UState@GradualStateMachine@dcc@vanetza@@PEAX@1@PEAU21@0@Z
	??$_Destroy_range@V?$allocator@U?$format_item@DU?$char_traits@D@std@@V?$allocator@D@2@@detail@io@boost@@@std@@@std@@YAXPEAU?$format_item@DU?$char_traits@D@std@@V?$allocator@D@2@@detail@io@boost@@QEAU1234@AEAV?$allocator@U?$format_item@DU?$char_traits@D@std@@V?$allocator@D@2@@detail@io@boost@@@0@@Z
	??$_Erase_head@V?$allocator@U?$_Tree_node@UState@GradualStateMachine@dcc@vanetza@@PEAX@std@@@std@@@?$_Tree_val@U?$_Tree_simple_types@UState@GradualStateMachine@dcc@vanetza@@@std@@@std@@QEAAXAEAV?$allocator@U?$_Tree_node@UState@GradualStateMachine@dcc@vanetza@@PEAX@std@@@1@@Z
	??$_Erase_tree@V?$allocator@U?$_Tree_node@U?$pair@$$CBW4AccessCategory@access@vanetza@@V?$list@UPendingTransmission@FlowControl@dcc@vanetza@@V?$allocator@UPendingTransmission@FlowControl@dcc@vanetza@@@std@@@std@@@std@@PEAX@std@@@std@@@?$_Tree_val@U?$_Tree_simple_types@U?$pair@$$CBW4AccessCategory@access@vanetza@@V?$list@UPendingTransmission@FlowControl@dcc@vanetza@@V?$allocator@UPendingTransmission@FlowControl@dcc@vanetza@@@std@@@std@@@std@@@std@@@std@@QEAAXAEAV?$allocator@U?$_Tree_node@U?$pair@$$CBW4AccessCategory@access@vanetza@@V?$list@UPendingTransmission@FlowControl@dcc@vanetza@@V?$allocator@UPendingTransmission@FlowControl@dcc@vanetza@@@std@@@std@@@std@@PEAX@std@@@1@PEAU?$_Tree_node@U?$pair@$$CBW4AccessCategory@access@vanetza@@V?$list@UPendingTransmission@FlowControl@dcc@vanetza@@V?$allocator@UPendingTransmission@FlowControl@dcc@vanetza@@@std@@@std@@@std@@PEAX@1@@Z
	??$_Erase_tree@V?$allocator@U?$_Tree_node@U?$pair@$$CBW4OsiLayer@vanetza@@VByteBufferConvertible@2@@std@@PEAX@std@@@std@@@?$_Tree_val@U?$_Tree_simple_types@U?$pair@$$CBW4OsiLayer@vanetza@@VByteBufferConvertible@2@@std@@@std@@@std@@QEAAXAEAV?$allocator@U?$_Tree_node@U?$pair@$$CBW4OsiLayer@vanetza@@VByteBufferConvertible@2@@std@@PEAX@std@@@1@PEAU?$_Tree_node@U?$pair@$$CBW4OsiLayer@vanetza@@VByteBufferConvertible@2@@std@@PEAX@1@@Z
	??$_Erase_tree@V?$allocator@U?$_Tree_node@UState@GradualStateMachine@dcc@vanetza@@PEAX@std@@@std@@@?$_Tree_val@U?$_Tree_simple_types@UState@GradualStateMachine@dcc@vanetza@@@std@@@std@@QEAAXAEAV?$allocator@U?$_Tree_node@UState@GradualStateMachine@dcc@vanetza@@PEAX@std@@@1@PEAU?$_Tree_node@UState@GradualStateMachine@dcc@vanetza@@PEAX@1@@Z
	??$_Erase_tree_and_orphan@V?$allocator@U?$_Tree_node@UState@GradualStateMachine@dcc@vanetza@@PEAX@std@@@std@@@?$_Tree_val@U?$_Tree_simple_types@UState@GradualStateMachine@dcc@vanetza@@@std@@@std@@QEAAXAEAV?$allocator@U?$_Tree_node@UState@GradualStateMachine@dcc@vanetza@@PEAX@std@@@1@PEAU?$_Tree_node@UState@GradualStateMachine@dcc@vanetza@@PEAX@1@@Z
	??$_Fill_zero_memset@PEAI@std@@YAXPEAI_K@Z
	??$_Find_hint@UState@GradualStateMachine@dcc@vanetza@@@?$_Tree@V?$_Tset_traits@UState@GradualStateMachine@dcc@vanetza@@U?$less@UState@GradualStateMachine@dcc@vanetza@@@std@@V?$allocator@UState@GradualStateMachine@dcc@vanetza@@@6@$0A@@std@@@std@@IEBA?AU?$_Tree_find_hint_result@PEAU?$_Tree_node@UState@GradualStateMachine@dcc@vanetza@@PEAX@std@@@1@QEAU?$_Tree_node@UState@GradualStateMachine@dcc@vanetza@@PEAX@1@AEBUState@GradualStateMachine@dcc@vanetza@@@Z
	??$_Getvals@_W@?$time_get@DV?$istreambuf_iterator@DU?$char_traits@D@std@@@std@@@std@@IEAAX_WAEBV_Locinfo@1@@Z
	??$_Getvals@_W@?$time_get@_WV?$istreambuf_iterator@_WU?$char_traits@_W@std@@@std@@@std@@IEAAX_WAEBV_Locinfo@1@@Z
	??$_Is_all_bits_zero@I@std@@YA_NAEBI@Z
	??$_Maklocstr@D@std@@YAPEADPEBDPEADAEBU_Cvtvec@@@Z
	??$_Reallocate_grow_by@V<lambda_65e615be2a453ca0576c979606f46740>@@PEBD_K@?$basic_string@DU?$char_traits@D@std@@V?$allocator@D@2@@std@@AEAAAEAV01@_KV<lambda_65e615be2a453ca0576c979606f46740>@@PEBD_K@Z
	??$_Reallocate_grow_by@V<lambda_9013ee9e23efe4882b67eff5b0ecf103>@@$$V@?$basic_string@DU?$char_traits@D@std@@V?$allocator@D@2@@std@@AEAAAEAV01@_KV<lambda_9013ee9e23efe4882b67eff5b0ecf103>@@@Z
	??$_Reallocate_grow_by@V<lambda_e1befb086ad3257e3f042a63030725f7>@@_KD@?$basic_string@DU?$char_traits@D@std@@V?$allocator@D@2@@std@@AEAAAEAV01@_KV<lambda_e1befb086ad3257e3f042a63030725f7>@@_KD@Z
	??$_Resize_reallocate@I@?$vector@IV?$allocator@I@std@@@std@@AEAAX_KAEBI@Z
	??$_Resize_reallocate@U?$format_item@DU?$char_traits@D@std@@V?$allocator@D@2@@detail@io@boost@@@?$vector@U?$format_item@DU?$char_traits@D@std@@V?$allocator@D@2@@detail@io@boost@@V?$allocator@U?$format_item@DU?$char_traits@D@std@@V?$allocator@D@2@@detail@io@boost@@@std@@@std@@AEAAX_KAEBU?$format_item@DU?$char_traits@D@std@@V?$allocator@D@2@@detail@io@boost@@@Z
	??$_Test_callable@V?$_Binder@U_Unforced@std@@P8FlowControl@dcc@vanetza@@EAAXXZPEAV345@@std@@@std@@YA_NAEBV?$_Binder@U_Unforced@std@@P8FlowControl@dcc@vanetza@@EAAXXZPEAV345@@0@@Z
	??$_Uninitialized_fill_n@V?$allocator@U?$format_item@DU?$char_traits@D@std@@V?$allocator@D@2@@detail@io@boost@@@std@@@std@@YAPEAU?$format_item@DU?$char_traits@D@std@@V?$allocator@D@2@@detail@io@boost@@PEAU1234@_KAEBU1234@AEAV?$allocator@U?$format_item@DU?$char_traits@D@std@@V?$allocator@D@2@@detail@io@boost@@@0@@Z
	??$add@PEAV?$time_point@VClock@vanetza@@V?$duration@_JU?$ratio@$00$0PECEA@@std@@@chrono@std@@@chrono@std@@@?$circular_buffer@V?$time_point@VClock@vanetza@@V?$duration@_JU?$ratio@$00$0PECEA@@std@@@chrono@std@@@chrono@std@@V?$allocator@V?$time_point@VClock@vanetza@@V?$duration@_JU?$ratio@$00$0PECEA@@std@@@chrono@std@@@chrono@std@@@3@@boost@@AEBAPEAV?$time_point@VClock@vanetza@@V?$duration@_JU?$ratio@$00$0PECEA@@std@@@chrono@std@@@chrono@std@@PEAV234@_J@Z
	??$advance@V?$_Tree_const_iterator@V?$_Tree_val@U?$_Tree_simple_types@UState@GradualStateMachine@dcc@vanetza@@@std@@@std@@@std@@_J@std@@YAXAEAV?$_Tree_const_iterator@V?$_Tree_val@U?$_Tree_simple_types@UState@GradualStateMachine@dcc@vanetza@@@std@@@std@@@0@_J@Z
	??$call_put_head@DU?$char_traits@D@std@@$$CB_J@detail@io@boost@@YAXAEAV?$basic_ostream@DU?$char_traits@D@std@@@std@@PEBX@Z
	??$call_put_last@DU?$char_traits@D@std@@$$CB_J@detail@io@boost@@YAXAEAV?$basic_ostream@DU?$char_traits@D@std@@@std@@PEBX@Z
	??$const_or_not@V?$ctype@D@std@@@detail@io@boost@@YAAEBV?$ctype@D@std@@AEBV34@@Z
	??$decrement@PEAV?$time_point@VClock@vanetza@@V?$duration@_JU?$ratio@$00$0PECEA@@std@@@chrono@std@@@chrono@std@@@?$circular_buffer@V?$time_point@VClock@vanetza@@V?$duration@_JU?$ratio@$00$0PECEA@@std@@@chrono@std@@@chrono@std@@V?$allocator@V?$time_point@VClock@vanetza@@V?$duration@_JU?$ratio@$00$0PECEA@@std@@@chrono@std@@@chrono@std@@@3@@boost@@AEBAXAEAPEAV?$time_point@VClock@vanetza@@V?$duration@_JU?$ratio@$00$0PECEA@@std@@@chrono@std@@@chrono@std@@@Z
	??$feed_impl@DU?$char_traits@D@std@@V?$allocator@D@2@AEBU?$put_holder@DU?$char_traits@D@std@@@detail@io@boost@@@detail@io@boost@@YAAEAV?$basic_format@DU?$char_traits@D@std@@V?$allocator@D@2@@2@AEAV32@AEBU?$put_holder@DU?$char_traits@D@std@@@012@@Z
	??$fill@PEAU?$format_item@DU?$char_traits@D@std@@V?$allocator@D@2@@detail@io@boost@@U1234@@std@@YAXQEAU?$format_item@DU?$char_traits@D@std@@V?$allocator@D@2@@detail@io@boost@@0AEBU1234@@Z
	??$get_local_deleter@VNo_Op@?$basic_oaltstringstream@DU?$char_traits@D@std@@V?$allocator@D@2@@io@boost@@@detail@boost@@YAPEAVNo_Op@?$basic_oaltstringstream@DU?$char_traits@D@std@@V?$allocator@D@2@@io@1@PEAV2341@@Z
	??$increment@PEAV?$time_point@VClock@vanetza@@V?$duration@_JU?$ratio@$00$0PECEA@@std@@@chrono@std@@@chrono@std@@@?$circular_buffer@V?$time_point@VClock@vanetza@@V?$duration@_JU?$ratio@$00$0PECEA@@std@@@chrono@std@@@chrono@std@@V?$allocator@V?$time_point@VClock@vanetza@@V?$duration@_JU?$ratio@$00$0PECEA@@std@@@chrono@std@@@chrono@std@@@3@@boost@@AEBAXAEAPEAV?$time_point@VClock@vanetza@@V?$duration@_JU?$ratio@$00$0PECEA@@std@@@chrono@std@@@chrono@std@@@Z
	??$increment@PEAVChannelLoad@dcc@vanetza@@@?$circular_buffer@VChannelLoad@dcc@vanetza@@V?$allocator@VChannelLoad@dcc@vanetza@@@std@@@boost@@AEBAXAEAPEAVChannelLoad@dcc@vanetza@@@Z
	??$insert_n@U?$item_wrapper@PEBV?$time_point@VClock@vanetza@@V?$duration@_JU?$ratio@$00$0PECEA@@std@@@chrono@std@@@chrono@std@@AEBV123@@cb_details@boost@@@?$circular_buffer@V?$time_point@VClock@vanetza@@V?$duration@_JU?$ratio@$00$0PECEA@@std@@@chrono@std@@@chrono@std@@V?$allocator@V?$time_point@VClock@vanetza@@V?$duration@_JU?$ratio@$00$0PECEA@@std@@@chrono@std@@@chrono@std@@@3@@boost@@AEAAXAEBU?$iterator@V?$circular_buffer@V?$time_point@VClock@vanetza@@V?$duration@_JU?$ratio@$00$0PECEA@@std@@@chrono@std@@@chrono@std@@V?$allocator@V?$time_point@VClock@vanetza@@V?$duration@_JU?$ratio@$00$0PECEA@@std@@@chrono@std@@@chrono@std@@@3@@boost@@U?$nonconst_traits@V?$allocator@V?$time_point@VClock@vanetza@@V?$duration@_JU?$ratio@$00$0PECEA@@std@@@chrono@std@@@chrono@std@@@std@@@cb_details@2@@cb_details@1@_KAEBU?$item_wrapper@PEBV?$time_point@VClock@vanetza@@V?$duration@_JU?$ratio@$00$0PECEA@@std@@@chrono@std@@@chrono@std@@AEBV123@@31@@Z
	??$mean@U?$iterator@V?$circular_buffer@VChannelLoad@dcc@vanetza@@V?$allocator@VChannelLoad@dcc@vanetza@@@std@@@boost@@U?$const_traits@V?$allocator@VChannelLoad@dcc@vanetza@@@std@@@cb_details@2@@cb_details@boost@@$0A@@vanetza@@YA?AVUnitInterval@0@U?$iterator@V?$circular_buffer@VChannelLoad@dcc@vanetza@@V?$allocator@VChannelLoad@dcc@vanetza@@@std@@@boost@@U?$const_traits@V?$allocator@VChannelLoad@dcc@vanetza@@@std@@@cb_details@2@@cb_details@boost@@0@Z
	??$mean@U?$iterator@V?$circular_buffer@VChannelLoad@dcc@vanetza@@V?$allocator@VChannelLoad@dcc@vanetza@@@std@@@boost@@U?$nonconst_traits@V?$allocator@VChannelLoad@dcc@vanetza@@@std@@@cb_details@2@@cb_details@boost@@$0A@@vanetza@@YA?AVUnitInterval@0@U?$iterator@V?$circular_buffer@VChannelLoad@dcc@vanetza@@V?$allocator@VChannelLoad@dcc@vanetza@@@std@@@boost@@U?$nonconst_traits@V?$allocator@VChannelLoad@dcc@vanetza@@@std@@@cb_details@2@@cb_details@boost@@0@Z
	??$min@_K@std@@YAAEB_KAEB_K0@Z
	??$mk_str@DU?$char_traits@D@std@@V?$allocator@D@2@@detail@io@boost@@YAXAEAV?$basic_string@DU?$char_traits@D@std@@V?$allocator@D@2@@std@@PEBD_K_JDHD_N@Z
	??$parse_printf_directive@DU?$char_traits@D@std@@V?$allocator@D@2@V?$_String_const_iterator@V?$_String_val@U?$_Simple_types@D@std@@@std@@@2@V?$ctype@D@2@@detail@io@boost@@YA_NAEAV?$_String_const_iterator@V?$_String_val@U?$_Simple_types@D@std@@@std@@@std@@AEBV34@PEAU?$format_item@DU?$char_traits@D@std@@V?$allocator@D@2@@012@AEBV?$ctype@D@4@_KE@Z
	??$push_front_impl@AEBVChannelLoad@dcc@vanetza@@@?$circular_buffer@VChannelLoad@dcc@vanetza@@V?$allocator@VChannelLoad@dcc@vanetza@@@std@@@boost@@AEAAXAEBVChannelLoad@dcc@vanetza@@@Z
	??$put@DU?$char_traits@D@std@@V?$allocator@D@2@AEBU?$put_holder@DU?$char_traits@D@std@@@detail@io@boost@@@detail@io@boost@@YAXAEBU?$put_holder@DU?$char_traits@D@std@@@012@AEBU?$format_item@DU?$char_traits@D@std@@V?$allocator@D@2@@012@AEAV?$basic_string@DU?$char_traits@D@std@@V?$allocator@D@2@@std@@AEAV?$basic_altstringbuf@DU?$char_traits@D@std@@V?$allocator@D@2@@12@PEAVlocale@6@@Z
	??$str2int@HV?$_String_const_iterator@V?$_String_val@U?$_Simple_types@D@std@@@std@@@std@@V?$ctype@D@2@@detail@io@boost@@YA?AV?$_String_const_iterator@V?$_String_val@U?$_Simple_types@D@std@@@std@@@std@@AEBV34@0AEAHAEBV?$ctype@D@4@@Z
	??$str2int@_JV?$_String_const_iterator@V?$_String_val@U?$_Simple_types@D@std@@@std@@@std@@V?$ctype@D@2@@detail@io@boost@@YA?AV?$_String_const_iterator@V?$_String_val@U?$_Simple_types@D@std@@@std@@@std@@AEBV34@0AEA_JAEBV?$ctype@D@4@@Z
	??$throw_exception@Vbad_format_string@io@boost@@@boost@@YAXAEBVbad_format_string@io@0@@Z
	??$throw_exception@Vlength_error@std@@@boost@@YAXAEBVlength_error@std@@@Z
	??$throw_exception@Vtoo_few_args@io@boost@@@boost@@YAXAEBVtoo_few_args@io@0@@Z
	??$throw_exception@Vtoo_many_args@io@boost@@@boost@@YAXAEBVtoo_many_args@io@0@@Z
	??$uninitialized_move_if_noexcept@U?$iterator@V?$circular_buffer@V?$time_point@VClock@vanetza@@V?$duration@_JU?$ratio@$00$0PECEA@@std@@@chrono@std@@@chrono@std@@V?$allocator@V?$time_point@VClock@vanetza@@V?$duration@_JU?$ratio@$00$0PECEA@@std@@@chrono@std@@@chrono@std@@@3@@boost@@U?$nonconst_traits@V?$allocator@V?$time_point@VClock@vanetza@@V?$duration@_JU?$ratio@$00$0PECEA@@std@@@chrono@std@@@chrono@std@@@std@@@cb_details@2@@cb_details@boost@@PEAV?$time_point@VClock@vanetza@@V?$duration@_JU?$ratio@$00$0PECEA@@std@@@chrono@std@@@chrono@std@@V?$allocator@V?$time_point@VClock@vanetza@@V?$duration@_JU?$ratio@$00$0PECEA@@std@@@chrono@std@@@chrono@std@@@6@@cb_details@boost@@YAPEAV?$time_point@VClock@vanetza@@V?$duration@_JU?$ratio@$00$0PECEA@@std@@@chrono@std@@@chrono@std@@U?$iterator@V?$circular_buffer@V?$time_point@VClock@vanetza@@V?$duration@_JU?$ratio@$00$0PECEA@@std@@@chrono@std@@@chrono@std@@V?$allocator@V?$time_point@VClock@vanetza@@V?$duration@_JU?$ratio@$00$0PECEA@@std@@@chrono@std@@@chrono@std@@@3@@boost@@U?$nonconst_traits@V?$allocator@V?$time_point@VClock@vanetza@@V?$duration@_JU?$ratio@$00$0PECEA@@std@@@chrono@std@@@chrono@std@@@std@@@cb_details@2@@01@0PEAV234@AEAV?$allocator@V?$time_point@VClock@vanetza@@V?$duration@_JU?$ratio@$00$0PECEA@@std@@@chrono@std@@@chrono@std@@@4@@Z
	??$uninitialized_move_if_noexcept_impl@U?$iterator@V?$circular_buffer@V?$time_point@VClock@vanetza@@V?$duration@_JU?$ratio@$00$0PECEA@@std@@@chrono@std@@@chrono@std@@V?$allocator@V?$time_point@VClock@vanetza@@V?$duration@_JU?$ratio@$00$0PECEA@@std@@@chrono@std@@@chrono@std@@@3@@boost@@U?$nonconst_traits@V?$allocator@V?$time_point@VClock@vanetza@@V?$duration@_JU?$ratio@$00$0PECEA@@std@@@chrono@std@@@chrono@std@@@std@@@cb_details@2@@cb_details@boost@@PEAV?$time_point@VClock@vanetza@@V?$duration@_JU?$ratio@$00$0PECEA@@std@@@chrono@std@@@chrono@std@@V?$allocator@V?$time_point@VClock@vanetza@@V?$duration@_JU?$ratio@$00$0PECEA@@std@@@chrono@std@@@chrono@std@@@6@@cb_details@boost@@YAPEAV?$time_point@VClock@vanetza@@V?$duration@_JU?$ratio@$00$0PECEA@@std@@@chrono@std@@@chrono@std@@U?$iterator@V?$circular_buffer@V?$time_point@VClock@vanetza@@V?$duration@_JU?$ratio@$00$0PECEA@@std@@@chrono@std@@@chrono@std@@V?$allocator@V?$time_point@VClock@vanetza@@V?$duration@_JU?$ratio@$00$0PECEA@@std@@@chrono@std@@@chrono@std@@@3@@boost@@U?$nonconst_traits@V?$allocator@V?$time_point@VClock@vanetza@@V?$duration@_JU?$ratio@$00$0PECEA@@std@@@chrono@std@@@chrono@std@@@std@@@cb_details@2@@01@0PEAV234@AEAV?$allocator@V?$time_point@VClock@vanetza@@V?$duration@_JU?$ratio@$00$0PECEA@@std@@@chrono@std@@@chrono@std@@@4@U?$integral_constant@_N$00@1@@Z
	??$upper_bound_from_fstring@V?$basic_string@DU?$char_traits@D@std@@V?$allocator@D@2@@std@@V?$ctype@D@2@@detail@io@boost@@YAHAEBV?$basic_string@DU?$char_traits@D@std@@V?$allocator@D@2@@std@@DAEBV?$ctype@D@4@E@Z
	??$use_facet@V?$ctype@D@std@@@std@@YAAEBV?$ctype@D@0@AEBVlocale@0@@Z
	??$wrap_scan_notdigit@V?$_String_const_iterator@V?$_String_val@U?$_Simple_types@D@std@@@std@@@std@@V?$ctype@D@2@@detail@io@boost@@YA?AV?$_String_const_iterator@V?$_String_val@U?$_Simple_types@D@std@@@std@@@std@@AEBV?$ctype@D@4@V34@1@Z
	??0?$basic_format@DU?$char_traits@D@std@@V?$allocator@D@2@@boost@@QEAA@AEBV01@@Z
	??0?$basic_format@DU?$char_traits@D@std@@V?$allocator@D@2@@boost@@QEAA@PEBD@Z
	??0?$basic_string@DU?$char_traits@D@std@@V?$allocator@D@2@@std@@QEAA@AEBV01@@Z
	??0?$format_item@DU?$char_traits@D@std@@V?$allocator@D@2@@detail@io@boost@@QEAA@AEBU0123@@Z
	??0?$set@UState@GradualStateMachine@dcc@vanetza@@U?$less@UState@GradualStateMachine@dcc@vanetza@@@std@@V?$allocator@UState@GradualStateMachine@dcc@vanetza@@@6@@std@@QEAA@V?$initializer_list@UState@GradualStateMachine@dcc@vanetza@@@1@@Z
	??0?$wrapexcept@Vbad_format_string@io@boost@@@boost@@QEAA@AEBU01@@Z
	??0?$wrapexcept@Vbad_format_string@io@boost@@@boost@@QEAA@AEBVbad_format_string@io@1@@Z
	??0?$wrapexcept@Vlength_error@std@@@boost@@QEAA@AEBU01@@Z
	??0?$wrapexcept@Vlength_error@std@@@boost@@QEAA@AEBVlength_error@std@@@Z
	??0?$wrapexcept@Vtoo_few_args@io@boost@@@boost@@QEAA@AEBU01@@Z
	??0?$wrapexcept@Vtoo_few_args@io@boost@@@boost@@QEAA@AEBVtoo_few_args@io@1@@Z
	??0?$wrapexcept@Vtoo_many_args@io@boost@@@boost@@QEAA@AEBU01@@Z
	??0?$wrapexcept@Vtoo_many_args@io@boost@@@boost@@QEAA@AEBVtoo_many_args@io@1@@Z
	??0Active@dcc@vanetza@@QEAA@XZ
	??0BurstBudget@dcc@vanetza@@QEAA@AEBVRuntime@2@@Z
	??0BurstyTransmitRateControl@dcc@vanetza@@QEAA@AEBVStateMachine@12@AEBVRuntime@2@@Z
	??0ChannelLoad@dcc@vanetza@@QEAA@AEBVUnitInterval@2@@Z
	??0ChannelLoad@dcc@vanetza@@QEAA@II@Z
	??0FlowControl@dcc@vanetza@@QEAA@AEAVRuntime@2@AEAVTransmitRateControl@12@AEAVInterface@access@2@@Z
	??0FullyMeshedStateMachine@dcc@vanetza@@QEAA@XZ
	??0GradualStateMachine@dcc@vanetza@@QEAA@$$QEAV?$set@UState@GradualStateMachine@dcc@vanetza@@U?$less@UState@GradualStateMachine@dcc@vanetza@@@std@@V?$allocator@UState@GradualStateMachine@dcc@vanetza@@@6@@std@@@Z
	??0GradualStateMachine@dcc@vanetza@@QEAA@AEBV?$set@UState@GradualStateMachine@dcc@vanetza@@U?$less@UState@GradualStateMachine@dcc@vanetza@@@std@@V?$allocator@UState@GradualStateMachine@dcc@vanetza@@@6@@std@@@Z
	??0HookedChannelProbeProcessor@dcc@vanetza@@QEAA@XZ
	??0Limeric@dcc@vanetza@@QEAA@AEAVRuntime@2@@Z
	??0Limeric@dcc@vanetza@@QEAA@AEAVRuntime@2@AEBUParameters@012@@Z
	??0LimericBudget@dcc@vanetza@@QEAA@AEBVDutyCyclePermit@12@AEBVRuntime@2@@Z
	??0LimericTransmitRateControl@dcc@vanetza@@QEAA@AEBVRuntime@2@AEBVLimeric@12@@Z
	??0SingleReactiveTransmitRateControl@dcc@vanetza@@QEAA@AEBVStateMachine@12@AEBVRuntime@2@@Z
	??0SmoothingChannelProbeProcessor@dcc@vanetza@@QEAA@VUnitInterval@2@@Z
	??0StateMachineBudget@dcc@vanetza@@QEAA@AEBVStateMachine@12@AEBVRuntime@2@@Z
	??0bad_alloc@std@@QEAA@AEBV01@@Z
	??0bad_array_new_length@std@@QEAA@AEBV01@@Z
	??0bad_array_new_length@std@@QEAA@XZ
	??0bad_cast@std@@QEAA@AEBV01@@Z
	??0bad_cast@std@@QEAA@XZ
	??0bad_format_string@io@boost@@QEAA@AEBV012@@Z
	??0bad_format_string@io@boost@@QEAA@_K0@Z
	??0clone_base@exception_detail@boost@@QEAA@AEBV012@@Z
	??0exception@boost@@QEAA@AEBV01@@Z
	??0exception@std@@QEAA@AEBV01@@Z
	??0format_error@io@boost@@QEAA@AEBV012@@Z
	??0invalid_argument@std@@QEAA@AEBV01@@Z
	??0invalid_argument@std@@QEAA@PEBD@Z
	??0length_error@std@@QEAA@AEBV01@@Z
	??0length_error@std@@QEAA@PEBD@Z
	??0logic_error@std@@QEAA@AEBV01@@Z
	??0too_few_args@io@boost@@QEAA@AEBV012@@Z
	??0too_few_args@io@boost@@QEAA@_K0@Z
	??0too_many_args@io@boost@@QEAA@AEBV012@@Z
	??0too_many_args@io@boost@@QEAA@_K0@Z
	??1?$Hook@PEBVLimeric@dcc@vanetza@@V?$time_point@VClock@vanetza@@V?$duration@_JU?$ratio@$00$0PECEA@@std@@@chrono@std@@@chrono@std@@@vanetza@@QEAA@XZ
	??1?$_Alloc_construct_ptr@V?$allocator@U?$_List_node@UPendingTransmission@FlowControl@dcc@vanetza@@PEAX@std@@@std@@@std@@QEAA@XZ
	??1?$_Alloc_construct_ptr@V?$allocator@U?$_Tree_node@U?$pair@$$CBW4AccessCategory@access@vanetza@@V?$list@UPendingTransmission@FlowControl@dcc@vanetza@@V?$allocator@UPendingTransmission@FlowControl@dcc@vanetza@@@std@@@std@@@std@@PEAX@std@@@std@@@std@@QEAA@XZ
	??1?$_Alloc_construct_ptr@V?$allocator@U?$_Tree_node@UState@GradualStateMachine@dcc@vanetza@@PEAX@std@@@std@@@std@@QEAA@XZ
	??1?$_Tidy_guard@V?$vector@U?$format_item@DU?$char_traits@D@std@@V?$allocator@D@2@@detail@io@boost@@V?$allocator@U?$format_item@DU?$char_traits@D@std@@V?$allocator@D@2@@detail@io@boost@@@std@@@std@@@std@@QEAA@XZ
	??1?$_Tree@V?$_Tset_traits@UState@GradualStateMachine@dcc@vanetza@@U?$less@UState@GradualStateMachine@dcc@vanetza@@@std@@V?$allocator@UState@GradualStateMachine@dcc@vanetza@@@6@$0A@@std@@@std@@QEAA@XZ
	??1?$_Tree_head_scoped_ptr@V?$allocator@U?$_Tree_node@UState@GradualStateMachine@dcc@vanetza@@PEAX@std@@@std@@V?$_Tree_val@U?$_Tree_simple_types@UState@GradualStateMachine@dcc@vanetza@@@std@@@2@@std@@QEAA@XZ
	??1?$_Tree_temp_node@V?$allocator@U?$_Tree_node@UState@GradualStateMachine@dcc@vanetza@@PEAX@std@@@std@@@std@@QEAA@XZ
	??1?$_Tree_temp_node_alloc@V?$allocator@U?$_Tree_node@U?$pair@$$CBW4AccessCategory@access@vanetza@@V?$list@UPendingTransmission@FlowControl@dcc@vanetza@@V?$allocator@UPendingTransmission@FlowControl@dcc@vanetza@@@std@@@std@@@std@@PEAX@std@@@std@@@std@@QEAA@XZ
	??1?$_Uninitialized_backout_al@V?$allocator@U?$format_item@DU?$char_traits@D@std@@V?$allocator@D@2@@detail@io@boost@@@std@@@std@@QEAA@XZ
	??1?$base_from_member@V?$shared_ptr@V?$basic_altstringbuf@DU?$char_traits@D@std@@V?$allocator@D@2@@io@boost@@@boost@@$0A@@boost@@QEAA@XZ
	??1?$basic_altstringbuf@DU?$char_traits@D@std@@V?$allocator@D@2@@io@boost@@UEAA@XZ
	??1?$basic_format@DU?$char_traits@D@std@@V?$allocator@D@2@@boost@@QEAA@XZ
	??1?$basic_string@DU?$char_traits@D@std@@V?$allocator@D@2@@std@@QEAA@XZ
	??1?$circular_buffer@VChannelLoad@dcc@vanetza@@V?$allocator@VChannelLoad@dcc@vanetza@@@std@@@boost@@QEAA@XZ
	??1?$format_item@DU?$char_traits@D@std@@V?$allocator@D@2@@detail@io@boost@@QEAA@XZ
	??1?$function@$$A6AXV?$time_point@VClock@vanetza@@V?$duration@_JU?$ratio@$00$0PECEA@@std@@@chrono@std@@@chrono@std@@@Z@std@@QEAA@XZ
	??1?$list@UPendingTransmission@FlowControl@dcc@vanetza@@V?$allocator@UPendingTransmission@FlowControl@dcc@vanetza@@@std@@@std@@QEAA@XZ
	??1?$optional@UDualAlphaParameters@Limeric@dcc@vanetza@@@boost@@QEAA@XZ
	??1?$optional@UPendingTransmission@FlowControl@dcc@vanetza@@@boost@@QEAA@XZ
	??1?$optional@Vlocale@std@@@boost@@QEAA@XZ
	??1?$refcount_ptr@Uerror_info_container@exception_detail@boost@@@exception_detail@boost@@QEAA@XZ
	??1?$set@UState@GradualStateMachine@dcc@vanetza@@U?$less@UState@GradualStateMachine@dcc@vanetza@@@std@@V?$allocator@UState@GradualStateMachine@dcc@vanetza@@@6@@std@@QEAA@XZ
	??1?$unique_ptr@VChunkPacket@vanetza@@U?$default_delete@VChunkPacket@vanetza@@@std@@@std@@QEAA@XZ
	??1?$unique_ptr@V_Facet_base@std@@U?$default_delete@V_Facet_base@std@@@2@@std@@QEAA@XZ
	??1?$vector@U?$format_item@DU?$char_traits@D@std@@V?$allocator@D@2@@detail@io@boost@@V?$allocator@U?$format_item@DU?$char_traits@D@std@@V?$allocator@D@2@@detail@io@boost@@@std@@@std@@QEAA@XZ
	??1?$vector@_NV?$allocator@_N@std@@@std@@QEAA@XZ
	??1?$wrapexcept@Vbad_format_string@io@boost@@@boost@@UEAA@XZ
	??1?$wrapexcept@Vlength_error@std@@@boost@@UEAA@XZ
	??1?$wrapexcept@Vtoo_few_args@io@boost@@@boost@@UEAA@XZ
	??1?$wrapexcept@Vtoo_many_args@io@boost@@@boost@@UEAA@XZ
	??1Active@dcc@vanetza@@UEAA@XZ
	??1BurstBudget@dcc@vanetza@@QEAA@XZ
	??1ChannelProbeProcessor@dcc@vanetza@@UEAA@XZ
	??1DutyCyclePermit@dcc@vanetza@@UEAA@XZ
	??1FlowControl@dcc@vanetza@@UEAA@XZ
	??1FullyMeshedStateMachine@dcc@vanetza@@UEAA@XZ
	??1Limeric@dcc@vanetza@@UEAA@XZ
	??1Relaxed@dcc@vanetza@@UEAA@XZ
	??1RequestInterface@dcc@vanetza@@UEAA@XZ
	??1Restrictive@dcc@vanetza@@UEAA@XZ
	??1State@dcc@vanetza@@UEAA@XZ
	??1StateMachine@dcc@vanetza@@UEAA@XZ
	??1Transmission@dcc@vanetza@@UEAA@XZ
	??1TransmitRateFeedback@dcc@vanetza@@UEAA@XZ
	??1TransmitRateThrottle@dcc@vanetza@@UEAA@XZ
	??1_List_node_remove_op@?$list@UPendingTransmission@FlowControl@dcc@vanetza@@V?$allocator@UPendingTransmission@FlowControl@dcc@vanetza@@@std@@@std@@QEAA@XZ
	??1_Sentry_base@?$basic_ostream@DU?$char_traits@D@std@@@std@@QEAA@XZ
	??1bad_array_new_length@std@@UEAA@XZ
	??1bad_cast@std@@UEAA@XZ
	??1bad_format_string@io@boost@@UEAA@XZ
	??1clone_base@exception_detail@boost@@UEAA@XZ
	??1deleter@?$wrapexcept@Vbad_format_string@io@boost@@@boost@@QEAA@XZ
	??1deleter@?$wrapexcept@Vlength_error@std@@@boost@@QEAA@XZ
	??1deleter@?$wrapexcept@Vtoo_few_args@io@boost@@@boost@@QEAA@XZ
	??1deleter@?$wrapexcept@Vtoo_many_args@io@boost@@@boost@@QEAA@XZ
	??1exception@boost@@MEAA@XZ
	??1exception@std@@UEAA@XZ
	??1invalid_argument@std@@UEAA@XZ
	??1length_error@std@@UEAA@XZ
	??1locale@std@@QEAA@XZ
	??1sentry@?$basic_ostream@DU?$char_traits@D@std@@@std@@QEAA@XZ
	??1sp_counted_base@detail@boost@@UEAA@XZ
	??1too_few_args@io@boost@@UEAA@XZ
	??1too_many_args@io@boost@@UEAA@XZ
	??A?$map@W4AccessCategory@access@vanetza@@V?$list@UPendingTransmission@FlowControl@dcc@vanetza@@V?$allocator@UPendingTransmission@FlowControl@dcc@vanetza@@@std@@@std@@U?$greater@W4AccessCategory@access@vanetza@@@5@V?$allocator@U?$pair@$$CBW4AccessCategory@access@vanetza@@V?$list@UPendingTransmission@FlowControl@dcc@vanetza@@V?$allocator@UPendingTransmission@FlowControl@dcc@vanetza@@@std@@@std@@@std@@@5@@std@@QEAAAEAV?$list@UPendingTransmission@FlowControl@dcc@vanetza@@V?$allocator@UPendingTransmission@FlowControl@dcc@vanetza@@@std@@@1@AEBW4AccessCategory@access@vanetza@@@Z
	??E?$_Tree_unchecked_const_iterator@V?$_Tree_val@U?$_Tree_simple_types@UState@GradualStateMachine@dcc@vanetza@@@std@@@std@@U_Iterator_base0@2@@std@@QEAAAEAV01@XZ
	??F?$_Tree_unchecked_const_iterator@V?$_Tree_val@U?$_Tree_simple_types@UState@GradualStateMachine@dcc@vanetza@@@std@@@std@@U_Iterator_base0@2@@std@@QEAAAEAV01@XZ
	??H?$_Vb_iterator@U?$_Wrap_alloc@V?$allocator@I@std@@@std@@@std@@QEBA?AV01@_J@Z
	??Y?$iterator@V?$circular_buffer@V?$time_point@VClock@vanetza@@V?$duration@_JU?$ratio@$00$0PECEA@@std@@@chrono@std@@@chrono@std@@V?$allocator@V?$time_point@VClock@vanetza@@V?$duration@_JU?$ratio@$00$0PECEA@@std@@@chrono@std@@@chrono@std@@@3@@boost@@U?$nonconst_traits@V?$allocator@V?$time_point@VClock@vanetza@@V?$duration@_JU?$ratio@$00$0PECEA@@std@@@chrono@std@@@chrono@std@@@std@@@cb_details@2@@cb_details@boost@@QEAAAEAU012@_J@Z
	??Z?$iterator@V?$circular_buffer@V?$time_point@VClock@vanetza@@V?$duration@_JU?$ratio@$00$0PECEA@@std@@@chrono@std@@@chrono@std@@V?$allocator@V?$time_point@VClock@vanetza@@V?$duration@_JU?$ratio@$00$0PECEA@@std@@@chrono@std@@@chrono@std@@@3@@boost@@U?$nonconst_traits@V?$allocator@V?$time_point@VClock@vanetza@@V?$duration@_JU?$ratio@$00$0PECEA@@std@@@chrono@std@@@chrono@std@@@std@@@cb_details@2@@cb_details@boost@@QEAAAEAU012@_J@Z
	??_D?$basic_oaltstringstream@DU?$char_traits@D@std@@V?$allocator@D@2@@io@boost@@QEAAXXZ
	?_Copy@?$_Func_impl_no_alloc@V?$_Binder@U_Unforced@std@@P8FlowControl@dcc@vanetza@@EAAXXZPEAV345@@std@@XV?$time_point@VClock@vanetza@@V?$duration@_JU?$ratio@$00$0PECEA@@std@@@chrono@std@@@chrono@2@@std@@EEBAPEAV?$_Func_base@XV?$time_point@VClock@vanetza@@V?$duration@_JU?$ratio@$00$0PECEA@@std@@@chrono@std@@@chrono@std@@@2@PEAX@Z
	?_Delete_this@?$_Func_impl_no_alloc@V?$_Binder@U_Unforced@std@@P8FlowControl@dcc@vanetza@@EAAXXZPEAV345@@std@@XV?$time_point@VClock@vanetza@@V?$duration@_JU?$ratio@$00$0PECEA@@std@@@chrono@std@@@chrono@2@@std@@EEAAX_N@Z
	?_Do_call@?$_Func_impl_no_alloc@V?$_Binder@U_Unforced@std@@P8FlowControl@dcc@vanetza@@EAAXXZPEAV345@@std@@XV?$time_point@VClock@vanetza@@V?$duration@_JU?$ratio@$00$0PECEA@@std@@@chrono@std@@@chrono@2@@std@@EEAAX$$QEAV?$time_point@VClock@vanetza@@V?$duration@_JU?$ratio@$00$0PECEA@@std@@@chrono@std@@@chrono@2@@Z
	?_Get@?$_Func_impl_no_alloc@V?$_Binder@U_Unforced@std@@P8FlowControl@dcc@vanetza@@EAAXXZPEAV345@@std@@XV?$time_point@VClock@vanetza@@V?$duration@_JU?$ratio@$00$0PECEA@@std@@@chrono@std@@@chrono@2@@std@@EEBAPEBXXZ
	?_Getal@?$_Tree@V?$_Tset_traits@UState@GradualStateMachine@dcc@vanetza@@U?$less@UState@GradualStateMachine@dcc@vanetza@@@std@@V?$allocator@UState@GradualStateMachine@dcc@vanetza@@@6@$0A@@std@@@std@@IEAAAEAV?$allocator@U?$_Tree_node@UState@GradualStateMachine@dcc@vanetza@@PEAX@std@@@2@XZ
	?_Insert_node@?$_Tree_val@U?$_Tree_simple_types@U?$pair@$$CBW4AccessCategory@access@vanetza@@V?$list@UPendingTransmission@FlowControl@dcc@vanetza@@V?$allocator@UPendingTransmission@FlowControl@dcc@vanetza@@@std@@@std@@@std@@@std@@@std@@QEAAPEAU?$_Tree_node@U?$pair@$$CBW4AccessCategory@access@vanetza@@V?$list@UPendingTransmission@FlowControl@dcc@vanetza@@V?$allocator@UPendingTransmission@FlowControl@dcc@vanetza@@@std@@@std@@@std@@PEAX@2@U?$_Tree_id@PEAU?$_Tree_node@U?$pair@$$CBW4AccessCategory@access@vanetza@@V?$list@UPendingTransmission@FlowControl@dcc@vanetza@@V?$allocator@UPendingTransmission@FlowControl@dcc@vanetza@@@std@@@std@@@std@@PEAX@std@@@2@QEAU32@@Z
	?_Insert_node@?$_Tree_val@U?$_Tree_simple_types@UState@GradualStateMachine@dcc@vanetza@@@std@@@std@@QEAAPEAU?$_Tree_node@UState@GradualStateMachine@dcc@vanetza@@PEAX@2@U?$_Tree_id@PEAU?$_Tree_node@UState@GradualStateMachine@dcc@vanetza@@PEAX@std@@@2@QEAU32@@Z
	?_Insert_x@?$vector@_NV?$allocator@_N@std@@@std@@QEAA_KV?$_Vb_const_iterator@U?$_Wrap_alloc@V?$allocator@I@std@@@std@@@2@_K@Z
	?_Maklocwcs@std@@YAPEA_WPEB_W@Z
	?_Move@?$_Func_impl_no_alloc@V?$_Binder@U_Unforced@std@@P8FlowControl@dcc@vanetza@@EAAXXZPEAV345@@std@@XV?$time_point@VClock@vanetza@@V?$duration@_JU?$ratio@$00$0PECEA@@std@@@chrono@std@@@chrono@2@@std@@EEAAPEAV?$_Func_base@XV?$time_point@VClock@vanetza@@V?$duration@_JU?$ratio@$00$0PECEA@@std@@@chrono@std@@@chrono@std@@@2@PEAX@Z
	?_Target_type@?$_Func_impl_no_alloc@V?$_Binder@U_Unforced@std@@P8FlowControl@dcc@vanetza@@EAAXXZPEAV345@@std@@XV?$time_point@VClock@vanetza@@V?$duration@_JU?$ratio@$00$0PECEA@@std@@@chrono@std@@@chrono@2@@std@@EEBAAEBVtype_info@@XZ
	?_Throw_bad_array_new_length@std@@YAXXZ
	?_Throw_bad_cast@std@@YAXXZ
	?_Throw_tree_length_error@std@@YAXXZ
	?_Tidy@?$vector@U?$format_item@DU?$char_traits@D@std@@V?$allocator@D@2@@detail@io@boost@@V?$allocator@U?$format_item@DU?$char_traits@D@std@@V?$allocator@D@2@@detail@io@boost@@@std@@@std@@AEAAXXZ
	?_Xlen@?$vector@_NV?$allocator@_N@std@@@std@@QEBAXXZ
	?_Xlen_string@std@@YAXXZ
	?_Xlength@?$vector@IV?$allocator@I@std@@@std@@CAXXZ
	?_Xlength@?$vector@U?$format_item@DU?$char_traits@D@std@@V?$allocator@D@2@@detail@io@boost@@V?$allocator@U?$format_item@DU?$char_traits@D@std@@V?$allocator@D@2@@detail@io@boost@@@std@@@std@@CAXXZ
	?allocate@?$allocator@D@std@@QEAAPEAD_K@Z
	?allocate@?$allocator@I@std@@QEAAPEAI_K@Z
	?allocate@?$allocator@U?$format_item@DU?$char_traits@D@std@@V?$allocator@D@2@@detail@io@boost@@@std@@QEAAPEAU?$format_item@DU?$char_traits@D@std@@V?$allocator@D@2@@detail@io@boost@@_K@Z
	?allocate@?$circular_buffer@V?$time_point@VClock@vanetza@@V?$duration@_JU?$ratio@$00$0PECEA@@std@@@chrono@std@@@chrono@std@@V?$allocator@V?$time_point@VClock@vanetza@@V?$duration@_JU?$ratio@$00$0PECEA@@std@@@chrono@std@@@chrono@std@@@3@@boost@@AEAAPEAV?$time_point@VClock@vanetza@@V?$duration@_JU?$ratio@$00$0PECEA@@std@@@chrono@std@@@chrono@std@@_K@Z
	?append@?$basic_string@DU?$char_traits@D@std@@V?$allocator@D@2@@std@@QEAAAEAV12@QEBD_K@Z
	?append@?$basic_string@DU?$char_traits@D@std@@V?$allocator@D@2@@std@@QEAAAEAV12@_KD@Z
	?apply_on@?$stream_format_state@DU?$char_traits@D@std@@@detail@io@boost@@QEBAXAEAV?$basic_ios@DU?$char_traits@D@std@@@std@@PEAVlocale@6@@Z
	?assign@?$basic_string@DU?$char_traits@D@std@@V?$allocator@D@2@@std@@QEAAAEAV12@QEBD_K@Z
	?assign@?$vector@U?$format_item@DU?$char_traits@D@std@@V?$allocator@D@2@@detail@io@boost@@V?$allocator@U?$format_item@DU?$char_traits@D@std@@V?$allocator@D@2@@detail@io@boost@@@std@@@std@@QEAAX_KAEBU?$format_item@DU?$char_traits@D@std@@V?$allocator@D@2@@detail@io@boost@@@Z
	?average_cbr@Limeric@dcc@vanetza@@QEBA?AVChannelLoad@23@XZ
	?body_length@PendingTransmission@FlowControl@dcc@vanetza@@UEBA_KXZ
	?body_length@TransmissionLite@dcc@vanetza@@UEBA_KXZ
	?burst_duration@BurstBudget@dcc@vanetza@@QEAAXV?$duration@_JU?$ratio@$00$0PECEA@@std@@@chrono@std@@@Z
	?burst_messages@BurstBudget@dcc@vanetza@@QEAAX_K@Z
	?burst_period@BurstBudget@dcc@vanetza@@QEAAXV?$duration@_JU?$ratio@$00$0PECEA@@std@@@chrono@std@@@Z
	?calculate@Limeric@dcc@vanetza@@AEAAXV?$time_point@VClock@vanetza@@V?$duration@_JU?$ratio@$00$0PECEA@@std@@@chrono@std@@@chrono@std@@@Z
	?calculate_duty_cycle@Limeric@dcc@vanetza@@AEBA?AVUnitInterval@3@XZ
	?channel_load@SmoothingChannelProbeProcessor@dcc@vanetza@@QEBA?AVChannelLoad@23@XZ
	?channel_occupancy@Transmission@dcc@vanetza@@UEBA?AV?$duration@_JU?$ratio@$00$0PECEA@@std@@@chrono@std@@XZ
	?clamp_interval@LimericBudget@dcc@vanetza@@AEBA?AV?$duration@_JU?$ratio@$00$0PECEA@@std@@@chrono@std@@V456@@Z
	?clear@?$basic_format@DU?$char_traits@D@std@@V?$allocator@D@2@@boost@@QEAAAEAV12@XZ
	?clear_buffer@?$basic_altstringbuf@DU?$char_traits@D@std@@V?$allocator@D@2@@io@boost@@QEAAXXZ
	?clone@?$wrapexcept@Vbad_format_string@io@boost@@@boost@@UEBAPEBVclone_base@exception_detail@2@XZ
	?clone@?$wrapexcept@Vlength_error@std@@@boost@@UEBAPEBVclone_base@exception_detail@2@XZ
	?clone@?$wrapexcept@Vtoo_few_args@io@boost@@@boost@@UEBAPEBVclone_base@exception_detail@2@XZ
	?clone@?$wrapexcept@Vtoo_many_args@io@boost@@@boost@@UEBAPEBVclone_base@exception_detail@2@XZ
	?compute_states@?$format_item@DU?$char_traits@D@std@@V?$allocator@D@2@@detail@io@boost@@QEAAXXZ
	?configure_dual_alpha@Limeric@dcc@vanetza@@QEAAXAEBV?$optional@UDualAlphaParameters@Limeric@dcc@vanetza@@@boost@@@Z
	?copy_boost_exception@exception_detail@boost@@YAXPEAVexception@2@PEBV32@@Z
	?create_from_probes@ChannelLoad@dcc@vanetza@@SA?AVUnitInterval@3@II@Z
	?data_rate@PendingTransmission@FlowControl@dcc@vanetza@@UEBAPEBVDataRateG5@access@4@XZ
	?data_rate@TransmissionLite@dcc@vanetza@@UEBAPEBVDataRateG5@access@3@XZ
	?dealloc@?$basic_altstringbuf@DU?$char_traits@D@std@@V?$allocator@D@2@@io@boost@@IEAAXXZ
	?deallocate@?$allocator@D@std@@QEAAXQEAD_K@Z
	?deallocate@?$allocator@I@std@@QEAAXQEAI_K@Z
	?deallocate@?$allocator@U?$format_item@DU?$char_traits@D@std@@V?$allocator@D@2@@detail@io@boost@@@std@@QEAAXQEAU?$format_item@DU?$char_traits@D@std@@V?$allocator@D@2@@detail@io@boost@@_K@Z
	?deallocate@?$circular_buffer@V?$time_point@VClock@vanetza@@V?$duration@_JU?$ratio@$00$0PECEA@@std@@@chrono@std@@@chrono@std@@V?$allocator@V?$time_point@VClock@vanetza@@V?$duration@_JU?$ratio@$00$0PECEA@@std@@@chrono@std@@@chrono@std@@@3@@boost@@AEAAXPEAV?$time_point@VClock@vanetza@@V?$duration@_JU?$ratio@$00$0PECEA@@std@@@chrono@std@@@chrono@std@@_K@Z
	?delay@BurstBudget@dcc@vanetza@@QEAA?AV?$duration@_JU?$ratio@$00$0PECEA@@std@@@chrono@std@@XZ
	?delay@BurstyTransmitRateControl@dcc@vanetza@@UEAA?AV?$duration@_JU?$ratio@$00$0PECEA@@std@@@chrono@std@@AEBVTransmission@23@@Z
	?delay@LimericBudget@dcc@vanetza@@QEAA?AV?$duration@_JU?$ratio@$00$0PECEA@@std@@@chrono@std@@XZ
	?delay@LimericTransmitRateControl@dcc@vanetza@@UEAA?AV?$duration@_JU?$ratio@$00$0PECEA@@std@@@chrono@std@@AEBVTransmission@23@@Z
	?delay@SingleReactiveTransmitRateControl@dcc@vanetza@@UEAA?AV?$duration@_JU?$ratio@$00$0PECEA@@std@@@chrono@std@@AEBVTransmission@23@@Z
	?delay@StateMachineBudget@dcc@vanetza@@QEAA?AV?$duration@_JU?$ratio@$00$0PECEA@@std@@@chrono@std@@XZ
	?dequeue@FlowControl@dcc@vanetza@@AEAA?AV?$optional@UPendingTransmission@FlowControl@dcc@vanetza@@@boost@@XZ
	?destroy@?$circular_buffer@V?$time_point@VClock@vanetza@@V?$duration@_JU?$ratio@$00$0PECEA@@std@@@chrono@std@@@chrono@std@@V?$allocator@V?$time_point@VClock@vanetza@@V?$duration@_JU?$ratio@$00$0PECEA@@std@@@chrono@std@@@chrono@std@@@3@@boost@@AEAAXXZ
	?destroy@sp_counted_base@detail@boost@@UEAAXXZ
	?dispose@?$sp_counted_impl_pd@PEAV?$basic_altstringbuf@DU?$char_traits@D@std@@V?$allocator@D@2@@io@boost@@VNo_Op@?$basic_oaltstringstream@DU?$char_traits@D@std@@V?$allocator@D@2@@23@@detail@boost@@UEAAXXZ
	?drop_expired@FlowControl@dcc@vanetza@@AEAAXXZ
	?empty@FlowControl@dcc@vanetza@@AEBA_NXZ
	?enqueue@FlowControl@dcc@vanetza@@AEAAXAEBUDataRequest@23@V?$unique_ptr@VChunkPacket@vanetza@@U?$default_delete@VChunkPacket@vanetza@@@std@@@std@@@Z
	?erase@?$vector@_NV?$allocator@_N@std@@@std@@QEAA?AV?$_Vb_iterator@U?$_Wrap_alloc@V?$allocator@I@std@@@std@@@2@V?$_Vb_const_iterator@U?$_Wrap_alloc@V?$allocator@I@std@@@std@@@2@0@Z
	?exceptions@?$basic_format@DU?$char_traits@D@std@@V?$allocator@D@2@@boost@@QEBAEXZ
	?get_deleter@?$sp_counted_impl_pd@PEAV?$basic_altstringbuf@DU?$char_traits@D@std@@V?$allocator@D@2@@io@boost@@VNo_Op@?$basic_oaltstringstream@DU?$char_traits@D@std@@V?$allocator@D@2@@23@@detail@boost@@UEAAPEAXAEBVtype_info@@@Z
	?get_local_deleter@?$sp_counted_impl_pd@PEAV?$basic_altstringbuf@DU?$char_traits@D@std@@V?$allocator@D@2@@io@boost@@VNo_Op@?$basic_oaltstringstream@DU?$char_traits@D@std@@V?$allocator@D@2@@23@@detail@boost@@UEAAPEAXAEBVtype_info@@@Z
	?get_untyped_deleter@?$sp_counted_impl_pd@PEAV?$basic_altstringbuf@DU?$char_traits@D@std@@V?$allocator@D@2@@io@boost@@VNo_Op@?$basic_oaltstringstream@DU?$char_traits@D@std@@V?$allocator@D@2@@23@@detail@boost@@UEAAPEAXXZ
	?getloc@?$basic_format@DU?$char_traits@D@std@@V?$allocator@D@2@@boost@@QEBA?AVlocale@std@@XZ
	?indicate@HookedChannelProbeProcessor@dcc@vanetza@@UEAAXVChannelLoad@23@@Z
	?indicate@SmoothingChannelProbeProcessor@dcc@vanetza@@UEAAXVChannelLoad@23@@Z
	?interval@BurstyTransmitRateControl@dcc@vanetza@@UEAA?AV?$duration@_JU?$ratio@$00$0PECEA@@std@@@chrono@std@@AEBVTransmission@23@@Z
	?interval@LimericBudget@dcc@vanetza@@QEAA?AV?$duration@_JU?$ratio@$00$0PECEA@@std@@@chrono@std@@XZ
	?interval@LimericTransmitRateControl@dcc@vanetza@@UEAA?AV?$duration@_JU?$ratio@$00$0PECEA@@std@@@chrono@std@@AEBVTransmission@23@@Z
	?interval@SingleReactiveTransmitRateControl@dcc@vanetza@@UEAA?AV?$duration@_JU?$ratio@$00$0PECEA@@std@@@chrono@std@@AEBVTransmission@23@@Z
	?make_or_reuse_data@?$basic_format@DU?$char_traits@D@std@@V?$allocator@D@2@@boost@@AEAAX_K@Z
	?map_profile_onto_ac@dcc@vanetza@@YA?AW4AccessCategory@access@2@W4Profile@12@@Z
	?max_channel_load@FullyMeshedStateMachine@dcc@vanetza@@AEBANXZ
	?message_rate@FullyMeshedStateMachine@dcc@vanetza@@QEBANXZ
	?min_channel_load@FullyMeshedStateMachine@dcc@vanetza@@AEBANXZ
	?name@Active@dcc@vanetza@@UEBAPEBDXZ
	?name@Relaxed@dcc@vanetza@@UEBAPEBDXZ
	?name@Restrictive@dcc@vanetza@@UEBAPEBDXZ
	?next_queue@FlowControl@dcc@vanetza@@AEAAPEAV?$list@UPendingTransmission@FlowControl@dcc@vanetza@@V?$allocator@UPendingTransmission@FlowControl@dcc@vanetza@@@std@@@std@@XZ
	?next_transmission@FlowControl@dcc@vanetza@@AEAAPEAUPendingTransmission@123@XZ
	?notify@BurstBudget@dcc@vanetza@@QEAAXXZ
	?notify@BurstyTransmitRateControl@dcc@vanetza@@UEAAXAEBVTransmission@23@@Z
	?notify@LimericBudget@dcc@vanetza@@QEAAXV?$duration@_JU?$ratio@$00$0PECEA@@std@@@chrono@std@@@Z
	?notify@LimericTransmitRateControl@dcc@vanetza@@UEAAXAEBVTransmission@23@@Z
	?notify@SingleReactiveTransmitRateControl@dcc@vanetza@@UEAAXAEBVTransmission@23@@Z
	?notify@StateMachineBudget@dcc@vanetza@@QEAAXXZ
	?overflow@?$basic_altstringbuf@DU?$char_traits@D@std@@V?$allocator@D@2@@io@boost@@MEAAHH@Z
	?parse@?$basic_format@DU?$char_traits@D@std@@V?$allocator@D@2@@boost@@QEAAAEAV12@AEBV?$basic_string@DU?$char_traits@D@std@@V?$allocator@D@2@@std@@@Z
	?pbackfail@?$basic_altstringbuf@DU?$char_traits@D@std@@V?$allocator@D@2@@io@boost@@MEAAHH@Z
	?permitted_duty_cycle@Limeric@dcc@vanetza@@UEBA?AVUnitInterval@3@XZ
	?profile@PendingTransmission@FlowControl@dcc@vanetza@@UEBA?AW4Profile@34@XZ
	?profile@TransmissionLite@dcc@vanetza@@UEBA?AW4Profile@23@XZ
	?queue_length@FlowControl@dcc@vanetza@@QEAAX_K@Z
	?repair@GradualStateMachine@dcc@vanetza@@AEAAXXZ
	?request@FlowControl@dcc@vanetza@@UEAAXAEBUDataRequest@23@V?$unique_ptr@VChunkPacket@vanetza@@U?$default_delete@VChunkPacket@vanetza@@@std@@@std@@@Z
	?reschedule@FlowControl@dcc@vanetza@@QEAAXXZ
	?reserve@?$basic_string@DU?$char_traits@D@std@@V?$allocator@D@2@@std@@QEAAX_K@Z
	?reset@?$format_item@DU?$char_traits@D@std@@V?$allocator@D@2@@detail@io@boost@@QEAAXD@Z
	?resize@?$basic_string@DU?$char_traits@D@std@@V?$allocator@D@2@@std@@QEAAX_KD@Z
	?resize@?$circular_buffer@V?$time_point@VClock@vanetza@@V?$duration@_JU?$ratio@$00$0PECEA@@std@@@chrono@std@@@chrono@std@@V?$allocator@V?$time_point@VClock@vanetza@@V?$duration@_JU?$ratio@$00$0PECEA@@std@@@chrono@std@@@chrono@std@@@3@@boost@@QEAAX_KAEBV?$time_point@VClock@vanetza@@V?$duration@_JU?$ratio@$00$0PECEA@@std@@@chrono@std@@@chrono@std@@@Z
	?resize@?$vector@U?$format_item@DU?$char_traits@D@std@@V?$allocator@D@2@@detail@io@boost@@V?$allocator@U?$format_item@DU?$char_traits@D@std@@V?$allocator@D@2@@detail@io@boost@@@std@@@std@@QEAAX_KAEBU?$format_item@DU?$char_traits@D@std@@V?$allocator@D@2@@detail@io@boost@@@Z
	?resize@?$vector@_NV?$allocator@_N@std@@@std@@QEAAX_K_N@Z
	?rethrow@?$wrapexcept@Vbad_format_string@io@boost@@@boost@@UEBAXXZ
	?rethrow@?$wrapexcept@Vlength_error@std@@@boost@@UEBAXXZ
	?rethrow@?$wrapexcept@Vtoo_few_args@io@boost@@@boost@@UEBAXXZ
	?rethrow@?$wrapexcept@Vtoo_many_args@io@boost@@@boost@@UEBAXXZ
	?schedule@Limeric@dcc@vanetza@@AEAAXXZ
	?schedule_trigger@FlowControl@dcc@vanetza@@AEAAXAEBVTransmission@23@@Z
	?seekoff@?$basic_altstringbuf@DU?$char_traits@D@std@@V?$allocator@D@2@@io@boost@@MEAA?AV?$fpos@U_Mbstatet@@@std@@_JHH@Z
	?seekpos@?$basic_altstringbuf@DU?$char_traits@D@std@@V?$allocator@D@2@@io@boost@@MEAA?AV?$fpos@U_Mbstatet@@@std@@V45@H@Z
	?set_capacity@?$circular_buffer@V?$time_point@VClock@vanetza@@V?$duration@_JU?$ratio@$00$0PECEA@@std@@@chrono@std@@@chrono@std@@V?$allocator@V?$time_point@VClock@vanetza@@V?$duration@_JU?$ratio@$00$0PECEA@@std@@@chrono@std@@@chrono@std@@@3@@boost@@QEAAX_K@Z
	?set_packet_drop_hook@FlowControl@dcc@vanetza@@QEAAX$$QEAV?$function@$$A6AXW4AccessCategory@access@vanetza@@PEBVChunkPacket@3@@Z@std@@@Z
	?set_packet_transmit_hook@FlowControl@dcc@vanetza@@QEAAX$$QEAV?$function@$$A6AXW4AccessCategory@access@vanetza@@PEBVChunkPacket@3@@Z@std@@@Z
	?size@?$basic_format@DU?$char_traits@D@std@@V?$allocator@D@2@@boost@@QEBA_KXZ
	?size@?$basic_string@DU?$char_traits@D@std@@V?$allocator@D@2@@std@@QEBA_KXZ
	?sp_enable_shared_from_this@detail@boost@@YAXZZ
	?state@FullyMeshedStateMachine@dcc@vanetza@@QEBAAEBVState@23@XZ
	?state@GradualStateMachine@dcc@vanetza@@QEBA?AV?$basic_string@DU?$char_traits@D@std@@V?$allocator@D@2@@std@@XZ
	?str@?$basic_format@DU?$char_traits@D@std@@V?$allocator@D@2@@boost@@QEBA?AV?$basic_string@DU?$char_traits@D@std@@V?$allocator@D@2@@std@@XZ
	?transmission_interval@Active@dcc@vanetza@@UEBA?AV?$duration@_JU?$ratio@$00$0PECEA@@std@@@chrono@std@@XZ
	?transmission_interval@FullyMeshedStateMachine@dcc@vanetza@@UEBA?AV?$duration@_JU?$ratio@$00$0PECEA@@std@@@chrono@std@@XZ
	?transmission_interval@GradualStateMachine@dcc@vanetza@@UEBA?AV?$duration@_JU?$ratio@$00$0PECEA@@std@@@chrono@std@@XZ
	?transmission_interval@Relaxed@dcc@vanetza@@UEBA?AV?$duration@_JU?$ratio@$00$0PECEA@@std@@@chrono@std@@XZ
	?transmission_interval@Restrictive@dcc@vanetza@@UEBA?AV?$duration@_JU?$ratio@$00$0PECEA@@std@@@chrono@std@@XZ
	?transmit@FlowControl@dcc@vanetza@@AEAAXAEBUDataRequest@23@V?$unique_ptr@VChunkPacket@vanetza@@U?$default_delete@VChunkPacket@vanetza@@@std@@@std@@@Z
	?transmit_immediately@FlowControl@dcc@vanetza@@AEBA_NAEBVTransmission@23@@Z
	?trigger@FlowControl@dcc@vanetza@@AEAAXXZ
	?underflow@?$basic_altstringbuf@DU?$char_traits@D@std@@V?$allocator@D@2@@io@boost@@MEAAHXZ
	?update@Active@dcc@vanetza@@QEAAXNN@Z
	?update@FullyMeshedStateMachine@dcc@vanetza@@UEAAXVChannelLoad@23@@Z
	?update@GradualStateMachine@dcc@vanetza@@UEAAXVChannelLoad@23@@Z
	?update@LimericBudget@dcc@vanetza@@QEAAXXZ
	?update@LimericTransmitRateControl@dcc@vanetza@@QEAAXXZ
	?update_cbr@Limeric@dcc@vanetza@@QEAAXVChannelLoad@23@@Z
	?what@bad_format_string@io@boost@@UEBAPEBDXZ
	?what@exception@std@@UEBAPEBDXZ
	?what@format_error@io@boost@@UEBAPEBDXZ
	?what@too_few_args@io@boost@@UEBAPEBDXZ
	?what@too_many_args@io@boost@@UEBAPEBDXZ
