EXPORTS 
	??_R0?AU?$byte_buffer_impl@$$T@convertible@vanetza@@@8 	 DATA
	??_R0?AU?$byte_buffer_impl@V?$vector@EV?$allocator@E@std@@@std@@@convertible@vanetza@@@8 	 DATA
	??_R0?AU?$token_finderF@U?$is_any_ofF@D@detail@algorithm@boost@@@detail@algorithm@boost@@@8 	 DATA
	??_R0?AU?$wrapexcept@Vbad_function_call@boost@@@boost@@@8 	 DATA
	??_R0?AUbyte_buffer@convertible@vanetza@@@8 	 DATA
	??_R0?AVbad_alloc@std@@@8 	 DATA
	??_R0?AVbad_array_new_length@std@@@8 	 DATA
	??_R0?AVbad_function_call@boost@@@8 	 DATA
	??_R0?AVclone_base@exception_detail@boost@@@8 	 DATA
	??_R0?AVexception@boost@@@8 	 DATA
	??_R0?AVexception@std@@@8 	 DATA
	??_R0?AVruntime_error@std@@@8 	 DATA
	?cBroadcastMacAddress@vanetza@@3VMacAddress@1@B 	 DATA
	?pdata@?1???B?$integral_constant@_N$00@boost@@QEBAAEBU?$bool_@$00@mpl@2@XZ@4PEBXEB 	 DATA
	??$?0$$V@?$_Compressed_pair@U?$default_delete@VChunkPacket@vanetza@@@std@@PEAVChunkPacket@vanetza@@$00@std@@QEAA@U_Zero_then_variadic_args_t@1@@Z
	??$?0$$V@?$_Compressed_pair@V?$allocator@E@std@@V?$_Vector_val@U?$_Simple_types@E@std@@@2@$00@std@@QEAA@U_Zero_then_variadic_args_t@1@@Z
	??$?0$$V@?$_Compressed_pair@V?$allocator@U?$_Tree_node@U?$pair@$$CBW4OsiLayer@vanetza@@V?$vector@EV?$allocator@E@std@@@std@@@std@@PEAX@std@@@std@@V?$_Tree_val@U?$_Tree_simple_types@U?$pair@$$CBW4OsiLayer@vanetza@@V?$vector@EV?$allocator@E@std@@@std@@@std@@@std@@@2@$00@std@@QEAA@U_Zero_then_variadic_args_t@1@@Z
	??$?0$$V@?$_Compressed_pair@V?$allocator@U?$_Tree_node@U?$pair@$$CBW4OsiLayer@vanetza@@VByteBufferConvertible@2@@std@@PEAX@std@@@std@@V?$_Tree_val@U?$_Tree_simple_types@U?$pair@$$CBW4OsiLayer@vanetza@@VByteBufferConvertible@2@@std@@@std@@@2@$00@std@@QEAA@U_Zero_then_variadic_args_t@1@@Z
	??$?0$$V@?$_Compressed_pair@V?$allocator@V?$basic_string@DU?$char_traits@D@std@@V?$allocator@D@2@@std@@@std@@V?$_Vector_val@U?$_Simple_types@V?$basic_string@DU?$char_traits@D@std@@V?$allocator@D@2@@std@@@std@@@2@$00@std@@QEAA@U_Zero_then_variadic_args_t@1@@Z
	??$?0AEAPEADAEAPEAD$0A@@?$pair@PEADPEAD@std@@QEAA@AEAPEAD0@Z
	??$?0AEAPEAU?$_Tree_node@U?$pair@$$CBW4OsiLayer@vanetza@@VByteBufferConvertible@2@@std@@PEAX@std@@_N$0A@@?$pair@PEAU?$_Tree_node@U?$pair@$$CBW4OsiLayer@vanetza@@VByteBufferConvertible@2@@std@@PEAX@std@@_N@std@@QEAA@AEAPEAU?$_Tree_node@U?$pair@$$CBW4OsiLayer@vanetza@@VByteBufferConvertible@2@@std@@PEAX@1@$$QEA_N@Z
	??$?0AEAPEAUbyte_buffer@convertible@vanetza@@@?$_Compressed_pair@U?$default_delete@Ubyte_buffer@convertible@vanetza@@@std@@PEAUbyte_buffer@convertible@vanetza@@$00@std@@QEAA@U_Zero_then_variadic_args_t@1@AEAPEAUbyte_buffer@convertible@vanetza@@@Z
	??$?0AEAPEAVChunkPacket@vanetza@@@?$_Compressed_pair@U?$default_delete@VChunkPacket@vanetza@@@std@@PEAVChunkPacket@vanetza@@$00@std@@QEAA@U_Zero_then_variadic_args_t@1@AEAPEAVChunkPacket@vanetza@@@Z
	??$?0AEBQEAU?$_Tree_node@U?$pair@$$CBW4OsiLayer@vanetza@@V?$vector@EV?$allocator@E@std@@@std@@@std@@PEAX@std@@_N$0A@@?$pair@PEAU?$_Tree_node@U?$pair@$$CBW4OsiLayer@vanetza@@V?$vector@EV?$allocator@E@std@@@std@@@std@@PEAX@std@@_N@std@@QEAA@AEBQEAU?$_Tree_node@U?$pair@$$CBW4OsiLayer@vanetza@@V?$vector@EV?$allocator@E@std@@@std@@@std@@PEAX@1@$$QEA_N@Z
	??$?0AEBQEAU?$_Tree_node@U?$pair@$$CBW4OsiLayer@vanetza@@VByteBufferConvertible@2@@std@@PEAX@std@@_N$0A@@?$pair@PEAU?$_Tree_node@U?$pair@$$CBW4OsiLayer@vanetza@@VByteBufferConvertible@2@@std@@PEAX@std@@_N@std@@QEAA@AEBQEAU?$_Tree_node@U?$pair@$$CBW4OsiLayer@vanetza@@VByteBufferConvertible@2@@std@@PEAX@1@$$QEA_N@Z
	??$?0AEBU?$less@W4OsiLayer@vanetza@@@std@@U_Zero_then_variadic_args_t@1@@?$_Compressed_pair@U?$less@W4OsiLayer@vanetza@@@std@@V?$_Compressed_pair@V?$allocator@U?$_Tree_node@U?$pair@$$CBW4OsiLayer@vanetza@@V?$vector@EV?$allocator@E@std@@@std@@@std@@PEAX@std@@@std@@V?$_Tree_val@U?$_Tree_simple_types@U?$pair@$$CBW4OsiLayer@vanetza@@V?$vector@EV?$allocator@E@std@@@std@@@std@@@std@@@2@$00@2@$00@std@@QEAA@U_One_then_variadic_args_t@1@AEBU?$less@W4OsiLayer@vanetza@@@1@$$QEAU_Zero_then_variadic_args_t@1@@Z
	??$?0AEBU?$less@W4OsiLayer@vanetza@@@std@@U_Zero_then_variadic_args_t@1@@?$_Compressed_pair@U?$less@W4OsiLayer@vanetza@@@std@@V?$_Compressed_pair@V?$allocator@U?$_Tree_node@U?$pair@$$CBW4OsiLayer@vanetza@@VByteBufferConvertible@2@@std@@PEAX@std@@@std@@V?$_Tree_val@U?$_Tree_simple_types@U?$pair@$$CBW4OsiLayer@vanetza@@VByteBufferConvertible@2@@std@@@std@@@2@$00@2@$00@std@@QEAA@U_One_then_variadic_args_t@1@AEBU?$less@W4OsiLayer@vanetza@@@1@$$QEAU_Zero_then_variadic_args_t@1@@Z
	??$?0AEBU?$pair@$$CBW4OsiLayer@vanetza@@VByteBufferConvertible@2@@std@@@?$_Tree_temp_node@V?$allocator@U?$_Tree_node@U?$pair@$$CBW4OsiLayer@vanetza@@VByteBufferConvertible@2@@std@@PEAX@std@@@std@@@std@@QEAA@AEAV?$allocator@U?$_Tree_node@U?$pair@$$CBW4OsiLayer@vanetza@@VByteBufferConvertible@2@@std@@PEAX@std@@@1@PEAU?$_Tree_node@U?$pair@$$CBW4OsiLayer@vanetza@@VByteBufferConvertible@2@@std@@PEAX@1@AEBU?$pair@$$CBW4OsiLayer@vanetza@@VByteBufferConvertible@2@@1@@Z
	??$?0AEBUpiecewise_construct_t@std@@V?$tuple@AEBW4OsiLayer@vanetza@@@1@V?$tuple@$$V@1@@?$_Tree_temp_node@V?$allocator@U?$_Tree_node@U?$pair@$$CBW4OsiLayer@vanetza@@V?$vector@EV?$allocator@E@std@@@std@@@std@@PEAX@std@@@std@@@std@@QEAA@AEAV?$allocator@U?$_Tree_node@U?$pair@$$CBW4OsiLayer@vanetza@@V?$vector@EV?$allocator@E@std@@@std@@@std@@PEAX@std@@@1@PEAU?$_Tree_node@U?$pair@$$CBW4OsiLayer@vanetza@@V?$vector@EV?$allocator@E@std@@@std@@@std@@PEAX@1@AEBUpiecewise_construct_t@1@$$QEAV?$tuple@AEBW4OsiLayer@vanetza@@@1@$$QEAV?$tuple@$$V@1@@Z
	??$?0AEBUpiecewise_construct_t@std@@V?$tuple@AEBW4OsiLayer@vanetza@@@1@V?$tuple@$$V@1@@?$_Tree_temp_node@V?$allocator@U?$_Tree_node@U?$pair@$$CBW4OsiLayer@vanetza@@VByteBufferConvertible@2@@std@@PEAX@std@@@std@@@std@@QEAA@AEAV?$allocator@U?$_Tree_node@U?$pair@$$CBW4OsiLayer@vanetza@@VByteBufferConvertible@2@@std@@PEAX@std@@@1@PEAU?$_Tree_node@U?$pair@$$CBW4OsiLayer@vanetza@@VByteBufferConvertible@2@@std@@PEAX@1@AEBUpiecewise_construct_t@1@$$QEAV?$tuple@AEBW4OsiLayer@vanetza@@@1@$$QEAV?$tuple@$$V@1@@Z
	??$?0AEBV?$allocator@D@std@@$$V@?$_Compressed_pair@V?$allocator@D@std@@V?$_String_val@U?$_Simple_types@D@std@@@2@$00@std@@QEAA@U_One_then_variadic_args_t@1@AEBV?$allocator@D@1@@Z
	??$?0AEBV?$allocator@E@std@@$$V@?$_Compressed_pair@V?$allocator@E@std@@V?$_Vector_val@U?$_Simple_types@E@std@@@2@$00@std@@QEAA@U_One_then_variadic_args_t@1@AEBV?$allocator@E@1@@Z
	??$?0AEBV?$allocator@V?$basic_string@DU?$char_traits@D@std@@V?$allocator@D@2@@std@@@std@@$$V@?$_Compressed_pair@V?$allocator@V?$basic_string@DU?$char_traits@D@std@@V?$allocator@D@2@@std@@@std@@V?$_Vector_val@U?$_Simple_types@V?$basic_string@DU?$char_traits@D@std@@V?$allocator@D@2@@std@@@std@@@2@$00@std@@QEAA@U_One_then_variadic_args_t@1@AEBV?$allocator@V?$basic_string@DU?$char_traits@D@std@@V?$allocator@D@2@@std@@@1@@Z
	??$?0AEBW4OsiLayer@vanetza@@$$Z$$V@?$pair@$$CBW4OsiLayer@vanetza@@V?$vector@EV?$allocator@E@std@@@std@@@std@@QEAA@Upiecewise_construct_t@1@V?$tuple@AEBW4OsiLayer@vanetza@@@1@V?$tuple@$$V@1@@Z
	??$?0AEBW4OsiLayer@vanetza@@$$Z$$V@?$pair@$$CBW4OsiLayer@vanetza@@VByteBufferConvertible@2@@std@@QEAA@Upiecewise_construct_t@1@V?$tuple@AEBW4OsiLayer@vanetza@@@1@V?$tuple@$$V@1@@Z
	??$?0AEBW4OsiLayer@vanetza@@$0A@@?$tuple@AEBW4OsiLayer@vanetza@@@std@@QEAA@AEBW4OsiLayer@vanetza@@@Z
	??$?0AEBW4OsiLayer@vanetza@@@?$_Tuple_val@AEBW4OsiLayer@vanetza@@@std@@QEAA@AEBW4OsiLayer@vanetza@@@Z
	??$?0D@?$allocator@U_Container_proxy@std@@@std@@QEAA@AEBV?$allocator@D@1@@Z
	??$?0E@?$allocator@U_Container_proxy@std@@@std@@QEAA@AEBV?$allocator@E@1@@Z
	??$?0PEAU?$_Tree_node@U?$pair@$$CBW4OsiLayer@vanetza@@V?$vector@EV?$allocator@E@std@@@std@@@std@@PEAX@std@@_N$0A@@?$pair@PEAU?$_Tree_node@U?$pair@$$CBW4OsiLayer@vanetza@@V?$vector@EV?$allocator@E@std@@@std@@@std@@PEAX@std@@_N@std@@QEAA@$$QEAPEAU?$_Tree_node@U?$pair@$$CBW4OsiLayer@vanetza@@V?$vector@EV?$allocator@E@std@@@std@@@std@@PEAX@1@$$QEA_N@Z
	??$?0PEAU?$_Tree_node@U?$pair@$$CBW4OsiLayer@vanetza@@VByteBufferConvertible@2@@std@@PEAX@std@@_N$0A@@?$pair@PEAU?$_Tree_node@U?$pair@$$CBW4OsiLayer@vanetza@@VByteBufferConvertible@2@@std@@PEAX@std@@_N@std@@QEAA@$$QEAPEAU?$_Tree_node@U?$pair@$$CBW4OsiLayer@vanetza@@VByteBufferConvertible@2@@std@@PEAX@1@$$QEA_N@Z
	??$?0PEBD@?$iterator_range@PEBD@boost@@QEAA@PEBD0@Z
	??$?0PEBD@?$iterator_range_base@PEBDUbidirectional_traversal_tag@iterators@boost@@@iterator_range_detail@boost@@IEAA@PEBD0@Z
	??$?0PEBD@?$iterator_range_base@PEBDUincrementable_traversal_tag@iterators@boost@@@iterator_range_detail@boost@@IEAA@PEBD0@Z
	??$?0PEBD@?$iterator_range_base@PEBDUrandom_access_traversal_tag@iterators@boost@@@iterator_range_detail@boost@@IEAA@PEBD0@Z
	??$?0PEBE@?$iterator_range@PEBE@boost@@QEAA@PEBE0@Z
	??$?0PEBE@?$iterator_range_base@PEBEUbidirectional_traversal_tag@iterators@boost@@@iterator_range_detail@boost@@IEAA@PEBE0@Z
	??$?0PEBE@?$iterator_range_base@PEBEUincrementable_traversal_tag@iterators@boost@@@iterator_range_detail@boost@@IEAA@PEBE0@Z
	??$?0PEBE@?$iterator_range_base@PEBEUrandom_access_traversal_tag@iterators@boost@@@iterator_range_detail@boost@@IEAA@PEBE0@Z
	??$?0U?$_Tree_node@U?$pair@$$CBW4OsiLayer@vanetza@@V?$vector@EV?$allocator@E@std@@@std@@@std@@PEAX@std@@@?$allocator@U_Container_proxy@std@@@std@@QEAA@AEBV?$allocator@U?$_Tree_node@U?$pair@$$CBW4OsiLayer@vanetza@@V?$vector@EV?$allocator@E@std@@@std@@@std@@PEAX@std@@@1@@Z
	??$?0U?$_Tree_node@U?$pair@$$CBW4OsiLayer@vanetza@@VByteBufferConvertible@2@@std@@PEAX@std@@@?$allocator@U_Container_proxy@std@@@std@@QEAA@AEBV?$allocator@U?$_Tree_node@U?$pair@$$CBW4OsiLayer@vanetza@@VByteBufferConvertible@2@@std@@PEAX@std@@@1@@Z
	??$?0U?$default_delete@Ubyte_buffer@convertible@vanetza@@@std@@$0A@@?$unique_ptr@Ubyte_buffer@convertible@vanetza@@U?$default_delete@Ubyte_buffer@convertible@vanetza@@@std@@@std@@QEAA@$$QEAV01@@Z
	??$?0U?$default_delete@Ubyte_buffer@convertible@vanetza@@@std@@$0A@@?$unique_ptr@Ubyte_buffer@convertible@vanetza@@U?$default_delete@Ubyte_buffer@convertible@vanetza@@@std@@@std@@QEAA@PEAUbyte_buffer@convertible@vanetza@@@Z
	??$?0U?$default_delete@Ubyte_buffer@convertible@vanetza@@@std@@PEAUbyte_buffer@convertible@vanetza@@@?$_Compressed_pair@U?$default_delete@Ubyte_buffer@convertible@vanetza@@@std@@PEAUbyte_buffer@convertible@vanetza@@$00@std@@QEAA@U_One_then_variadic_args_t@1@$$QEAU?$default_delete@Ubyte_buffer@convertible@vanetza@@@1@$$QEAPEAUbyte_buffer@convertible@vanetza@@@Z
	??$?0U?$default_delete@VChunkPacket@vanetza@@@std@@$0A@@?$unique_ptr@VChunkPacket@vanetza@@U?$default_delete@VChunkPacket@vanetza@@@std@@@std@@QEAA@$$QEAV01@@Z
	??$?0U?$default_delete@VChunkPacket@vanetza@@@std@@$0A@@?$unique_ptr@VChunkPacket@vanetza@@U?$default_delete@VChunkPacket@vanetza@@@std@@@std@@QEAA@PEAVChunkPacket@vanetza@@@Z
	??$?0U?$default_delete@VChunkPacket@vanetza@@@std@@$0A@@?$unique_ptr@VChunkPacket@vanetza@@U?$default_delete@VChunkPacket@vanetza@@@std@@@std@@QEAA@XZ
	??$?0U?$default_delete@VChunkPacket@vanetza@@@std@@PEAVChunkPacket@vanetza@@@?$_Compressed_pair@U?$default_delete@VChunkPacket@vanetza@@@std@@PEAVChunkPacket@vanetza@@$00@std@@QEAA@U_One_then_variadic_args_t@1@$$QEAU?$default_delete@VChunkPacket@vanetza@@@1@$$QEAPEAVChunkPacket@vanetza@@@Z
	??$?0U?$less@W4OsiLayer@vanetza@@@std@@U_One_then_variadic_args_t@1@V?$allocator@U?$_Tree_node@U?$pair@$$CBW4OsiLayer@vanetza@@VByteBufferConvertible@2@@std@@PEAX@std@@@1@@?$_Compressed_pair@U?$less@W4OsiLayer@vanetza@@@std@@V?$_Compressed_pair@V?$allocator@U?$_Tree_node@U?$pair@$$CBW4OsiLayer@vanetza@@VByteBufferConvertible@2@@std@@PEAX@std@@@std@@V?$_Tree_val@U?$_Tree_simple_types@U?$pair@$$CBW4OsiLayer@vanetza@@VByteBufferConvertible@2@@std@@@std@@@2@$00@2@$00@std@@QEAA@U_One_then_variadic_args_t@1@$$QEAU?$less@W4OsiLayer@vanetza@@@1@$$QEAU21@$$QEAV?$allocator@U?$_Tree_node@U?$pair@$$CBW4OsiLayer@vanetza@@VByteBufferConvertible@2@@std@@PEAX@std@@@1@@Z
	??$?0U?$token_finderF@U?$is_any_ofF@D@detail@algorithm@boost@@@detail@algorithm@boost@@@?$find_iterator_base@V?$_String_const_iterator@V?$_String_val@U?$_Simple_types@D@std@@@std@@@std@@@detail@algorithm@boost@@IEAA@U?$token_finderF@U?$is_any_ofF@D@detail@algorithm@boost@@@123@H@Z
	??$?0U?$token_finderF@U?$is_any_ofF@D@detail@algorithm@boost@@@detail@algorithm@boost@@@?$function2@V?$iterator_range@V?$_String_const_iterator@V?$_String_val@U?$_Simple_types@D@std@@@std@@@std@@@boost@@V?$_String_const_iterator@V?$_String_val@U?$_Simple_types@D@std@@@std@@@std@@V34@@boost@@QEAA@U?$token_finderF@U?$is_any_ofF@D@detail@algorithm@boost@@@detail@algorithm@1@H@Z
	??$?0U?$token_finderF@U?$is_any_ofF@D@detail@algorithm@boost@@@detail@algorithm@boost@@@?$split_iterator@V?$_String_const_iterator@V?$_String_val@U?$_Simple_types@D@std@@@std@@@std@@@algorithm@boost@@QEAA@V?$_String_const_iterator@V?$_String_val@U?$_Simple_types@D@std@@@std@@@std@@0U?$token_finderF@U?$is_any_ofF@D@detail@algorithm@boost@@@detail@12@@Z
	??$?0U_Exact_args_t@std@@$0A@@?$tuple@$$V@std@@QEAA@U_Exact_args_t@1@@Z
	??$?0U_Exact_args_t@std@@AEBW4OsiLayer@vanetza@@$$V$0A@@?$tuple@AEBW4OsiLayer@vanetza@@@std@@QEAA@U_Exact_args_t@1@AEBW4OsiLayer@vanetza@@@Z
	??$?0V?$_Array_const_iterator@W4OsiLayer@vanetza@@$06@std@@@?$iterator_range@V?$_Array_const_iterator@W4OsiLayer@vanetza@@$06@std@@@boost@@QEAA@V?$_Array_const_iterator@W4OsiLayer@vanetza@@$06@std@@0@Z
	??$?0V?$_Array_const_iterator@W4OsiLayer@vanetza@@$06@std@@@?$iterator_range_base@V?$_Array_const_iterator@W4OsiLayer@vanetza@@$06@std@@Ubidirectional_traversal_tag@iterators@boost@@@iterator_range_detail@boost@@IEAA@V?$_Array_const_iterator@W4OsiLayer@vanetza@@$06@std@@0@Z
	??$?0V?$_Array_const_iterator@W4OsiLayer@vanetza@@$06@std@@@?$iterator_range_base@V?$_Array_const_iterator@W4OsiLayer@vanetza@@$06@std@@Uincrementable_traversal_tag@iterators@boost@@@iterator_range_detail@boost@@IEAA@V?$_Array_const_iterator@W4OsiLayer@vanetza@@$06@std@@0@Z
	??$?0V?$_Array_const_iterator@W4OsiLayer@vanetza@@$06@std@@@?$iterator_range_base@V?$_Array_const_iterator@W4OsiLayer@vanetza@@$06@std@@Urandom_access_traversal_tag@iterators@boost@@@iterator_range_detail@boost@@IEAA@V?$_Array_const_iterator@W4OsiLayer@vanetza@@$06@std@@0@Z
	??$?0V?$_String_const_iterator@V?$_String_val@U?$_Simple_types@D@std@@@std@@@std@@$0A@@?$basic_string@DU?$char_traits@D@std@@V?$allocator@D@2@@std@@QEAA@V?$_String_const_iterator@V?$_String_val@U?$_Simple_types@D@std@@@std@@@1@0AEBV?$allocator@D@1@@Z
	??$?0V?$_String_const_iterator@V?$_String_val@U?$_Simple_types@D@std@@@std@@@std@@@?$iterator_range@V?$_String_const_iterator@V?$_String_val@U?$_Simple_types@D@std@@@std@@@std@@@boost@@QEAA@V?$_String_const_iterator@V?$_String_val@U?$_Simple_types@D@std@@@std@@@std@@0@Z
	??$?0V?$_String_const_iterator@V?$_String_val@U?$_Simple_types@D@std@@@std@@@std@@@?$iterator_range_base@V?$_String_const_iterator@V?$_String_val@U?$_Simple_types@D@std@@@std@@@std@@Ubidirectional_traversal_tag@iterators@boost@@@iterator_range_detail@boost@@IEAA@V?$_String_const_iterator@V?$_String_val@U?$_Simple_types@D@std@@@std@@@std@@0@Z
	??$?0V?$_String_const_iterator@V?$_String_val@U?$_Simple_types@D@std@@@std@@@std@@@?$iterator_range_base@V?$_String_const_iterator@V?$_String_val@U?$_Simple_types@D@std@@@std@@@std@@Uincrementable_traversal_tag@iterators@boost@@@iterator_range_detail@boost@@IEAA@V?$_String_const_iterator@V?$_String_val@U?$_Simple_types@D@std@@@std@@@std@@0@Z
	??$?0V?$_String_const_iterator@V?$_String_val@U?$_Simple_types@D@std@@@std@@@std@@@?$iterator_range_base@V?$_String_const_iterator@V?$_String_val@U?$_Simple_types@D@std@@@std@@@std@@Urandom_access_traversal_tag@iterators@boost@@@iterator_range_detail@boost@@IEAA@V?$_String_const_iterator@V?$_String_val@U?$_Simple_types@D@std@@@std@@@std@@0@Z
	??$?0V?$_Tree_iterator@V?$_Tree_val@U?$_Tree_simple_types@U?$pair@$$CBW4OsiLayer@vanetza@@VByteBufferConvertible@2@@std@@@std@@@std@@@std@@AEB_N$0A@@?$pair@V?$_Tree_iterator@V?$_Tree_val@U?$_Tree_simple_types@U?$pair@$$CBW4OsiLayer@vanetza@@VByteBufferConvertible@2@@std@@@std@@@std@@@std@@_N@std@@QEAA@$$QEAV?$_Tree_iterator@V?$_Tree_val@U?$_Tree_simple_types@U?$pair@$$CBW4OsiLayer@vanetza@@VByteBufferConvertible@2@@std@@@std@@@std@@@1@AEB_N@Z
	??$?0V?$_Vector_const_iterator@V?$_Vector_val@U?$_Simple_types@E@std@@@std@@@std@@$0A@@?$vector@EV?$allocator@E@std@@@std@@QEAA@V?$_Vector_const_iterator@V?$_Vector_val@U?$_Simple_types@E@std@@@std@@@1@0AEBV?$allocator@E@1@@Z
	??$?0V?$_Vector_iterator@V?$_Vector_val@U?$_Simple_types@E@std@@@std@@@std@@@?$iterator_range@V?$_Vector_const_iterator@V?$_Vector_val@U?$_Simple_types@E@std@@@std@@@std@@@boost@@QEAA@V?$_Vector_iterator@V?$_Vector_val@U?$_Simple_types@E@std@@@std@@@std@@0@Z
	??$?0V?$_Vector_iterator@V?$_Vector_val@U?$_Simple_types@E@std@@@std@@@std@@@?$iterator_range@V?$_Vector_iterator@V?$_Vector_val@U?$_Simple_types@E@std@@@std@@@std@@@boost@@QEAA@V?$_Vector_iterator@V?$_Vector_val@U?$_Simple_types@E@std@@@std@@@std@@0@Z
	??$?0V?$_Vector_iterator@V?$_Vector_val@U?$_Simple_types@E@std@@@std@@@std@@@?$iterator_range_base@V?$_Vector_const_iterator@V?$_Vector_val@U?$_Simple_types@E@std@@@std@@@std@@Ubidirectional_traversal_tag@iterators@boost@@@iterator_range_detail@boost@@IEAA@V?$_Vector_iterator@V?$_Vector_val@U?$_Simple_types@E@std@@@std@@@std@@0@Z
	??$?0V?$_Vector_iterator@V?$_Vector_val@U?$_Simple_types@E@std@@@std@@@std@@@?$iterator_range_base@V?$_Vector_const_iterator@V?$_Vector_val@U?$_Simple_types@E@std@@@std@@@std@@Uincrementable_traversal_tag@iterators@boost@@@iterator_range_detail@boost@@IEAA@V?$_Vector_iterator@V?$_Vector_val@U?$_Simple_types@E@std@@@std@@@std@@0@Z
	??$?0V?$_Vector_iterator@V?$_Vector_val@U?$_Simple_types@E@std@@@std@@@std@@@?$iterator_range_base@V?$_Vector_const_iterator@V?$_Vector_val@U?$_Simple_types@E@std@@@std@@@std@@Urandom_access_traversal_tag@iterators@boost@@@iterator_range_detail@boost@@IEAA@V?$_Vector_iterator@V?$_Vector_val@U?$_Simple_types@E@std@@@std@@@std@@0@Z
	??$?0V?$_Vector_iterator@V?$_Vector_val@U?$_Simple_types@E@std@@@std@@@std@@@?$iterator_range_base@V?$_Vector_iterator@V?$_Vector_val@U?$_Simple_types@E@std@@@std@@@std@@Ubidirectional_traversal_tag@iterators@boost@@@iterator_range_detail@boost@@IEAA@V?$_Vector_iterator@V?$_Vector_val@U?$_Simple_types@E@std@@@std@@@std@@0@Z
	??$?0V?$_Vector_iterator@V?$_Vector_val@U?$_Simple_types@E@std@@@std@@@std@@@?$iterator_range_base@V?$_Vector_iterator@V?$_Vector_val@U?$_Simple_types@E@std@@@std@@@std@@Uincrementable_traversal_tag@iterators@boost@@@iterator_range_detail@boost@@IEAA@V?$_Vector_iterator@V?$_Vector_val@U?$_Simple_types@E@std@@@std@@@std@@0@Z
	??$?0V?$_Vector_iterator@V?$_Vector_val@U?$_Simple_types@E@std@@@std@@@std@@@?$iterator_range_base@V?$_Vector_iterator@V?$_Vector_val@U?$_Simple_types@E@std@@@std@@@std@@Urandom_access_traversal_tag@iterators@boost@@@iterator_range_detail@boost@@IEAA@V?$_Vector_iterator@V?$_Vector_val@U?$_Simple_types@E@std@@@std@@@std@@0@Z
	??$?0V?$allocator@D@std@@$$V@?$_Compressed_pair@V?$allocator@D@std@@V?$_String_val@U?$_Simple_types@D@std@@@2@$00@std@@QEAA@U_One_then_variadic_args_t@1@$$QEAV?$allocator@D@1@@Z
	??$?0V?$allocator@E@std@@$$V@?$_Compressed_pair@V?$allocator@E@std@@V?$_Vector_val@U?$_Simple_types@E@std@@@2@$00@std@@QEAA@U_One_then_variadic_args_t@1@$$QEAV?$allocator@E@1@@Z
	??$?0V?$allocator@E@std@@PEAEPEAEPEAE@?$_Compressed_pair@V?$allocator@E@std@@V?$_Vector_val@U?$_Simple_types@E@std@@@2@$00@std@@QEAA@U_One_then_variadic_args_t@1@$$QEAV?$allocator@E@1@$$QEAPEAE22@Z
	??$?0V?$allocator@U?$_Tree_node@U?$pair@$$CBW4OsiLayer@vanetza@@VByteBufferConvertible@2@@std@@PEAX@std@@@std@@$$V@?$_Compressed_pair@V?$allocator@U?$_Tree_node@U?$pair@$$CBW4OsiLayer@vanetza@@VByteBufferConvertible@2@@std@@PEAX@std@@@std@@V?$_Tree_val@U?$_Tree_simple_types@U?$pair@$$CBW4OsiLayer@vanetza@@VByteBufferConvertible@2@@std@@@std@@@2@$00@std@@QEAA@U_One_then_variadic_args_t@1@$$QEAV?$allocator@U?$_Tree_node@U?$pair@$$CBW4OsiLayer@vanetza@@VByteBufferConvertible@2@@std@@PEAX@std@@@1@@Z
	??$?0V?$basic_string@DU?$char_traits@D@std@@V?$allocator@D@2@@std@@@?$allocator@U_Container_proxy@std@@@std@@QEAA@AEBV?$allocator@V?$basic_string@DU?$char_traits@D@std@@V?$allocator@D@2@@std@@@1@@Z
	??$?0V?$basic_string@DU?$char_traits@D@std@@V?$allocator@D@2@@std@@@?$iterator_range@V?$_String_const_iterator@V?$_String_val@U?$_Simple_types@D@std@@@std@@@std@@@boost@@QEAA@AEBV?$basic_string@DU?$char_traits@D@std@@V?$allocator@D@2@@std@@Uconst_range_tag@iterator_range_detail@1@@Z
	??$?0V?$iterator_range@PEBD@boost@@@?$is_any_ofF@D@detail@algorithm@boost@@QEAA@AEBV?$iterator_range@PEBD@3@@Z
	??$?0V?$transform_iterator@U?$copy_iterator_rangeF@V?$basic_string@DU?$char_traits@D@std@@V?$allocator@D@2@@std@@V?$_String_const_iterator@V?$_String_val@U?$_Simple_types@D@std@@@std@@@2@@detail@algorithm@boost@@V?$split_iterator@V?$_String_const_iterator@V?$_String_val@U?$_Simple_types@D@std@@@std@@@std@@@34@Uuse_default@4@U64@@iterators@boost@@$0A@@?$vector@V?$basic_string@DU?$char_traits@D@std@@V?$allocator@D@2@@std@@V?$allocator@V?$basic_string@DU?$char_traits@D@std@@V?$allocator@D@2@@std@@@2@@std@@QEAA@V?$transform_iterator@U?$copy_iterator_rangeF@V?$basic_string@DU?$char_traits@D@std@@V?$allocator@D@2@@std@@V?$_String_const_iterator@V?$_String_val@U?$_Simple_types@D@std@@@std@@@2@@detail@algorithm@boost@@V?$split_iterator@V?$_String_const_iterator@V?$_String_val@U?$_Simple_types@D@std@@@std@@@std@@@34@Uuse_default@4@U64@@iterators@boost@@0AEBV?$allocator@V?$basic_string@DU?$char_traits@D@std@@V?$allocator@D@2@@std@@@1@@Z
	??$?0V?$tuple@AEBW4OsiLayer@vanetza@@@std@@V?$tuple@$$V@1@$0A@$$Z$S@?$pair@$$CBW4OsiLayer@vanetza@@V?$vector@EV?$allocator@E@std@@@std@@@std@@QEAA@AEAV?$tuple@AEBW4OsiLayer@vanetza@@@1@AEAV?$tuple@$$V@1@U?$integer_sequence@_K$0A@@1@U?$integer_sequence@_K$S@1@@Z
	??$?0V?$tuple@AEBW4OsiLayer@vanetza@@@std@@V?$tuple@$$V@1@$0A@$$Z$S@?$pair@$$CBW4OsiLayer@vanetza@@VByteBufferConvertible@2@@std@@QEAA@AEAV?$tuple@AEBW4OsiLayer@vanetza@@@1@AEAV?$tuple@$$V@1@U?$integer_sequence@_K$0A@@1@U?$integer_sequence@_K$S@1@@Z
	??$?0V?$vector@EV?$allocator@E@std@@@std@@@ByteBufferConvertible@vanetza@@QEAA@$$QEAV?$vector@EV?$allocator@E@std@@@std@@@Z
	??$?4$00@?$EndianType@G$0A@@vanetza@@QEAAAEAV01@AEBV?$EndianType@G$00@1@@Z
	??$?4U?$default_delete@Ubyte_buffer@convertible@vanetza@@@std@@$0A@@?$unique_ptr@Ubyte_buffer@convertible@vanetza@@U?$default_delete@Ubyte_buffer@convertible@vanetza@@@std@@@std@@QEAAAEAV01@$$QEAV01@@Z
	??$?4U?$default_delete@VChunkPacket@vanetza@@@std@@$0A@@?$unique_ptr@VChunkPacket@vanetza@@U?$default_delete@VChunkPacket@vanetza@@@std@@@std@@QEAAAEAV01@$$QEAV01@@Z
	??$?5E@InputArchive@vanetza@@QEAAAEAV01@AEAE@Z
	??$?6DU?$char_traits@D@std@@D@std@@YAAEAV?$basic_ostream@DU?$char_traits@D@std@@@0@AEAV10@AEBU?$_Fillobj@D@0@@Z
	??$?6DU?$char_traits@D@std@@_J@std@@YAAEAV?$basic_ostream@DU?$char_traits@D@std@@@0@AEAV10@AEBU?$_Smanip@_J@0@@Z
	??$?6E@OutputArchive@vanetza@@QEAAAEAV01@AEBE@Z
	??$?6U?$char_traits@D@std@@@std@@YAAEAV?$basic_ostream@DU?$char_traits@D@std@@@0@AEAV10@PEBD@Z
	??$?8E$05@std@@YA_NAEBV?$array@E$05@0@0@Z
	??$?8EE@std@@YA_NAEBV?$allocator@E@0@0@Z
	??$?8U?$_Tree_node@U?$pair@$$CBW4OsiLayer@vanetza@@VByteBufferConvertible@2@@std@@PEAX@std@@U01@@std@@YA_NAEBV?$allocator@U?$_Tree_node@U?$pair@$$CBW4OsiLayer@vanetza@@VByteBufferConvertible@2@@std@@PEAX@std@@@0@0@Z
	??$?8V?$_String_const_iterator@V?$_String_val@U?$_Simple_types@D@std@@@std@@@std@@V01@@boost@@YA_NAEBV?$iterator_range@V?$_String_const_iterator@V?$_String_val@U?$_Simple_types@D@std@@@std@@@std@@@0@0@Z
	??$?8V?$basic_string@DU?$char_traits@D@std@@V?$allocator@D@2@@std@@V01@@std@@YA_NAEBV?$allocator@V?$basic_string@DU?$char_traits@D@std@@V?$allocator@D@2@@std@@@0@0@Z
	??$?8V?$split_iterator@V?$_String_const_iterator@V?$_String_val@U?$_Simple_types@D@std@@@std@@@std@@@algorithm@boost@@$$CBV?$iterator_range@V?$_String_const_iterator@V?$_String_val@U?$_Simple_types@D@std@@@std@@@std@@@2@Uforward_traversal_tag@iterators@2@AEBV32@_JV012@$$CBV32@U452@AEBV32@_J@iterators@boost@@YA_NAEBV?$iterator_facade@V?$split_iterator@V?$_String_const_iterator@V?$_String_val@U?$_Simple_types@D@std@@@std@@@std@@@algorithm@boost@@$$CBV?$iterator_range@V?$_String_const_iterator@V?$_String_val@U?$_Simple_types@D@std@@@std@@@std@@@3@Uforward_traversal_tag@iterators@3@AEBV43@_J@01@0@Z
	??$?8Vstl_type_index@typeindex@boost@@Vtype_info@@@typeindex@boost@@YA_NAEBV?$type_index_facade@Vstl_type_index@typeindex@boost@@Vtype_info@@@01@0@Z
	??$?8Vstl_type_index@typeindex@boost@@Vtype_info@@@typeindex@boost@@YA_NAEBVtype_info@@AEBV?$type_index_facade@Vstl_type_index@typeindex@boost@@Vtype_info@@@01@@Z
	??$?9V?$transform_iterator@U?$copy_iterator_rangeF@V?$basic_string@DU?$char_traits@D@std@@V?$allocator@D@2@@std@@V?$_String_const_iterator@V?$_String_val@U?$_Simple_types@D@std@@@std@@@2@@detail@algorithm@boost@@V?$split_iterator@V?$_String_const_iterator@V?$_String_val@U?$_Simple_types@D@std@@@std@@@std@@@34@Uuse_default@4@U64@@iterators@boost@@V?$basic_string@DU?$char_traits@D@std@@V?$allocator@D@2@@std@@Uforward_traversal_tag@12@V34@_JV012@V34@U512@V34@_J@iterators@boost@@YA_NAEBV?$iterator_facade@V?$transform_iterator@U?$copy_iterator_rangeF@V?$basic_string@DU?$char_traits@D@std@@V?$allocator@D@2@@std@@V?$_String_const_iterator@V?$_String_val@U?$_Simple_types@D@std@@@std@@@2@@detail@algorithm@boost@@V?$split_iterator@V?$_String_const_iterator@V?$_String_val@U?$_Simple_types@D@std@@@std@@@std@@@34@Uuse_default@4@U64@@iterators@boost@@V?$basic_string@DU?$char_traits@D@std@@V?$allocator@D@2@@std@@Uforward_traversal_tag@23@V45@_J@01@0@Z
	??$?RAEADAEAD@?$less@X@std@@QEBA_NAEAD0@Z
	??$?RAEBDAEBD@?$equal_to@X@std@@QEBA_NAEBD0@Z
	??$?RAEBDAEBD@?$less@X@std@@QEBA_NAEBD0@Z
	??$?RAEBEAEBE@?$equal_to@X@std@@QEBA_NAEBE0@Z
	??$?RD@?$is_any_ofF@D@detail@algorithm@boost@@QEBA_ND@Z
	??$?RV?$_String_const_iterator@V?$_String_val@U?$_Simple_types@D@std@@@std@@@std@@@?$token_finderF@U?$is_any_ofF@D@detail@algorithm@boost@@@detail@algorithm@boost@@QEBA?AV?$iterator_range@V?$_String_const_iterator@V?$_String_val@U?$_Simple_types@D@std@@@std@@@std@@@3@V?$_String_const_iterator@V?$_String_val@U?$_Simple_types@D@std@@@std@@@std@@0@Z
	??$_Adl_verify_range@PEADPEAD@std@@YAXAEBQEAD0@Z
	??$_Adl_verify_range@PEAEPEAE@std@@YAXAEBQEAE0@Z
	??$_Adl_verify_range@PEBDPEBD@std@@YAXAEBQEBD0@Z
	??$_Adl_verify_range@PEBEPEBE@std@@YAXAEBQEBE0@Z
	??$_Adl_verify_range@V?$_Array_const_iterator@E$05@std@@V12@@std@@YAXAEBV?$_Array_const_iterator@E$05@0@0@Z
	??$_Adl_verify_range@V?$_String_const_iterator@V?$_String_val@U?$_Simple_types@D@std@@@std@@@std@@V12@@std@@YAXAEBV?$_String_const_iterator@V?$_String_val@U?$_Simple_types@D@std@@@std@@@0@0@Z
	??$_Adl_verify_range@V?$_Vector_const_iterator@V?$_Vector_val@U?$_Simple_types@E@std@@@std@@@std@@V12@@std@@YAXAEBV?$_Vector_const_iterator@V?$_Vector_val@U?$_Simple_types@E@std@@@std@@@0@0@Z
	??$_Adl_verify_range@V?$_Vector_iterator@V?$_Vector_val@U?$_Simple_types@E@std@@@std@@@std@@V12@@std@@YAXAEBV?$_Vector_iterator@V?$_Vector_val@U?$_Simple_types@E@std@@@std@@@0@0@Z
	??$_Adl_verify_range@V?$_Vector_iterator@V?$_Vector_val@U?$_Simple_types@V?$basic_string@DU?$char_traits@D@std@@V?$allocator@D@2@@std@@@std@@@std@@@std@@V12@@std@@YAXAEBV?$_Vector_iterator@V?$_Vector_val@U?$_Simple_types@V?$basic_string@DU?$char_traits@D@std@@V?$allocator@D@2@@std@@@std@@@std@@@0@0@Z
	??$_Adl_verify_range@V?$transform_iterator@U?$copy_iterator_rangeF@V?$basic_string@DU?$char_traits@D@std@@V?$allocator@D@2@@std@@V?$_String_const_iterator@V?$_String_val@U?$_Simple_types@D@std@@@std@@@2@@detail@algorithm@boost@@V?$split_iterator@V?$_String_const_iterator@V?$_String_val@U?$_Simple_types@D@std@@@std@@@std@@@34@Uuse_default@4@U64@@iterators@boost@@V123@@std@@YAXAEBV?$transform_iterator@U?$copy_iterator_rangeF@V?$basic_string@DU?$char_traits@D@std@@V?$allocator@D@2@@std@@V?$_String_const_iterator@V?$_String_val@U?$_Simple_types@D@std@@@std@@@2@@detail@algorithm@boost@@V?$split_iterator@V?$_String_const_iterator@V?$_String_val@U?$_Simple_types@D@std@@@std@@@std@@@34@Uuse_default@4@U64@@iterators@boost@@0@Z
	??$_Alloc_proxy@V?$allocator@U_Container_proxy@std@@@std@@@_Container_base12@std@@QEAAX$$QEAV?$allocator@U_Container_proxy@std@@@1@@Z
	??$_Allocate@$0BA@U_Default_allocate_traits@std@@$0A@@std@@YAPEAX_K@Z
	??$_Allocate_manually_vector_aligned@U_Default_allocate_traits@std@@@std@@YAPEAX_K@Z
	??$_Assign_range@PEAE@?$vector@EV?$allocator@E@std@@@std@@AEAAXPEAE0Uforward_iterator_tag@1@@Z
	??$_Buyheadnode@V?$allocator@U?$_Tree_node@U?$pair@$$CBW4OsiLayer@vanetza@@V?$vector@EV?$allocator@E@std@@@std@@@std@@PEAX@std@@@std@@@?$_Tree_node@U?$pair@$$CBW4OsiLayer@vanetza@@V?$vector@EV?$allocator@E@std@@@std@@@std@@PEAX@std@@SAPEAU01@AEAV?$allocator@U?$_Tree_node@U?$pair@$$CBW4OsiLayer@vanetza@@V?$vector@EV?$allocator@E@std@@@std@@@std@@PEAX@std@@@1@@Z
	??$_Buyheadnode@V?$allocator@U?$_Tree_node@U?$pair@$$CBW4OsiLayer@vanetza@@VByteBufferConvertible@2@@std@@PEAX@std@@@std@@@?$_Tree_node@U?$pair@$$CBW4OsiLayer@vanetza@@VByteBufferConvertible@2@@std@@PEAX@std@@SAPEAU01@AEAV?$allocator@U?$_Tree_node@U?$pair@$$CBW4OsiLayer@vanetza@@VByteBufferConvertible@2@@std@@PEAX@std@@@1@@Z
	??$_Construct@$00PEBD@?$basic_string@DU?$char_traits@D@std@@V?$allocator@D@2@@std@@AEAAXQEBD_K@Z
	??$_Construct_in_place@EAEBE@std@@YAXAEAEAEBE@Z
	??$_Construct_in_place@EE@std@@YAXAEAE$$QEAE@Z
	??$_Construct_in_place@PEADAEAPEAD@std@@YAXAEAPEAD0@Z
	??$_Construct_in_place@PEADAEBQEAD@std@@YAXAEAPEADAEBQEAD@Z
	??$_Construct_in_place@PEAU?$_Tree_node@U?$pair@$$CBW4OsiLayer@vanetza@@V?$vector@EV?$allocator@E@std@@@std@@@std@@PEAX@std@@AEAPEAU12@@std@@YAXAEAPEAU?$_Tree_node@U?$pair@$$CBW4OsiLayer@vanetza@@V?$vector@EV?$allocator@E@std@@@std@@@std@@PEAX@0@0@Z
	??$_Construct_in_place@PEAU?$_Tree_node@U?$pair@$$CBW4OsiLayer@vanetza@@V?$vector@EV?$allocator@E@std@@@std@@@std@@PEAX@std@@AEBQEAU12@@std@@YAXAEAPEAU?$_Tree_node@U?$pair@$$CBW4OsiLayer@vanetza@@V?$vector@EV?$allocator@E@std@@@std@@@std@@PEAX@0@AEBQEAU10@@Z
	??$_Construct_in_place@PEAU?$_Tree_node@U?$pair@$$CBW4OsiLayer@vanetza@@VByteBufferConvertible@2@@std@@PEAX@std@@AEAPEAU12@@std@@YAXAEAPEAU?$_Tree_node@U?$pair@$$CBW4OsiLayer@vanetza@@VByteBufferConvertible@2@@std@@PEAX@0@0@Z
	??$_Construct_in_place@PEAU?$_Tree_node@U?$pair@$$CBW4OsiLayer@vanetza@@VByteBufferConvertible@2@@std@@PEAX@std@@AEBQEAU12@@std@@YAXAEAPEAU?$_Tree_node@U?$pair@$$CBW4OsiLayer@vanetza@@VByteBufferConvertible@2@@std@@PEAX@0@AEBQEAU10@@Z
	??$_Construct_in_place@U_Container_proxy@std@@PEAU_Container_base12@2@@std@@YAXAEAU_Container_proxy@0@$$QEAPEAU_Container_base12@0@@Z
	??$_Construct_in_place@V?$basic_string@DU?$char_traits@D@std@@V?$allocator@D@2@@std@@V12@@std@@YAXAEAV?$basic_string@DU?$char_traits@D@std@@V?$allocator@D@2@@0@$$QEAV10@@Z
	??$_Construct_n@AEBQEAEAEBQEAE@?$vector@EV?$allocator@E@std@@@std@@AEAAX_KAEBQEAE1@Z
	??$_Construct_n@PEBEPEBE@?$vector@EV?$allocator@E@std@@@std@@AEAAX_K$$QEAPEBE1@Z
	??$_Convert_size@_K@std@@YA_K_K@Z
	??$_Copy_backward_memmove@PEADPEAD@std@@YAPEADPEAD00@Z
	??$_Copy_backward_memmove@PEAEPEAE@std@@YAPEAEPEAE00@Z
	??$_Copy_memmove@PEAEPEAE@std@@YAPEAEPEAE00@Z
	??$_Copy_memmove@PEBDPEAD@std@@YAPEADPEBD0PEAD@Z
	??$_Copy_memmove@PEBEPEAE@std@@YAPEAEPEBE0PEAE@Z
	??$_Copy_unchecked@PEAEPEAE@std@@YAPEAEPEAE00@Z
	??$_Copy_unchecked@PEBDPEAD@std@@YAPEADPEBD0PEAD@Z
	??$_Copy_unchecked@PEBEV?$back_insert_iterator@V?$vector@EV?$allocator@E@std@@@std@@@std@@@std@@YA?AV?$back_insert_iterator@V?$vector@EV?$allocator@E@std@@@std@@@0@PEBE0V10@@Z
	??$_Deallocate@$0BA@$0A@@std@@YAXPEAX_K@Z
	??$_Deallocate_plain@V?$allocator@U_Container_proxy@std@@@std@@@std@@YAXAEAV?$allocator@U_Container_proxy@std@@@0@QEAU_Container_proxy@0@@Z
	??$_Debug_lt_pred@AEAU?$less@X@std@@AEADAEAD$0A@@std@@YA_NAEAU?$less@X@0@AEAD1@Z
	??$_Debug_lt_pred@AEBU?$less@W4OsiLayer@vanetza@@@std@@AEBW4OsiLayer@vanetza@@AEBW434@$0A@@std@@YA_NAEBU?$less@W4OsiLayer@vanetza@@@0@AEBW4OsiLayer@vanetza@@1@Z
	??$_Delete_plain_internal@V?$allocator@U_Container_proxy@std@@@std@@@std@@YAXAEAV?$allocator@U_Container_proxy@std@@@0@QEAU_Container_proxy@0@@Z
	??$_Destroy_in_place@PEAD@std@@YAXAEAPEAD@Z
	??$_Destroy_in_place@PEAU?$_Tree_node@U?$pair@$$CBW4OsiLayer@vanetza@@V?$vector@EV?$allocator@E@std@@@std@@@std@@PEAX@std@@@std@@YAXAEAPEAU?$_Tree_node@U?$pair@$$CBW4OsiLayer@vanetza@@V?$vector@EV?$allocator@E@std@@@std@@@std@@PEAX@0@@Z
	??$_Destroy_in_place@PEAU?$_Tree_node@U?$pair@$$CBW4OsiLayer@vanetza@@VByteBufferConvertible@2@@std@@PEAX@std@@@std@@YAXAEAPEAU?$_Tree_node@U?$pair@$$CBW4OsiLayer@vanetza@@VByteBufferConvertible@2@@std@@PEAX@0@@Z
	??$_Destroy_range@V?$allocator@E@std@@@std@@YAXPEAEQEAEAEAV?$allocator@E@0@@Z
	??$_Destroy_range@V?$allocator@V?$basic_string@DU?$char_traits@D@std@@V?$allocator@D@2@@std@@@std@@@std@@YAXPEAV?$basic_string@DU?$char_traits@D@std@@V?$allocator@D@2@@0@QEAV10@AEAV?$allocator@V?$basic_string@DU?$char_traits@D@std@@V?$allocator@D@2@@std@@@0@@Z
	??$_Emplace@AEBU?$pair@$$CBW4OsiLayer@vanetza@@VByteBufferConvertible@2@@std@@@?$_Tree@V?$_Tmap_traits@W4OsiLayer@vanetza@@VByteBufferConvertible@2@U?$less@W4OsiLayer@vanetza@@@std@@V?$allocator@U?$pair@$$CBW4OsiLayer@vanetza@@VByteBufferConvertible@2@@std@@@5@$0A@@std@@@std@@IEAA?AU?$pair@PEAU?$_Tree_node@U?$pair@$$CBW4OsiLayer@vanetza@@VByteBufferConvertible@2@@std@@PEAX@std@@_N@1@AEBU?$pair@$$CBW4OsiLayer@vanetza@@VByteBufferConvertible@2@@1@@Z
	??$_Emplace_back@AEAE@?$_Uninitialized_backout_al@V?$allocator@E@std@@@std@@QEAAXAEAE@Z
	??$_Emplace_back@AEBE@?$_Uninitialized_backout_al@V?$allocator@E@std@@@std@@QEAAXAEBE@Z
	??$_Emplace_back@E@?$_Uninitialized_backout_al@V?$allocator@E@std@@@std@@QEAAX$$QEAE@Z
	??$_Emplace_back@V?$basic_string@DU?$char_traits@D@std@@V?$allocator@D@2@@std@@@?$_Uninitialized_backout_al@V?$allocator@V?$basic_string@DU?$char_traits@D@std@@V?$allocator@D@2@@std@@@std@@@std@@QEAAX$$QEAV?$basic_string@DU?$char_traits@D@std@@V?$allocator@D@2@@1@@Z
	??$_Emplace_back_with_unused_capacity@AEBE@?$vector@EV?$allocator@E@std@@@std@@AEAAAEAEAEBE@Z
	??$_Emplace_back_with_unused_capacity@E@?$vector@EV?$allocator@E@std@@@std@@AEAAAEAE$$QEAE@Z
	??$_Emplace_back_with_unused_capacity@V?$basic_string@DU?$char_traits@D@std@@V?$allocator@D@2@@std@@@?$vector@V?$basic_string@DU?$char_traits@D@std@@V?$allocator@D@2@@std@@V?$allocator@V?$basic_string@DU?$char_traits@D@std@@V?$allocator@D@2@@std@@@2@@std@@AEAAAEAV?$basic_string@DU?$char_traits@D@std@@V?$allocator@D@2@@1@$$QEAV21@@Z
	??$_Emplace_one_at_back@AEBE@?$vector@EV?$allocator@E@std@@@std@@AEAAAEAEAEBE@Z
	??$_Emplace_one_at_back@E@?$vector@EV?$allocator@E@std@@@std@@AEAAAEAE$$QEAE@Z
	??$_Emplace_one_at_back@V?$basic_string@DU?$char_traits@D@std@@V?$allocator@D@2@@std@@@?$vector@V?$basic_string@DU?$char_traits@D@std@@V?$allocator@D@2@@std@@V?$allocator@V?$basic_string@DU?$char_traits@D@std@@V?$allocator@D@2@@std@@@2@@std@@AEAAAEAV?$basic_string@DU?$char_traits@D@std@@V?$allocator@D@2@@1@$$QEAV21@@Z
	??$_Emplace_reallocate@AEBE@?$vector@EV?$allocator@E@std@@@std@@AEAAPEAEQEAEAEBE@Z
	??$_Emplace_reallocate@E@?$vector@EV?$allocator@E@std@@@std@@AEAAPEAEQEAE$$QEAE@Z
	??$_Emplace_reallocate@V?$basic_string@DU?$char_traits@D@std@@V?$allocator@D@2@@std@@@?$vector@V?$basic_string@DU?$char_traits@D@std@@V?$allocator@D@2@@std@@V?$allocator@V?$basic_string@DU?$char_traits@D@std@@V?$allocator@D@2@@std@@@2@@std@@AEAAPEAV?$basic_string@DU?$char_traits@D@std@@V?$allocator@D@2@@1@QEAV21@$$QEAV21@@Z
	??$_Erase_head@V?$allocator@U?$_Tree_node@U?$pair@$$CBW4OsiLayer@vanetza@@VByteBufferConvertible@2@@std@@PEAX@std@@@std@@@?$_Tree_val@U?$_Tree_simple_types@U?$pair@$$CBW4OsiLayer@vanetza@@VByteBufferConvertible@2@@std@@@std@@@std@@QEAAXAEAV?$allocator@U?$_Tree_node@U?$pair@$$CBW4OsiLayer@vanetza@@VByteBufferConvertible@2@@std@@PEAX@std@@@1@@Z
	??$_Erase_tree@V?$allocator@U?$_Tree_node@U?$pair@$$CBW4OsiLayer@vanetza@@VByteBufferConvertible@2@@std@@PEAX@std@@@std@@@?$_Tree_val@U?$_Tree_simple_types@U?$pair@$$CBW4OsiLayer@vanetza@@VByteBufferConvertible@2@@std@@@std@@@std@@QEAAXAEAV?$allocator@U?$_Tree_node@U?$pair@$$CBW4OsiLayer@vanetza@@VByteBufferConvertible@2@@std@@PEAX@std@@@1@PEAU?$_Tree_node@U?$pair@$$CBW4OsiLayer@vanetza@@VByteBufferConvertible@2@@std@@PEAX@1@@Z
	??$_Fill_memset@PEAEH@std@@YAXPEAEH_K@Z
	??$_Find@W4OsiLayer@vanetza@@@?$_Tree@V?$_Tmap_traits@W4OsiLayer@vanetza@@V?$vector@EV?$allocator@E@std@@@std@@U?$less@W4OsiLayer@vanetza@@@4@V?$allocator@U?$pair@$$CBW4OsiLayer@vanetza@@V?$vector@EV?$allocator@E@std@@@std@@@std@@@4@$0A@@std@@@std@@AEBAPEAU?$_Tree_node@U?$pair@$$CBW4OsiLayer@vanetza@@V?$vector@EV?$allocator@E@std@@@std@@@std@@PEAX@1@AEBW4OsiLayer@vanetza@@@Z
	??$_Find@W4OsiLayer@vanetza@@@?$_Tree@V?$_Tmap_traits@W4OsiLayer@vanetza@@VByteBufferConvertible@2@U?$less@W4OsiLayer@vanetza@@@std@@V?$allocator@U?$pair@$$CBW4OsiLayer@vanetza@@VByteBufferConvertible@2@@std@@@5@$0A@@std@@@std@@AEBAPEAU?$_Tree_node@U?$pair@$$CBW4OsiLayer@vanetza@@VByteBufferConvertible@2@@std@@PEAX@1@AEBW4OsiLayer@vanetza@@@Z
	??$_Find_lower_bound@W4OsiLayer@vanetza@@@?$_Tree@V?$_Tmap_traits@W4OsiLayer@vanetza@@V?$vector@EV?$allocator@E@std@@@std@@U?$less@W4OsiLayer@vanetza@@@4@V?$allocator@U?$pair@$$CBW4OsiLayer@vanetza@@V?$vector@EV?$allocator@E@std@@@std@@@std@@@4@$0A@@std@@@std@@IEBA?AU?$_Tree_find_result@PEAU?$_Tree_node@U?$pair@$$CBW4OsiLayer@vanetza@@V?$vector@EV?$allocator@E@std@@@std@@@std@@PEAX@std@@@1@AEBW4OsiLayer@vanetza@@@Z
	??$_Find_lower_bound@W4OsiLayer@vanetza@@@?$_Tree@V?$_Tmap_traits@W4OsiLayer@vanetza@@VByteBufferConvertible@2@U?$less@W4OsiLayer@vanetza@@@std@@V?$allocator@U?$pair@$$CBW4OsiLayer@vanetza@@VByteBufferConvertible@2@@std@@@5@$0A@@std@@@std@@IEBA?AU?$_Tree_find_result@PEAU?$_Tree_node@U?$pair@$$CBW4OsiLayer@vanetza@@VByteBufferConvertible@2@@std@@PEAX@std@@@1@AEBW4OsiLayer@vanetza@@@Z
	??$_Freenode0@V?$allocator@U?$_Tree_node@U?$pair@$$CBW4OsiLayer@vanetza@@VByteBufferConvertible@2@@std@@PEAX@std@@@std@@@?$_Tree_node@U?$pair@$$CBW4OsiLayer@vanetza@@VByteBufferConvertible@2@@std@@PEAX@std@@SAXAEAV?$allocator@U?$_Tree_node@U?$pair@$$CBW4OsiLayer@vanetza@@VByteBufferConvertible@2@@std@@PEAX@std@@@1@PEAU01@@Z
	??$_Freenode@V?$allocator@U?$_Tree_node@U?$pair@$$CBW4OsiLayer@vanetza@@VByteBufferConvertible@2@@std@@PEAX@std@@@std@@@?$_Tree_node@U?$pair@$$CBW4OsiLayer@vanetza@@VByteBufferConvertible@2@@std@@PEAX@std@@SAXAEAV?$allocator@U?$_Tree_node@U?$pair@$$CBW4OsiLayer@vanetza@@VByteBufferConvertible@2@@std@@PEAX@std@@@1@PEAU01@@Z
	??$_Get_size_of_n@$00@std@@YA_K_K@Z
	??$_Get_size_of_n@$0BA@@std@@YA_K_K@Z
	??$_Get_size_of_n@$0CI@@std@@YA_K_K@Z
	??$_Get_size_of_n@$0DA@@std@@YA_K_K@Z
	??$_Get_size_of_n@$0EI@@std@@YA_K_K@Z
	??$_Get_unwrapped@AEAPEAE@std@@YA?A_TAEAPEAE@Z
	??$_Get_unwrapped@AEAPEBD@std@@YA?A_TAEAPEBD@Z
	??$_Get_unwrapped@AEAV?$_Array_const_iterator@E$05@std@@@std@@YA?A_TAEAV?$_Array_const_iterator@E$05@0@@Z
	??$_Get_unwrapped@AEAV?$_String_const_iterator@V?$_String_val@U?$_Simple_types@D@std@@@std@@@std@@@std@@YA?A_TAEAV?$_String_const_iterator@V?$_String_val@U?$_Simple_types@D@std@@@std@@@0@@Z
	??$_Get_unwrapped@AEAV?$_Vector_const_iterator@V?$_Vector_val@U?$_Simple_types@E@std@@@std@@@std@@@std@@YA?A_TAEAV?$_Vector_const_iterator@V?$_Vector_val@U?$_Simple_types@E@std@@@std@@@0@@Z
	??$_Get_unwrapped@AEAV?$_Vector_iterator@V?$_Vector_val@U?$_Simple_types@E@std@@@std@@@std@@@std@@YA?A_TAEAV?$_Vector_iterator@V?$_Vector_val@U?$_Simple_types@E@std@@@std@@@0@@Z
	??$_Get_unwrapped@AEAV?$_Vector_iterator@V?$_Vector_val@U?$_Simple_types@V?$basic_string@DU?$char_traits@D@std@@V?$allocator@D@2@@std@@@std@@@std@@@std@@@std@@YA?A_TAEAV?$_Vector_iterator@V?$_Vector_val@U?$_Simple_types@V?$basic_string@DU?$char_traits@D@std@@V?$allocator@D@2@@std@@@std@@@std@@@0@@Z
	??$_Get_unwrapped@AEAV?$transform_iterator@U?$copy_iterator_rangeF@V?$basic_string@DU?$char_traits@D@std@@V?$allocator@D@2@@std@@V?$_String_const_iterator@V?$_String_val@U?$_Simple_types@D@std@@@std@@@2@@detail@algorithm@boost@@V?$split_iterator@V?$_String_const_iterator@V?$_String_val@U?$_Simple_types@D@std@@@std@@@std@@@34@Uuse_default@4@U64@@iterators@boost@@@std@@YA?A_TAEAV?$transform_iterator@U?$copy_iterator_rangeF@V?$basic_string@DU?$char_traits@D@std@@V?$allocator@D@2@@std@@V?$_String_const_iterator@V?$_String_val@U?$_Simple_types@D@std@@@std@@@2@@detail@algorithm@boost@@V?$split_iterator@V?$_String_const_iterator@V?$_String_val@U?$_Simple_types@D@std@@@std@@@std@@@34@Uuse_default@4@U64@@iterators@boost@@@Z
	??$_Get_unwrapped@AEBQEAD@std@@YA?A_TAEBQEAD@Z
	??$_Get_unwrapped@AEBQEAE@std@@YA?A_TAEBQEAE@Z
	??$_Get_unwrapped@AEBQEAV?$basic_string@DU?$char_traits@D@std@@V?$allocator@D@2@@std@@@std@@YA?A_TAEBQEAV?$basic_string@DU?$char_traits@D@std@@V?$allocator@D@2@@0@@Z
	??$_Get_unwrapped@AEBQEBD@std@@YA?A_TAEBQEBD@Z
	??$_Get_unwrapped@AEBQEBE@std@@YA?A_TAEBQEBE@Z
	??$_Get_unwrapped@AEBV?$_String_const_iterator@V?$_String_val@U?$_Simple_types@D@std@@@std@@@std@@@std@@YA?A_TAEBV?$_String_const_iterator@V?$_String_val@U?$_Simple_types@D@std@@@std@@@0@@Z
	??$_Get_unwrapped@AEBV?$_Vector_iterator@V?$_Vector_val@U?$_Simple_types@V?$basic_string@DU?$char_traits@D@std@@V?$allocator@D@2@@std@@@std@@@std@@@std@@@std@@YA?A_TAEBV?$_Vector_iterator@V?$_Vector_val@U?$_Simple_types@V?$basic_string@DU?$char_traits@D@std@@V?$allocator@D@2@@std@@@std@@@std@@@0@@Z
	??$_Get_unwrapped_n@AEAPEAD_J@std@@YA?A_TAEAPEAD_J@Z
	??$_Get_unwrapped_n@AEAPEBE_K@std@@YA?A_TAEAPEBE_K@Z
	??$_Get_unwrapped_n@AEAV?$_Array_iterator@E$05@std@@_J@std@@YA?A_TAEAV?$_Array_iterator@E$05@0@_J@Z
	??$_Get_unwrapped_n@AEAV?$_Array_iterator@E$05@std@@_K@std@@YA?A_TAEAV?$_Array_iterator@E$05@0@_K@Z
	??$_Get_unwrapped_n@AEAV?$_Vector_const_iterator@V?$_Vector_val@U?$_Simple_types@E@std@@@std@@@std@@_K@std@@YA?A_TAEAV?$_Vector_const_iterator@V?$_Vector_val@U?$_Simple_types@E@std@@@std@@@0@_K@Z
	??$_Get_unwrapped_n@AEAV?$back_insert_iterator@V?$vector@EV?$allocator@E@std@@@std@@@std@@_J@std@@YA?A_TAEAV?$back_insert_iterator@V?$vector@EV?$allocator@E@std@@@std@@@0@_J@Z
	??$_Get_unwrapped_n@AEBQEBE_J@std@@YA?A_TAEBQEBE_J@Z
	??$_Get_unwrapped_n@AEBV?$_String_const_iterator@V?$_String_val@U?$_Simple_types@D@std@@@std@@@std@@_J@std@@YA?A_TAEBV?$_String_const_iterator@V?$_String_val@U?$_Simple_types@D@std@@@std@@@0@_J@Z
	??$_Getvals@_W@?$time_get@DV?$istreambuf_iterator@DU?$char_traits@D@std@@@std@@@std@@IEAAX_WAEBV_Locinfo@1@@Z
	??$_Getvals@_W@?$time_get@_WV?$istreambuf_iterator@_WU?$char_traits@_W@std@@@std@@@std@@IEAAX_WAEBV_Locinfo@1@@Z
	??$_Guess_median_unchecked@PEADU?$less@X@std@@@std@@YAXPEAD00U?$less@X@0@@Z
	??$_Idl_distance@PEBDPEBD@std@@YA?A_PAEBQEBD0@Z
	??$_Idl_distance@PEBEPEBE@std@@YA?A_PAEBQEBE0@Z
	??$_Idl_distance@V?$_Array_const_iterator@E$05@std@@PEBE@std@@YA?A_PAEBQEBE0@Z
	??$_Idl_distance@V?$_String_const_iterator@V?$_String_val@U?$_Simple_types@D@std@@@std@@@std@@PEBD@std@@YA?A_PAEBQEBD0@Z
	??$_Idl_distance@V?$_Vector_iterator@V?$_Vector_val@U?$_Simple_types@V?$basic_string@DU?$char_traits@D@std@@V?$allocator@D@2@@std@@@std@@@std@@@std@@PEAV?$basic_string@DU?$char_traits@D@std@@V?$allocator@D@2@@2@@std@@YA?A_PAEBQEAV?$basic_string@DU?$char_traits@D@std@@V?$allocator@D@2@@0@0@Z
	??$_Insert_range@PEAE@?$vector@EV?$allocator@E@std@@@std@@AEAAXV?$_Vector_const_iterator@V?$_Vector_val@U?$_Simple_types@E@std@@@std@@@1@PEAE1Uforward_iterator_tag@1@@Z
	??$_Insertion_sort_unchecked@PEADU?$less@X@std@@@std@@YAPEADQEAD0U?$less@X@0@@Z
	??$_Kfn@$$CBW4OsiLayer@vanetza@@V?$vector@EV?$allocator@E@std@@@std@@@?$_Tmap_traits@W4OsiLayer@vanetza@@V?$vector@EV?$allocator@E@std@@@std@@U?$less@W4OsiLayer@vanetza@@@4@V?$allocator@U?$pair@$$CBW4OsiLayer@vanetza@@V?$vector@EV?$allocator@E@std@@@std@@@std@@@4@$0A@@std@@SAAEBW4OsiLayer@vanetza@@AEBU?$pair@$$CBW4OsiLayer@vanetza@@V?$vector@EV?$allocator@E@std@@@std@@@1@@Z
	??$_Kfn@$$CBW4OsiLayer@vanetza@@VByteBufferConvertible@2@@?$_Tmap_traits@W4OsiLayer@vanetza@@VByteBufferConvertible@2@U?$less@W4OsiLayer@vanetza@@@std@@V?$allocator@U?$pair@$$CBW4OsiLayer@vanetza@@VByteBufferConvertible@2@@std@@@5@$0A@@std@@SAAEBW4OsiLayer@vanetza@@AEBU?$pair@$$CBW4OsiLayer@vanetza@@VByteBufferConvertible@2@@1@@Z
	??$_Lower_bound_duplicate@W4OsiLayer@vanetza@@@?$_Tree@V?$_Tmap_traits@W4OsiLayer@vanetza@@V?$vector@EV?$allocator@E@std@@@std@@U?$less@W4OsiLayer@vanetza@@@4@V?$allocator@U?$pair@$$CBW4OsiLayer@vanetza@@V?$vector@EV?$allocator@E@std@@@std@@@std@@@4@$0A@@std@@@std@@IEBA_NQEAU?$_Tree_node@U?$pair@$$CBW4OsiLayer@vanetza@@V?$vector@EV?$allocator@E@std@@@std@@@std@@PEAX@1@AEBW4OsiLayer@vanetza@@@Z
	??$_Lower_bound_duplicate@W4OsiLayer@vanetza@@@?$_Tree@V?$_Tmap_traits@W4OsiLayer@vanetza@@VByteBufferConvertible@2@U?$less@W4OsiLayer@vanetza@@@std@@V?$allocator@U?$pair@$$CBW4OsiLayer@vanetza@@VByteBufferConvertible@2@@std@@@5@$0A@@std@@@std@@IEBA_NQEAU?$_Tree_node@U?$pair@$$CBW4OsiLayer@vanetza@@VByteBufferConvertible@2@@std@@PEAX@1@AEBW4OsiLayer@vanetza@@@Z
	??$_Make_heap_unchecked@PEADU?$less@X@std@@@std@@YAXPEAD0U?$less@X@0@@Z
	??$_Maklocstr@D@std@@YAPEADPEBDPEADAEBU_Cvtvec@@@Z
	??$_Maklocstr@_W@std@@YAPEA_WPEBDPEA_WAEBU_Cvtvec@@@Z
	??$_Med3_unchecked@PEADU?$less@X@std@@@std@@YAXPEAD00U?$less@X@0@@Z
	??$_Memcmp_ranges@PEBDPEBD@std@@YAHPEBD00@Z
	??$_Memcmp_ranges@PEBEPEBE@std@@YAHPEBE00@Z
	??$_Move_backward_unchecked@PEADPEAD@std@@YAPEADPEAD00@Z
	??$_Move_backward_unchecked@PEAEPEAE@std@@YAPEAEPEAE00@Z
	??$_Move_unchecked@PEAEPEAE@std@@YAPEAEPEAE00@Z
	??$_Next_iter@PEAD@std@@YAPEADPEAD@Z
	??$_Next_iter@PEBD@std@@YAPEBDPEBD@Z
	??$_Partition_by_median_guess_unchecked@PEADU?$less@X@std@@@std@@YA?AU?$pair@PEADPEAD@0@PEAD0U?$less@X@0@@Z
	??$_Pass_fn@U?$less@X@std@@$0A@@std@@YA?AU?$less@X@0@U10@@Z
	??$_Pocca@V?$allocator@E@std@@@std@@YAXAEAV?$allocator@E@0@AEBV10@@Z
	??$_Pocs@V?$allocator@E@std@@@std@@YAXAEAV?$allocator@E@0@0@Z
	??$_Pocs@V?$allocator@U?$_Tree_node@U?$pair@$$CBW4OsiLayer@vanetza@@VByteBufferConvertible@2@@std@@PEAX@std@@@std@@@std@@YAXAEAV?$allocator@U?$_Tree_node@U?$pair@$$CBW4OsiLayer@vanetza@@VByteBufferConvertible@2@@std@@PEAX@std@@@0@0@Z
	??$_Pocs@V?$allocator@V?$basic_string@DU?$char_traits@D@std@@V?$allocator@D@2@@std@@@std@@@std@@YAXAEAV?$allocator@V?$basic_string@DU?$char_traits@D@std@@V?$allocator@D@2@@std@@@0@0@Z
	??$_Pop_heap_hole_by_index@PEADDU?$less@X@std@@@std@@YAXPEAD_J1$$QEADU?$less@X@0@@Z
	??$_Pop_heap_hole_unchecked@PEADDU?$less@X@std@@@std@@YAXPEAD00$$QEADU?$less@X@0@@Z
	??$_Pop_heap_unchecked@PEADU?$less@X@std@@@std@@YAXPEAD0U?$less@X@0@@Z
	??$_Prev_iter@PEAD@std@@YAPEADPEAD@Z
	??$_Push_heap_by_index@PEADDU?$less@X@std@@@std@@YAXPEAD_J1$$QEADU?$less@X@0@@Z
	??$_Refancy@PEBD$0A@@std@@YAPEBDPEBD@Z
	??$_Seek_wrapped@PEADPEAD@std@@YAXAEAPEAD$$QEAPEAD@Z
	??$_Seek_wrapped@PEBDAEAPEBD@std@@YAXAEAPEBD0@Z
	??$_Seek_wrapped@V?$_Array_iterator@E$05@std@@AEAPEAE@std@@YAXAEAV?$_Array_iterator@E$05@0@AEAPEAE@Z
	??$_Seek_wrapped@V?$_Array_iterator@E$05@std@@PEAE@std@@YAXAEAV?$_Array_iterator@E$05@0@$$QEAPEAE@Z
	??$_Seek_wrapped@V?$_String_const_iterator@V?$_String_val@U?$_Simple_types@D@std@@@std@@@std@@AEAPEBD@std@@YAXAEAV?$_String_const_iterator@V?$_String_val@U?$_Simple_types@D@std@@@std@@@0@AEAPEBD@Z
	??$_Seek_wrapped@V?$back_insert_iterator@V?$vector@EV?$allocator@E@std@@@std@@@std@@V12@@std@@YAXAEAV?$back_insert_iterator@V?$vector@EV?$allocator@E@std@@@std@@@0@$$QEAV10@@Z
	??$_Sort_heap_unchecked@PEADU?$less@X@std@@@std@@YAXPEAD0U?$less@X@0@@Z
	??$_Sort_unchecked@PEADU?$less@X@std@@@std@@YAXPEAD0_JU?$less@X@0@@Z
	??$_Swap_adl@PEAE@std@@YAXAEAPEAE0@Z
	??$_Swap_adl@PEAU?$_Tree_node@U?$pair@$$CBW4OsiLayer@vanetza@@VByteBufferConvertible@2@@std@@PEAX@std@@@std@@YAXAEAPEAU?$_Tree_node@U?$pair@$$CBW4OsiLayer@vanetza@@VByteBufferConvertible@2@@std@@PEAX@0@0@Z
	??$_Swap_adl@PEAV?$basic_string@DU?$char_traits@D@std@@V?$allocator@D@2@@std@@@std@@YAXAEAPEAV?$basic_string@DU?$char_traits@D@std@@V?$allocator@D@2@@0@0@Z
	??$_Swap_adl@U?$less@W4OsiLayer@vanetza@@@std@@@std@@YAXAEAU?$less@W4OsiLayer@vanetza@@@0@0@Z
	??$_To_address@PEAD@std@@YA?A_PAEBQEAD@Z
	??$_To_address@PEAE@std@@YA?A_PAEBQEAE@Z
	??$_To_address@PEBD@std@@YA?A_PAEBQEBD@Z
	??$_To_address@PEBE@std@@YA?A_PAEBQEBE@Z
	??$_Try_emplace@AEBW4OsiLayer@vanetza@@$$V@?$map@W4OsiLayer@vanetza@@V?$vector@EV?$allocator@E@std@@@std@@U?$less@W4OsiLayer@vanetza@@@4@V?$allocator@U?$pair@$$CBW4OsiLayer@vanetza@@V?$vector@EV?$allocator@E@std@@@std@@@std@@@4@@std@@AEAA?AU?$pair@PEAU?$_Tree_node@U?$pair@$$CBW4OsiLayer@vanetza@@V?$vector@EV?$allocator@E@std@@@std@@@std@@PEAX@std@@_N@1@AEBW4OsiLayer@vanetza@@@Z
	??$_Try_emplace@AEBW4OsiLayer@vanetza@@$$V@?$map@W4OsiLayer@vanetza@@VByteBufferConvertible@2@U?$less@W4OsiLayer@vanetza@@@std@@V?$allocator@U?$pair@$$CBW4OsiLayer@vanetza@@VByteBufferConvertible@2@@std@@@5@@std@@AEAA?AU?$pair@PEAU?$_Tree_node@U?$pair@$$CBW4OsiLayer@vanetza@@VByteBufferConvertible@2@@std@@PEAX@std@@_N@1@AEBW4OsiLayer@vanetza@@@Z
	??$_Tuple_get@$0A@AEBW4OsiLayer@vanetza@@@std@@YA$$QEA_P$$QEAV?$tuple@AEBW4OsiLayer@vanetza@@@0@@Z
	??$_Unfancy@$$CBD@std@@YAPEBDPEBD@Z
	??$_Unfancy@D@std@@YAPEADPEAD@Z
	??$_Unfancy@E@std@@YAPEAEPEAE@Z
	??$_Unfancy@U_Container_proxy@std@@@std@@YAPEAU_Container_proxy@0@PEAU10@@Z
	??$_Unfancy@V?$basic_string@DU?$char_traits@D@std@@V?$allocator@D@2@@std@@@std@@YAPEAV?$basic_string@DU?$char_traits@D@std@@V?$allocator@D@2@@0@PEAV10@@Z
	??$_Unfancy_maybe_null@E@std@@YAPEAEPEAE@Z
	??$_Uninitialized_copy@PEAEV?$allocator@E@std@@@std@@YAPEAEQEAE0PEAEAEAV?$allocator@E@0@@Z
	??$_Uninitialized_copy@PEBEV?$allocator@E@std@@@std@@YAPEAEQEBE0PEAEAEAV?$allocator@E@0@@Z
	??$_Uninitialized_move@PEAEV?$allocator@E@std@@@std@@YAPEAEQEAE0PEAEAEAV?$allocator@E@0@@Z
	??$_Uninitialized_move@PEAV?$basic_string@DU?$char_traits@D@std@@V?$allocator@D@2@@std@@V?$allocator@V?$basic_string@DU?$char_traits@D@std@@V?$allocator@D@2@@std@@@2@@std@@YAPEAV?$basic_string@DU?$char_traits@D@std@@V?$allocator@D@2@@0@QEAV10@0PEAV10@AEAV?$allocator@V?$basic_string@DU?$char_traits@D@std@@V?$allocator@D@2@@std@@@0@@Z
	??$_Verify_range@D@std@@YAXQEBD0@Z
	??$_Verify_range@E$05@std@@YAXAEBV?$_Array_const_iterator@E$05@0@0@Z
	??$_Verify_range@E@std@@YAXQEBE0@Z
	??$_Voidify_iter@PEAE@std@@YAPEAXPEAE@Z
	??$_Voidify_iter@PEAPEAD@std@@YAPEAXPEAPEAD@Z
	??$_Voidify_iter@PEAPEAU?$_Tree_node@U?$pair@$$CBW4OsiLayer@vanetza@@V?$vector@EV?$allocator@E@std@@@std@@@std@@PEAX@std@@@std@@YAPEAXPEAPEAU?$_Tree_node@U?$pair@$$CBW4OsiLayer@vanetza@@V?$vector@EV?$allocator@E@std@@@std@@@std@@PEAX@0@@Z
	??$_Voidify_iter@PEAPEAU?$_Tree_node@U?$pair@$$CBW4OsiLayer@vanetza@@VByteBufferConvertible@2@@std@@PEAX@std@@@std@@YAPEAXPEAPEAU?$_Tree_node@U?$pair@$$CBW4OsiLayer@vanetza@@VByteBufferConvertible@2@@std@@PEAX@0@@Z
	??$_Voidify_iter@PEAU?$pair@$$CBW4OsiLayer@vanetza@@V?$vector@EV?$allocator@E@std@@@std@@@std@@@std@@YAPEAXPEAU?$pair@$$CBW4OsiLayer@vanetza@@V?$vector@EV?$allocator@E@std@@@std@@@0@@Z
	??$_Voidify_iter@PEAU?$pair@$$CBW4OsiLayer@vanetza@@VByteBufferConvertible@2@@std@@@std@@YAPEAXPEAU?$pair@$$CBW4OsiLayer@vanetza@@VByteBufferConvertible@2@@0@@Z
	??$_Voidify_iter@PEAU_Container_proxy@std@@@std@@YAPEAXPEAU_Container_proxy@0@@Z
	??$_Voidify_iter@PEAV?$basic_string@DU?$char_traits@D@std@@V?$allocator@D@2@@std@@@std@@YAPEAXPEAV?$basic_string@DU?$char_traits@D@std@@V?$allocator@D@2@@0@@Z
	??$addressof@$$CBU?$pair@$$CBW4OsiLayer@vanetza@@V?$vector@EV?$allocator@E@std@@@std@@@std@@@std@@YAPEBU?$pair@$$CBW4OsiLayer@vanetza@@V?$vector@EV?$allocator@E@std@@@std@@@0@AEBU10@@Z
	??$addressof@$$CBU?$pair@$$CBW4OsiLayer@vanetza@@VByteBufferConvertible@2@@std@@@std@@YAPEBU?$pair@$$CBW4OsiLayer@vanetza@@VByteBufferConvertible@2@@0@AEBU10@@Z
	??$addressof@$$CBV?$_String_val@U?$_Simple_types@D@std@@@std@@@std@@YAPEBV?$_String_val@U?$_Simple_types@D@std@@@0@AEBV10@@Z
	??$addressof@$$CBV?$_Tree_val@U?$_Tree_simple_types@U?$pair@$$CBW4OsiLayer@vanetza@@V?$vector@EV?$allocator@E@std@@@std@@@std@@@std@@@std@@@std@@YAPEBV?$_Tree_val@U?$_Tree_simple_types@U?$pair@$$CBW4OsiLayer@vanetza@@V?$vector@EV?$allocator@E@std@@@std@@@std@@@std@@@0@AEBV10@@Z
	??$addressof@$$CBV?$_Tree_val@U?$_Tree_simple_types@U?$pair@$$CBW4OsiLayer@vanetza@@VByteBufferConvertible@2@@std@@@std@@@std@@@std@@YAPEBV?$_Tree_val@U?$_Tree_simple_types@U?$pair@$$CBW4OsiLayer@vanetza@@VByteBufferConvertible@2@@std@@@std@@@0@AEBV10@@Z
	??$addressof@$$CBV?$_Vector_val@U?$_Simple_types@E@std@@@std@@@std@@YAPEBV?$_Vector_val@U?$_Simple_types@E@std@@@0@AEBV10@@Z
	??$addressof@$$CBV?$vector@EV?$allocator@E@std@@@std@@@std@@YAPEBV?$vector@EV?$allocator@E@std@@@0@AEBV10@@Z
	??$addressof@E@std@@YAPEAEAEAE@Z
	??$addressof@PEAD@std@@YAPEAPEADAEAPEAD@Z
	??$addressof@PEAU?$_Tree_node@U?$pair@$$CBW4OsiLayer@vanetza@@V?$vector@EV?$allocator@E@std@@@std@@@std@@PEAX@std@@@std@@YAPEAPEAU?$_Tree_node@U?$pair@$$CBW4OsiLayer@vanetza@@V?$vector@EV?$allocator@E@std@@@std@@@std@@PEAX@0@AEAPEAU10@@Z
	??$addressof@PEAU?$_Tree_node@U?$pair@$$CBW4OsiLayer@vanetza@@VByteBufferConvertible@2@@std@@PEAX@std@@@std@@YAPEAPEAU?$_Tree_node@U?$pair@$$CBW4OsiLayer@vanetza@@VByteBufferConvertible@2@@std@@PEAX@0@AEAPEAU10@@Z
	??$addressof@U?$pair@$$CBW4OsiLayer@vanetza@@V?$vector@EV?$allocator@E@std@@@std@@@std@@@std@@YAPEAU?$pair@$$CBW4OsiLayer@vanetza@@V?$vector@EV?$allocator@E@std@@@std@@@0@AEAU10@@Z
	??$addressof@U?$pair@$$CBW4OsiLayer@vanetza@@VByteBufferConvertible@2@@std@@@std@@YAPEAU?$pair@$$CBW4OsiLayer@vanetza@@VByteBufferConvertible@2@@0@AEAU10@@Z
	??$addressof@U?$token_finderF@U?$is_any_ofF@D@detail@algorithm@boost@@@detail@algorithm@boost@@@boost@@YAPEAU?$token_finderF@U?$is_any_ofF@D@detail@algorithm@boost@@@detail@algorithm@0@AEAU1230@@Z
	??$addressof@U_Container_base12@std@@@std@@YAPEAU_Container_base12@0@AEAU10@@Z
	??$addressof@U_Container_proxy@std@@@std@@YAPEAU_Container_proxy@0@AEAU10@@Z
	??$addressof@V?$_String_val@U?$_Simple_types@D@std@@@std@@@std@@YAPEAV?$_String_val@U?$_Simple_types@D@std@@@0@AEAV10@@Z
	??$addressof@V?$_Tree@V?$_Tmap_traits@W4OsiLayer@vanetza@@VByteBufferConvertible@2@U?$less@W4OsiLayer@vanetza@@@std@@V?$allocator@U?$pair@$$CBW4OsiLayer@vanetza@@VByteBufferConvertible@2@@std@@@5@$0A@@std@@@std@@@std@@YAPEAV?$_Tree@V?$_Tmap_traits@W4OsiLayer@vanetza@@VByteBufferConvertible@2@U?$less@W4OsiLayer@vanetza@@@std@@V?$allocator@U?$pair@$$CBW4OsiLayer@vanetza@@VByteBufferConvertible@2@@std@@@5@$0A@@std@@@0@AEAV10@@Z
	??$addressof@V?$_Tree_val@U?$_Tree_simple_types@U?$pair@$$CBW4OsiLayer@vanetza@@V?$vector@EV?$allocator@E@std@@@std@@@std@@@std@@@std@@@std@@YAPEAV?$_Tree_val@U?$_Tree_simple_types@U?$pair@$$CBW4OsiLayer@vanetza@@V?$vector@EV?$allocator@E@std@@@std@@@std@@@std@@@0@AEAV10@@Z
	??$addressof@V?$_Tree_val@U?$_Tree_simple_types@U?$pair@$$CBW4OsiLayer@vanetza@@VByteBufferConvertible@2@@std@@@std@@@std@@@std@@YAPEAV?$_Tree_val@U?$_Tree_simple_types@U?$pair@$$CBW4OsiLayer@vanetza@@VByteBufferConvertible@2@@std@@@std@@@0@AEAV10@@Z
	??$addressof@V?$_Vector_val@U?$_Simple_types@E@std@@@std@@@std@@YAPEAV?$_Vector_val@U?$_Simple_types@E@std@@@0@AEAV10@@Z
	??$addressof@V?$_Vector_val@U?$_Simple_types@V?$basic_string@DU?$char_traits@D@std@@V?$allocator@D@2@@std@@@std@@@std@@@std@@YAPEAV?$_Vector_val@U?$_Simple_types@V?$basic_string@DU?$char_traits@D@std@@V?$allocator@D@2@@std@@@std@@@0@AEAV10@@Z
	??$addressof@V?$basic_string@DU?$char_traits@D@std@@V?$allocator@D@2@@std@@@std@@YAPEAV?$basic_string@DU?$char_traits@D@std@@V?$allocator@D@2@@0@AEAV10@@Z
	??$addressof@V?$unique_ptr@Ubyte_buffer@convertible@vanetza@@U?$default_delete@Ubyte_buffer@convertible@vanetza@@@std@@@std@@@std@@YAPEAV?$unique_ptr@Ubyte_buffer@convertible@vanetza@@U?$default_delete@Ubyte_buffer@convertible@vanetza@@@std@@@0@AEAV10@@Z
	??$addressof@V?$unique_ptr@VChunkPacket@vanetza@@U?$default_delete@VChunkPacket@vanetza@@@std@@@std@@@std@@YAPEAV?$unique_ptr@VChunkPacket@vanetza@@U?$default_delete@VChunkPacket@vanetza@@@std@@@0@AEAV10@@Z
	??$addressof@V?$vector@EV?$allocator@E@std@@@std@@@std@@YAPEAV?$vector@EV?$allocator@E@std@@@0@AEAV10@@Z
	??$addressof@V?$vector@V?$basic_string@DU?$char_traits@D@std@@V?$allocator@D@2@@std@@V?$allocator@V?$basic_string@DU?$char_traits@D@std@@V?$allocator@D@2@@std@@@2@@std@@@std@@YAPEAV?$vector@V?$basic_string@DU?$char_traits@D@std@@V?$allocator@D@2@@std@@V?$allocator@V?$basic_string@DU?$char_traits@D@std@@V?$allocator@D@2@@std@@@2@@0@AEAV10@@Z
	??$adl_begin@$$CBV?$basic_string@DU?$char_traits@D@std@@V?$allocator@D@2@@std@@@?$iterator_range_impl@V?$_String_const_iterator@V?$_String_val@U?$_Simple_types@D@std@@@std@@@std@@@iterator_range_detail@boost@@SA?AV?$_String_const_iterator@V?$_String_val@U?$_Simple_types@D@std@@@std@@@std@@AEBV?$basic_string@DU?$char_traits@D@std@@V?$allocator@D@2@@4@@Z
	??$adl_end@$$CBV?$basic_string@DU?$char_traits@D@std@@V?$allocator@D@2@@std@@@?$iterator_range_impl@V?$_String_const_iterator@V?$_String_val@U?$_Simple_types@D@std@@@std@@@std@@@iterator_range_detail@boost@@SA?AV?$_String_const_iterator@V?$_String_val@U?$_Simple_types@D@std@@@std@@@std@@AEBV?$basic_string@DU?$char_traits@D@std@@V?$allocator@D@2@@4@@Z
	??$advance@PEAE_J@std@@YAXAEAPEAE_J@Z
	??$advance@PEBD_J@std@@YAXAEAPEBD_J@Z
	??$as_literal@D$01@boost@@YA?AV?$iterator_range@PEBD@0@AEAY01$$CBD@Z
	??$as_literal@V?$basic_string@DU?$char_traits@D@std@@V?$allocator@D@2@@std@@@boost@@YA?AV?$iterator_range@V?$_String_const_iterator@V?$_String_val@U?$_Simple_types@D@std@@@std@@@std@@@0@AEBV?$basic_string@DU?$char_traits@D@std@@V?$allocator@D@2@@std@@@Z
	??$assign@PEAE$0A@@?$vector@EV?$allocator@E@std@@@std@@QEAAXPEAE0@Z
	??$assign_functor@U?$token_finderF@U?$is_any_ofF@D@detail@algorithm@boost@@@detail@algorithm@boost@@@?$basic_vtable2@V?$iterator_range@V?$_String_const_iterator@V?$_String_val@U?$_Simple_types@D@std@@@std@@@std@@@boost@@V?$_String_const_iterator@V?$_String_val@U?$_Simple_types@D@std@@@std@@@std@@V34@@function@detail@boost@@AEBAXU?$token_finderF@U?$is_any_ofF@D@detail@algorithm@boost@@@2algorithm@3@AEATfunction_buffer@123@U?$integral_constant@_N$00@3@@Z
	??$assign_to@U?$token_finderF@U?$is_any_ofF@D@detail@algorithm@boost@@@detail@algorithm@boost@@@?$basic_vtable2@V?$iterator_range@V?$_String_const_iterator@V?$_String_val@U?$_Simple_types@D@std@@@std@@@std@@@boost@@V?$_String_const_iterator@V?$_String_val@U?$_Simple_types@D@std@@@std@@@std@@V34@@function@detail@boost@@AEBA_NU?$token_finderF@U?$is_any_ofF@D@detail@algorithm@boost@@@2algorithm@3@AEATfunction_buffer@123@Ufunction_obj_tag@123@@Z
	??$assign_to@U?$token_finderF@U?$is_any_ofF@D@detail@algorithm@boost@@@detail@algorithm@boost@@@?$basic_vtable2@V?$iterator_range@V?$_String_const_iterator@V?$_String_val@U?$_Simple_types@D@std@@@std@@@std@@@boost@@V?$_String_const_iterator@V?$_String_val@U?$_Simple_types@D@std@@@std@@@std@@V34@@function@detail@boost@@QEBA_NU?$token_finderF@U?$is_any_ofF@D@detail@algorithm@boost@@@2algorithm@3@AEATfunction_buffer@123@@Z
	??$assign_to@U?$token_finderF@U?$is_any_ofF@D@detail@algorithm@boost@@@detail@algorithm@boost@@@?$function2@V?$iterator_range@V?$_String_const_iterator@V?$_String_val@U?$_Simple_types@D@std@@@std@@@std@@@boost@@V?$_String_const_iterator@V?$_String_val@U?$_Simple_types@D@std@@@std@@@std@@V34@@boost@@AEAAXU?$token_finderF@U?$is_any_ofF@D@detail@algorithm@boost@@@detail@algorithm@1@@Z
	??$back_inserter@V?$vector@EV?$allocator@E@std@@@std@@@std@@YA?AV?$back_insert_iterator@V?$vector@EV?$allocator@E@std@@@std@@@0@AEAV?$vector@EV?$allocator@E@std@@@0@@Z
	??$begin@V?$basic_string@DU?$char_traits@D@std@@V?$allocator@D@2@@std@@@range_adl_barrier@boost@@YA?AV?$_String_const_iterator@V?$_String_val@U?$_Simple_types@D@std@@@std@@@std@@AEBV?$basic_string@DU?$char_traits@D@std@@V?$allocator@D@2@@3@@Z
	??$begin@V?$iterator_range@PEBD@boost@@@range_adl_barrier@boost@@YAPEBDAEBV?$iterator_range@PEBD@1@@Z
	??$begin@V?$iterator_range@V?$_String_const_iterator@V?$_String_val@U?$_Simple_types@D@std@@@std@@@std@@@boost@@@range_adl_barrier@boost@@YA?AV?$_String_const_iterator@V?$_String_val@U?$_Simple_types@D@std@@@std@@@std@@AEAV?$iterator_range@V?$_String_const_iterator@V?$_String_val@U?$_Simple_types@D@std@@@std@@@std@@@1@@Z
	??$begin@V?$iterator_range@V?$_String_const_iterator@V?$_String_val@U?$_Simple_types@D@std@@@std@@@std@@@boost@@@range_adl_barrier@boost@@YA?AV?$_String_const_iterator@V?$_String_val@U?$_Simple_types@D@std@@@std@@@std@@AEBV?$iterator_range@V?$_String_const_iterator@V?$_String_val@U?$_Simple_types@D@std@@@std@@@std@@@1@@Z
	??$big_to_native@F@endian@boost@@YAFF@Z
	??$big_to_native@G@endian@boost@@YAGG@Z
	??$big_to_native@I@endian@boost@@YAII@Z
	??$binary_search@PEBDD@std@@YA_NPEBD0AEBD@Z
	??$binary_search@PEBDDU?$less@X@std@@@std@@YA_NPEBD0AEBDU?$less@X@0@@Z
	??$cast_storage@V?$backup_holder@VChunkPacket@vanetza@@@variant@detail@boost@@@variant@detail@boost@@YAAEBV?$backup_holder@VChunkPacket@vanetza@@@012@PEBX@Z
	??$cast_storage@VChunkPacket@vanetza@@@variant@detail@boost@@YAAEBVChunkPacket@vanetza@@PEBX@Z
	??$cast_storage@VCohesivePacket@vanetza@@@variant@detail@boost@@YAAEBVCohesivePacket@vanetza@@PEBX@Z
	??$conditional_reverse@$00$0A@F@endian@boost@@YAFF@Z
	??$conditional_reverse@$00$0A@G@endian@boost@@YAGG@Z
	??$conditional_reverse@$00$0A@I@endian@boost@@YAII@Z
	??$conditional_reverse@$0A@$00F@endian@boost@@YAFF@Z
	??$conditional_reverse@$0A@$00G@endian@boost@@YAGG@Z
	??$conditional_reverse@$0A@$00I@endian@boost@@YAII@Z
	??$conditional_reverse_impl@F@detail@endian@boost@@YAFFU?$integral_constant@_N$0A@@2@@Z
	??$conditional_reverse_impl@G@detail@endian@boost@@YAGGU?$integral_constant@_N$0A@@2@@Z
	??$conditional_reverse_impl@I@detail@endian@boost@@YAIIU?$integral_constant@_N$0A@@2@@Z
	??$construct@EAEAE@?$_Default_allocator_traits@V?$allocator@E@std@@@std@@SAXAEAV?$allocator@E@1@QEAEAEAE@Z
	??$construct@EAEBE@?$_Default_allocator_traits@V?$allocator@E@std@@@std@@SAXAEAV?$allocator@E@1@QEAEAEBE@Z
	??$construct@EE@?$_Default_allocator_traits@V?$allocator@E@std@@@std@@SAXAEAV?$allocator@E@1@QEAE$$QEAE@Z
	??$construct@U?$pair@$$CBW4OsiLayer@vanetza@@V?$vector@EV?$allocator@E@std@@@std@@@std@@AEBUpiecewise_construct_t@2@V?$tuple@AEBW4OsiLayer@vanetza@@@2@V?$tuple@$$V@2@@?$_Default_allocator_traits@V?$allocator@U?$_Tree_node@U?$pair@$$CBW4OsiLayer@vanetza@@V?$vector@EV?$allocator@E@std@@@std@@@std@@PEAX@std@@@std@@@std@@SAXAEAV?$allocator@U?$_Tree_node@U?$pair@$$CBW4OsiLayer@vanetza@@V?$vector@EV?$allocator@E@std@@@std@@@std@@PEAX@std@@@1@QEAU?$pair@$$CBW4OsiLayer@vanetza@@V?$vector@EV?$allocator@E@std@@@std@@@1@AEBUpiecewise_construct_t@1@$$QEAV?$tuple@AEBW4OsiLayer@vanetza@@@1@$$QEAV?$tuple@$$V@1@@Z
	??$construct@U?$pair@$$CBW4OsiLayer@vanetza@@VByteBufferConvertible@2@@std@@AEBU12@@?$_Default_allocator_traits@V?$allocator@U?$_Tree_node@U?$pair@$$CBW4OsiLayer@vanetza@@VByteBufferConvertible@2@@std@@PEAX@std@@@std@@@std@@SAXAEAV?$allocator@U?$_Tree_node@U?$pair@$$CBW4OsiLayer@vanetza@@VByteBufferConvertible@2@@std@@PEAX@std@@@1@QEAU?$pair@$$CBW4OsiLayer@vanetza@@VByteBufferConvertible@2@@1@AEBU31@@Z
	??$construct@U?$pair@$$CBW4OsiLayer@vanetza@@VByteBufferConvertible@2@@std@@AEBUpiecewise_construct_t@2@V?$tuple@AEBW4OsiLayer@vanetza@@@2@V?$tuple@$$V@2@@?$_Default_allocator_traits@V?$allocator@U?$_Tree_node@U?$pair@$$CBW4OsiLayer@vanetza@@VByteBufferConvertible@2@@std@@PEAX@std@@@std@@@std@@SAXAEAV?$allocator@U?$_Tree_node@U?$pair@$$CBW4OsiLayer@vanetza@@VByteBufferConvertible@2@@std@@PEAX@std@@@1@QEAU?$pair@$$CBW4OsiLayer@vanetza@@VByteBufferConvertible@2@@1@AEBUpiecewise_construct_t@1@$$QEAV?$tuple@AEBW4OsiLayer@vanetza@@@1@$$QEAV?$tuple@$$V@1@@Z
	??$construct@V?$basic_string@DU?$char_traits@D@std@@V?$allocator@D@2@@std@@V12@@?$_Default_allocator_traits@V?$allocator@V?$basic_string@DU?$char_traits@D@std@@V?$allocator@D@2@@std@@@std@@@std@@SAXAEAV?$allocator@V?$basic_string@DU?$char_traits@D@std@@V?$allocator@D@2@@std@@@1@QEAV?$basic_string@DU?$char_traits@D@std@@V?$allocator@D@2@@1@$$QEAV31@@Z
	??$convert_endian@G$00$0A@@detail@vanetza@@YAGAEBG@Z
	??$convert_endian@G$0A@$00@detail@vanetza@@YAGAEBG@Z
	??$copy@PEBDPEAD@std@@YAPEADPEBD0PEAD@Z
	??$copy@V?$_Array_const_iterator@E$05@std@@V?$back_insert_iterator@V?$vector@EV?$allocator@E@std@@@std@@@2@@std@@YA?AV?$back_insert_iterator@V?$vector@EV?$allocator@E@std@@@std@@@0@V?$_Array_const_iterator@E$05@0@0V10@@Z
	??$copy_n@PEBE_KV?$_Array_iterator@E$05@std@@@std@@YA?AV?$_Array_iterator@E$05@0@PEBE_KV10@@Z
	??$copy_n@V?$_Vector_const_iterator@V?$_Vector_val@U?$_Simple_types@E@std@@@std@@@std@@_KV?$_Array_iterator@E$05@2@@std@@YA?AV?$_Array_iterator@E$05@0@V?$_Vector_const_iterator@V?$_Vector_val@U?$_Simple_types@E@std@@@std@@@0@_KV10@@Z
	??$copy_range@V?$basic_string@DU?$char_traits@D@std@@V?$allocator@D@2@@std@@V?$iterator_range@V?$_String_const_iterator@V?$_String_val@U?$_Simple_types@D@std@@@std@@@std@@@boost@@@boost@@YA?AV?$basic_string@DU?$char_traits@D@std@@V?$allocator@D@2@@std@@AEBV?$iterator_range@V?$_String_const_iterator@V?$_String_val@U?$_Simple_types@D@std@@@std@@@std@@@0@@Z
	??$dereference@V?$split_iterator@V?$_String_const_iterator@V?$_String_val@U?$_Simple_types@D@std@@@std@@@std@@@algorithm@boost@@@iterator_core_access@iterators@boost@@CAAEBV?$iterator_range@V?$_String_const_iterator@V?$_String_val@U?$_Simple_types@D@std@@@std@@@std@@@2@AEBV?$split_iterator@V?$_String_const_iterator@V?$_String_val@U?$_Simple_types@D@std@@@std@@@std@@@algorithm@2@@Z
	??$dereference@V?$transform_iterator@U?$copy_iterator_rangeF@V?$basic_string@DU?$char_traits@D@std@@V?$allocator@D@2@@std@@V?$_String_const_iterator@V?$_String_val@U?$_Simple_types@D@std@@@std@@@2@@detail@algorithm@boost@@V?$split_iterator@V?$_String_const_iterator@V?$_String_val@U?$_Simple_types@D@std@@@std@@@std@@@34@Uuse_default@4@U64@@iterators@boost@@@iterator_core_access@iterators@boost@@CA?AV?$basic_string@DU?$char_traits@D@std@@V?$allocator@D@2@@std@@AEBV?$transform_iterator@U?$copy_iterator_rangeF@V?$basic_string@DU?$char_traits@D@std@@V?$allocator@D@2@@std@@V?$_String_const_iterator@V?$_String_val@U?$_Simple_types@D@std@@@std@@@2@@detail@algorithm@boost@@V?$split_iterator@V?$_String_const_iterator@V?$_String_val@U?$_Simple_types@D@std@@@std@@@std@@@34@Uuse_default@4@U64@@12@@Z
	??$destroy@U?$pair@$$CBW4OsiLayer@vanetza@@V?$vector@EV?$allocator@E@std@@@std@@@std@@@?$_Default_allocator_traits@V?$allocator@U?$_Tree_node@U?$pair@$$CBW4OsiLayer@vanetza@@V?$vector@EV?$allocator@E@std@@@std@@@std@@PEAX@std@@@std@@@std@@SAXAEAV?$allocator@U?$_Tree_node@U?$pair@$$CBW4OsiLayer@vanetza@@V?$vector@EV?$allocator@E@std@@@std@@@std@@PEAX@std@@@1@QEAU?$pair@$$CBW4OsiLayer@vanetza@@V?$vector@EV?$allocator@E@std@@@std@@@1@@Z
	??$destroy@U?$pair@$$CBW4OsiLayer@vanetza@@VByteBufferConvertible@2@@std@@@?$_Default_allocator_traits@V?$allocator@U?$_Tree_node@U?$pair@$$CBW4OsiLayer@vanetza@@VByteBufferConvertible@2@@std@@PEAX@std@@@std@@@std@@SAXAEAV?$allocator@U?$_Tree_node@U?$pair@$$CBW4OsiLayer@vanetza@@VByteBufferConvertible@2@@std@@PEAX@std@@@1@QEAU?$pair@$$CBW4OsiLayer@vanetza@@VByteBufferConvertible@2@@1@@Z
	??$destroy@V?$basic_string@DU?$char_traits@D@std@@V?$allocator@D@2@@std@@@?$_Default_allocator_traits@V?$allocator@V?$basic_string@DU?$char_traits@D@std@@V?$allocator@D@2@@std@@@std@@@std@@SAXAEAV?$allocator@V?$basic_string@DU?$char_traits@D@std@@V?$allocator@D@2@@std@@@1@QEAV?$basic_string@DU?$char_traits@D@std@@V?$allocator@D@2@@1@@Z
	??$distance@PEAE@std@@YA_JPEAE0@Z
	??$distance@PEBD@distance_adl_barrier@iterators@boost@@YA_JPEBD0@Z
	??$distance@PEBD@std@@YA_JPEBD0@Z
	??$distance@PEBE@std@@YA_JPEBE0@Z
	??$distance@V?$_Vector_const_iterator@V?$_Vector_val@U?$_Simple_types@E@std@@@std@@@std@@@std@@YA_JV?$_Vector_const_iterator@V?$_Vector_val@U?$_Simple_types@E@std@@@std@@@0@0@Z
	??$distance@V?$_Vector_iterator@V?$_Vector_val@U?$_Simple_types@E@std@@@std@@@std@@@std@@YA_JV?$_Vector_iterator@V?$_Vector_val@U?$_Simple_types@E@std@@@std@@@0@0@Z
	??$distance@V?$iterator_range@PEBD@boost@@@range_distance_adl_barrier@boost@@YA_JAEBV?$iterator_range@PEBD@1@@Z
	??$distance_impl@PEBD@detail@iterators@boost@@YA_JPEBD0Urandom_access_traversal_tag@12@@Z
	??$emplace_back@AEBE@?$vector@EV?$allocator@E@std@@@std@@QEAA?A_TAEBE@Z
	??$emplace_back@E@?$vector@EV?$allocator@E@std@@@std@@QEAA?A_T$$QEAE@Z
	??$end@V?$basic_string@DU?$char_traits@D@std@@V?$allocator@D@2@@std@@@range_adl_barrier@boost@@YA?AV?$_String_const_iterator@V?$_String_val@U?$_Simple_types@D@std@@@std@@@std@@AEBV?$basic_string@DU?$char_traits@D@std@@V?$allocator@D@2@@3@@Z
	??$end@V?$iterator_range@PEBD@boost@@@range_adl_barrier@boost@@YAPEBDAEBV?$iterator_range@PEBD@1@@Z
	??$end@V?$iterator_range@V?$_String_const_iterator@V?$_String_val@U?$_Simple_types@D@std@@@std@@@std@@@boost@@@range_adl_barrier@boost@@YA?AV?$_String_const_iterator@V?$_String_val@U?$_Simple_types@D@std@@@std@@@std@@AEAV?$iterator_range@V?$_String_const_iterator@V?$_String_val@U?$_Simple_types@D@std@@@std@@@std@@@1@@Z
	??$end@V?$iterator_range@V?$_String_const_iterator@V?$_String_val@U?$_Simple_types@D@std@@@std@@@std@@@boost@@@range_adl_barrier@boost@@YA?AV?$_String_const_iterator@V?$_String_val@U?$_Simple_types@D@std@@@std@@@std@@AEBV?$iterator_range@V?$_String_const_iterator@V?$_String_val@U?$_Simple_types@D@std@@@std@@@std@@@1@@Z
	??$endian_cast@$00G@vanetza@@YA?AV?$EndianType@G$00@0@G@Z
	??$endian_reverse@F@endian@boost@@YAFF@Z
	??$endian_reverse@G@endian@boost@@YAGG@Z
	??$endian_reverse@I@endian@boost@@YAII@Z
	??$equal@PEBEPEBE@std@@YA_NQEBE00@Z
	??$equal@PEBEPEBEU?$equal_to@X@std@@@std@@YA_NQEBE00U?$equal_to@X@0@@Z
	??$equal@V?$_String_const_iterator@V?$_String_val@U?$_Simple_types@D@std@@@std@@@std@@V12@@range_detail@boost@@YA_NV?$_String_const_iterator@V?$_String_val@U?$_Simple_types@D@std@@@std@@@std@@000@Z
	??$equal@V?$_String_const_iterator@V?$_String_val@U?$_Simple_types@D@std@@@std@@@std@@V12@@std@@YA_NV?$_String_const_iterator@V?$_String_val@U?$_Simple_types@D@std@@@std@@@0@00@Z
	??$equal@V?$_String_const_iterator@V?$_String_val@U?$_Simple_types@D@std@@@std@@@std@@V12@U?$equal_to@X@2@@std@@YA_NV?$_String_const_iterator@V?$_String_val@U?$_Simple_types@D@std@@@std@@@0@00U?$equal_to@X@0@@Z
	??$equal@V?$iterator_range@V?$_String_const_iterator@V?$_String_val@U?$_Simple_types@D@std@@@std@@@std@@@boost@@V12@@range@boost@@YA_NAEBV?$iterator_range@V?$_String_const_iterator@V?$_String_val@U?$_Simple_types@D@std@@@std@@@std@@@1@0@Z
	??$equal@V?$split_iterator@V?$_String_const_iterator@V?$_String_val@U?$_Simple_types@D@std@@@std@@@std@@@algorithm@boost@@V123@@iterator_core_access@iterators@boost@@CA_NAEBV?$split_iterator@V?$_String_const_iterator@V?$_String_val@U?$_Simple_types@D@std@@@std@@@std@@@algorithm@2@0U?$bool_@$00@mpl@2@@Z
	??$equal@V?$transform_iterator@U?$copy_iterator_rangeF@V?$basic_string@DU?$char_traits@D@std@@V?$allocator@D@2@@std@@V?$_String_const_iterator@V?$_String_val@U?$_Simple_types@D@std@@@std@@@2@@detail@algorithm@boost@@V?$split_iterator@V?$_String_const_iterator@V?$_String_val@U?$_Simple_types@D@std@@@std@@@std@@@34@Uuse_default@4@U64@@iterators@boost@@V123@@iterator_core_access@iterators@boost@@CA_NAEBV?$transform_iterator@U?$copy_iterator_rangeF@V?$basic_string@DU?$char_traits@D@std@@V?$allocator@D@2@@std@@V?$_String_const_iterator@V?$_String_val@U?$_Simple_types@D@std@@@std@@@2@@detail@algorithm@boost@@V?$split_iterator@V?$_String_const_iterator@V?$_String_val@U?$_Simple_types@D@std@@@std@@@std@@@34@Uuse_default@4@U64@@12@0U?$bool_@$00@mpl@2@@Z
	??$equal@V?$transform_iterator@U?$copy_iterator_rangeF@V?$basic_string@DU?$char_traits@D@std@@V?$allocator@D@2@@std@@V?$_String_const_iterator@V?$_String_val@U?$_Simple_types@D@std@@@std@@@2@@detail@algorithm@boost@@V?$split_iterator@V?$_String_const_iterator@V?$_String_val@U?$_Simple_types@D@std@@@std@@@std@@@34@Uuse_default@4@U64@@iterators@boost@@V?$split_iterator@V?$_String_const_iterator@V?$_String_val@U?$_Simple_types@D@std@@@std@@@std@@@algorithm@3@V?$basic_string@DU?$char_traits@D@std@@V?$allocator@D@2@@std@@Uuse_default@3@V67@U83@@?$iterator_adaptor@V?$transform_iterator@U?$copy_iterator_rangeF@V?$basic_string@DU?$char_traits@D@std@@V?$allocator@D@2@@std@@V?$_String_const_iterator@V?$_String_val@U?$_Simple_types@D@std@@@std@@@2@@detail@algorithm@boost@@V?$split_iterator@V?$_String_const_iterator@V?$_String_val@U?$_Simple_types@D@std@@@std@@@std@@@34@Uuse_default@4@U64@@iterators@boost@@V?$split_iterator@V?$_String_const_iterator@V?$_String_val@U?$_Simple_types@D@std@@@std@@@std@@@algorithm@3@V?$basic_string@DU?$char_traits@D@std@@V?$allocator@D@2@@std@@Uuse_default@3@V67@U83@@iterators@boost@@AEBA_NAEBV012@@Z
	??$equal_impl@V?$_String_const_iterator@V?$_String_val@U?$_Simple_types@D@std@@@std@@@std@@V12@@range_detail@boost@@YA_NV?$_String_const_iterator@V?$_String_val@U?$_Simple_types@D@std@@@std@@@std@@000Urandom_access_iterator_tag@3@1@Z
	??$exchange@PEAE$$T@std@@YAPEAEAEAPEAE$$QEA$$T@Z
	??$exchange@PEAU?$_Tree_node@U?$pair@$$CBW4OsiLayer@vanetza@@V?$vector@EV?$allocator@E@std@@@std@@@std@@PEAX@std@@$$T@std@@YAPEAU?$_Tree_node@U?$pair@$$CBW4OsiLayer@vanetza@@V?$vector@EV?$allocator@E@std@@@std@@@std@@PEAX@0@AEAPEAU10@$$QEA$$T@Z
	??$exchange@PEAU?$_Tree_node@U?$pair@$$CBW4OsiLayer@vanetza@@VByteBufferConvertible@2@@std@@PEAX@std@@$$T@std@@YAPEAU?$_Tree_node@U?$pair@$$CBW4OsiLayer@vanetza@@VByteBufferConvertible@2@@std@@PEAX@0@AEAPEAU10@$$QEA$$T@Z
	??$exchange@PEAU?$_Tree_node@U?$pair@$$CBW4OsiLayer@vanetza@@VByteBufferConvertible@2@@std@@PEAX@std@@AEAPEAU12@@std@@YAPEAU?$_Tree_node@U?$pair@$$CBW4OsiLayer@vanetza@@VByteBufferConvertible@2@@std@@PEAX@0@AEAPEAU10@0@Z
	??$exchange@PEAU_Container_proxy@std@@$$T@std@@YAPEAU_Container_proxy@0@AEAPEAU10@$$QEA$$T@Z
	??$exchange@PEAUbyte_buffer@convertible@vanetza@@$$T@std@@YAPEAUbyte_buffer@convertible@vanetza@@AEAPEAU123@$$QEA$$T@Z
	??$exchange@PEAUbyte_buffer@convertible@vanetza@@AEAPEAU123@@std@@YAPEAUbyte_buffer@convertible@vanetza@@AEAPEAU123@0@Z
	??$exchange@PEAVChunkPacket@vanetza@@$$T@std@@YAPEAVChunkPacket@vanetza@@AEAPEAV12@$$QEA$$T@Z
	??$exchange@PEAVChunkPacket@vanetza@@AEAPEAV12@@std@@YAPEAVChunkPacket@vanetza@@AEAPEAV12@0@Z
	??$fill_n@V?$_Array_iterator@E$05@std@@_KH@std@@YA?AV?$_Array_iterator@E$05@0@V10@_KAEBH@Z
	??$find_if@V?$_String_const_iterator@V?$_String_val@U?$_Simple_types@D@std@@@std@@@std@@U?$is_any_ofF@D@detail@algorithm@boost@@@std@@YA?AV?$_String_const_iterator@V?$_String_val@U?$_Simple_types@D@std@@@std@@@0@V10@V10@U?$is_any_ofF@D@detail@algorithm@boost@@@Z
	??$forced_return@Vbyte_view_range@vanetza@@@variant@detail@boost@@YA?AVbyte_view_range@vanetza@@XZ
	??$forced_return@X@variant@detail@boost@@YAXXZ
	??$forced_return@_K@variant@detail@boost@@YA_KXZ
	??$forward@AEAE@std@@YAAEAEAEAE@Z
	??$forward@AEAPEAD@std@@YAAEAPEADAEAPEAD@Z
	??$forward@AEAPEAE@std@@YAAEAPEAEAEAPEAE@Z
	??$forward@AEAPEAU?$_Tree_node@U?$pair@$$CBW4OsiLayer@vanetza@@V?$vector@EV?$allocator@E@std@@@std@@@std@@PEAX@std@@@std@@YAAEAPEAU?$_Tree_node@U?$pair@$$CBW4OsiLayer@vanetza@@V?$vector@EV?$allocator@E@std@@@std@@@std@@PEAX@0@AEAPEAU10@@Z
	??$forward@AEAPEAU?$_Tree_node@U?$pair@$$CBW4OsiLayer@vanetza@@VByteBufferConvertible@2@@std@@PEAX@std@@@std@@YAAEAPEAU?$_Tree_node@U?$pair@$$CBW4OsiLayer@vanetza@@VByteBufferConvertible@2@@std@@PEAX@0@AEAPEAU10@@Z
	??$forward@AEAPEAUbyte_buffer@convertible@vanetza@@@std@@YAAEAPEAUbyte_buffer@convertible@vanetza@@AEAPEAU123@@Z
	??$forward@AEAPEAVChunkPacket@vanetza@@@std@@YAAEAPEAVChunkPacket@vanetza@@AEAPEAV12@@Z
	??$forward@AEAPEBD@std@@YAAEAPEBDAEAPEBD@Z
	??$forward@AEBE@std@@YAAEBEAEBE@Z
	??$forward@AEBQEAD@std@@YAAEBQEADAEBQEAD@Z
	??$forward@AEBQEAE@std@@YAAEBQEAEAEBQEAE@Z
	??$forward@AEBQEAU?$_Tree_node@U?$pair@$$CBW4OsiLayer@vanetza@@V?$vector@EV?$allocator@E@std@@@std@@@std@@PEAX@std@@@std@@YAAEBQEAU?$_Tree_node@U?$pair@$$CBW4OsiLayer@vanetza@@V?$vector@EV?$allocator@E@std@@@std@@@std@@PEAX@0@AEBQEAU10@@Z
	??$forward@AEBQEAU?$_Tree_node@U?$pair@$$CBW4OsiLayer@vanetza@@VByteBufferConvertible@2@@std@@PEAX@std@@@std@@YAAEBQEAU?$_Tree_node@U?$pair@$$CBW4OsiLayer@vanetza@@VByteBufferConvertible@2@@std@@PEAX@0@AEBQEAU10@@Z
	??$forward@AEBU?$less@W4OsiLayer@vanetza@@@std@@@std@@YAAEBU?$less@W4OsiLayer@vanetza@@@0@AEBU10@@Z
	??$forward@AEBU?$pair@$$CBW4OsiLayer@vanetza@@VByteBufferConvertible@2@@std@@@std@@YAAEBU?$pair@$$CBW4OsiLayer@vanetza@@VByteBufferConvertible@2@@0@AEBU10@@Z
	??$forward@AEBUpiecewise_construct_t@std@@@std@@YAAEBUpiecewise_construct_t@0@AEBU10@@Z
	??$forward@AEBV?$allocator@D@std@@@std@@YAAEBV?$allocator@D@0@AEBV10@@Z
	??$forward@AEBV?$allocator@E@std@@@std@@YAAEBV?$allocator@E@0@AEBV10@@Z
	??$forward@AEBV?$allocator@V?$basic_string@DU?$char_traits@D@std@@V?$allocator@D@2@@std@@@std@@@std@@YAAEBV?$allocator@V?$basic_string@DU?$char_traits@D@std@@V?$allocator@D@2@@std@@@0@AEBV10@@Z
	??$forward@AEBV?$variant@VChunkPacket@vanetza@@VCohesivePacket@2@@boost@@@boost@@YAAEBV?$variant@VChunkPacket@vanetza@@VCohesivePacket@2@@0@AEBV10@@Z
	??$forward@AEBW4OsiLayer@vanetza@@@std@@YAAEBW4OsiLayer@vanetza@@AEBW412@@Z
	??$forward@AEB_N@std@@YAAEB_NAEB_N@Z
	??$forward@D@std@@YA$$QEADAEAD@Z
	??$forward@E@std@@YA$$QEAEAEAE@Z
	??$forward@PEAD@std@@YA$$QEAPEADAEAPEAD@Z
	??$forward@PEAE@std@@YA$$QEAPEAEAEAPEAE@Z
	??$forward@PEAU?$_Tree_node@U?$pair@$$CBW4OsiLayer@vanetza@@V?$vector@EV?$allocator@E@std@@@std@@@std@@PEAX@std@@@std@@YA$$QEAPEAU?$_Tree_node@U?$pair@$$CBW4OsiLayer@vanetza@@V?$vector@EV?$allocator@E@std@@@std@@@std@@PEAX@0@AEAPEAU10@@Z
	??$forward@PEAU?$_Tree_node@U?$pair@$$CBW4OsiLayer@vanetza@@VByteBufferConvertible@2@@std@@PEAX@std@@@std@@YA$$QEAPEAU?$_Tree_node@U?$pair@$$CBW4OsiLayer@vanetza@@VByteBufferConvertible@2@@std@@PEAX@0@AEAPEAU10@@Z
	??$forward@PEAU_Container_base12@std@@@std@@YA$$QEAPEAU_Container_base12@0@AEAPEAU10@@Z
	??$forward@PEAUbyte_buffer@convertible@vanetza@@@std@@YA$$QEAPEAUbyte_buffer@convertible@vanetza@@AEAPEAU123@@Z
	??$forward@PEAVChunkPacket@vanetza@@@std@@YA$$QEAPEAVChunkPacket@vanetza@@AEAPEAV12@@Z
	??$forward@PEBE@std@@YA$$QEAPEBEAEAPEBE@Z
	??$forward@U?$default_delete@Ubyte_buffer@convertible@vanetza@@@std@@@std@@YA$$QEAU?$default_delete@Ubyte_buffer@convertible@vanetza@@@0@AEAU10@@Z
	??$forward@U?$default_delete@VChunkPacket@vanetza@@@std@@@std@@YA$$QEAU?$default_delete@VChunkPacket@vanetza@@@0@AEAU10@@Z
	??$forward@U?$less@W4OsiLayer@vanetza@@@std@@@std@@YA$$QEAU?$less@W4OsiLayer@vanetza@@@0@AEAU10@@Z
	??$forward@U_One_then_variadic_args_t@std@@@std@@YA$$QEAU_One_then_variadic_args_t@0@AEAU10@@Z
	??$forward@U_Zero_then_variadic_args_t@std@@@std@@YA$$QEAU_Zero_then_variadic_args_t@0@AEAU10@@Z
	??$forward@V?$_Tree_iterator@V?$_Tree_val@U?$_Tree_simple_types@U?$pair@$$CBW4OsiLayer@vanetza@@VByteBufferConvertible@2@@std@@@std@@@std@@@std@@@std@@YA$$QEAV?$_Tree_iterator@V?$_Tree_val@U?$_Tree_simple_types@U?$pair@$$CBW4OsiLayer@vanetza@@VByteBufferConvertible@2@@std@@@std@@@std@@@0@AEAV10@@Z
	??$forward@V?$allocator@D@std@@@std@@YA$$QEAV?$allocator@D@0@AEAV10@@Z
	??$forward@V?$allocator@E@std@@@std@@YA$$QEAV?$allocator@E@0@AEAV10@@Z
	??$forward@V?$allocator@U?$_Tree_node@U?$pair@$$CBW4OsiLayer@vanetza@@VByteBufferConvertible@2@@std@@PEAX@std@@@std@@@std@@YA$$QEAV?$allocator@U?$_Tree_node@U?$pair@$$CBW4OsiLayer@vanetza@@VByteBufferConvertible@2@@std@@PEAX@std@@@0@AEAV10@@Z
	??$forward@V?$back_insert_iterator@V?$vector@EV?$allocator@E@std@@@std@@@std@@@std@@YA$$QEAV?$back_insert_iterator@V?$vector@EV?$allocator@E@std@@@std@@@0@AEAV10@@Z
	??$forward@V?$basic_string@DU?$char_traits@D@std@@V?$allocator@D@2@@std@@@std@@YA$$QEAV?$basic_string@DU?$char_traits@D@std@@V?$allocator@D@2@@0@AEAV10@@Z
	??$forward@V?$tuple@$$V@std@@@std@@YA$$QEAV?$tuple@$$V@0@AEAV10@@Z
	??$forward@V?$tuple@AEBW4OsiLayer@vanetza@@@std@@@std@@YA$$QEAV?$tuple@AEBW4OsiLayer@vanetza@@@0@AEAV10@@Z
	??$forward@V?$vector@EV?$allocator@E@std@@@std@@@std@@YA$$QEAV?$vector@EV?$allocator@E@std@@@0@AEAV10@@Z
	??$forward@_N@std@@YA$$QEA_NAEA_N@Z
	??$forward_as_tuple@$$V@std@@YA?AV?$tuple@$$V@0@XZ
	??$forward_as_tuple@AEBW4OsiLayer@vanetza@@@std@@YA?AV?$tuple@AEBW4OsiLayer@vanetza@@@0@AEBW4OsiLayer@vanetza@@@Z
	??$host_cast@G@vanetza@@YA?AV?$EndianType@G$00@0@G@Z
	??$hton@F@vanetza@@YAFF@Z
	??$hton@G@vanetza@@YAGG@Z
	??$hton@I@vanetza@@YAII@Z
	??$increment@V?$split_iterator@V?$_String_const_iterator@V?$_String_val@U?$_Simple_types@D@std@@@std@@@std@@@algorithm@boost@@@iterator_core_access@iterators@boost@@CAXAEAV?$split_iterator@V?$_String_const_iterator@V?$_String_val@U?$_Simple_types@D@std@@@std@@@std@@@algorithm@2@@Z
	??$increment@V?$transform_iterator@U?$copy_iterator_rangeF@V?$basic_string@DU?$char_traits@D@std@@V?$allocator@D@2@@std@@V?$_String_const_iterator@V?$_String_val@U?$_Simple_types@D@std@@@std@@@2@@detail@algorithm@boost@@V?$split_iterator@V?$_String_const_iterator@V?$_String_val@U?$_Simple_types@D@std@@@std@@@std@@@34@Uuse_default@4@U64@@iterators@boost@@@iterator_core_access@iterators@boost@@CAXAEAV?$transform_iterator@U?$copy_iterator_rangeF@V?$basic_string@DU?$char_traits@D@std@@V?$allocator@D@2@@std@@V?$_String_const_iterator@V?$_String_val@U?$_Simple_types@D@std@@@std@@@2@@detail@algorithm@boost@@V?$split_iterator@V?$_String_const_iterator@V?$_String_val@U?$_Simple_types@D@std@@@std@@@std@@@34@Uuse_default@4@U64@@12@@Z
	??$insert@$0A@$0A@@?$_Tree@V?$_Tmap_traits@W4OsiLayer@vanetza@@VByteBufferConvertible@2@U?$less@W4OsiLayer@vanetza@@@std@@V?$allocator@U?$pair@$$CBW4OsiLayer@vanetza@@VByteBufferConvertible@2@@std@@@5@$0A@@std@@@std@@QEAA?AU?$pair@V?$_Tree_iterator@V?$_Tree_val@U?$_Tree_simple_types@U?$pair@$$CBW4OsiLayer@vanetza@@VByteBufferConvertible@2@@std@@@std@@@std@@@std@@_N@1@AEBU?$pair@$$CBW4OsiLayer@vanetza@@VByteBufferConvertible@2@@1@@Z
	??$insert@V?$_Vector_iterator@V?$_Vector_val@U?$_Simple_types@E@std@@@std@@@std@@$0A@@?$vector@EV?$allocator@E@std@@@std@@QEAA?AV?$_Vector_iterator@V?$_Vector_val@U?$_Simple_types@E@std@@@std@@@1@V?$_Vector_const_iterator@V?$_Vector_val@U?$_Simple_types@E@std@@@std@@@1@V21@1@Z
	??$is_any_of@$$BY01D@algorithm@boost@@YA?AU?$is_any_ofF@D@detail@01@AEAY01$$CBD@Z
	??$is_char_ptr@V?$basic_string@DU?$char_traits@D@std@@V?$allocator@D@2@@std@@@range_detail@boost@@YAJAEBV?$basic_string@DU?$char_traits@D@std@@V?$allocator@D@2@@std@@@Z
	??$iter_split@V?$vector@V?$basic_string@DU?$char_traits@D@std@@V?$allocator@D@2@@std@@V?$allocator@V?$basic_string@DU?$char_traits@D@std@@V?$allocator@D@2@@std@@@2@@std@@AEBV?$basic_string@DU?$char_traits@D@std@@V?$allocator@D@2@@2@U?$token_finderF@U?$is_any_ofF@D@detail@algorithm@boost@@@detail@algorithm@boost@@@algorithm@boost@@YAAEAV?$vector@V?$basic_string@DU?$char_traits@D@std@@V?$allocator@D@2@@std@@V?$allocator@V?$basic_string@DU?$char_traits@D@std@@V?$allocator@D@2@@std@@@2@@std@@AEAV23@AEBV?$basic_string@DU?$char_traits@D@std@@V?$allocator@D@2@@3@U?$token_finderF@U?$is_any_ofF@D@detail@algorithm@boost@@@detail@01@@Z
	??$iter_swap@PEADPEAD@std@@YAXPEAD0@Z
	??$lower_bound@PEBDDU?$less@X@std@@@std@@YAPEBDPEBDQEBDAEBDU?$less@X@0@@Z
	??$make_iterator_range@PEBE@boost@@YA?AV?$iterator_range@PEBE@0@PEBE0@Z
	??$make_iterator_range@V?$_Array_const_iterator@W4OsiLayer@vanetza@@$06@std@@@boost@@YA?AV?$iterator_range@V?$_Array_const_iterator@W4OsiLayer@vanetza@@$06@std@@@0@V?$_Array_const_iterator@W4OsiLayer@vanetza@@$06@std@@0@Z
	??$make_iterator_range@V?$basic_string@DU?$char_traits@D@std@@V?$allocator@D@2@@std@@@boost@@YA?AV?$iterator_range@V?$_String_const_iterator@V?$_String_val@U?$_Simple_types@D@std@@@std@@@std@@@0@AEBV?$basic_string@DU?$char_traits@D@std@@V?$allocator@D@2@@std@@@Z
	??$make_range@$$CBD@range_detail@boost@@YA?AV?$iterator_range@PEBD@1@QEBD_N@Z
	??$make_range@$$CBV?$basic_string@DU?$char_traits@D@std@@V?$allocator@D@2@@std@@@range_detail@boost@@YA?AV?$iterator_range@V?$_String_const_iterator@V?$_String_val@U?$_Simple_types@D@std@@@std@@@std@@@1@AEBV?$basic_string@DU?$char_traits@D@std@@V?$allocator@D@2@@std@@J@Z
	??$make_transform_iterator@U?$copy_iterator_rangeF@V?$basic_string@DU?$char_traits@D@std@@V?$allocator@D@2@@std@@V?$_String_const_iterator@V?$_String_val@U?$_Simple_types@D@std@@@std@@@2@@detail@algorithm@boost@@V?$split_iterator@V?$_String_const_iterator@V?$_String_val@U?$_Simple_types@D@std@@@std@@@std@@@34@@iterators@boost@@YA?AV?$transform_iterator@U?$copy_iterator_rangeF@V?$basic_string@DU?$char_traits@D@std@@V?$allocator@D@2@@std@@V?$_String_const_iterator@V?$_String_val@U?$_Simple_types@D@std@@@std@@@2@@detail@algorithm@boost@@V?$split_iterator@V?$_String_const_iterator@V?$_String_val@U?$_Simple_types@D@std@@@std@@@std@@@34@Uuse_default@4@U64@@01@V?$split_iterator@V?$_String_const_iterator@V?$_String_val@U?$_Simple_types@D@std@@@std@@@std@@@algorithm@1@U?$copy_iterator_rangeF@V?$basic_string@DU?$char_traits@D@std@@V?$allocator@D@2@@std@@V?$_String_const_iterator@V?$_String_val@U?$_Simple_types@D@std@@@std@@@2@@detail@41@@Z
	??$max@_K@std@@YAAEB_KAEB_K0@Z
	??$min@_K@std@@YAAEB_KAEB_K0@Z
	??$move@AEAD@std@@YA$$QEADAEAD@Z
	??$move@AEAE@std@@YA$$QEAEAEAE@Z
	??$move@AEAPEAE@std@@YA$$QEAPEAEAEAPEAE@Z
	??$move@AEAPEAU?$_Tree_node@U?$pair@$$CBW4OsiLayer@vanetza@@VByteBufferConvertible@2@@std@@PEAX@std@@@std@@YA$$QEAPEAU?$_Tree_node@U?$pair@$$CBW4OsiLayer@vanetza@@VByteBufferConvertible@2@@std@@PEAX@0@AEAPEAU10@@Z
	??$move@AEAPEAV?$basic_string@DU?$char_traits@D@std@@V?$allocator@D@2@@std@@@std@@YA$$QEAPEAV?$basic_string@DU?$char_traits@D@std@@V?$allocator@D@2@@0@AEAPEAV10@@Z
	??$move@AEAPEBE@std@@YA$$QEAPEBEAEAPEBE@Z
	??$move@AEAU?$less@W4OsiLayer@vanetza@@@std@@@std@@YA$$QEAU?$less@W4OsiLayer@vanetza@@@0@AEAU10@@Z
	??$move@AEAV?$allocator@D@std@@@std@@YA$$QEAV?$allocator@D@0@AEAV10@@Z
	??$move@AEAV?$allocator@E@std@@@std@@YA$$QEAV?$allocator@E@0@AEAV10@@Z
	??$move@AEAV?$allocator@U?$_Tree_node@U?$pair@$$CBW4OsiLayer@vanetza@@VByteBufferConvertible@2@@std@@PEAX@std@@@std@@@std@@YA$$QEAV?$allocator@U?$_Tree_node@U?$pair@$$CBW4OsiLayer@vanetza@@VByteBufferConvertible@2@@std@@PEAX@std@@@0@AEAV10@@Z
	??$move@AEAV?$basic_string@DU?$char_traits@D@std@@V?$allocator@D@2@@std@@@std@@YA$$QEAV?$basic_string@DU?$char_traits@D@std@@V?$allocator@D@2@@0@AEAV10@@Z
	??$move@AEAV?$map@W4OsiLayer@vanetza@@VByteBufferConvertible@2@U?$less@W4OsiLayer@vanetza@@@std@@V?$allocator@U?$pair@$$CBW4OsiLayer@vanetza@@VByteBufferConvertible@2@@std@@@5@@std@@@std@@YA$$QEAV?$map@W4OsiLayer@vanetza@@VByteBufferConvertible@2@U?$less@W4OsiLayer@vanetza@@@std@@V?$allocator@U?$pair@$$CBW4OsiLayer@vanetza@@VByteBufferConvertible@2@@std@@@5@@0@AEAV10@@Z
	??$move@AEAV?$tuple@AEBW4OsiLayer@vanetza@@@std@@@std@@YA$$QEAV?$tuple@AEBW4OsiLayer@vanetza@@@0@AEAV10@@Z
	??$move@AEAV?$unique_ptr@VChunkPacket@vanetza@@U?$default_delete@VChunkPacket@vanetza@@@std@@@std@@@std@@YA$$QEAV?$unique_ptr@VChunkPacket@vanetza@@U?$default_delete@VChunkPacket@vanetza@@@std@@@0@AEAV10@@Z
	??$move@AEAV?$vector@EV?$allocator@E@std@@@std@@@std@@YA$$QEAV?$vector@EV?$allocator@E@std@@@0@AEAV10@@Z
	??$move@AEAVByteBufferConvertible@vanetza@@@std@@YA$$QEAVByteBufferConvertible@vanetza@@AEAV12@@Z
	??$move@AEAVMacAddress@vanetza@@@boost@@YA$$QEAVMacAddress@vanetza@@AEAV12@@Z
	??$move@AEA_K@std@@YA$$QEA_KAEA_K@Z
	??$native_to_big@F@endian@boost@@YAFF@Z
	??$native_to_big@G@endian@boost@@YAGG@Z
	??$native_to_big@I@endian@boost@@YAII@Z
	??$next@PEAE@std@@YAPEAEPEAE_J@Z
	??$next@PEBD@std@@YAPEBDPEBD_J@Z
	??$ntoh@F@vanetza@@YAFF@Z
	??$ntoh@G@vanetza@@YAGG@Z
	??$ntoh@I@vanetza@@YAII@Z
	??$range_begin@$$CBV?$basic_string@DU?$char_traits@D@std@@V?$allocator@D@2@@std@@@range_detail@boost@@YA?AV?$_String_const_iterator@V?$_String_val@U?$_Simple_types@D@std@@@std@@@std@@AEBV?$basic_string@DU?$char_traits@D@std@@V?$allocator@D@2@@3@@Z
	??$range_begin@$$CBV?$iterator_range@PEBD@boost@@@range_detail@boost@@YAPEBDAEBV?$iterator_range@PEBD@1@@Z
	??$range_begin@$$CBV?$iterator_range@V?$_String_const_iterator@V?$_String_val@U?$_Simple_types@D@std@@@std@@@std@@@boost@@@range_detail@boost@@YA?AV?$_String_const_iterator@V?$_String_val@U?$_Simple_types@D@std@@@std@@@std@@AEBV?$iterator_range@V?$_String_const_iterator@V?$_String_val@U?$_Simple_types@D@std@@@std@@@std@@@1@@Z
	??$range_begin@V?$iterator_range@V?$_String_const_iterator@V?$_String_val@U?$_Simple_types@D@std@@@std@@@std@@@boost@@@range_detail@boost@@YA?AV?$_String_const_iterator@V?$_String_val@U?$_Simple_types@D@std@@@std@@@std@@AEAV?$iterator_range@V?$_String_const_iterator@V?$_String_val@U?$_Simple_types@D@std@@@std@@@std@@@1@@Z
	??$range_end@$$CBV?$basic_string@DU?$char_traits@D@std@@V?$allocator@D@2@@std@@@range_detail@boost@@YA?AV?$_String_const_iterator@V?$_String_val@U?$_Simple_types@D@std@@@std@@@std@@AEBV?$basic_string@DU?$char_traits@D@std@@V?$allocator@D@2@@3@@Z
	??$range_end@$$CBV?$iterator_range@PEBD@boost@@@range_detail@boost@@YAPEBDAEBV?$iterator_range@PEBD@1@@Z
	??$range_end@$$CBV?$iterator_range@V?$_String_const_iterator@V?$_String_val@U?$_Simple_types@D@std@@@std@@@std@@@boost@@@range_detail@boost@@YA?AV?$_String_const_iterator@V?$_String_val@U?$_Simple_types@D@std@@@std@@@std@@AEBV?$iterator_range@V?$_String_const_iterator@V?$_String_val@U?$_Simple_types@D@std@@@std@@@std@@@1@@Z
	??$range_end@V?$iterator_range@V?$_String_const_iterator@V?$_String_val@U?$_Simple_types@D@std@@@std@@@std@@@boost@@@range_detail@boost@@YA?AV?$_String_const_iterator@V?$_String_val@U?$_Simple_types@D@std@@@std@@@std@@AEAV?$iterator_range@V?$_String_const_iterator@V?$_String_val@U?$_Simple_types@D@std@@@std@@@std@@@1@@Z
	??$setfill@D@std@@YA?AU?$_Fillobj@D@0@D@Z
	??$sort@PEAD@std@@YAXQEAD0@Z
	??$sort@PEADU?$less@X@std@@@std@@YAXQEAD0U?$less@X@0@@Z
	??$split@V?$vector@V?$basic_string@DU?$char_traits@D@std@@V?$allocator@D@2@@std@@V?$allocator@V?$basic_string@DU?$char_traits@D@std@@V?$allocator@D@2@@std@@@2@@std@@AEBV?$basic_string@DU?$char_traits@D@std@@V?$allocator@D@2@@2@U?$is_any_ofF@D@detail@algorithm@boost@@@algorithm@boost@@YAAEAV?$vector@V?$basic_string@DU?$char_traits@D@std@@V?$allocator@D@2@@std@@V?$allocator@V?$basic_string@DU?$char_traits@D@std@@V?$allocator@D@2@@std@@@2@@std@@AEAV23@AEBV?$basic_string@DU?$char_traits@D@std@@V?$allocator@D@2@@3@U?$is_any_ofF@D@detail@01@W4token_compress_mode_type@01@@Z
	??$swap@D$0A@@std@@YAXAEAD0@Z
	??$swap@PEAE$0A@@std@@YAXAEAPEAE0@Z
	??$swap@PEAU?$_Tree_node@U?$pair@$$CBW4OsiLayer@vanetza@@VByteBufferConvertible@2@@std@@PEAX@std@@$0A@@std@@YAXAEAPEAU?$_Tree_node@U?$pair@$$CBW4OsiLayer@vanetza@@VByteBufferConvertible@2@@std@@PEAX@0@0@Z
	??$swap@PEAV?$basic_string@DU?$char_traits@D@std@@V?$allocator@D@2@@std@@$0A@@std@@YAXAEAPEAV?$basic_string@DU?$char_traits@D@std@@V?$allocator@D@2@@0@0@Z
	??$swap@U?$less@W4OsiLayer@vanetza@@@std@@$0A@@std@@YAXAEAU?$less@W4OsiLayer@vanetza@@@0@0@Z
	??$swap@VByteBufferConvertible@vanetza@@$0A@@std@@YAXAEAVByteBufferConvertible@vanetza@@0@Z
	??$swap@_K$0A@@std@@YAXAEA_K0@Z
	??$throw_exception@Vbad_function_call@boost@@@boost@@YAXAEBVbad_function_call@0@@Z
	??$token_finder@U?$is_any_ofF@D@detail@algorithm@boost@@@algorithm@boost@@YA?AU?$token_finderF@U?$is_any_ofF@D@detail@algorithm@boost@@@detail@01@U?$is_any_ofF@D@301@W4token_compress_mode_type@01@@Z
	??$type_id@U?$token_finderF@U?$is_any_ofF@D@detail@algorithm@boost@@@detail@algorithm@boost@@@stl_type_index@typeindex@boost@@SA?AV012@XZ
	??$type_id@U?$token_finderF@U?$is_any_ofF@D@detail@algorithm@boost@@@detail@algorithm@boost@@@typeindex@boost@@YA?AVstl_type_index@01@XZ
	??0?$EndianType@G$00@vanetza@@QEAA@G@Z
	??0?$_Alloc_construct_ptr@V?$allocator@U?$_Tree_node@U?$pair@$$CBW4OsiLayer@vanetza@@V?$vector@EV?$allocator@E@std@@@std@@@std@@PEAX@std@@@std@@@std@@QEAA@AEAV?$allocator@U?$_Tree_node@U?$pair@$$CBW4OsiLayer@vanetza@@V?$vector@EV?$allocator@E@std@@@std@@@std@@PEAX@std@@@1@@Z
	??0?$_Alloc_construct_ptr@V?$allocator@U?$_Tree_node@U?$pair@$$CBW4OsiLayer@vanetza@@VByteBufferConvertible@2@@std@@PEAX@std@@@std@@@std@@QEAA@AEAV?$allocator@U?$_Tree_node@U?$pair@$$CBW4OsiLayer@vanetza@@VByteBufferConvertible@2@@std@@PEAX@std@@@1@@Z
	??0?$_Array_const_iterator@E$05@std@@QEAA@PEBE_K@Z
	??0?$_Array_const_iterator@W4OsiLayer@vanetza@@$06@std@@QEAA@PEBW4OsiLayer@vanetza@@_K@Z
	??0?$_Array_iterator@E$05@std@@QEAA@PEAE_K@Z
	??0?$_Container_proxy_ptr12@V?$allocator@U_Container_proxy@std@@@std@@@std@@QEAA@AEAV?$allocator@U_Container_proxy@std@@@1@AEAU_Container_base12@1@@Z
	??0?$_Fillobj@D@std@@QEAA@D@Z
	??0?$_String_const_iterator@V?$_String_val@U?$_Simple_types@D@std@@@std@@@std@@QEAA@$$QEAV01@@Z
	??0?$_String_const_iterator@V?$_String_val@U?$_Simple_types@D@std@@@std@@@std@@QEAA@AEBV01@@Z
	??0?$_String_const_iterator@V?$_String_val@U?$_Simple_types@D@std@@@std@@@std@@QEAA@PEBDPEBU_Container_base12@1@@Z
	??0?$_String_const_iterator@V?$_String_val@U?$_Simple_types@D@std@@@std@@@std@@QEAA@XZ
	??0?$_String_val@U?$_Simple_types@D@std@@@std@@QEAA@XZ
	??0?$_Tree@V?$_Tmap_traits@W4OsiLayer@vanetza@@V?$vector@EV?$allocator@E@std@@@std@@U?$less@W4OsiLayer@vanetza@@@4@V?$allocator@U?$pair@$$CBW4OsiLayer@vanetza@@V?$vector@EV?$allocator@E@std@@@std@@@std@@@4@$0A@@std@@@std@@QEAA@AEBU?$less@W4OsiLayer@vanetza@@@1@@Z
	??0?$_Tree@V?$_Tmap_traits@W4OsiLayer@vanetza@@VByteBufferConvertible@2@U?$less@W4OsiLayer@vanetza@@@std@@V?$allocator@U?$pair@$$CBW4OsiLayer@vanetza@@VByteBufferConvertible@2@@std@@@5@$0A@@std@@@std@@QEAA@$$QEAV01@@Z
	??0?$_Tree@V?$_Tmap_traits@W4OsiLayer@vanetza@@VByteBufferConvertible@2@U?$less@W4OsiLayer@vanetza@@@std@@V?$allocator@U?$pair@$$CBW4OsiLayer@vanetza@@VByteBufferConvertible@2@@std@@@5@$0A@@std@@@std@@QEAA@AEBU?$less@W4OsiLayer@vanetza@@@1@@Z
	??0?$_Tree_const_iterator@V?$_Tree_val@U?$_Tree_simple_types@U?$pair@$$CBW4OsiLayer@vanetza@@V?$vector@EV?$allocator@E@std@@@std@@@std@@@std@@@std@@@std@@QEAA@PEAU?$_Tree_node@U?$pair@$$CBW4OsiLayer@vanetza@@V?$vector@EV?$allocator@E@std@@@std@@@std@@PEAX@1@PEBV?$_Tree_val@U?$_Tree_simple_types@U?$pair@$$CBW4OsiLayer@vanetza@@V?$vector@EV?$allocator@E@std@@@std@@@std@@@std@@@1@@Z
	??0?$_Tree_const_iterator@V?$_Tree_val@U?$_Tree_simple_types@U?$pair@$$CBW4OsiLayer@vanetza@@VByteBufferConvertible@2@@std@@@std@@@std@@@std@@QEAA@$$QEAV01@@Z
	??0?$_Tree_const_iterator@V?$_Tree_val@U?$_Tree_simple_types@U?$pair@$$CBW4OsiLayer@vanetza@@VByteBufferConvertible@2@@std@@@std@@@std@@@std@@QEAA@PEAU?$_Tree_node@U?$pair@$$CBW4OsiLayer@vanetza@@VByteBufferConvertible@2@@std@@PEAX@1@PEBV?$_Tree_val@U?$_Tree_simple_types@U?$pair@$$CBW4OsiLayer@vanetza@@VByteBufferConvertible@2@@std@@@std@@@1@@Z
	??0?$_Tree_iterator@V?$_Tree_val@U?$_Tree_simple_types@U?$pair@$$CBW4OsiLayer@vanetza@@VByteBufferConvertible@2@@std@@@std@@@std@@@std@@QEAA@$$QEAV01@@Z
	??0?$_Tree_iterator@V?$_Tree_val@U?$_Tree_simple_types@U?$pair@$$CBW4OsiLayer@vanetza@@VByteBufferConvertible@2@@std@@@std@@@std@@@std@@QEAA@PEAU?$_Tree_node@U?$pair@$$CBW4OsiLayer@vanetza@@VByteBufferConvertible@2@@std@@PEAX@1@PEBV?$_Tree_val@U?$_Tree_simple_types@U?$pair@$$CBW4OsiLayer@vanetza@@VByteBufferConvertible@2@@std@@@std@@@1@@Z
	??0?$_Tree_temp_node_alloc@V?$allocator@U?$_Tree_node@U?$pair@$$CBW4OsiLayer@vanetza@@V?$vector@EV?$allocator@E@std@@@std@@@std@@PEAX@std@@@std@@@std@@QEAA@AEAV?$allocator@U?$_Tree_node@U?$pair@$$CBW4OsiLayer@vanetza@@V?$vector@EV?$allocator@E@std@@@std@@@std@@PEAX@std@@@1@@Z
	??0?$_Tree_temp_node_alloc@V?$allocator@U?$_Tree_node@U?$pair@$$CBW4OsiLayer@vanetza@@VByteBufferConvertible@2@@std@@PEAX@std@@@std@@@std@@QEAA@AEAV?$allocator@U?$_Tree_node@U?$pair@$$CBW4OsiLayer@vanetza@@VByteBufferConvertible@2@@std@@PEAX@std@@@1@@Z
	??0?$_Tree_unchecked_const_iterator@V?$_Tree_val@U?$_Tree_simple_types@U?$pair@$$CBW4OsiLayer@vanetza@@V?$vector@EV?$allocator@E@std@@@std@@@std@@@std@@@std@@U_Iterator_base0@2@@std@@QEAA@PEAU?$_Tree_node@U?$pair@$$CBW4OsiLayer@vanetza@@V?$vector@EV?$allocator@E@std@@@std@@@std@@PEAX@1@PEBV?$_Tree_val@U?$_Tree_simple_types@U?$pair@$$CBW4OsiLayer@vanetza@@V?$vector@EV?$allocator@E@std@@@std@@@std@@@std@@@1@@Z
	??0?$_Tree_unchecked_const_iterator@V?$_Tree_val@U?$_Tree_simple_types@U?$pair@$$CBW4OsiLayer@vanetza@@V?$vector@EV?$allocator@E@std@@@std@@@std@@@std@@@std@@U_Iterator_base12@2@@std@@QEAA@PEAU?$_Tree_node@U?$pair@$$CBW4OsiLayer@vanetza@@V?$vector@EV?$allocator@E@std@@@std@@@std@@PEAX@1@PEBV?$_Tree_val@U?$_Tree_simple_types@U?$pair@$$CBW4OsiLayer@vanetza@@V?$vector@EV?$allocator@E@std@@@std@@@std@@@std@@@1@@Z
	??0?$_Tree_unchecked_const_iterator@V?$_Tree_val@U?$_Tree_simple_types@U?$pair@$$CBW4OsiLayer@vanetza@@VByteBufferConvertible@2@@std@@@std@@@std@@U_Iterator_base0@2@@std@@QEAA@PEAU?$_Tree_node@U?$pair@$$CBW4OsiLayer@vanetza@@VByteBufferConvertible@2@@std@@PEAX@1@PEBV?$_Tree_val@U?$_Tree_simple_types@U?$pair@$$CBW4OsiLayer@vanetza@@VByteBufferConvertible@2@@std@@@std@@@1@@Z
	??0?$_Tree_unchecked_const_iterator@V?$_Tree_val@U?$_Tree_simple_types@U?$pair@$$CBW4OsiLayer@vanetza@@VByteBufferConvertible@2@@std@@@std@@@std@@U_Iterator_base12@2@@std@@QEAA@$$QEAV01@@Z
	??0?$_Tree_unchecked_const_iterator@V?$_Tree_val@U?$_Tree_simple_types@U?$pair@$$CBW4OsiLayer@vanetza@@VByteBufferConvertible@2@@std@@@std@@@std@@U_Iterator_base12@2@@std@@QEAA@PEAU?$_Tree_node@U?$pair@$$CBW4OsiLayer@vanetza@@VByteBufferConvertible@2@@std@@PEAX@1@PEBV?$_Tree_val@U?$_Tree_simple_types@U?$pair@$$CBW4OsiLayer@vanetza@@VByteBufferConvertible@2@@std@@@std@@@1@@Z
	??0?$_Tree_unchecked_iterator@V?$_Tree_val@U?$_Tree_simple_types@U?$pair@$$CBW4OsiLayer@vanetza@@V?$vector@EV?$allocator@E@std@@@std@@@std@@@std@@@std@@@std@@QEAA@PEAU?$_Tree_node@U?$pair@$$CBW4OsiLayer@vanetza@@V?$vector@EV?$allocator@E@std@@@std@@@std@@PEAX@1@PEBV?$_Tree_val@U?$_Tree_simple_types@U?$pair@$$CBW4OsiLayer@vanetza@@V?$vector@EV?$allocator@E@std@@@std@@@std@@@std@@@1@@Z
	??0?$_Tree_val@U?$_Tree_simple_types@U?$pair@$$CBW4OsiLayer@vanetza@@V?$vector@EV?$allocator@E@std@@@std@@@std@@@std@@@std@@QEAA@XZ
	??0?$_Tree_val@U?$_Tree_simple_types@U?$pair@$$CBW4OsiLayer@vanetza@@VByteBufferConvertible@2@@std@@@std@@@std@@QEAA@XZ
	??0?$_Uninitialized_backout_al@V?$allocator@E@std@@@std@@QEAA@PEAEAEAV?$allocator@E@1@@Z
	??0?$_Uninitialized_backout_al@V?$allocator@V?$basic_string@DU?$char_traits@D@std@@V?$allocator@D@2@@std@@@std@@@std@@QEAA@PEAV?$basic_string@DU?$char_traits@D@std@@V?$allocator@D@2@@1@AEAV?$allocator@V?$basic_string@DU?$char_traits@D@std@@V?$allocator@D@2@@std@@@1@@Z
	??0?$_Vector_const_iterator@V?$_Vector_val@U?$_Simple_types@E@std@@@std@@@std@@QEAA@$$QEAV01@@Z
	??0?$_Vector_const_iterator@V?$_Vector_val@U?$_Simple_types@E@std@@@std@@@std@@QEAA@AEBV01@@Z
	??0?$_Vector_const_iterator@V?$_Vector_val@U?$_Simple_types@E@std@@@std@@@std@@QEAA@PEAEPEBU_Container_base12@1@@Z
	??0?$_Vector_const_iterator@V?$_Vector_val@U?$_Simple_types@E@std@@@std@@@std@@QEAA@XZ
	??0?$_Vector_const_iterator@V?$_Vector_val@U?$_Simple_types@V?$basic_string@DU?$char_traits@D@std@@V?$allocator@D@2@@std@@@std@@@std@@@std@@QEAA@PEAV?$basic_string@DU?$char_traits@D@std@@V?$allocator@D@2@@1@PEBU_Container_base12@1@@Z
	??0?$_Vector_iterator@V?$_Vector_val@U?$_Simple_types@E@std@@@std@@@std@@QEAA@$$QEAV01@@Z
	??0?$_Vector_iterator@V?$_Vector_val@U?$_Simple_types@E@std@@@std@@@std@@QEAA@AEBV01@@Z
	??0?$_Vector_iterator@V?$_Vector_val@U?$_Simple_types@E@std@@@std@@@std@@QEAA@PEAEPEBU_Container_base12@1@@Z
	??0?$_Vector_iterator@V?$_Vector_val@U?$_Simple_types@E@std@@@std@@@std@@QEAA@XZ
	??0?$_Vector_iterator@V?$_Vector_val@U?$_Simple_types@V?$basic_string@DU?$char_traits@D@std@@V?$allocator@D@2@@std@@@std@@@std@@@std@@QEAA@PEAV?$basic_string@DU?$char_traits@D@std@@V?$allocator@D@2@@1@PEBU_Container_base12@1@@Z
	??0?$_Vector_val@U?$_Simple_types@E@std@@@std@@QEAA@PEAE00@Z
	??0?$_Vector_val@U?$_Simple_types@E@std@@@std@@QEAA@XZ
	??0?$_Vector_val@U?$_Simple_types@V?$basic_string@DU?$char_traits@D@std@@V?$allocator@D@2@@std@@@std@@@std@@QEAA@XZ
	??0?$allocator@D@std@@QEAA@XZ
	??0?$allocator@E@std@@QEAA@XZ
	??0?$allocator@U?$_Tree_node@U?$pair@$$CBW4OsiLayer@vanetza@@V?$vector@EV?$allocator@E@std@@@std@@@std@@PEAX@std@@@std@@QEAA@XZ
	??0?$allocator@U?$_Tree_node@U?$pair@$$CBW4OsiLayer@vanetza@@VByteBufferConvertible@2@@std@@PEAX@std@@@std@@QEAA@XZ
	??0?$allocator@V?$basic_string@DU?$char_traits@D@std@@V?$allocator@D@2@@std@@@std@@QEAA@XZ
	??0?$array@V?$_Vector_iterator@V?$_Vector_val@U?$_Simple_types@E@std@@@std@@@std@@$07@std@@QEAA@XZ
	??0?$back_insert_iterator@V?$vector@EV?$allocator@E@std@@@std@@@std@@QEAA@AEAV?$vector@EV?$allocator@E@std@@@1@@Z
	??0?$basic_ios_all_saver@DU?$char_traits@D@std@@@io@boost@@QEAA@AEAV?$basic_ios@DU?$char_traits@D@std@@@std@@@Z
	??0?$basic_string@DU?$char_traits@D@std@@V?$allocator@D@2@@std@@QEAA@$$QEAV01@@Z
	??0?$byte_buffer_impl@$$T@convertible@vanetza@@QEAA@XZ
	??0?$byte_buffer_impl@V?$vector@EV?$allocator@E@std@@@std@@@convertible@vanetza@@QEAA@$$QEAV?$vector@EV?$allocator@E@std@@@std@@@Z
	??0?$find_iterator_base@V?$_String_const_iterator@V?$_String_val@U?$_Simple_types@D@std@@@std@@@std@@@detail@algorithm@boost@@IEAA@AEBV0123@@Z
	??0?$find_iterator_base@V?$_String_const_iterator@V?$_String_val@U?$_Simple_types@D@std@@@std@@@std@@@detail@algorithm@boost@@IEAA@XZ
	??0?$function2@V?$iterator_range@V?$_String_const_iterator@V?$_String_val@U?$_Simple_types@D@std@@@std@@@std@@@boost@@V?$_String_const_iterator@V?$_String_val@U?$_Simple_types@D@std@@@std@@@std@@V34@@boost@@QEAA@AEBV01@@Z
	??0?$function2@V?$iterator_range@V?$_String_const_iterator@V?$_String_val@U?$_Simple_types@D@std@@@std@@@std@@@boost@@V?$_String_const_iterator@V?$_String_val@U?$_Simple_types@D@std@@@std@@@std@@V34@@boost@@QEAA@XZ
	??0?$initializer_list@E@std@@QEAA@PEBE0@Z
	??0?$is_any_ofF@D@detail@algorithm@boost@@QEAA@AEBU0123@@Z
	??0?$iterator_adaptor@V?$transform_iterator@U?$copy_iterator_rangeF@V?$basic_string@DU?$char_traits@D@std@@V?$allocator@D@2@@std@@V?$_String_const_iterator@V?$_String_val@U?$_Simple_types@D@std@@@std@@@2@@detail@algorithm@boost@@V?$split_iterator@V?$_String_const_iterator@V?$_String_val@U?$_Simple_types@D@std@@@std@@@std@@@34@Uuse_default@4@U64@@iterators@boost@@V?$split_iterator@V?$_String_const_iterator@V?$_String_val@U?$_Simple_types@D@std@@@std@@@std@@@algorithm@3@V?$basic_string@DU?$char_traits@D@std@@V?$allocator@D@2@@std@@Uuse_default@3@V67@U83@@iterators@boost@@QEAA@AEBV012@@Z
	??0?$iterator_adaptor@V?$transform_iterator@U?$copy_iterator_rangeF@V?$basic_string@DU?$char_traits@D@std@@V?$allocator@D@2@@std@@V?$_String_const_iterator@V?$_String_val@U?$_Simple_types@D@std@@@std@@@2@@detail@algorithm@boost@@V?$split_iterator@V?$_String_const_iterator@V?$_String_val@U?$_Simple_types@D@std@@@std@@@std@@@34@Uuse_default@4@U64@@iterators@boost@@V?$split_iterator@V?$_String_const_iterator@V?$_String_val@U?$_Simple_types@D@std@@@std@@@std@@@algorithm@3@V?$basic_string@DU?$char_traits@D@std@@V?$allocator@D@2@@std@@Uuse_default@3@V67@U83@@iterators@boost@@QEAA@AEBV?$split_iterator@V?$_String_const_iterator@V?$_String_val@U?$_Simple_types@D@std@@@std@@@std@@@algorithm@2@@Z
	??0?$iterator_range@V?$_String_const_iterator@V?$_String_val@U?$_Simple_types@D@std@@@std@@@std@@@boost@@QEAA@AEBV01@@Z
	??0?$iterator_range@V?$_String_const_iterator@V?$_String_val@U?$_Simple_types@D@std@@@std@@@std@@@boost@@QEAA@XZ
	??0?$iterator_range_base@V?$_String_const_iterator@V?$_String_val@U?$_Simple_types@D@std@@@std@@@std@@Ubidirectional_traversal_tag@iterators@boost@@@iterator_range_detail@boost@@IEAA@XZ
	??0?$iterator_range_base@V?$_String_const_iterator@V?$_String_val@U?$_Simple_types@D@std@@@std@@@std@@Ubidirectional_traversal_tag@iterators@boost@@@iterator_range_detail@boost@@QEAA@AEBV012@@Z
	??0?$iterator_range_base@V?$_String_const_iterator@V?$_String_val@U?$_Simple_types@D@std@@@std@@@std@@Uincrementable_traversal_tag@iterators@boost@@@iterator_range_detail@boost@@IEAA@XZ
	??0?$iterator_range_base@V?$_String_const_iterator@V?$_String_val@U?$_Simple_types@D@std@@@std@@@std@@Uincrementable_traversal_tag@iterators@boost@@@iterator_range_detail@boost@@QEAA@AEBV012@@Z
	??0?$iterator_range_base@V?$_String_const_iterator@V?$_String_val@U?$_Simple_types@D@std@@@std@@@std@@Urandom_access_traversal_tag@iterators@boost@@@iterator_range_detail@boost@@IEAA@XZ
	??0?$iterator_range_base@V?$_String_const_iterator@V?$_String_val@U?$_Simple_types@D@std@@@std@@@std@@Urandom_access_traversal_tag@iterators@boost@@@iterator_range_detail@boost@@QEAA@AEBV012@@Z
	??0?$map@W4OsiLayer@vanetza@@V?$vector@EV?$allocator@E@std@@@std@@U?$less@W4OsiLayer@vanetza@@@4@V?$allocator@U?$pair@$$CBW4OsiLayer@vanetza@@V?$vector@EV?$allocator@E@std@@@std@@@std@@@4@@std@@QEAA@XZ
	??0?$map@W4OsiLayer@vanetza@@VByteBufferConvertible@2@U?$less@W4OsiLayer@vanetza@@@std@@V?$allocator@U?$pair@$$CBW4OsiLayer@vanetza@@VByteBufferConvertible@2@@std@@@5@@std@@QEAA@$$QEAV01@@Z
	??0?$map@W4OsiLayer@vanetza@@VByteBufferConvertible@2@U?$less@W4OsiLayer@vanetza@@@std@@V?$allocator@U?$pair@$$CBW4OsiLayer@vanetza@@VByteBufferConvertible@2@@std@@@5@@std@@QEAA@XZ
	??0?$optional@VMacAddress@vanetza@@@boost@@QEAA@$$QEAV01@@Z
	??0?$optional@VMacAddress@vanetza@@@boost@@QEAA@XZ
	??0?$optional_base@VMacAddress@vanetza@@@optional_detail@boost@@IEAA@$$QEAV012@@Z
	??0?$optional_base@VMacAddress@vanetza@@@optional_detail@boost@@IEAA@XZ
	??0?$pair@$$CBW4OsiLayer@vanetza@@VByteBufferConvertible@2@@std@@QEAA@AEBU01@@Z
	??0?$refcount_ptr@Uerror_info_container@exception_detail@boost@@@exception_detail@boost@@QEAA@AEBV012@@Z
	??0?$refcount_ptr@Uerror_info_container@exception_detail@boost@@@exception_detail@boost@@QEAA@XZ
	??0?$split_iterator@V?$_String_const_iterator@V?$_String_val@U?$_Simple_types@D@std@@@std@@@std@@@algorithm@boost@@QEAA@AEBV012@@Z
	??0?$split_iterator@V?$_String_const_iterator@V?$_String_val@U?$_Simple_types@D@std@@@std@@@std@@@algorithm@boost@@QEAA@XZ
	??0?$token_finderF@U?$is_any_ofF@D@detail@algorithm@boost@@@detail@algorithm@boost@@QEAA@AEBU0123@@Z
	??0?$token_finderF@U?$is_any_ofF@D@detail@algorithm@boost@@@detail@algorithm@boost@@QEAA@U?$is_any_ofF@D@123@W4token_compress_mode_type@23@@Z
	??0?$transform_iterator@U?$copy_iterator_rangeF@V?$basic_string@DU?$char_traits@D@std@@V?$allocator@D@2@@std@@V?$_String_const_iterator@V?$_String_val@U?$_Simple_types@D@std@@@std@@@2@@detail@algorithm@boost@@V?$split_iterator@V?$_String_const_iterator@V?$_String_val@U?$_Simple_types@D@std@@@std@@@std@@@34@Uuse_default@4@U64@@iterators@boost@@QEAA@AEBV012@@Z
	??0?$transform_iterator@U?$copy_iterator_rangeF@V?$basic_string@DU?$char_traits@D@std@@V?$allocator@D@2@@std@@V?$_String_const_iterator@V?$_String_val@U?$_Simple_types@D@std@@@std@@@2@@detail@algorithm@boost@@V?$split_iterator@V?$_String_const_iterator@V?$_String_val@U?$_Simple_types@D@std@@@std@@@std@@@34@Uuse_default@4@U64@@iterators@boost@@QEAA@AEBV?$split_iterator@V?$_String_const_iterator@V?$_String_val@U?$_Simple_types@D@std@@@std@@@std@@@algorithm@2@U?$copy_iterator_rangeF@V?$basic_string@DU?$char_traits@D@std@@V?$allocator@D@2@@std@@V?$_String_const_iterator@V?$_String_val@U?$_Simple_types@D@std@@@std@@@2@@detail@42@@Z
	??0?$tuple@$$V@std@@QEAA@AEBV01@@Z
	??0?$tuple@AEBW4OsiLayer@vanetza@@@std@@QEAA@$$QEAV01@@Z
	??0?$vector@EV?$allocator@E@std@@@std@@QEAA@$$QEAV01@@Z
	??0?$vector@EV?$allocator@E@std@@@std@@QEAA@AEBV01@@Z
	??0?$vector@EV?$allocator@E@std@@@std@@QEAA@XZ
	??0?$vector@V?$basic_string@DU?$char_traits@D@std@@V?$allocator@D@2@@std@@V?$allocator@V?$basic_string@DU?$char_traits@D@std@@V?$allocator@D@2@@std@@@2@@std@@QEAA@XZ
	??0?$wrapexcept@Vbad_function_call@boost@@@boost@@QEAA@AEBU01@@Z
	??0?$wrapexcept@Vbad_function_call@boost@@@boost@@QEAA@AEBVbad_function_call@1@@Z
	??0BufferPacket@vanetza@@QEAA@XZ
	??0ByteBufferConvertible@vanetza@@QEAA@$$QEAV01@@Z
	??0ByteBufferConvertible@vanetza@@QEAA@XZ
	??0ChunkPacket@vanetza@@QEAA@$$QEAV01@@Z
	??0ChunkPacket@vanetza@@QEAA@AEBV01@@Z
	??0ChunkPacket@vanetza@@QEAA@XZ
	??0CohesivePacket@vanetza@@QEAA@$$QEAV?$vector@EV?$allocator@E@std@@@std@@W4OsiLayer@1@@Z
	??0CohesivePacket@vanetza@@QEAA@AEBV01@@Z
	??0CohesivePacket@vanetza@@QEAA@AEBV?$vector@EV?$allocator@E@std@@@std@@W4OsiLayer@1@@Z
	??0EthernetHeader@vanetza@@QEAA@XZ
	??0MacAddress@vanetza@@QEAA@V?$initializer_list@E@std@@@Z
	??0MacAddress@vanetza@@QEAA@XZ
	??0_Basic_container_proxy_ptr12@std@@IEAA@XZ
	??0_Bxty@?$_String_val@U?$_Simple_types@D@std@@@std@@QEAA@XZ
	??0_Container_base12@std@@QEAA@XZ
	??0_Container_proxy@std@@QEAA@PEAU_Container_base12@1@@Z
	??0_Iterator_base12@std@@QEAA@AEBU01@@Z
	??0_Iterator_base12@std@@QEAA@XZ
	??0_Iterator_base12_compatible@std@@QEAA@XZ
	??0_Sentry_base@?$basic_ostream@DU?$char_traits@D@std@@@std@@QEAA@AEAV12@@Z
	??0bad_alloc@std@@AEAA@QEBD@Z
	??0bad_alloc@std@@QEAA@AEBV01@@Z
	??0bad_array_new_length@std@@QEAA@AEBV01@@Z
	??0bad_array_new_length@std@@QEAA@XZ
	??0bad_function_call@boost@@QEAA@AEBV01@@Z
	??0bad_function_call@boost@@QEAA@XZ
	??0byte_buffer@convertible@vanetza@@QEAA@XZ
	??0clone_base@exception_detail@boost@@QEAA@AEBV012@@Z
	??0clone_base@exception_detail@boost@@QEAA@XZ
	??0exception@boost@@IEAA@XZ
	??0exception@boost@@QEAA@AEBV01@@Z
	??0exception@std@@QEAA@AEBV01@@Z
	??0exception@std@@QEAA@QEBD@Z
	??0exception@std@@QEAA@QEBDH@Z
	??0function_base@boost@@QEAA@XZ
	??0in_place_init_if_t@optional_ns@boost@@QEAA@Uinit_tag@012@@Z
	??0in_place_init_t@optional_ns@boost@@QEAA@Uinit_tag@012@@Z
	??0runtime_error@std@@QEAA@AEBV01@@Z
	??0runtime_error@std@@QEAA@PEBD@Z
	??0sentry@?$basic_ostream@DU?$char_traits@D@std@@@std@@QEAA@AEAV12@@Z
	??0stl_type_index@typeindex@boost@@QEAA@AEBVtype_info@@@Z
	??1?$_Alloc_construct_ptr@V?$allocator@U?$_Tree_node@U?$pair@$$CBW4OsiLayer@vanetza@@V?$vector@EV?$allocator@E@std@@@std@@@std@@PEAX@std@@@std@@@std@@QEAA@XZ
	??1?$_Alloc_construct_ptr@V?$allocator@U?$_Tree_node@U?$pair@$$CBW4OsiLayer@vanetza@@VByteBufferConvertible@2@@std@@PEAX@std@@@std@@@std@@QEAA@XZ
	??1?$_Compressed_pair@V?$allocator@D@std@@V?$_String_val@U?$_Simple_types@D@std@@@2@$00@std@@QEAA@XZ
	??1?$_Container_proxy_ptr12@V?$allocator@U_Container_proxy@std@@@std@@@std@@QEAA@XZ
	??1?$_String_const_iterator@V?$_String_val@U?$_Simple_types@D@std@@@std@@@std@@QEAA@XZ
	??1?$_String_val@U?$_Simple_types@D@std@@@std@@QEAA@XZ
	??1?$_Tidy_guard@V?$vector@EV?$allocator@E@std@@@std@@@std@@QEAA@XZ
	??1?$_Tidy_guard@V?$vector@V?$basic_string@DU?$char_traits@D@std@@V?$allocator@D@2@@std@@V?$allocator@V?$basic_string@DU?$char_traits@D@std@@V?$allocator@D@2@@std@@@2@@std@@@std@@QEAA@XZ
	??1?$_Tree@V?$_Tmap_traits@W4OsiLayer@vanetza@@VByteBufferConvertible@2@U?$less@W4OsiLayer@vanetza@@@std@@V?$allocator@U?$pair@$$CBW4OsiLayer@vanetza@@VByteBufferConvertible@2@@std@@@5@$0A@@std@@@std@@QEAA@XZ
	??1?$_Tree_const_iterator@V?$_Tree_val@U?$_Tree_simple_types@U?$pair@$$CBW4OsiLayer@vanetza@@V?$vector@EV?$allocator@E@std@@@std@@@std@@@std@@@std@@@std@@QEAA@XZ
	??1?$_Tree_const_iterator@V?$_Tree_val@U?$_Tree_simple_types@U?$pair@$$CBW4OsiLayer@vanetza@@VByteBufferConvertible@2@@std@@@std@@@std@@@std@@QEAA@XZ
	??1?$_Tree_iterator@V?$_Tree_val@U?$_Tree_simple_types@U?$pair@$$CBW4OsiLayer@vanetza@@VByteBufferConvertible@2@@std@@@std@@@std@@@std@@QEAA@XZ
	??1?$_Tree_temp_node@V?$allocator@U?$_Tree_node@U?$pair@$$CBW4OsiLayer@vanetza@@V?$vector@EV?$allocator@E@std@@@std@@@std@@PEAX@std@@@std@@@std@@QEAA@XZ
	??1?$_Tree_temp_node@V?$allocator@U?$_Tree_node@U?$pair@$$CBW4OsiLayer@vanetza@@VByteBufferConvertible@2@@std@@PEAX@std@@@std@@@std@@QEAA@XZ
	??1?$_Tree_temp_node_alloc@V?$allocator@U?$_Tree_node@U?$pair@$$CBW4OsiLayer@vanetza@@V?$vector@EV?$allocator@E@std@@@std@@@std@@PEAX@std@@@std@@@std@@QEAA@XZ
	??1?$_Tree_temp_node_alloc@V?$allocator@U?$_Tree_node@U?$pair@$$CBW4OsiLayer@vanetza@@VByteBufferConvertible@2@@std@@PEAX@std@@@std@@@std@@QEAA@XZ
	??1?$_Tree_unchecked_const_iterator@V?$_Tree_val@U?$_Tree_simple_types@U?$pair@$$CBW4OsiLayer@vanetza@@V?$vector@EV?$allocator@E@std@@@std@@@std@@@std@@@std@@U_Iterator_base12@2@@std@@QEAA@XZ
	??1?$_Tree_unchecked_const_iterator@V?$_Tree_val@U?$_Tree_simple_types@U?$pair@$$CBW4OsiLayer@vanetza@@VByteBufferConvertible@2@@std@@@std@@@std@@U_Iterator_base12@2@@std@@QEAA@XZ
	??1?$_Uninitialized_backout_al@V?$allocator@E@std@@@std@@QEAA@XZ
	??1?$_Uninitialized_backout_al@V?$allocator@V?$basic_string@DU?$char_traits@D@std@@V?$allocator@D@2@@std@@@std@@@std@@QEAA@XZ
	??1?$_Vector_const_iterator@V?$_Vector_val@U?$_Simple_types@E@std@@@std@@@std@@QEAA@XZ
	??1?$_Vector_const_iterator@V?$_Vector_val@U?$_Simple_types@V?$basic_string@DU?$char_traits@D@std@@V?$allocator@D@2@@std@@@std@@@std@@@std@@QEAA@XZ
	??1?$_Vector_iterator@V?$_Vector_val@U?$_Simple_types@E@std@@@std@@@std@@QEAA@XZ
	??1?$_Vector_iterator@V?$_Vector_val@U?$_Simple_types@V?$basic_string@DU?$char_traits@D@std@@V?$allocator@D@2@@std@@@std@@@std@@@std@@QEAA@XZ
	??1?$array@V?$_Vector_iterator@V?$_Vector_val@U?$_Simple_types@E@std@@@std@@@std@@$07@std@@QEAA@XZ
	??1?$basic_ios_all_saver@DU?$char_traits@D@std@@@io@boost@@QEAA@XZ
	??1?$basic_string@DU?$char_traits@D@std@@V?$allocator@D@2@@std@@QEAA@XZ
	??1?$byte_buffer_impl@$$T@convertible@vanetza@@UEAA@XZ
	??1?$byte_buffer_impl@V?$vector@EV?$allocator@E@std@@@std@@@convertible@vanetza@@UEAA@XZ
	??1?$find_iterator_base@V?$_String_const_iterator@V?$_String_val@U?$_Simple_types@D@std@@@std@@@std@@@detail@algorithm@boost@@IEAA@XZ
	??1?$function2@V?$iterator_range@V?$_String_const_iterator@V?$_String_val@U?$_Simple_types@D@std@@@std@@@std@@@boost@@V?$_String_const_iterator@V?$_String_val@U?$_Simple_types@D@std@@@std@@@std@@V34@@boost@@QEAA@XZ
	??1?$is_any_ofF@D@detail@algorithm@boost@@QEAA@XZ
	??1?$iterator_adaptor@V?$transform_iterator@U?$copy_iterator_rangeF@V?$basic_string@DU?$char_traits@D@std@@V?$allocator@D@2@@std@@V?$_String_const_iterator@V?$_String_val@U?$_Simple_types@D@std@@@std@@@2@@detail@algorithm@boost@@V?$split_iterator@V?$_String_const_iterator@V?$_String_val@U?$_Simple_types@D@std@@@std@@@std@@@34@Uuse_default@4@U64@@iterators@boost@@V?$split_iterator@V?$_String_const_iterator@V?$_String_val@U?$_Simple_types@D@std@@@std@@@std@@@algorithm@3@V?$basic_string@DU?$char_traits@D@std@@V?$allocator@D@2@@std@@Uuse_default@3@V67@U83@@iterators@boost@@QEAA@XZ
	??1?$iterator_range@V?$_String_const_iterator@V?$_String_val@U?$_Simple_types@D@std@@@std@@@std@@@boost@@QEAA@XZ
	??1?$iterator_range@V?$_Vector_const_iterator@V?$_Vector_val@U?$_Simple_types@E@std@@@std@@@std@@@boost@@QEAA@XZ
	??1?$iterator_range@V?$_Vector_iterator@V?$_Vector_val@U?$_Simple_types@E@std@@@std@@@std@@@boost@@QEAA@XZ
	??1?$iterator_range_base@V?$_String_const_iterator@V?$_String_val@U?$_Simple_types@D@std@@@std@@@std@@Ubidirectional_traversal_tag@iterators@boost@@@iterator_range_detail@boost@@QEAA@XZ
	??1?$iterator_range_base@V?$_String_const_iterator@V?$_String_val@U?$_Simple_types@D@std@@@std@@@std@@Uincrementable_traversal_tag@iterators@boost@@@iterator_range_detail@boost@@QEAA@XZ
	??1?$iterator_range_base@V?$_String_const_iterator@V?$_String_val@U?$_Simple_types@D@std@@@std@@@std@@Urandom_access_traversal_tag@iterators@boost@@@iterator_range_detail@boost@@QEAA@XZ
	??1?$iterator_range_base@V?$_Vector_const_iterator@V?$_Vector_val@U?$_Simple_types@E@std@@@std@@@std@@Ubidirectional_traversal_tag@iterators@boost@@@iterator_range_detail@boost@@QEAA@XZ
	??1?$iterator_range_base@V?$_Vector_const_iterator@V?$_Vector_val@U?$_Simple_types@E@std@@@std@@@std@@Uincrementable_traversal_tag@iterators@boost@@@iterator_range_detail@boost@@QEAA@XZ
	??1?$iterator_range_base@V?$_Vector_const_iterator@V?$_Vector_val@U?$_Simple_types@E@std@@@std@@@std@@Urandom_access_traversal_tag@iterators@boost@@@iterator_range_detail@boost@@QEAA@XZ
	??1?$iterator_range_base@V?$_Vector_iterator@V?$_Vector_val@U?$_Simple_types@E@std@@@std@@@std@@Ubidirectional_traversal_tag@iterators@boost@@@iterator_range_detail@boost@@QEAA@XZ
	??1?$iterator_range_base@V?$_Vector_iterator@V?$_Vector_val@U?$_Simple_types@E@std@@@std@@@std@@Uincrementable_traversal_tag@iterators@boost@@@iterator_range_detail@boost@@QEAA@XZ
	??1?$iterator_range_base@V?$_Vector_iterator@V?$_Vector_val@U?$_Simple_types@E@std@@@std@@@std@@Urandom_access_traversal_tag@iterators@boost@@@iterator_range_detail@boost@@QEAA@XZ
	??1?$map@W4OsiLayer@vanetza@@VByteBufferConvertible@2@U?$less@W4OsiLayer@vanetza@@@std@@V?$allocator@U?$pair@$$CBW4OsiLayer@vanetza@@VByteBufferConvertible@2@@std@@@5@@std@@QEAA@XZ
	??1?$optional@VMacAddress@vanetza@@@boost@@QEAA@XZ
	??1?$optional_base@VMacAddress@vanetza@@@optional_detail@boost@@IEAA@XZ
	??1?$pair@$$CBW4OsiLayer@vanetza@@V?$vector@EV?$allocator@E@std@@@std@@@std@@QEAA@XZ
	??1?$pair@$$CBW4OsiLayer@vanetza@@VByteBufferConvertible@2@@std@@QEAA@XZ
	??1?$pair@V?$_Tree_iterator@V?$_Tree_val@U?$_Tree_simple_types@U?$pair@$$CBW4OsiLayer@vanetza@@VByteBufferConvertible@2@@std@@@std@@@std@@@std@@_N@std@@QEAA@XZ
	??1?$refcount_ptr@Uerror_info_container@exception_detail@boost@@@exception_detail@boost@@QEAA@XZ
	??1?$split_iterator@V?$_String_const_iterator@V?$_String_val@U?$_Simple_types@D@std@@@std@@@std@@@algorithm@boost@@QEAA@XZ
	??1?$token_finderF@U?$is_any_ofF@D@detail@algorithm@boost@@@detail@algorithm@boost@@QEAA@XZ
	??1?$transform_iterator@U?$copy_iterator_rangeF@V?$basic_string@DU?$char_traits@D@std@@V?$allocator@D@2@@std@@V?$_String_const_iterator@V?$_String_val@U?$_Simple_types@D@std@@@std@@@2@@detail@algorithm@boost@@V?$split_iterator@V?$_String_const_iterator@V?$_String_val@U?$_Simple_types@D@std@@@std@@@std@@@34@Uuse_default@4@U64@@iterators@boost@@QEAA@XZ
	??1?$unique_ptr@Ubyte_buffer@convertible@vanetza@@U?$default_delete@Ubyte_buffer@convertible@vanetza@@@std@@@std@@QEAA@XZ
	??1?$unique_ptr@VChunkPacket@vanetza@@U?$default_delete@VChunkPacket@vanetza@@@std@@@std@@QEAA@XZ
	??1?$vector@EV?$allocator@E@std@@@std@@QEAA@XZ
	??1?$vector@V?$basic_string@DU?$char_traits@D@std@@V?$allocator@D@2@@std@@V?$allocator@V?$basic_string@DU?$char_traits@D@std@@V?$allocator@D@2@@std@@@2@@std@@QEAA@XZ
	??1?$wrapexcept@Vbad_function_call@boost@@@boost@@UEAA@XZ
	??1ByteBufferConvertible@vanetza@@QEAA@XZ
	??1ChunkPacket@vanetza@@QEAA@XZ
	??1_Bxty@?$_String_val@U?$_Simple_types@D@std@@@std@@QEAA@XZ
	??1_Iterator_base12@std@@QEAA@XZ
	??1_Sentry_base@?$basic_ostream@DU?$char_traits@D@std@@@std@@QEAA@XZ
	??1bad_alloc@std@@UEAA@XZ
	??1bad_array_new_length@std@@UEAA@XZ
	??1bad_function_call@boost@@UEAA@XZ
	??1byte_buffer@convertible@vanetza@@UEAA@XZ
	??1clone_base@exception_detail@boost@@UEAA@XZ
	??1deleter@?$wrapexcept@Vbad_function_call@boost@@@boost@@QEAA@XZ
	??1exception@boost@@MEAA@XZ
	??1exception@std@@UEAA@XZ
	??1locale@std@@QEAA@XZ
	??1runtime_error@std@@UEAA@XZ
	??1sentry@?$basic_ostream@DU?$char_traits@D@std@@@std@@QEAA@XZ
	??2@YAPEAX_KPEAX@Z
	??4?$_String_const_iterator@V?$_String_val@U?$_Simple_types@D@std@@@std@@@std@@QEAAAEAV01@$$QEAV01@@Z
	??4?$_Vector_const_iterator@V?$_Vector_val@U?$_Simple_types@E@std@@@std@@@std@@QEAAAEAV01@$$QEAV01@@Z
	??4?$_Vector_const_iterator@V?$_Vector_val@U?$_Simple_types@E@std@@@std@@@std@@QEAAAEAV01@AEBV01@@Z
	??4?$_Vector_iterator@V?$_Vector_val@U?$_Simple_types@E@std@@@std@@@std@@QEAAAEAV01@$$QEAV01@@Z
	??4?$_Vector_iterator@V?$_Vector_val@U?$_Simple_types@E@std@@@std@@@std@@QEAAAEAV01@AEBV01@@Z
	??4?$back_insert_iterator@V?$vector@EV?$allocator@E@std@@@std@@@std@@QEAAAEAV01@$$QEAE@Z
	??4?$back_insert_iterator@V?$vector@EV?$allocator@E@std@@@std@@@std@@QEAAAEAV01@AEBE@Z
	??4?$iterator_range@V?$_String_const_iterator@V?$_String_val@U?$_Simple_types@D@std@@@std@@@std@@@boost@@QEAAAEAV01@$$QEAV01@@Z
	??4?$iterator_range_base@V?$_String_const_iterator@V?$_String_val@U?$_Simple_types@D@std@@@std@@@std@@Ubidirectional_traversal_tag@iterators@boost@@@iterator_range_detail@boost@@QEAAAEAV012@$$QEAV012@@Z
	??4?$iterator_range_base@V?$_String_const_iterator@V?$_String_val@U?$_Simple_types@D@std@@@std@@@std@@Uincrementable_traversal_tag@iterators@boost@@@iterator_range_detail@boost@@QEAAAEAV012@$$QEAV012@@Z
	??4?$iterator_range_base@V?$_String_const_iterator@V?$_String_val@U?$_Simple_types@D@std@@@std@@@std@@Urandom_access_traversal_tag@iterators@boost@@@iterator_range_detail@boost@@QEAAAEAV012@$$QEAV012@@Z
	??4?$refcount_ptr@Uerror_info_container@exception_detail@boost@@@exception_detail@boost@@QEAAAEAV012@AEBV012@@Z
	??4?$vector@EV?$allocator@E@std@@@std@@QEAAAEAV01@AEBV01@@Z
	??4ByteBufferConvertible@vanetza@@QEAAAEAV01@$$QEAV01@@Z
	??4ChunkPacket@vanetza@@QEAAAEAV01@AEBV01@@Z
	??4CohesivePacket@vanetza@@QEAAAEAV01@AEBV01@@Z
	??4_Iterator_base12@std@@QEAAAEAU01@AEBU01@@Z
	??6vanetza@@YAAEAV?$basic_ostream@DU?$char_traits@D@std@@@std@@AEAV12@AEBVMacAddress@0@@Z
	??8?$_Array_const_iterator@W4OsiLayer@vanetza@@$06@std@@QEBA_NAEBV01@@Z
	??8?$_String_const_iterator@V?$_String_val@U?$_Simple_types@D@std@@@std@@@std@@QEBA_NAEBV01@@Z
	??8?$_Tree_const_iterator@V?$_Tree_val@U?$_Tree_simple_types@U?$pair@$$CBW4OsiLayer@vanetza@@V?$vector@EV?$allocator@E@std@@@std@@@std@@@std@@@std@@@std@@QEBA_NAEBV01@@Z
	??8?$_Tree_const_iterator@V?$_Tree_val@U?$_Tree_simple_types@U?$pair@$$CBW4OsiLayer@vanetza@@VByteBufferConvertible@2@@std@@@std@@@std@@@std@@QEBA_NAEBV01@@Z
	??8type_info@@QEBA_NAEBV0@@Z
	??8vanetza@@YA_NAEBVMacAddress@0@0@Z
	??9?$_Array_const_iterator@W4OsiLayer@vanetza@@$06@std@@QEBA_NAEBV01@@Z
	??9?$_String_const_iterator@V?$_String_val@U?$_Simple_types@D@std@@@std@@@std@@QEBA_NAEBV01@@Z
	??9?$_Tree_const_iterator@V?$_Tree_val@U?$_Tree_simple_types@U?$pair@$$CBW4OsiLayer@vanetza@@V?$vector@EV?$allocator@E@std@@@std@@@std@@@std@@@std@@@std@@QEBA_NAEBV01@@Z
	??9?$_Tree_const_iterator@V?$_Tree_val@U?$_Tree_simple_types@U?$pair@$$CBW4OsiLayer@vanetza@@VByteBufferConvertible@2@@std@@@std@@@std@@@std@@QEBA_NAEBV01@@Z
	??9?$_Tree_unchecked_const_iterator@V?$_Tree_val@U?$_Tree_simple_types@U?$pair@$$CBW4OsiLayer@vanetza@@V?$vector@EV?$allocator@E@std@@@std@@@std@@@std@@@std@@U_Iterator_base0@2@@std@@QEBA_NU_Default_sentinel@1@@Z
	??9?$_Tree_unchecked_const_iterator@V?$_Tree_val@U?$_Tree_simple_types@U?$pair@$$CBW4OsiLayer@vanetza@@VByteBufferConvertible@2@@std@@@std@@@std@@U_Iterator_base0@2@@std@@QEBA_NU_Default_sentinel@1@@Z
	??A?$_Vector_const_iterator@V?$_Vector_val@U?$_Simple_types@E@std@@@std@@@std@@QEBAAEBE_J@Z
	??A?$array@E$05@std@@QEBAAEBE_K@Z
	??A?$array@V?$_Vector_iterator@V?$_Vector_val@U?$_Simple_types@E@std@@@std@@@std@@$07@std@@QEAAAEAV?$_Vector_iterator@V?$_Vector_val@U?$_Simple_types@E@std@@@std@@@1@_K@Z
	??A?$array@V?$_Vector_iterator@V?$_Vector_val@U?$_Simple_types@E@std@@@std@@@std@@$07@std@@QEBAAEBV?$_Vector_iterator@V?$_Vector_val@U?$_Simple_types@E@std@@@std@@@1@_K@Z
	??A?$basic_string@DU?$char_traits@D@std@@V?$allocator@D@2@@std@@QEBAAEBD_K@Z
	??A?$map@W4OsiLayer@vanetza@@V?$vector@EV?$allocator@E@std@@@std@@U?$less@W4OsiLayer@vanetza@@@4@V?$allocator@U?$pair@$$CBW4OsiLayer@vanetza@@V?$vector@EV?$allocator@E@std@@@std@@@std@@@4@@std@@QEAAAEAV?$vector@EV?$allocator@E@std@@@1@AEBW4OsiLayer@vanetza@@@Z
	??A?$map@W4OsiLayer@vanetza@@VByteBufferConvertible@2@U?$less@W4OsiLayer@vanetza@@@std@@V?$allocator@U?$pair@$$CBW4OsiLayer@vanetza@@VByteBufferConvertible@2@@std@@@5@@std@@QEAAAEAVByteBufferConvertible@vanetza@@AEBW4OsiLayer@3@@Z
	??ABufferPacket@vanetza@@QEBAAEBV?$vector@EV?$allocator@E@std@@@std@@W4OsiLayer@1@@Z
	??AChunkPacket@vanetza@@QEAAAEAVByteBufferConvertible@1@W4OsiLayer@1@@Z
	??AChunkPacket@vanetza@@QEBAAEBVByteBufferConvertible@1@W4OsiLayer@1@@Z
	??ACohesivePacket@vanetza@@QEAA?AV?$iterator_range@V?$_Vector_iterator@V?$_Vector_val@U?$_Simple_types@E@std@@@std@@@std@@@boost@@W4OsiLayer@1@@Z
	??ACohesivePacket@vanetza@@QEBA?AV?$iterator_range@V?$_Vector_const_iterator@V?$_Vector_val@U?$_Simple_types@E@std@@@std@@@std@@@boost@@W4OsiLayer@1@@Z
	??B?$integral_constant@_N$00@boost@@QEBAAEBU?$bool_@$00@mpl@1@XZ
	??Bsentry@?$basic_ostream@DU?$char_traits@D@std@@@std@@QEBA_NXZ
	??C?$_Array_const_iterator@W4OsiLayer@vanetza@@$06@std@@QEBAPEBW4OsiLayer@vanetza@@XZ
	??C?$_Tree_const_iterator@V?$_Tree_val@U?$_Tree_simple_types@U?$pair@$$CBW4OsiLayer@vanetza@@V?$vector@EV?$allocator@E@std@@@std@@@std@@@std@@@std@@@std@@QEBAPEBU?$pair@$$CBW4OsiLayer@vanetza@@V?$vector@EV?$allocator@E@std@@@std@@@1@XZ
	??C?$_Tree_const_iterator@V?$_Tree_val@U?$_Tree_simple_types@U?$pair@$$CBW4OsiLayer@vanetza@@VByteBufferConvertible@2@@std@@@std@@@std@@@std@@QEBAPEBU?$pair@$$CBW4OsiLayer@vanetza@@VByteBufferConvertible@2@@1@XZ
	??C?$unique_ptr@Ubyte_buffer@convertible@vanetza@@U?$default_delete@Ubyte_buffer@convertible@vanetza@@@std@@@std@@QEBAPEAUbyte_buffer@convertible@vanetza@@XZ
	??C?$unique_ptr@VChunkPacket@vanetza@@U?$default_delete@VChunkPacket@vanetza@@@std@@@std@@QEBAPEAVChunkPacket@vanetza@@XZ
	??D?$_Array_const_iterator@W4OsiLayer@vanetza@@$06@std@@QEBAAEBW4OsiLayer@vanetza@@XZ
	??D?$_String_const_iterator@V?$_String_val@U?$_Simple_types@D@std@@@std@@@std@@QEBAAEBDXZ
	??D?$_Tree_const_iterator@V?$_Tree_val@U?$_Tree_simple_types@U?$pair@$$CBW4OsiLayer@vanetza@@V?$vector@EV?$allocator@E@std@@@std@@@std@@@std@@@std@@@std@@QEBAAEBU?$pair@$$CBW4OsiLayer@vanetza@@V?$vector@EV?$allocator@E@std@@@std@@@1@XZ
	??D?$_Tree_const_iterator@V?$_Tree_val@U?$_Tree_simple_types@U?$pair@$$CBW4OsiLayer@vanetza@@VByteBufferConvertible@2@@std@@@std@@@std@@@std@@QEBAAEBU?$pair@$$CBW4OsiLayer@vanetza@@VByteBufferConvertible@2@@1@XZ
	??D?$_Tree_unchecked_const_iterator@V?$_Tree_val@U?$_Tree_simple_types@U?$pair@$$CBW4OsiLayer@vanetza@@V?$vector@EV?$allocator@E@std@@@std@@@std@@@std@@@std@@U_Iterator_base0@2@@std@@QEBAAEBU?$pair@$$CBW4OsiLayer@vanetza@@V?$vector@EV?$allocator@E@std@@@std@@@1@XZ
	??D?$_Tree_unchecked_const_iterator@V?$_Tree_val@U?$_Tree_simple_types@U?$pair@$$CBW4OsiLayer@vanetza@@VByteBufferConvertible@2@@std@@@std@@@std@@U_Iterator_base0@2@@std@@QEBAAEBU?$pair@$$CBW4OsiLayer@vanetza@@VByteBufferConvertible@2@@1@XZ
	??D?$_Tree_unchecked_iterator@V?$_Tree_val@U?$_Tree_simple_types@U?$pair@$$CBW4OsiLayer@vanetza@@V?$vector@EV?$allocator@E@std@@@std@@@std@@@std@@@std@@@std@@QEBAAEAU?$pair@$$CBW4OsiLayer@vanetza@@V?$vector@EV?$allocator@E@std@@@std@@@1@XZ
	??D?$_Vector_const_iterator@V?$_Vector_val@U?$_Simple_types@E@std@@@std@@@std@@QEBAAEBEXZ
	??D?$back_insert_iterator@V?$vector@EV?$allocator@E@std@@@std@@@std@@QEAAAEAV01@XZ
	??D?$iterator_facade_base@V?$split_iterator@V?$_String_const_iterator@V?$_String_val@U?$_Simple_types@D@std@@@std@@@std@@@algorithm@boost@@$$CBV?$iterator_range@V?$_String_const_iterator@V?$_String_val@U?$_Simple_types@D@std@@@std@@@std@@@3@Uforward_traversal_tag@iterators@3@AEBV43@_J$0A@$0A@@detail@iterators@boost@@QEBAAEBV?$iterator_range@V?$_String_const_iterator@V?$_String_val@U?$_Simple_types@D@std@@@std@@@std@@@3@XZ
	??D?$iterator_facade_base@V?$transform_iterator@U?$copy_iterator_rangeF@V?$basic_string@DU?$char_traits@D@std@@V?$allocator@D@2@@std@@V?$_String_const_iterator@V?$_String_val@U?$_Simple_types@D@std@@@std@@@2@@detail@algorithm@boost@@V?$split_iterator@V?$_String_const_iterator@V?$_String_val@U?$_Simple_types@D@std@@@std@@@std@@@34@Uuse_default@4@U64@@iterators@boost@@V?$basic_string@DU?$char_traits@D@std@@V?$allocator@D@2@@std@@Uforward_traversal_tag@23@V45@_J$0A@$0A@@detail@iterators@boost@@QEBA?AV?$basic_string@DU?$char_traits@D@std@@V?$allocator@D@2@@std@@XZ
	??E?$_Array_const_iterator@W4OsiLayer@vanetza@@$06@std@@QEAAAEAV01@XZ
	??E?$_String_const_iterator@V?$_String_val@U?$_Simple_types@D@std@@@std@@@std@@QEAAAEAV01@XZ
	??E?$_Tree_const_iterator@V?$_Tree_val@U?$_Tree_simple_types@U?$pair@$$CBW4OsiLayer@vanetza@@V?$vector@EV?$allocator@E@std@@@std@@@std@@@std@@@std@@@std@@QEAAAEAV01@XZ
	??E?$_Tree_unchecked_const_iterator@V?$_Tree_val@U?$_Tree_simple_types@U?$pair@$$CBW4OsiLayer@vanetza@@V?$vector@EV?$allocator@E@std@@@std@@@std@@@std@@@std@@U_Iterator_base0@2@@std@@QEAAAEAV01@XZ
	??E?$_Tree_unchecked_const_iterator@V?$_Tree_val@U?$_Tree_simple_types@U?$pair@$$CBW4OsiLayer@vanetza@@V?$vector@EV?$allocator@E@std@@@std@@@std@@@std@@@std@@U_Iterator_base12@2@@std@@QEAAAEAV01@XZ
	??E?$_Tree_unchecked_const_iterator@V?$_Tree_val@U?$_Tree_simple_types@U?$pair@$$CBW4OsiLayer@vanetza@@VByteBufferConvertible@2@@std@@@std@@@std@@U_Iterator_base0@2@@std@@QEAAAEAV01@XZ
	??E?$_Tree_unchecked_iterator@V?$_Tree_val@U?$_Tree_simple_types@U?$pair@$$CBW4OsiLayer@vanetza@@V?$vector@EV?$allocator@E@std@@@std@@@std@@@std@@@std@@@std@@QEAAAEAV01@XZ
	??E?$back_insert_iterator@V?$vector@EV?$allocator@E@std@@@std@@@std@@QEAAAEAV01@XZ
	??E?$iterator_facade_base@V?$split_iterator@V?$_String_const_iterator@V?$_String_val@U?$_Simple_types@D@std@@@std@@@std@@@algorithm@boost@@$$CBV?$iterator_range@V?$_String_const_iterator@V?$_String_val@U?$_Simple_types@D@std@@@std@@@std@@@3@Uforward_traversal_tag@iterators@3@AEBV43@_J$0A@$0A@@detail@iterators@boost@@QEAAAEAV?$split_iterator@V?$_String_const_iterator@V?$_String_val@U?$_Simple_types@D@std@@@std@@@std@@@algorithm@3@XZ
	??E?$iterator_facade_base@V?$transform_iterator@U?$copy_iterator_rangeF@V?$basic_string@DU?$char_traits@D@std@@V?$allocator@D@2@@std@@V?$_String_const_iterator@V?$_String_val@U?$_Simple_types@D@std@@@std@@@2@@detail@algorithm@boost@@V?$split_iterator@V?$_String_const_iterator@V?$_String_val@U?$_Simple_types@D@std@@@std@@@std@@@34@Uuse_default@4@U64@@iterators@boost@@V?$basic_string@DU?$char_traits@D@std@@V?$allocator@D@2@@std@@Uforward_traversal_tag@23@V45@_J$0A@$0A@@detail@iterators@boost@@QEAAAEAV?$transform_iterator@U?$copy_iterator_rangeF@V?$basic_string@DU?$char_traits@D@std@@V?$allocator@D@2@@std@@V?$_String_const_iterator@V?$_String_val@U?$_Simple_types@D@std@@@std@@@2@@detail@algorithm@boost@@V?$split_iterator@V?$_String_const_iterator@V?$_String_val@U?$_Simple_types@D@std@@@std@@@std@@@34@Uuse_default@4@U64@@23@XZ
	??G?$_Array_const_iterator@W4OsiLayer@vanetza@@$06@std@@QEBA?AV01@_J@Z
	??G?$_String_const_iterator@V?$_String_val@U?$_Simple_types@D@std@@@std@@@std@@QEBA_JAEBV01@@Z
	??G?$_Vector_const_iterator@V?$_Vector_val@U?$_Simple_types@E@std@@@std@@@std@@QEBA_JAEBV01@@Z
	??H?$_Array_const_iterator@W4OsiLayer@vanetza@@$06@std@@QEBA?AV01@_J@Z
	??H?$_Vector_const_iterator@V?$_Vector_val@U?$_Simple_types@E@std@@@std@@@std@@QEBA?AV01@_J@Z
	??H?$_Vector_iterator@V?$_Vector_val@U?$_Simple_types@E@std@@@std@@@std@@QEBA?AV01@_J@Z
	??M?$_Array_const_iterator@E$05@std@@QEBA_NAEBV01@@Z
	??M?$_Vector_const_iterator@V?$_Vector_val@U?$_Simple_types@E@std@@@std@@@std@@QEBA_NAEBV01@@Z
	??Mvanetza@@YA_NAEBVMacAddress@0@0@Z
	??N?$_Array_const_iterator@E$05@std@@QEBA_NAEBV01@@Z
	??O?$_Vector_const_iterator@V?$_Vector_val@U?$_Simple_types@E@std@@@std@@@std@@QEBA_NAEBV01@@Z
	??P?$_Vector_const_iterator@V?$_Vector_val@U?$_Simple_types@E@std@@@std@@@std@@QEBA_NAEBV01@@Z
	??R?$EndianConverter@G$00$0A@@detail@vanetza@@QEBAGAEBG@Z
	??R?$EndianConverter@G$0A@$00@detail@vanetza@@QEBAGAEBG@Z
	??R?$copy_iterator_rangeF@V?$basic_string@DU?$char_traits@D@std@@V?$allocator@D@2@@std@@V?$_String_const_iterator@V?$_String_val@U?$_Simple_types@D@std@@@std@@@2@@detail@algorithm@boost@@QEBA?AV?$basic_string@DU?$char_traits@D@std@@V?$allocator@D@2@@std@@AEBV?$iterator_range@V?$_String_const_iterator@V?$_String_val@U?$_Simple_types@D@std@@@std@@@std@@@3@@Z
	??R?$default_delete@Ubyte_buffer@convertible@vanetza@@@std@@QEBAXPEAUbyte_buffer@convertible@vanetza@@@Z
	??R?$default_delete@VChunkPacket@vanetza@@@std@@QEBAXPEAVChunkPacket@vanetza@@@Z
	??R?$function2@V?$iterator_range@V?$_String_const_iterator@V?$_String_val@U?$_Simple_types@D@std@@@std@@@std@@@boost@@V?$_String_const_iterator@V?$_String_val@U?$_Simple_types@D@std@@@std@@@std@@V34@@boost@@QEBA?AV?$iterator_range@V?$_String_const_iterator@V?$_String_val@U?$_Simple_types@D@std@@@std@@@std@@@1@V?$_String_const_iterator@V?$_String_val@U?$_Simple_types@D@std@@@std@@@std@@0@Z
	??R?$less@W4OsiLayer@vanetza@@@std@@QEBA_NAEBW4OsiLayer@vanetza@@0@Z
	??Y?$_Array_const_iterator@W4OsiLayer@vanetza@@$06@std@@QEAAAEAV01@_J@Z
	??Y?$_Vector_const_iterator@V?$_Vector_val@U?$_Simple_types@E@std@@@std@@@std@@QEAAAEAV01@_J@Z
	??Y?$_Vector_iterator@V?$_Vector_val@U?$_Simple_types@E@std@@@std@@@std@@QEAAAEAV01@_J@Z
	??Z?$_Array_const_iterator@W4OsiLayer@vanetza@@$06@std@@QEAAAEAV01@_J@Z
	?_Adjust_manually_vector_aligned@std@@YAXAEAPEAXAEA_K@Z
	?_Adopt@_Iterator_base0@std@@QEAAXPEBX@Z
	?_Adopt@_Iterator_base12@std@@QEAAXPEBU_Container_base12@2@@Z
	?_Adopt_locked@_Iterator_base12@std@@AEAAXPEBU_Container_base12@2@@Z
	?_Adopt_unlocked@_Iterator_base12@std@@AEAAXPEBU_Container_base12@2@@Z
	?_Alloc_sentinel_and_proxy@?$_Tree@V?$_Tmap_traits@W4OsiLayer@vanetza@@V?$vector@EV?$allocator@E@std@@@std@@U?$less@W4OsiLayer@vanetza@@@4@V?$allocator@U?$pair@$$CBW4OsiLayer@vanetza@@V?$vector@EV?$allocator@E@std@@@std@@@std@@@4@$0A@@std@@@std@@IEAAXXZ
	?_Alloc_sentinel_and_proxy@?$_Tree@V?$_Tmap_traits@W4OsiLayer@vanetza@@VByteBufferConvertible@2@U?$less@W4OsiLayer@vanetza@@@std@@V?$allocator@U?$pair@$$CBW4OsiLayer@vanetza@@VByteBufferConvertible@2@@std@@@5@$0A@@std@@@std@@IEAAXXZ
	?_Allocate@?$_Alloc_construct_ptr@V?$allocator@U?$_Tree_node@U?$pair@$$CBW4OsiLayer@vanetza@@V?$vector@EV?$allocator@E@std@@@std@@@std@@PEAX@std@@@std@@@std@@QEAAXXZ
	?_Allocate@?$_Alloc_construct_ptr@V?$allocator@U?$_Tree_node@U?$pair@$$CBW4OsiLayer@vanetza@@VByteBufferConvertible@2@@std@@PEAX@std@@@std@@@std@@QEAAXXZ
	?_Allocate@_Default_allocate_traits@std@@SAPEAX_K@Z
	?_Assign_locked@_Iterator_base12@std@@AEAAXAEBU12@@Z
	?_Assign_unlocked@_Iterator_base12@std@@AEAAXAEBU12@@Z
	?_Buy_nonzero@?$vector@EV?$allocator@E@std@@@std@@AEAAX_K@Z
	?_Buy_raw@?$vector@EV?$allocator@E@std@@@std@@AEAAX_K@Z
	?_Calculate_growth@?$basic_string@DU?$char_traits@D@std@@V?$allocator@D@2@@std@@AEBA_K_K@Z
	?_Calculate_growth@?$basic_string@DU?$char_traits@D@std@@V?$allocator@D@2@@std@@CA_K_K00@Z
	?_Calculate_growth@?$vector@EV?$allocator@E@std@@@std@@AEBA_K_K@Z
	?_Calculate_growth@?$vector@V?$basic_string@DU?$char_traits@D@std@@V?$allocator@D@2@@std@@V?$allocator@V?$basic_string@DU?$char_traits@D@std@@V?$allocator@D@2@@std@@@2@@std@@AEBA_K_K@Z
	?_Change_array@?$vector@EV?$allocator@E@std@@@std@@AEAAXQEAE_K1@Z
	?_Change_array@?$vector@V?$basic_string@DU?$char_traits@D@std@@V?$allocator@D@2@@std@@V?$allocator@V?$basic_string@DU?$char_traits@D@std@@V?$allocator@D@2@@std@@@2@@std@@AEAAXQEAV?$basic_string@DU?$char_traits@D@std@@V?$allocator@D@2@@2@_K1@Z
	?_Check_grow_by_1@?$_Tree@V?$_Tmap_traits@W4OsiLayer@vanetza@@V?$vector@EV?$allocator@E@std@@@std@@U?$less@W4OsiLayer@vanetza@@@4@V?$allocator@U?$pair@$$CBW4OsiLayer@vanetza@@V?$vector@EV?$allocator@E@std@@@std@@@std@@@4@$0A@@std@@@std@@IEAAXXZ
	?_Check_grow_by_1@?$_Tree@V?$_Tmap_traits@W4OsiLayer@vanetza@@VByteBufferConvertible@2@U?$less@W4OsiLayer@vanetza@@@std@@V?$allocator@U?$pair@$$CBW4OsiLayer@vanetza@@VByteBufferConvertible@2@@std@@@5@$0A@@std@@@std@@IEAAXXZ
	?_Clear_and_reserve_geometric@?$vector@EV?$allocator@E@std@@@std@@AEAAX_K@Z
	?_Compat@?$_Array_const_iterator@E$05@std@@QEBAXAEBV12@@Z
	?_Compat@?$_Array_const_iterator@W4OsiLayer@vanetza@@$06@std@@QEBAXAEBV12@@Z
	?_Compat@?$_String_const_iterator@V?$_String_val@U?$_Simple_types@D@std@@@std@@@std@@QEBAXAEBV12@@Z
	?_Compat@?$_Vector_const_iterator@V?$_Vector_val@U?$_Simple_types@E@std@@@std@@@std@@QEBAXAEBV12@@Z
	?_Extract@?$_In_place_key_extract_map@W4OsiLayer@vanetza@@U?$pair@$$CBW4OsiLayer@vanetza@@VByteBufferConvertible@2@@std@@@std@@SAAEBW4OsiLayer@vanetza@@AEBU?$pair@$$CBW4OsiLayer@vanetza@@VByteBufferConvertible@2@@2@@Z
	?_Get_first@?$_Compressed_pair@U?$default_delete@Ubyte_buffer@convertible@vanetza@@@std@@PEAUbyte_buffer@convertible@vanetza@@$00@std@@QEAAAEAU?$default_delete@Ubyte_buffer@convertible@vanetza@@@2@XZ
	?_Get_first@?$_Compressed_pair@U?$default_delete@VChunkPacket@vanetza@@@std@@PEAVChunkPacket@vanetza@@$00@std@@QEAAAEAU?$default_delete@VChunkPacket@vanetza@@@2@XZ
	?_Get_first@?$_Compressed_pair@U?$less@W4OsiLayer@vanetza@@@std@@V?$_Compressed_pair@V?$allocator@U?$_Tree_node@U?$pair@$$CBW4OsiLayer@vanetza@@V?$vector@EV?$allocator@E@std@@@std@@@std@@PEAX@std@@@std@@V?$_Tree_val@U?$_Tree_simple_types@U?$pair@$$CBW4OsiLayer@vanetza@@V?$vector@EV?$allocator@E@std@@@std@@@std@@@std@@@2@$00@2@$00@std@@QEBAAEBU?$less@W4OsiLayer@vanetza@@@2@XZ
	?_Get_first@?$_Compressed_pair@U?$less@W4OsiLayer@vanetza@@@std@@V?$_Compressed_pair@V?$allocator@U?$_Tree_node@U?$pair@$$CBW4OsiLayer@vanetza@@VByteBufferConvertible@2@@std@@PEAX@std@@@std@@V?$_Tree_val@U?$_Tree_simple_types@U?$pair@$$CBW4OsiLayer@vanetza@@VByteBufferConvertible@2@@std@@@std@@@2@$00@2@$00@std@@QEAAAEAU?$less@W4OsiLayer@vanetza@@@2@XZ
	?_Get_first@?$_Compressed_pair@U?$less@W4OsiLayer@vanetza@@@std@@V?$_Compressed_pair@V?$allocator@U?$_Tree_node@U?$pair@$$CBW4OsiLayer@vanetza@@VByteBufferConvertible@2@@std@@PEAX@std@@@std@@V?$_Tree_val@U?$_Tree_simple_types@U?$pair@$$CBW4OsiLayer@vanetza@@VByteBufferConvertible@2@@std@@@std@@@2@$00@2@$00@std@@QEBAAEBU?$less@W4OsiLayer@vanetza@@@2@XZ
	?_Get_first@?$_Compressed_pair@V?$allocator@D@std@@V?$_String_val@U?$_Simple_types@D@std@@@2@$00@std@@QEAAAEAV?$allocator@D@2@XZ
	?_Get_first@?$_Compressed_pair@V?$allocator@D@std@@V?$_String_val@U?$_Simple_types@D@std@@@2@$00@std@@QEBAAEBV?$allocator@D@2@XZ
	?_Get_first@?$_Compressed_pair@V?$allocator@E@std@@V?$_Vector_val@U?$_Simple_types@E@std@@@2@$00@std@@QEAAAEAV?$allocator@E@2@XZ
	?_Get_first@?$_Compressed_pair@V?$allocator@E@std@@V?$_Vector_val@U?$_Simple_types@E@std@@@2@$00@std@@QEBAAEBV?$allocator@E@2@XZ
	?_Get_first@?$_Compressed_pair@V?$allocator@U?$_Tree_node@U?$pair@$$CBW4OsiLayer@vanetza@@V?$vector@EV?$allocator@E@std@@@std@@@std@@PEAX@std@@@std@@V?$_Tree_val@U?$_Tree_simple_types@U?$pair@$$CBW4OsiLayer@vanetza@@V?$vector@EV?$allocator@E@std@@@std@@@std@@@std@@@2@$00@std@@QEAAAEAV?$allocator@U?$_Tree_node@U?$pair@$$CBW4OsiLayer@vanetza@@V?$vector@EV?$allocator@E@std@@@std@@@std@@PEAX@std@@@2@XZ
	?_Get_first@?$_Compressed_pair@V?$allocator@U?$_Tree_node@U?$pair@$$CBW4OsiLayer@vanetza@@V?$vector@EV?$allocator@E@std@@@std@@@std@@PEAX@std@@@std@@V?$_Tree_val@U?$_Tree_simple_types@U?$pair@$$CBW4OsiLayer@vanetza@@V?$vector@EV?$allocator@E@std@@@std@@@std@@@std@@@2@$00@std@@QEBAAEBV?$allocator@U?$_Tree_node@U?$pair@$$CBW4OsiLayer@vanetza@@V?$vector@EV?$allocator@E@std@@@std@@@std@@PEAX@std@@@2@XZ
	?_Get_first@?$_Compressed_pair@V?$allocator@U?$_Tree_node@U?$pair@$$CBW4OsiLayer@vanetza@@VByteBufferConvertible@2@@std@@PEAX@std@@@std@@V?$_Tree_val@U?$_Tree_simple_types@U?$pair@$$CBW4OsiLayer@vanetza@@VByteBufferConvertible@2@@std@@@std@@@2@$00@std@@QEAAAEAV?$allocator@U?$_Tree_node@U?$pair@$$CBW4OsiLayer@vanetza@@VByteBufferConvertible@2@@std@@PEAX@std@@@2@XZ
	?_Get_first@?$_Compressed_pair@V?$allocator@U?$_Tree_node@U?$pair@$$CBW4OsiLayer@vanetza@@VByteBufferConvertible@2@@std@@PEAX@std@@@std@@V?$_Tree_val@U?$_Tree_simple_types@U?$pair@$$CBW4OsiLayer@vanetza@@VByteBufferConvertible@2@@std@@@std@@@2@$00@std@@QEBAAEBV?$allocator@U?$_Tree_node@U?$pair@$$CBW4OsiLayer@vanetza@@VByteBufferConvertible@2@@std@@PEAX@std@@@2@XZ
	?_Get_first@?$_Compressed_pair@V?$allocator@V?$basic_string@DU?$char_traits@D@std@@V?$allocator@D@2@@std@@@std@@V?$_Vector_val@U?$_Simple_types@V?$basic_string@DU?$char_traits@D@std@@V?$allocator@D@2@@std@@@std@@@2@$00@std@@QEAAAEAV?$allocator@V?$basic_string@DU?$char_traits@D@std@@V?$allocator@D@2@@std@@@2@XZ
	?_Get_first@?$_Compressed_pair@V?$allocator@V?$basic_string@DU?$char_traits@D@std@@V?$allocator@D@2@@std@@@std@@V?$_Vector_val@U?$_Simple_types@V?$basic_string@DU?$char_traits@D@std@@V?$allocator@D@2@@std@@@std@@@2@$00@std@@QEBAAEBV?$allocator@V?$basic_string@DU?$char_traits@D@std@@V?$allocator@D@2@@std@@@2@XZ
	?_Get_scary@?$_Tree@V?$_Tmap_traits@W4OsiLayer@vanetza@@V?$vector@EV?$allocator@E@std@@@std@@U?$less@W4OsiLayer@vanetza@@@4@V?$allocator@U?$pair@$$CBW4OsiLayer@vanetza@@V?$vector@EV?$allocator@E@std@@@std@@@std@@@4@$0A@@std@@@std@@IEAAPEAV?$_Tree_val@U?$_Tree_simple_types@U?$pair@$$CBW4OsiLayer@vanetza@@V?$vector@EV?$allocator@E@std@@@std@@@std@@@std@@@2@XZ
	?_Get_scary@?$_Tree@V?$_Tmap_traits@W4OsiLayer@vanetza@@V?$vector@EV?$allocator@E@std@@@std@@U?$less@W4OsiLayer@vanetza@@@4@V?$allocator@U?$pair@$$CBW4OsiLayer@vanetza@@V?$vector@EV?$allocator@E@std@@@std@@@std@@@4@$0A@@std@@@std@@IEBAPEBV?$_Tree_val@U?$_Tree_simple_types@U?$pair@$$CBW4OsiLayer@vanetza@@V?$vector@EV?$allocator@E@std@@@std@@@std@@@std@@@2@XZ
	?_Get_scary@?$_Tree@V?$_Tmap_traits@W4OsiLayer@vanetza@@VByteBufferConvertible@2@U?$less@W4OsiLayer@vanetza@@@std@@V?$allocator@U?$pair@$$CBW4OsiLayer@vanetza@@VByteBufferConvertible@2@@std@@@5@$0A@@std@@@std@@IEAAPEAV?$_Tree_val@U?$_Tree_simple_types@U?$pair@$$CBW4OsiLayer@vanetza@@VByteBufferConvertible@2@@std@@@std@@@2@XZ
	?_Get_scary@?$_Tree@V?$_Tmap_traits@W4OsiLayer@vanetza@@VByteBufferConvertible@2@U?$less@W4OsiLayer@vanetza@@@std@@V?$allocator@U?$pair@$$CBW4OsiLayer@vanetza@@VByteBufferConvertible@2@@std@@@5@$0A@@std@@@std@@IEBAPEBV?$_Tree_val@U?$_Tree_simple_types@U?$pair@$$CBW4OsiLayer@vanetza@@VByteBufferConvertible@2@@std@@@std@@@2@XZ
	?_Getal@?$_Tree@V?$_Tmap_traits@W4OsiLayer@vanetza@@V?$vector@EV?$allocator@E@std@@@std@@U?$less@W4OsiLayer@vanetza@@@4@V?$allocator@U?$pair@$$CBW4OsiLayer@vanetza@@V?$vector@EV?$allocator@E@std@@@std@@@std@@@4@$0A@@std@@@std@@IEAAAEAV?$allocator@U?$_Tree_node@U?$pair@$$CBW4OsiLayer@vanetza@@V?$vector@EV?$allocator@E@std@@@std@@@std@@PEAX@std@@@2@XZ
	?_Getal@?$_Tree@V?$_Tmap_traits@W4OsiLayer@vanetza@@V?$vector@EV?$allocator@E@std@@@std@@U?$less@W4OsiLayer@vanetza@@@4@V?$allocator@U?$pair@$$CBW4OsiLayer@vanetza@@V?$vector@EV?$allocator@E@std@@@std@@@std@@@4@$0A@@std@@@std@@IEBAAEBV?$allocator@U?$_Tree_node@U?$pair@$$CBW4OsiLayer@vanetza@@V?$vector@EV?$allocator@E@std@@@std@@@std@@PEAX@std@@@2@XZ
	?_Getal@?$_Tree@V?$_Tmap_traits@W4OsiLayer@vanetza@@VByteBufferConvertible@2@U?$less@W4OsiLayer@vanetza@@@std@@V?$allocator@U?$pair@$$CBW4OsiLayer@vanetza@@VByteBufferConvertible@2@@std@@@5@$0A@@std@@@std@@IEAAAEAV?$allocator@U?$_Tree_node@U?$pair@$$CBW4OsiLayer@vanetza@@VByteBufferConvertible@2@@std@@PEAX@std@@@2@XZ
	?_Getal@?$_Tree@V?$_Tmap_traits@W4OsiLayer@vanetza@@VByteBufferConvertible@2@U?$less@W4OsiLayer@vanetza@@@std@@V?$allocator@U?$pair@$$CBW4OsiLayer@vanetza@@VByteBufferConvertible@2@@std@@@5@$0A@@std@@@std@@IEBAAEBV?$allocator@U?$_Tree_node@U?$pair@$$CBW4OsiLayer@vanetza@@VByteBufferConvertible@2@@std@@PEAX@std@@@2@XZ
	?_Getal@?$basic_string@DU?$char_traits@D@std@@V?$allocator@D@2@@std@@AEAAAEAV?$allocator@D@2@XZ
	?_Getal@?$basic_string@DU?$char_traits@D@std@@V?$allocator@D@2@@std@@AEBAAEBV?$allocator@D@2@XZ
	?_Getal@?$vector@EV?$allocator@E@std@@@std@@AEAAAEAV?$allocator@E@2@XZ
	?_Getal@?$vector@EV?$allocator@E@std@@@std@@AEBAAEBV?$allocator@E@2@XZ
	?_Getal@?$vector@V?$basic_string@DU?$char_traits@D@std@@V?$allocator@D@2@@std@@V?$allocator@V?$basic_string@DU?$char_traits@D@std@@V?$allocator@D@2@@std@@@2@@std@@AEAAAEAV?$allocator@V?$basic_string@DU?$char_traits@D@std@@V?$allocator@D@2@@std@@@2@XZ
	?_Getal@?$vector@V?$basic_string@DU?$char_traits@D@std@@V?$allocator@D@2@@std@@V?$allocator@V?$basic_string@DU?$char_traits@D@std@@V?$allocator@D@2@@std@@@2@@std@@AEBAAEBV?$allocator@V?$basic_string@DU?$char_traits@D@std@@V?$allocator@D@2@@std@@@2@XZ
	?_Getcomp@?$_Tree@V?$_Tmap_traits@W4OsiLayer@vanetza@@V?$vector@EV?$allocator@E@std@@@std@@U?$less@W4OsiLayer@vanetza@@@4@V?$allocator@U?$pair@$$CBW4OsiLayer@vanetza@@V?$vector@EV?$allocator@E@std@@@std@@@std@@@4@$0A@@std@@@std@@IEBAAEBU?$less@W4OsiLayer@vanetza@@@2@XZ
	?_Getcomp@?$_Tree@V?$_Tmap_traits@W4OsiLayer@vanetza@@VByteBufferConvertible@2@U?$less@W4OsiLayer@vanetza@@@std@@V?$allocator@U?$pair@$$CBW4OsiLayer@vanetza@@VByteBufferConvertible@2@@std@@@5@$0A@@std@@@std@@IEAAAEAU?$less@W4OsiLayer@vanetza@@@2@XZ
	?_Getcomp@?$_Tree@V?$_Tmap_traits@W4OsiLayer@vanetza@@VByteBufferConvertible@2@U?$less@W4OsiLayer@vanetza@@@std@@V?$allocator@U?$pair@$$CBW4OsiLayer@vanetza@@VByteBufferConvertible@2@@std@@@5@$0A@@std@@@std@@IEBAAEBU?$less@W4OsiLayer@vanetza@@@2@XZ
	?_Getcont@_Iterator_base12@std@@QEBAPEBU_Container_base12@2@XZ
	?_Insert_node@?$_Tree_val@U?$_Tree_simple_types@U?$pair@$$CBW4OsiLayer@vanetza@@V?$vector@EV?$allocator@E@std@@@std@@@std@@@std@@@std@@QEAAPEAU?$_Tree_node@U?$pair@$$CBW4OsiLayer@vanetza@@V?$vector@EV?$allocator@E@std@@@std@@@std@@PEAX@2@U?$_Tree_id@PEAU?$_Tree_node@U?$pair@$$CBW4OsiLayer@vanetza@@V?$vector@EV?$allocator@E@std@@@std@@@std@@PEAX@std@@@2@QEAU32@@Z
	?_Insert_node@?$_Tree_val@U?$_Tree_simple_types@U?$pair@$$CBW4OsiLayer@vanetza@@VByteBufferConvertible@2@@std@@@std@@@std@@QEAAPEAU?$_Tree_node@U?$pair@$$CBW4OsiLayer@vanetza@@VByteBufferConvertible@2@@std@@PEAX@2@U?$_Tree_id@PEAU?$_Tree_node@U?$pair@$$CBW4OsiLayer@vanetza@@VByteBufferConvertible@2@@std@@PEAX@std@@@2@QEAU32@@Z
	?_Large_string_engaged@?$_String_val@U?$_Simple_types@D@std@@@std@@QEBA_NXZ
	?_Lrotate@?$_Tree_val@U?$_Tree_simple_types@U?$pair@$$CBW4OsiLayer@vanetza@@V?$vector@EV?$allocator@E@std@@@std@@@std@@@std@@@std@@QEAAXPEAU?$_Tree_node@U?$pair@$$CBW4OsiLayer@vanetza@@V?$vector@EV?$allocator@E@std@@@std@@@std@@PEAX@2@@Z
	?_Lrotate@?$_Tree_val@U?$_Tree_simple_types@U?$pair@$$CBW4OsiLayer@vanetza@@VByteBufferConvertible@2@@std@@@std@@@std@@QEAAXPEAU?$_Tree_node@U?$pair@$$CBW4OsiLayer@vanetza@@VByteBufferConvertible@2@@std@@PEAX@2@@Z
	?_Make_iterator_offset@?$vector@EV?$allocator@E@std@@@std@@AEAA?AV?$_Vector_iterator@V?$_Vector_val@U?$_Simple_types@E@std@@@std@@@2@_K@Z
	?_Maklocwcs@std@@YAPEA_WPEB_W@Z
	?_Memcpy_val_from@?$basic_string@DU?$char_traits@D@std@@V?$allocator@D@2@@std@@AEAAXAEBV12@@Z
	?_Min@?$_Tree_val@U?$_Tree_simple_types@U?$pair@$$CBW4OsiLayer@vanetza@@V?$vector@EV?$allocator@E@std@@@std@@@std@@@std@@@std@@SAPEAU?$_Tree_node@U?$pair@$$CBW4OsiLayer@vanetza@@V?$vector@EV?$allocator@E@std@@@std@@@std@@PEAX@2@PEAU32@@Z
	?_Min@?$_Tree_val@U?$_Tree_simple_types@U?$pair@$$CBW4OsiLayer@vanetza@@VByteBufferConvertible@2@@std@@@std@@@std@@SAPEAU?$_Tree_node@U?$pair@$$CBW4OsiLayer@vanetza@@VByteBufferConvertible@2@@std@@PEAX@2@PEAU32@@Z
	?_Myptr@?$_String_val@U?$_Simple_types@D@std@@@std@@QEBAPEBDXZ
	?_Orphan_all@_Container_base12@std@@QEAAXXZ
	?_Orphan_all_locked_v3@_Container_base12@std@@AEAAXXZ
	?_Orphan_all_unlocked_v3@_Container_base12@std@@AEAAXXZ
	?_Orphan_me_locked_v3@_Iterator_base12@std@@AEAAXXZ
	?_Orphan_me_unlocked_v3@_Iterator_base12@std@@AEAAXXZ
	?_Orphan_range@?$vector@EV?$allocator@E@std@@@std@@AEBAXPEAE0@Z
	?_Orphan_range@?$vector@V?$basic_string@DU?$char_traits@D@std@@V?$allocator@D@2@@std@@V?$allocator@V?$basic_string@DU?$char_traits@D@std@@V?$allocator@D@2@@std@@@2@@std@@AEBAXPEAV?$basic_string@DU?$char_traits@D@std@@V?$allocator@D@2@@2@0@Z
	?_Orphan_range_locked@?$vector@EV?$allocator@E@std@@@std@@AEBAXPEAE0@Z
	?_Orphan_range_locked@?$vector@V?$basic_string@DU?$char_traits@D@std@@V?$allocator@D@2@@std@@V?$allocator@V?$basic_string@DU?$char_traits@D@std@@V?$allocator@D@2@@std@@@2@@std@@AEBAXPEAV?$basic_string@DU?$char_traits@D@std@@V?$allocator@D@2@@2@0@Z
	?_Orphan_range_unlocked@?$vector@EV?$allocator@E@std@@@std@@AEBAXPEAE0@Z
	?_Orphan_range_unlocked@?$vector@V?$basic_string@DU?$char_traits@D@std@@V?$allocator@D@2@@std@@V?$allocator@V?$basic_string@DU?$char_traits@D@std@@V?$allocator@D@2@@std@@@2@@std@@AEBAXPEAV?$basic_string@DU?$char_traits@D@std@@V?$allocator@D@2@@2@0@Z
	?_Reallocate_exactly@?$vector@EV?$allocator@E@std@@@std@@AEAAX_K@Z
	?_Release@?$_Alloc_construct_ptr@V?$allocator@U?$_Tree_node@U?$pair@$$CBW4OsiLayer@vanetza@@V?$vector@EV?$allocator@E@std@@@std@@@std@@PEAX@std@@@std@@@std@@QEAAPEAU?$_Tree_node@U?$pair@$$CBW4OsiLayer@vanetza@@V?$vector@EV?$allocator@E@std@@@std@@@std@@PEAX@2@XZ
	?_Release@?$_Alloc_construct_ptr@V?$allocator@U?$_Tree_node@U?$pair@$$CBW4OsiLayer@vanetza@@VByteBufferConvertible@2@@std@@PEAX@std@@@std@@@std@@QEAAPEAU?$_Tree_node@U?$pair@$$CBW4OsiLayer@vanetza@@VByteBufferConvertible@2@@std@@PEAX@2@XZ
	?_Release@?$_Uninitialized_backout_al@V?$allocator@E@std@@@std@@QEAAPEAEXZ
	?_Release@?$_Uninitialized_backout_al@V?$allocator@V?$basic_string@DU?$char_traits@D@std@@V?$allocator@D@2@@std@@@std@@@std@@QEAAPEAV?$basic_string@DU?$char_traits@D@std@@V?$allocator@D@2@@2@XZ
	?_Release@_Basic_container_proxy_ptr12@std@@QEAAXXZ
	?_Rrotate@?$_Tree_val@U?$_Tree_simple_types@U?$pair@$$CBW4OsiLayer@vanetza@@V?$vector@EV?$allocator@E@std@@@std@@@std@@@std@@@std@@QEAAXPEAU?$_Tree_node@U?$pair@$$CBW4OsiLayer@vanetza@@V?$vector@EV?$allocator@E@std@@@std@@@std@@PEAX@2@@Z
	?_Rrotate@?$_Tree_val@U?$_Tree_simple_types@U?$pair@$$CBW4OsiLayer@vanetza@@VByteBufferConvertible@2@@std@@@std@@@std@@QEAAXPEAU?$_Tree_node@U?$pair@$$CBW4OsiLayer@vanetza@@VByteBufferConvertible@2@@std@@PEAX@2@@Z
	?_Seek_to@?$_Array_const_iterator@E$05@std@@QEAAXPEBE@Z
	?_Seek_to@?$_String_const_iterator@V?$_String_val@U?$_Simple_types@D@std@@@std@@@std@@QEAAXPEBD@Z
	?_Swap_proxy_and_iterators@?$basic_string@DU?$char_traits@D@std@@V?$allocator@D@2@@std@@AEAAXAEAV12@@Z
	?_Swap_proxy_and_iterators@_Container_base12@std@@QEAAXAEAU12@@Z
	?_Swap_proxy_and_iterators_locked@_Container_base12@std@@AEAAXAEAU12@@Z
	?_Swap_proxy_and_iterators_unlocked@_Container_base12@std@@AEAAXAEAU12@@Z
	?_Swap_val@?$_Vector_val@U?$_Simple_types@E@std@@@std@@QEAAXAEAV12@@Z
	?_Swap_val@?$_Vector_val@U?$_Simple_types@V?$basic_string@DU?$char_traits@D@std@@V?$allocator@D@2@@std@@@std@@@std@@QEAAXAEAV12@@Z
	?_Swap_val_excluding_comp@?$_Tree@V?$_Tmap_traits@W4OsiLayer@vanetza@@VByteBufferConvertible@2@U?$less@W4OsiLayer@vanetza@@@std@@V?$allocator@U?$pair@$$CBW4OsiLayer@vanetza@@VByteBufferConvertible@2@@std@@@5@$0A@@std@@@std@@AEAAXAEAV12@@Z
	?_Take_contents@?$basic_string@DU?$char_traits@D@std@@V?$allocator@D@2@@std@@AEAAXAEAV12@@Z
	?_Throw_bad_array_new_length@std@@YAXXZ
	?_Throw_tree_length_error@std@@YAXXZ
	?_Tidy@?$vector@EV?$allocator@E@std@@@std@@AEAAXXZ
	?_Tidy@?$vector@V?$basic_string@DU?$char_traits@D@std@@V?$allocator@D@2@@std@@V?$allocator@V?$basic_string@DU?$char_traits@D@std@@V?$allocator@D@2@@std@@@2@@std@@AEAAXXZ
	?_Tidy_deallocate@?$basic_string@DU?$char_traits@D@std@@V?$allocator@D@2@@std@@AEAAXXZ
	?_Tidy_init@?$basic_string@DU?$char_traits@D@std@@V?$allocator@D@2@@std@@AEAAXXZ
	?_Unchecked_begin@?$_Tree@V?$_Tmap_traits@W4OsiLayer@vanetza@@V?$vector@EV?$allocator@E@std@@@std@@U?$less@W4OsiLayer@vanetza@@@4@V?$allocator@U?$pair@$$CBW4OsiLayer@vanetza@@V?$vector@EV?$allocator@E@std@@@std@@@std@@@4@$0A@@std@@@std@@QEAA?AV?$_Tree_unchecked_iterator@V?$_Tree_val@U?$_Tree_simple_types@U?$pair@$$CBW4OsiLayer@vanetza@@V?$vector@EV?$allocator@E@std@@@std@@@std@@@std@@@std@@@2@XZ
	?_Unchecked_begin@?$_Tree@V?$_Tmap_traits@W4OsiLayer@vanetza@@VByteBufferConvertible@2@U?$less@W4OsiLayer@vanetza@@@std@@V?$allocator@U?$pair@$$CBW4OsiLayer@vanetza@@VByteBufferConvertible@2@@std@@@5@$0A@@std@@@std@@QEBA?AV?$_Tree_unchecked_const_iterator@V?$_Tree_val@U?$_Tree_simple_types@U?$pair@$$CBW4OsiLayer@vanetza@@VByteBufferConvertible@2@@std@@@std@@@std@@U_Iterator_base0@2@@2@XZ
	?_Unchecked_begin@?$array@E$05@std@@QEAAPEAEXZ
	?_Unchecked_begin@?$array@E$05@std@@QEBAPEBEXZ
	?_Unchecked_begin@?$array@W4OsiLayer@vanetza@@$06@std@@QEBAPEBW4OsiLayer@vanetza@@XZ
	?_Unchecked_end@?$_Tree@V?$_Tmap_traits@W4OsiLayer@vanetza@@V?$vector@EV?$allocator@E@std@@@std@@U?$less@W4OsiLayer@vanetza@@@4@V?$allocator@U?$pair@$$CBW4OsiLayer@vanetza@@V?$vector@EV?$allocator@E@std@@@std@@@std@@@4@$0A@@std@@@std@@QEBA?AU_Default_sentinel@2@XZ
	?_Unchecked_end@?$_Tree@V?$_Tmap_traits@W4OsiLayer@vanetza@@VByteBufferConvertible@2@U?$less@W4OsiLayer@vanetza@@@std@@V?$allocator@U?$pair@$$CBW4OsiLayer@vanetza@@VByteBufferConvertible@2@@std@@@5@$0A@@std@@@std@@QEBA?AU_Default_sentinel@2@XZ
	?_Unchecked_end@?$array@E$05@std@@QEAAPEAEXZ
	?_Unchecked_end@?$array@E$05@std@@QEBAPEBEXZ
	?_Unchecked_end@?$array@W4OsiLayer@vanetza@@$06@std@@QEBAPEBW4OsiLayer@vanetza@@XZ
	?_Unwrapped@?$_Array_const_iterator@E$05@std@@QEBAPEBEXZ
	?_Unwrapped@?$_Array_iterator@E$05@std@@QEBAPEAEXZ
	?_Unwrapped@?$_String_const_iterator@V?$_String_val@U?$_Simple_types@D@std@@@std@@@std@@QEBAPEBDXZ
	?_Unwrapped@?$_Vector_const_iterator@V?$_Vector_val@U?$_Simple_types@E@std@@@std@@@std@@QEBAPEBEXZ
	?_Unwrapped@?$_Vector_iterator@V?$_Vector_val@U?$_Simple_types@E@std@@@std@@@std@@QEBAPEAEXZ
	?_Unwrapped@?$_Vector_iterator@V?$_Vector_val@U?$_Simple_types@V?$basic_string@DU?$char_traits@D@std@@V?$allocator@D@2@@std@@@std@@@std@@@std@@QEBAPEAV?$basic_string@DU?$char_traits@D@std@@V?$allocator@D@2@@2@XZ
	?_Verify_offset@?$_Array_const_iterator@E$05@std@@QEBAX_J@Z
	?_Verify_offset@?$_Array_const_iterator@W4OsiLayer@vanetza@@$06@std@@QEBAX_J@Z
	?_Verify_offset@?$_String_const_iterator@V?$_String_val@U?$_Simple_types@D@std@@@std@@@std@@QEBAX_J@Z
	?_Verify_offset@?$_Vector_const_iterator@V?$_Vector_val@U?$_Simple_types@E@std@@@std@@@std@@QEBAX_J@Z
	?_Verify_range@std@@YAXAEBV?$_String_const_iterator@V?$_String_val@U?$_Simple_types@D@std@@@std@@@1@0@Z
	?_Verify_range@std@@YAXAEBV?$_Vector_const_iterator@V?$_Vector_val@U?$_Simple_types@E@std@@@std@@@1@0@Z
	?_Verify_range@std@@YAXAEBV?$_Vector_const_iterator@V?$_Vector_val@U?$_Simple_types@V?$basic_string@DU?$char_traits@D@std@@V?$allocator@D@2@@std@@@std@@@std@@@1@0@Z
	?_Verify_with@?$_Array_const_iterator@E$05@std@@QEBAXAEBV12@@Z
	?_Xlen_string@std@@YAXXZ
	?_Xlength@?$vector@EV?$allocator@E@std@@@std@@CAXXZ
	?_Xlength@?$vector@V?$basic_string@DU?$char_traits@D@std@@V?$allocator@D@2@@std@@V?$allocator@V?$basic_string@DU?$char_traits@D@std@@V?$allocator@D@2@@std@@@2@@std@@CAXXZ
	?__empty_global_delete@@YAXPEAX@Z
	?__empty_global_delete@@YAXPEAXW4align_val_t@std@@@Z
	?__empty_global_delete@@YAXPEAX_K@Z
	?__empty_global_delete@@YAXPEAX_KW4align_val_t@std@@@Z
	?add_ref@?$refcount_ptr@Uerror_info_container@exception_detail@boost@@@exception_detail@boost@@AEAAXXZ
	?address@?$aligned_storage@$0OA@$07@boost@@QEBAPEBXXZ
	?address@?$aligned_storage@VMacAddress@vanetza@@@optional_detail@boost@@QEAAPEAXXZ
	?address@?$aligned_storage_imp@$0OA@$07@aligned_storage@detail@boost@@QEBAPEAXXZ
	?adopt@?$refcount_ptr@Uerror_info_container@exception_detail@boost@@@exception_detail@boost@@QEAAXPEAUerror_info_container@23@@Z
	?allocate@?$allocator@D@std@@QEAAPEAD_K@Z
	?allocate@?$allocator@E@std@@QEAAPEAE_K@Z
	?allocate@?$allocator@U?$_Tree_node@U?$pair@$$CBW4OsiLayer@vanetza@@V?$vector@EV?$allocator@E@std@@@std@@@std@@PEAX@std@@@std@@QEAAPEAU?$_Tree_node@U?$pair@$$CBW4OsiLayer@vanetza@@V?$vector@EV?$allocator@E@std@@@std@@@std@@PEAX@2@_K@Z
	?allocate@?$allocator@U?$_Tree_node@U?$pair@$$CBW4OsiLayer@vanetza@@VByteBufferConvertible@2@@std@@PEAX@std@@@std@@QEAAPEAU?$_Tree_node@U?$pair@$$CBW4OsiLayer@vanetza@@VByteBufferConvertible@2@@std@@PEAX@2@_K@Z
	?allocate@?$allocator@U_Container_proxy@std@@@std@@QEAAPEAU_Container_proxy@2@_K@Z
	?allocate@?$allocator@V?$basic_string@DU?$char_traits@D@std@@V?$allocator@D@2@@std@@@std@@QEAAPEAV?$basic_string@DU?$char_traits@D@std@@V?$allocator@D@2@@2@_K@Z
	?assign@?$_Narrow_char_traits@DH@std@@SAXAEADAEBD@Z
	?assign@?$optional_base@VMacAddress@vanetza@@@optional_detail@boost@@IEAAXAEBVMacAddress@vanetza@@@Z
	?assign_to_own@?$function2@V?$iterator_range@V?$_String_const_iterator@V?$_String_val@U?$_Simple_types@D@std@@@std@@@std@@@boost@@V?$_String_const_iterator@V?$_String_val@U?$_Simple_types@D@std@@@std@@@std@@V34@@boost@@AEAAXAEBV12@@Z
	?assign_value@?$optional_base@VMacAddress@vanetza@@@optional_detail@boost@@IEAAXAEBVMacAddress@vanetza@@@Z
	?back@?$array@V?$_Vector_iterator@V?$_Vector_val@U?$_Simple_types@E@std@@@std@@@std@@$07@std@@QEAAAEAV?$_Vector_iterator@V?$_Vector_val@U?$_Simple_types@E@std@@@std@@@2@XZ
	?back@?$array@V?$_Vector_iterator@V?$_Vector_val@U?$_Simple_types@E@std@@@std@@@std@@$07@std@@QEBAAEBV?$_Vector_iterator@V?$_Vector_val@U?$_Simple_types@E@std@@@std@@@2@XZ
	?base@?$iterator_adaptor@V?$transform_iterator@U?$copy_iterator_rangeF@V?$basic_string@DU?$char_traits@D@std@@V?$allocator@D@2@@std@@V?$_String_const_iterator@V?$_String_val@U?$_Simple_types@D@std@@@std@@@2@@detail@algorithm@boost@@V?$split_iterator@V?$_String_const_iterator@V?$_String_val@U?$_Simple_types@D@std@@@std@@@std@@@34@Uuse_default@4@U64@@iterators@boost@@V?$split_iterator@V?$_String_const_iterator@V?$_String_val@U?$_Simple_types@D@std@@@std@@@std@@@algorithm@3@V?$basic_string@DU?$char_traits@D@std@@V?$allocator@D@2@@std@@Uuse_default@3@V67@U83@@iterators@boost@@QEBAAEBV?$split_iterator@V?$_String_const_iterator@V?$_String_val@U?$_Simple_types@D@std@@@std@@@std@@@algorithm@3@XZ
	?begin@?$_Tree@V?$_Tmap_traits@W4OsiLayer@vanetza@@V?$vector@EV?$allocator@E@std@@@std@@U?$less@W4OsiLayer@vanetza@@@4@V?$allocator@U?$pair@$$CBW4OsiLayer@vanetza@@V?$vector@EV?$allocator@E@std@@@std@@@std@@@4@$0A@@std@@@std@@QEBA?AV?$_Tree_const_iterator@V?$_Tree_val@U?$_Tree_simple_types@U?$pair@$$CBW4OsiLayer@vanetza@@V?$vector@EV?$allocator@E@std@@@std@@@std@@@std@@@std@@@2@XZ
	?begin@?$array@E$05@std@@QEAA?AV?$_Array_iterator@E$05@2@XZ
	?begin@?$array@E$05@std@@QEBA?AV?$_Array_const_iterator@E$05@2@XZ
	?begin@?$array@W4OsiLayer@vanetza@@$06@std@@QEBA?AV?$_Array_const_iterator@W4OsiLayer@vanetza@@$06@2@XZ
	?begin@?$basic_string@DU?$char_traits@D@std@@V?$allocator@D@2@@std@@QEBA?AV?$_String_const_iterator@V?$_String_val@U?$_Simple_types@D@std@@@std@@@2@XZ
	?begin@?$initializer_list@E@std@@QEBAPEBEXZ
	?begin@?$iterator_range_base@PEBDUincrementable_traversal_tag@iterators@boost@@@iterator_range_detail@boost@@QEBAPEBDXZ
	?begin@?$iterator_range_base@V?$_Array_const_iterator@W4OsiLayer@vanetza@@$06@std@@Uincrementable_traversal_tag@iterators@boost@@@iterator_range_detail@boost@@QEBA?AV?$_Array_const_iterator@W4OsiLayer@vanetza@@$06@std@@XZ
	?begin@?$iterator_range_base@V?$_String_const_iterator@V?$_String_val@U?$_Simple_types@D@std@@@std@@@std@@Uincrementable_traversal_tag@iterators@boost@@@iterator_range_detail@boost@@QEBA?AV?$_String_const_iterator@V?$_String_val@U?$_Simple_types@D@std@@@std@@@std@@XZ
	?begin@?$iterator_range_base@V?$_Vector_const_iterator@V?$_Vector_val@U?$_Simple_types@E@std@@@std@@@std@@Uincrementable_traversal_tag@iterators@boost@@@iterator_range_detail@boost@@QEBA?AV?$_Vector_const_iterator@V?$_Vector_val@U?$_Simple_types@E@std@@@std@@@std@@XZ
	?begin@?$vector@EV?$allocator@E@std@@@std@@QEAA?AV?$_Vector_iterator@V?$_Vector_val@U?$_Simple_types@E@std@@@std@@@2@XZ
	?begin@?$vector@EV?$allocator@E@std@@@std@@QEBA?AV?$_Vector_const_iterator@V?$_Vector_val@U?$_Simple_types@E@std@@@std@@@2@XZ
	?begin@?$vector@V?$basic_string@DU?$char_traits@D@std@@V?$allocator@D@2@@std@@V?$allocator@V?$basic_string@DU?$char_traits@D@std@@V?$allocator@D@2@@std@@@2@@std@@QEAA?AV?$_Vector_iterator@V?$_Vector_val@U?$_Simple_types@V?$basic_string@DU?$char_traits@D@std@@V?$allocator@D@2@@std@@@std@@@std@@@2@XZ
	?begin@BufferPacket@vanetza@@QEBA?AV?$_Tree_const_iterator@V?$_Tree_val@U?$_Tree_simple_types@U?$pair@$$CBW4OsiLayer@vanetza@@V?$vector@EV?$allocator@E@std@@@std@@@std@@@std@@@std@@@std@@XZ
	?buffer@CohesivePacket@vanetza@@QEBAAEBV?$vector@EV?$allocator@E@std@@@std@@XZ
	?c_str@?$basic_string@DU?$char_traits@D@std@@V?$allocator@D@2@@std@@QEBAPEBDXZ
	?capacity@?$vector@EV?$allocator@E@std@@@std@@QEBA_KXZ
	?capacity@?$vector@V?$basic_string@DU?$char_traits@D@std@@V?$allocator@D@2@@std@@V?$allocator@V?$basic_string@DU?$char_traits@D@std@@V?$allocator@D@2@@std@@@2@@std@@QEBA_KXZ
	?cbegin@?$array@W4OsiLayer@vanetza@@$06@std@@QEBA?AV?$_Array_const_iterator@W4OsiLayer@vanetza@@$06@2@XZ
	?cend@?$array@W4OsiLayer@vanetza@@$06@std@@QEBA?AV?$_Array_const_iterator@W4OsiLayer@vanetza@@$06@2@XZ
	?clear@?$basic_vtable2@V?$iterator_range@V?$_String_const_iterator@V?$_String_val@U?$_Simple_types@D@std@@@std@@@std@@@boost@@V?$_String_const_iterator@V?$_String_val@U?$_Simple_types@D@std@@@std@@@std@@V34@@function@detail@boost@@QEBAXAEATfunction_buffer@234@@Z
	?clear@?$function2@V?$iterator_range@V?$_String_const_iterator@V?$_String_val@U?$_Simple_types@D@std@@@std@@@std@@@boost@@V?$_String_const_iterator@V?$_String_val@U?$_Simple_types@D@std@@@std@@@std@@V34@@boost@@QEAAXXZ
	?clear@?$vector@EV?$allocator@E@std@@@std@@QEAAXXZ
	?clear@BufferPacket@vanetza@@QEAAXXZ
	?clone@?$wrapexcept@Vbad_function_call@boost@@@boost@@UEBAPEBVclone_base@exception_detail@2@XZ
	?construct@?$optional_base@VMacAddress@vanetza@@@optional_detail@boost@@IEAAX$$QEAVMacAddress@vanetza@@@Z
	?construct@?$optional_base@VMacAddress@vanetza@@@optional_detail@boost@@IEAAXAEBVMacAddress@vanetza@@@Z
	?convert@?$byte_buffer_impl@$$T@convertible@vanetza@@UEBAXAEAV?$vector@EV?$allocator@E@std@@@std@@@Z
	?convert@?$byte_buffer_impl@V?$vector@EV?$allocator@E@std@@@std@@@convertible@vanetza@@UEBAXAEAV?$vector@EV?$allocator@E@std@@@std@@@Z
	?convert@ByteBufferConvertible@vanetza@@QEBAXAEAV?$vector@EV?$allocator@E@std@@@std@@@Z
	?copy@?$_Char_traits@DH@std@@SAPEADQEADQEBD_K@Z
	?copy_boost_exception@exception_detail@boost@@YAXPEAVexception@2@PEBV32@@Z
	?copy_from@?$wrapexcept@Vbad_function_call@boost@@@boost@@AEAAXPEBX@Z
	?create_byte_view@boost@@YA?AVbyte_view_range@vanetza@@AEBV?$variant@VChunkPacket@vanetza@@VCohesivePacket@2@@1@W4OsiLayer@3@1@Z
	?create_byte_view@boost@@YA?AVbyte_view_range@vanetza@@AEBV?$variant@VChunkPacket@vanetza@@VCohesivePacket@2@@1@W4OsiLayer@3@@Z
	?create_byte_view@vanetza@@YA?AVbyte_view_range@1@AEBVChunkPacket@1@W4OsiLayer@1@1@Z
	?create_byte_view@vanetza@@YA?AVbyte_view_range@1@AEBVChunkPacket@1@W4OsiLayer@1@@Z
	?create_byte_view@vanetza@@YA?AVbyte_view_range@1@AEBVCohesivePacket@1@W4OsiLayer@1@1@Z
	?create_byte_view@vanetza@@YA?AVbyte_view_range@1@AEBVCohesivePacket@1@W4OsiLayer@1@@Z
	?create_ethernet_header@vanetza@@YA?AV?$vector@EV?$allocator@E@std@@@std@@AEBVEthernetHeader@1@@Z
	?create_ethernet_header@vanetza@@YA?AV?$vector@EV?$allocator@E@std@@@std@@AEBVMacAddress@1@0V?$EndianType@G$0A@@1@@Z
	?data@?$vector@EV?$allocator@E@std@@@std@@QEAAPEAEXZ
	?data@?$vector@EV?$allocator@E@std@@@std@@QEBAPEBEXZ
	?deallocate@?$_Default_allocator_traits@V?$allocator@U?$_Tree_node@U?$pair@$$CBW4OsiLayer@vanetza@@VByteBufferConvertible@2@@std@@PEAX@std@@@std@@@std@@SAXAEAV?$allocator@U?$_Tree_node@U?$pair@$$CBW4OsiLayer@vanetza@@VByteBufferConvertible@2@@std@@PEAX@std@@@2@QEAU?$_Tree_node@U?$pair@$$CBW4OsiLayer@vanetza@@VByteBufferConvertible@2@@std@@PEAX@2@_K@Z
	?deallocate@?$_Default_allocator_traits@V?$allocator@U_Container_proxy@std@@@std@@@std@@SAXAEAV?$allocator@U_Container_proxy@std@@@2@QEAU_Container_proxy@2@_K@Z
	?deallocate@?$allocator@D@std@@QEAAXQEAD_K@Z
	?deallocate@?$allocator@E@std@@QEAAXQEAE_K@Z
	?deallocate@?$allocator@U?$_Tree_node@U?$pair@$$CBW4OsiLayer@vanetza@@V?$vector@EV?$allocator@E@std@@@std@@@std@@PEAX@std@@@std@@QEAAXQEAU?$_Tree_node@U?$pair@$$CBW4OsiLayer@vanetza@@V?$vector@EV?$allocator@E@std@@@std@@@std@@PEAX@2@_K@Z
	?deallocate@?$allocator@U?$_Tree_node@U?$pair@$$CBW4OsiLayer@vanetza@@VByteBufferConvertible@2@@std@@PEAX@std@@@std@@QEAAXQEAU?$_Tree_node@U?$pair@$$CBW4OsiLayer@vanetza@@VByteBufferConvertible@2@@std@@PEAX@2@_K@Z
	?deallocate@?$allocator@V?$basic_string@DU?$char_traits@D@std@@V?$allocator@D@2@@std@@@std@@QEAAXQEAV?$basic_string@DU?$char_traits@D@std@@V?$allocator@D@2@@2@_K@Z
	?decode_ethernet_header@vanetza@@YA?AVEthernetHeader@1@AEBV?$vector@EV?$allocator@E@std@@@std@@@Z
	?decode_ethernet_header@vanetza@@YA?AVEthernetHeader@1@V?$_Vector_const_iterator@V?$_Vector_val@U?$_Simple_types@E@std@@@std@@@std@@0@Z
	?dereference@?$split_iterator@V?$_String_const_iterator@V?$_String_val@U?$_Simple_types@D@std@@@std@@@std@@@algorithm@boost@@AEBAAEBV?$iterator_range@V?$_String_const_iterator@V?$_String_val@U?$_Simple_types@D@std@@@std@@@std@@@3@XZ
	?dereference@?$transform_iterator@U?$copy_iterator_rangeF@V?$basic_string@DU?$char_traits@D@std@@V?$allocator@D@2@@std@@V?$_String_const_iterator@V?$_String_val@U?$_Simple_types@D@std@@@std@@@2@@detail@algorithm@boost@@V?$split_iterator@V?$_String_const_iterator@V?$_String_val@U?$_Simple_types@D@std@@@std@@@std@@@34@Uuse_default@4@U64@@iterators@boost@@AEBA?AV?$basic_string@DU?$char_traits@D@std@@V?$allocator@D@2@@std@@XZ
	?derived@?$iterator_facade_base@V?$split_iterator@V?$_String_const_iterator@V?$_String_val@U?$_Simple_types@D@std@@@std@@@std@@@algorithm@boost@@$$CBV?$iterator_range@V?$_String_const_iterator@V?$_String_val@U?$_Simple_types@D@std@@@std@@@std@@@3@Uforward_traversal_tag@iterators@3@AEBV43@_J$0A@$0A@@detail@iterators@boost@@IEAAAEAV?$split_iterator@V?$_String_const_iterator@V?$_String_val@U?$_Simple_types@D@std@@@std@@@std@@@algorithm@4@XZ
	?derived@?$iterator_facade_base@V?$split_iterator@V?$_String_const_iterator@V?$_String_val@U?$_Simple_types@D@std@@@std@@@std@@@algorithm@boost@@$$CBV?$iterator_range@V?$_String_const_iterator@V?$_String_val@U?$_Simple_types@D@std@@@std@@@std@@@3@Uforward_traversal_tag@iterators@3@AEBV43@_J$0A@$0A@@detail@iterators@boost@@IEBAAEBV?$split_iterator@V?$_String_const_iterator@V?$_String_val@U?$_Simple_types@D@std@@@std@@@std@@@algorithm@4@XZ
	?derived@?$iterator_facade_base@V?$transform_iterator@U?$copy_iterator_rangeF@V?$basic_string@DU?$char_traits@D@std@@V?$allocator@D@2@@std@@V?$_String_const_iterator@V?$_String_val@U?$_Simple_types@D@std@@@std@@@2@@detail@algorithm@boost@@V?$split_iterator@V?$_String_const_iterator@V?$_String_val@U?$_Simple_types@D@std@@@std@@@std@@@34@Uuse_default@4@U64@@iterators@boost@@V?$basic_string@DU?$char_traits@D@std@@V?$allocator@D@2@@std@@Uforward_traversal_tag@23@V45@_J$0A@$0A@@detail@iterators@boost@@IEAAAEAV?$transform_iterator@U?$copy_iterator_rangeF@V?$basic_string@DU?$char_traits@D@std@@V?$allocator@D@2@@std@@V?$_String_const_iterator@V?$_String_val@U?$_Simple_types@D@std@@@std@@@2@@detail@algorithm@boost@@V?$split_iterator@V?$_String_const_iterator@V?$_String_val@U?$_Simple_types@D@std@@@std@@@std@@@34@Uuse_default@4@U64@@34@XZ
	?derived@?$iterator_facade_base@V?$transform_iterator@U?$copy_iterator_rangeF@V?$basic_string@DU?$char_traits@D@std@@V?$allocator@D@2@@std@@V?$_String_const_iterator@V?$_String_val@U?$_Simple_types@D@std@@@std@@@2@@detail@algorithm@boost@@V?$split_iterator@V?$_String_const_iterator@V?$_String_val@U?$_Simple_types@D@std@@@std@@@std@@@34@Uuse_default@4@U64@@iterators@boost@@V?$basic_string@DU?$char_traits@D@std@@V?$allocator@D@2@@std@@Uforward_traversal_tag@23@V45@_J$0A@$0A@@detail@iterators@boost@@IEBAAEBV?$transform_iterator@U?$copy_iterator_rangeF@V?$basic_string@DU?$char_traits@D@std@@V?$allocator@D@2@@std@@V?$_String_const_iterator@V?$_String_val@U?$_Simple_types@D@std@@@std@@@2@@detail@algorithm@boost@@V?$split_iterator@V?$_String_const_iterator@V?$_String_val@U?$_Simple_types@D@std@@@std@@@std@@@34@Uuse_default@4@U64@@34@XZ
	?deserialize@vanetza@@YAXAEAVInputArchive@1@AEAVMacAddress@1@@Z
	?destroy@?$optional_base@VMacAddress@vanetza@@@optional_detail@boost@@IEAAXXZ
	?destroy_impl@?$optional_base@VMacAddress@vanetza@@@optional_detail@boost@@AEAAXXZ
	?distance@vanetza@@YAHW4OsiLayer@1@0@Z
	?do_find@?$find_iterator_base@V?$_String_const_iterator@V?$_String_val@U?$_Simple_types@D@std@@@std@@@std@@@detail@algorithm@boost@@IEBA?AV?$iterator_range@V?$_String_const_iterator@V?$_String_val@U?$_Simple_types@D@std@@@std@@@std@@@4@V?$_String_const_iterator@V?$_String_val@U?$_Simple_types@D@std@@@std@@@std@@0@Z
	?duplicate@vanetza@@YA?AV?$unique_ptr@VChunkPacket@vanetza@@U?$default_delete@VChunkPacket@vanetza@@@std@@@std@@AEBV?$variant@VChunkPacket@vanetza@@VCohesivePacket@2@@boost@@@Z
	?duplicate@vanetza@@YA?AV?$unique_ptr@VChunkPacket@vanetza@@U?$default_delete@VChunkPacket@vanetza@@@std@@@std@@AEBVChunkPacket@1@@Z
	?empty@function_base@boost@@QEBA_NXZ
	?end@?$_Tree@V?$_Tmap_traits@W4OsiLayer@vanetza@@V?$vector@EV?$allocator@E@std@@@std@@U?$less@W4OsiLayer@vanetza@@@4@V?$allocator@U?$pair@$$CBW4OsiLayer@vanetza@@V?$vector@EV?$allocator@E@std@@@std@@@std@@@4@$0A@@std@@@std@@QEBA?AV?$_Tree_const_iterator@V?$_Tree_val@U?$_Tree_simple_types@U?$pair@$$CBW4OsiLayer@vanetza@@V?$vector@EV?$allocator@E@std@@@std@@@std@@@std@@@std@@@2@XZ
	?end@?$_Tree@V?$_Tmap_traits@W4OsiLayer@vanetza@@VByteBufferConvertible@2@U?$less@W4OsiLayer@vanetza@@@std@@V?$allocator@U?$pair@$$CBW4OsiLayer@vanetza@@VByteBufferConvertible@2@@std@@@5@$0A@@std@@@std@@QEBA?AV?$_Tree_const_iterator@V?$_Tree_val@U?$_Tree_simple_types@U?$pair@$$CBW4OsiLayer@vanetza@@VByteBufferConvertible@2@@std@@@std@@@std@@@2@XZ
	?end@?$array@E$05@std@@QEBA?AV?$_Array_const_iterator@E$05@2@XZ
	?end@?$array@W4OsiLayer@vanetza@@$06@std@@QEBA?AV?$_Array_const_iterator@W4OsiLayer@vanetza@@$06@2@XZ
	?end@?$basic_string@DU?$char_traits@D@std@@V?$allocator@D@2@@std@@QEBA?AV?$_String_const_iterator@V?$_String_val@U?$_Simple_types@D@std@@@std@@@2@XZ
	?end@?$iterator_range_base@PEBDUincrementable_traversal_tag@iterators@boost@@@iterator_range_detail@boost@@QEBAPEBDXZ
	?end@?$iterator_range_base@V?$_Array_const_iterator@W4OsiLayer@vanetza@@$06@std@@Uincrementable_traversal_tag@iterators@boost@@@iterator_range_detail@boost@@QEBA?AV?$_Array_const_iterator@W4OsiLayer@vanetza@@$06@std@@XZ
	?end@?$iterator_range_base@V?$_String_const_iterator@V?$_String_val@U?$_Simple_types@D@std@@@std@@@std@@Uincrementable_traversal_tag@iterators@boost@@@iterator_range_detail@boost@@QEBA?AV?$_String_const_iterator@V?$_String_val@U?$_Simple_types@D@std@@@std@@@std@@XZ
	?end@?$iterator_range_base@V?$_Vector_const_iterator@V?$_Vector_val@U?$_Simple_types@E@std@@@std@@@std@@Uincrementable_traversal_tag@iterators@boost@@@iterator_range_detail@boost@@QEBA?AV?$_Vector_const_iterator@V?$_Vector_val@U?$_Simple_types@E@std@@@std@@@std@@XZ
	?end@?$vector@EV?$allocator@E@std@@@std@@QEAA?AV?$_Vector_iterator@V?$_Vector_val@U?$_Simple_types@E@std@@@std@@@2@XZ
	?end@?$vector@EV?$allocator@E@std@@@std@@QEBA?AV?$_Vector_const_iterator@V?$_Vector_val@U?$_Simple_types@E@std@@@std@@@2@XZ
	?end@?$vector@V?$basic_string@DU?$char_traits@D@std@@V?$allocator@D@2@@std@@V?$allocator@V?$basic_string@DU?$char_traits@D@std@@V?$allocator@D@2@@std@@@2@@std@@QEAA?AV?$_Vector_iterator@V?$_Vector_val@U?$_Simple_types@V?$basic_string@DU?$char_traits@D@std@@V?$allocator@D@2@@std@@@std@@@std@@@2@XZ
	?end@BufferPacket@vanetza@@QEBA?AV?$_Tree_const_iterator@V?$_Tree_val@U?$_Tree_simple_types@U?$pair@$$CBW4OsiLayer@vanetza@@V?$vector@EV?$allocator@E@std@@@std@@@std@@@std@@@std@@@std@@XZ
	?endian_reverse_impl@detail@endian@boost@@YAGG@Z
	?endian_reverse_impl@detail@endian@boost@@YAII@Z
	?eof@?$_Narrow_char_traits@DH@std@@SAHXZ
	?eof@?$split_iterator@V?$_String_const_iterator@V?$_String_val@U?$_Simple_types@D@std@@@std@@@std@@@algorithm@boost@@QEBA_NXZ
	?eq_int_type@?$_Narrow_char_traits@DH@std@@SA_NAEBH0@Z
	?equal@?$split_iterator@V?$_String_const_iterator@V?$_String_val@U?$_Simple_types@D@std@@@std@@@std@@@algorithm@boost@@AEBA_NAEBV123@@Z
	?equal@stl_type_index@typeindex@boost@@QEBA_NAEBV123@@Z
	?extract@ChunkPacket@vanetza@@QEAA?AV12@W4OsiLayer@2@0@Z
	?find@?$_Tree@V?$_Tmap_traits@W4OsiLayer@vanetza@@V?$vector@EV?$allocator@E@std@@@std@@U?$less@W4OsiLayer@vanetza@@@4@V?$allocator@U?$pair@$$CBW4OsiLayer@vanetza@@V?$vector@EV?$allocator@E@std@@@std@@@std@@@4@$0A@@std@@@std@@QEBA?AV?$_Tree_const_iterator@V?$_Tree_val@U?$_Tree_simple_types@U?$pair@$$CBW4OsiLayer@vanetza@@V?$vector@EV?$allocator@E@std@@@std@@@std@@@std@@@std@@@2@AEBW4OsiLayer@vanetza@@@Z
	?find@?$_Tree@V?$_Tmap_traits@W4OsiLayer@vanetza@@VByteBufferConvertible@2@U?$less@W4OsiLayer@vanetza@@@std@@V?$allocator@U?$pair@$$CBW4OsiLayer@vanetza@@VByteBufferConvertible@2@@std@@@5@$0A@@std@@@std@@QEBA?AV?$_Tree_const_iterator@V?$_Tree_val@U?$_Tree_simple_types@U?$pair@$$CBW4OsiLayer@vanetza@@VByteBufferConvertible@2@@std@@@std@@@std@@@2@AEBW4OsiLayer@vanetza@@@Z
	?front@?$array@V?$_Vector_iterator@V?$_Vector_val@U?$_Simple_types@E@std@@@std@@@std@@$07@std@@QEAAAEAV?$_Vector_iterator@V?$_Vector_val@U?$_Simple_types@E@std@@@std@@@2@XZ
	?front@?$array@V?$_Vector_iterator@V?$_Vector_val@U?$_Simple_types@E@std@@@std@@@std@@$07@std@@QEBAAEBV?$_Vector_iterator@V?$_Vector_val@U?$_Simple_types@E@std@@@std@@@2@XZ
	?get@?$backup_holder@VChunkPacket@vanetza@@@variant@detail@boost@@QEBAAEBVChunkPacket@vanetza@@XZ
	?get@?$refcount_ptr@Uerror_info_container@exception_detail@boost@@@exception_detail@boost@@QEBAPEAUerror_info_container@23@XZ
	?get@CohesivePacket@vanetza@@AEAA?AV?$iterator_range@V?$_Vector_iterator@V?$_Vector_val@U?$_Simple_types@E@std@@@std@@@std@@@boost@@I@Z
	?get@CohesivePacket@vanetza@@AEBA?AV?$iterator_range@V?$_Vector_const_iterator@V?$_Vector_val@U?$_Simple_types@E@std@@@std@@@std@@@boost@@I@Z
	?get_access_category@vanetza@@YA?AW4AccessCategory@access@1@AEBUProxyHeader@1@@Z
	?get_deleter@?$unique_ptr@Ubyte_buffer@convertible@vanetza@@U?$default_delete@Ubyte_buffer@convertible@vanetza@@@std@@@std@@QEAAAEAU?$default_delete@Ubyte_buffer@convertible@vanetza@@@2@XZ
	?get_deleter@?$unique_ptr@VChunkPacket@vanetza@@U?$default_delete@VChunkPacket@vanetza@@@std@@@std@@QEAAAEAU?$default_delete@VChunkPacket@vanetza@@@2@XZ
	?get_impl@?$optional_base@VMacAddress@vanetza@@@optional_detail@boost@@IEAAAEAVMacAddress@vanetza@@XZ
	?get_payload@vanetza@@YA?AV?$iterator_range@PEBE@boost@@AEBUProxyHeader@1@_K@Z
	?get_signal_power@vanetza@@YANAEBUProxyHeader@1@@Z
	?get_vtable@?$function2@V?$iterator_range@V?$_String_const_iterator@V?$_String_val@U?$_Simple_types@D@std@@@std@@@std@@@boost@@V?$_String_const_iterator@V?$_String_val@U?$_Simple_types@D@std@@@std@@@std@@V34@@boost@@AEBAPEAU?$basic_vtable2@V?$iterator_range@V?$_String_const_iterator@V?$_String_val@U?$_Simple_types@D@std@@@std@@@std@@@boost@@V?$_String_const_iterator@V?$_String_val@U?$_Simple_types@D@std@@@std@@@std@@V34@@function@detail@2@XZ
	?has_empty_target@function@detail@boost@@YA_NZZ
	?has_trivial_copy_and_destroy@function_base@boost@@QEBA_NXZ
	?hex@std@@YAAEAVios_base@1@AEAV21@@Z
	?host@?$EndianType@G$0A@@vanetza@@QEBAGXZ
	?increment@?$iterator_adaptor@V?$transform_iterator@U?$copy_iterator_rangeF@V?$basic_string@DU?$char_traits@D@std@@V?$allocator@D@2@@std@@V?$_String_const_iterator@V?$_String_val@U?$_Simple_types@D@std@@@std@@@2@@detail@algorithm@boost@@V?$split_iterator@V?$_String_const_iterator@V?$_String_val@U?$_Simple_types@D@std@@@std@@@std@@@34@Uuse_default@4@U64@@iterators@boost@@V?$split_iterator@V?$_String_const_iterator@V?$_String_val@U?$_Simple_types@D@std@@@std@@@std@@@algorithm@3@V?$basic_string@DU?$char_traits@D@std@@V?$allocator@D@2@@std@@Uuse_default@3@V67@U83@@iterators@boost@@AEAAXXZ
	?increment@?$split_iterator@V?$_String_const_iterator@V?$_String_val@U?$_Simple_types@D@std@@@std@@@std@@@algorithm@boost@@AEAAXXZ
	?invoke@?$function_obj_invoker2@U?$token_finderF@U?$is_any_ofF@D@detail@algorithm@boost@@@detail@algorithm@boost@@V?$iterator_range@V?$_String_const_iterator@V?$_String_val@U?$_Simple_types@D@std@@@std@@@std@@@4@V?$_String_const_iterator@V?$_String_val@U?$_Simple_types@D@std@@@std@@@std@@V67@@function@detail@boost@@SA?AV?$iterator_range@V?$_String_const_iterator@V?$_String_val@U?$_Simple_types@D@std@@@std@@@std@@@4@AEATfunction_buffer@234@V?$_String_const_iterator@V?$_String_val@U?$_Simple_types@D@std@@@std@@@std@@1@Z
	?is_char_ptr@range_detail@boost@@YA_NPEBD@Z
	?is_initialized@?$optional_base@VMacAddress@vanetza@@@optional_detail@boost@@QEBA_NXZ
	?is_null@?$find_iterator_base@V?$_String_const_iterator@V?$_String_val@U?$_Simple_types@D@std@@@std@@@std@@@detail@algorithm@boost@@IEBA_NXZ
	?key_comp@?$_Tree@V?$_Tmap_traits@W4OsiLayer@vanetza@@VByteBufferConvertible@2@U?$less@W4OsiLayer@vanetza@@@std@@V?$allocator@U?$pair@$$CBW4OsiLayer@vanetza@@VByteBufferConvertible@2@@std@@@5@$0A@@std@@@std@@QEBA?AU?$less@W4OsiLayer@vanetza@@@2@XZ
	?layer@ChunkPacket@vanetza@@QEAAAEAVByteBufferConvertible@2@W4OsiLayer@2@@Z
	?layer@ChunkPacket@vanetza@@QEBAAEBVByteBufferConvertible@2@W4OsiLayer@2@@Z
	?layer_index@vanetza@@YAIW4OsiLayer@1@@Z
	?length@?$_Narrow_char_traits@DH@std@@SA_KQEBD@Z
	?length@range_detail@boost@@YA_KPEBD@Z
	?manage@?$functor_manager@U?$token_finderF@U?$is_any_ofF@D@detail@algorithm@boost@@@detail@algorithm@boost@@@function@detail@boost@@SAXAEBTfunction_buffer@234@AEAT5234@W4functor_manager_operation_type@234@@Z
	?manage_small@?$functor_manager_common@U?$token_finderF@U?$is_any_ofF@D@detail@algorithm@boost@@@detail@algorithm@boost@@@function@detail@boost@@SAXAEBTfunction_buffer@234@AEAT5234@W4functor_manager_operation_type@234@@Z
	?manager@?$functor_manager@U?$token_finderF@U?$is_any_ofF@D@detail@algorithm@boost@@@detail@algorithm@boost@@@function@detail@boost@@CAXAEBTfunction_buffer@234@AEAT5234@W4functor_manager_operation_type@234@U?$integral_constant@_N$00@4@@Z
	?manager@?$functor_manager@U?$token_finderF@U?$is_any_ofF@D@detail@algorithm@boost@@@detail@algorithm@boost@@@function@detail@boost@@CAXAEBTfunction_buffer@234@AEAT5234@W4functor_manager_operation_type@234@Ufunction_obj_tag@234@@Z
	?max@?$numeric_limits@_J@std@@SA_JXZ
	?max_osi_layer@vanetza@@YA?AW4OsiLayer@1@XZ
	?max_size@?$_Default_allocator_traits@V?$allocator@D@std@@@std@@SA_KAEBV?$allocator@D@2@@Z
	?max_size@?$_Default_allocator_traits@V?$allocator@E@std@@@std@@SA_KAEBV?$allocator@E@2@@Z
	?max_size@?$_Default_allocator_traits@V?$allocator@U?$_Tree_node@U?$pair@$$CBW4OsiLayer@vanetza@@V?$vector@EV?$allocator@E@std@@@std@@@std@@PEAX@std@@@std@@@std@@SA_KAEBV?$allocator@U?$_Tree_node@U?$pair@$$CBW4OsiLayer@vanetza@@V?$vector@EV?$allocator@E@std@@@std@@@std@@PEAX@std@@@2@@Z
	?max_size@?$_Default_allocator_traits@V?$allocator@U?$_Tree_node@U?$pair@$$CBW4OsiLayer@vanetza@@VByteBufferConvertible@2@@std@@PEAX@std@@@std@@@std@@SA_KAEBV?$allocator@U?$_Tree_node@U?$pair@$$CBW4OsiLayer@vanetza@@VByteBufferConvertible@2@@std@@PEAX@std@@@2@@Z
	?max_size@?$_Default_allocator_traits@V?$allocator@V?$basic_string@DU?$char_traits@D@std@@V?$allocator@D@2@@std@@@std@@@std@@SA_KAEBV?$allocator@V?$basic_string@DU?$char_traits@D@std@@V?$allocator@D@2@@std@@@2@@Z
	?max_size@?$_Tree@V?$_Tmap_traits@W4OsiLayer@vanetza@@V?$vector@EV?$allocator@E@std@@@std@@U?$less@W4OsiLayer@vanetza@@@4@V?$allocator@U?$pair@$$CBW4OsiLayer@vanetza@@V?$vector@EV?$allocator@E@std@@@std@@@std@@@4@$0A@@std@@@std@@QEBA_KXZ
	?max_size@?$_Tree@V?$_Tmap_traits@W4OsiLayer@vanetza@@VByteBufferConvertible@2@U?$less@W4OsiLayer@vanetza@@@std@@V?$allocator@U?$pair@$$CBW4OsiLayer@vanetza@@VByteBufferConvertible@2@@std@@@5@$0A@@std@@@std@@QEBA_KXZ
	?max_size@?$basic_string@DU?$char_traits@D@std@@V?$allocator@D@2@@std@@QEBA_KXZ
	?max_size@?$vector@EV?$allocator@E@std@@@std@@QEBA_KXZ
	?max_size@?$vector@V?$basic_string@DU?$char_traits@D@std@@V?$allocator@D@2@@std@@V?$allocator@V?$basic_string@DU?$char_traits@D@std@@V?$allocator@D@2@@std@@@2@@std@@QEBA_KXZ
	?merge@ChunkPacket@vanetza@@QEAAAEAV12@AEAV12@W4OsiLayer@2@1@Z
	?min_osi_layer@vanetza@@YA?AW4OsiLayer@1@XZ
	?move@?$_Char_traits@DH@std@@SAPEADQEADQEBD_K@Z
	?osi_layer_range@vanetza@@YA?AV?$iterator_range@V?$_Array_const_iterator@W4OsiLayer@vanetza@@$06@std@@@boost@@W4OsiLayer@1@0@Z
	?parse_mac_address@vanetza@@YA?AV?$optional@VMacAddress@vanetza@@@boost@@AEBV?$basic_string@DU?$char_traits@D@std@@V?$allocator@D@2@@std@@@Z
	?parse_mac_address@vanetza@@YA_NAEBV?$basic_string@DU?$char_traits@D@std@@V?$allocator@D@2@@std@@AEAVMacAddress@1@@Z
	?pointer_to@?$pointer_traits@PEBU?$pair@$$CBW4OsiLayer@vanetza@@V?$vector@EV?$allocator@E@std@@@std@@@std@@@std@@SAPEBU?$pair@$$CBW4OsiLayer@vanetza@@V?$vector@EV?$allocator@E@std@@@std@@@2@AEBU32@@Z
	?pointer_to@?$pointer_traits@PEBU?$pair@$$CBW4OsiLayer@vanetza@@VByteBufferConvertible@2@@std@@@std@@SAPEBU?$pair@$$CBW4OsiLayer@vanetza@@VByteBufferConvertible@2@@2@AEBU32@@Z
	?ptr_ref@?$aligned_storage@VMacAddress@vanetza@@@optional_detail@boost@@QEAAPEAVMacAddress@vanetza@@XZ
	?push_back@?$vector@EV?$allocator@E@std@@@std@@QEAAX$$QEAE@Z
	?push_back@?$vector@EV?$allocator@E@std@@@std@@QEAAXAEBE@Z
	?rebuild_iterators@CohesivePacket@vanetza@@AEAAXAEBV12@@Z
	?ref@?$aligned_storage@VMacAddress@vanetza@@@optional_detail@boost@@QEAAAEAVMacAddress@vanetza@@XZ
	?release@?$refcount_ptr@Uerror_info_container@exception_detail@boost@@@exception_detail@boost@@AEAAXXZ
	?release@?$unique_ptr@Ubyte_buffer@convertible@vanetza@@U?$default_delete@Ubyte_buffer@convertible@vanetza@@@std@@@std@@QEAAPEAUbyte_buffer@convertible@vanetza@@XZ
	?release@?$unique_ptr@VChunkPacket@vanetza@@U?$default_delete@VChunkPacket@vanetza@@@std@@@std@@QEAAPEAVChunkPacket@vanetza@@XZ
	?reserve@?$vector@EV?$allocator@E@std@@@std@@QEAAX_K@Z
	?reset@?$optional_base@VMacAddress@vanetza@@@optional_detail@boost@@QEAAXAEBVMacAddress@vanetza@@@Z
	?reset@?$unique_ptr@Ubyte_buffer@convertible@vanetza@@U?$default_delete@Ubyte_buffer@convertible@vanetza@@@std@@@std@@QEAAXPEAUbyte_buffer@convertible@vanetza@@@Z
	?reset@?$unique_ptr@VChunkPacket@vanetza@@U?$default_delete@VChunkPacket@vanetza@@@std@@@std@@QEAAXPEAVChunkPacket@vanetza@@@Z
	?reset_iterators@CohesivePacket@vanetza@@AEAAXW4OsiLayer@2@@Z
	?restore@?$basic_ios_all_saver@DU?$char_traits@D@std@@@io@boost@@QEAAXXZ
	?rethrow@?$wrapexcept@Vbad_function_call@boost@@@boost@@UEBAXXZ
	?select_on_container_copy_construction@?$_Default_allocator_traits@V?$allocator@E@std@@@std@@SA?AV?$allocator@E@2@AEBV32@@Z
	?serialize@boost@@YAXAEAVOutputArchive@vanetza@@AEBV?$variant@VChunkPacket@vanetza@@VCohesivePacket@2@@1@@Z
	?serialize@vanetza@@YAXAEAVOutputArchive@1@AEBVChunkPacket@1@@Z
	?serialize@vanetza@@YAXAEAVOutputArchive@1@AEBVCohesivePacket@1@@Z
	?serialize@vanetza@@YAXAEAVOutputArchive@1@AEBVMacAddress@1@@Z
	?set_access_category@vanetza@@YAXAEAUProxyHeader@1@W4AccessCategory@access@1@@Z
	?set_boundary@CohesivePacket@vanetza@@QEAAXW4OsiLayer@2@I@Z
	?set_payload@vanetza@@YAXAEAUProxyHeader@1@_K@Z
	?set_signal_power@vanetza@@YAXAEAUProxyHeader@1@N@Z
	?size@?$array@E$05@std@@QEBA_KXZ
	?size@?$array@V?$_Vector_iterator@V?$_Vector_val@U?$_Simple_types@E@std@@@std@@@std@@$07@std@@QEBA_KXZ
	?size@?$basic_string@DU?$char_traits@D@std@@V?$allocator@D@2@@std@@QEBA_KXZ
	?size@?$byte_buffer_impl@$$T@convertible@vanetza@@UEBA_KXZ
	?size@?$byte_buffer_impl@V?$vector@EV?$allocator@E@std@@@std@@@convertible@vanetza@@UEBA_KXZ
	?size@?$initializer_list@E@std@@QEBA_KXZ
	?size@?$iterator_range_base@V?$_Vector_const_iterator@V?$_Vector_val@U?$_Simple_types@E@std@@@std@@@std@@Urandom_access_traversal_tag@iterators@boost@@@iterator_range_detail@boost@@QEBA_KXZ
	?size@?$iterator_range_base@V?$_Vector_iterator@V?$_Vector_val@U?$_Simple_types@E@std@@@std@@@std@@Urandom_access_traversal_tag@iterators@boost@@@iterator_range_detail@boost@@QEBA_KXZ
	?size@?$vector@EV?$allocator@E@std@@@std@@QEBA_KXZ
	?size@?$vector@V?$basic_string@DU?$char_traits@D@std@@V?$allocator@D@2@@std@@V?$allocator@V?$basic_string@DU?$char_traits@D@std@@V?$allocator@D@2@@std@@@2@@std@@QEBA_KXZ
	?size@BufferPacket@vanetza@@QEBA_KXZ
	?size@ByteBufferConvertible@vanetza@@QEBA_KXZ
	?size@ChunkPacket@vanetza@@QEBA_KW4OsiLayer@2@0@Z
	?size@ChunkPacket@vanetza@@QEBA_KXZ
	?size@CohesivePacket@vanetza@@QEBA_KW4OsiLayer@2@0@Z
	?size@CohesivePacket@vanetza@@QEBA_KW4OsiLayer@2@@Z
	?size@CohesivePacket@vanetza@@QEBA_KXZ
	?size@boost@@YA_KAEBV?$variant@VChunkPacket@vanetza@@VCohesivePacket@2@@1@@Z
	?size@boost@@YA_KAEBV?$variant@VChunkPacket@vanetza@@VCohesivePacket@2@@1@W4OsiLayer@vanetza@@1@Z
	?size@boost@@YA_KAEBV?$variant@VChunkPacket@vanetza@@VCohesivePacket@2@@1@W4OsiLayer@vanetza@@@Z
	?size@vanetza@@YA_KAEBVChunkPacket@1@W4OsiLayer@1@1@Z
	?size@vanetza@@YA_KAEBVChunkPacket@1@W4OsiLayer@1@@Z
	?size@vanetza@@YA_KAEBVCohesivePacket@1@W4OsiLayer@1@1@Z
	?size@vanetza@@YA_KAEBVCohesivePacket@1@W4OsiLayer@1@@Z
	?swap@?$_Tree@V?$_Tmap_traits@W4OsiLayer@vanetza@@VByteBufferConvertible@2@U?$less@W4OsiLayer@vanetza@@@std@@V?$allocator@U?$pair@$$CBW4OsiLayer@vanetza@@VByteBufferConvertible@2@@std@@@5@$0A@@std@@@std@@QEAAXAEAV12@@Z
	?swap@?$map@W4OsiLayer@vanetza@@VByteBufferConvertible@2@U?$less@W4OsiLayer@vanetza@@@std@@V?$allocator@U?$pair@$$CBW4OsiLayer@vanetza@@VByteBufferConvertible@2@@std@@@5@@std@@QEAAXAEAV12@@Z
	?swap@?$vector@EV?$allocator@E@std@@@std@@QEAAXAEAV12@@Z
	?swap@?$vector@V?$basic_string@DU?$char_traits@D@std@@V?$allocator@D@2@@std@@V?$allocator@V?$basic_string@DU?$char_traits@D@std@@V?$allocator@D@2@@std@@@2@@std@@QEAAXAEAV12@@Z
	?swap@BufferPacket@vanetza@@QEAAXW4OsiLayer@2@AEAV?$vector@EV?$allocator@E@std@@@std@@@Z
	?throw_exception_assert_compatibility@boost@@YAXAEBVexception@std@@@Z
	?trim@CohesivePacket@vanetza@@QEAAXW4OsiLayer@2@I@Z
	?type_info@stl_type_index@typeindex@boost@@QEBAAEBV0@XZ
	?use_fixed_storage@?$is_any_ofF@D@detail@algorithm@boost@@CA_N_K@Z
	?using_backup@?$variant@VChunkPacket@vanetza@@VCohesivePacket@2@@boost@@AEBA_NXZ
	?what@exception@std@@UEBAPEBDXZ
	?which@?$variant@VChunkPacket@vanetza@@VCohesivePacket@2@@boost@@QEBAHXZ
	wmemcpy
